 jqs_plugin

 Timestamp is 4cfaee69 (Sat Dec 04 17:44:09 2010)

 Preferred load address is 10000000

 Start         Length     Name                   Class
 0001:00000000 00017d77H .text                   CODE
 0001:00017d80 00000776H .text$x                 CODE
 0001:00018500 000002b1H .text$yc                CODE
 0001:000187c0 000001a4H .text$yd                CODE
 0002:00000000 00000290H .idata$5                DATA
 0002:00000290 00004238H .rdata                  DATA
 0002:000044c8 0000006cH .rdata$debug            DATA
 0002:00004534 0000013cH .rdata$r                DATA
 0002:00004670 00000004H .rtc$IAA                DATA
 0002:00004674 00000020H .rtc$IMZ                DATA
 0002:00004694 00000004H .rtc$IZZ                DATA
 0002:00004698 00000004H .rtc$TAA                DATA
 0002:0000469c 00000020H .rtc$TMZ                DATA
 0002:000046bc 00000004H .rtc$TZZ                DATA
 0002:000046c0 00000e2cH .xdata$x                DATA
 0002:000054ec 00000004H ATL$__a                 DATA
 0002:000054f0 00000004H ATL$__m                 DATA
 0002:000054f4 00000004H ATL$__z                 DATA
 0002:000054f8 000000a0H .idata$2                DATA
 0002:00005598 00000014H .idata$3                DATA
 0002:000055ac 00000290H .idata$4                DATA
 0002:0000583c 0000090eH .idata$6                DATA
 0002:00006150 000000a7H .edata                  DATA
 0003:00000000 00000004H .CRT$XCA                DATA
 0003:00000004 00000004H .CRT$XCAA               DATA
 0003:00000008 00000008H .CRT$XCL                DATA
 0003:00000010 00000034H .CRT$XCU                DATA
 0003:00000044 00000004H .CRT$XCZ                DATA
 0003:00000048 00000004H .CRT$XIA                DATA
 0003:0000004c 00000004H .CRT$XIZ                DATA
 0003:00000050 00000918H .data                   DATA
 0003:00000968 0000034cH .bss                    DATA
 0004:00000000 00000184H .rsrc$01                DATA
 0004:00000190 00000fe8H .rsrc$02                DATA

  Address         Publics by Value              Rva+Base     Lib:Object

 0000:00000000       ___safe_se_handler_table   00000000     <absolute>
 0000:00000000       ___safe_se_handler_count   00000000     <absolute>
 0000:00000000       __except_list              00000000     <absolute>
 0000:00009876       __fltused                  00009876     <absolute>
 0000:00009876       __ldused                   00009876     <absolute>
 0000:00000000       ___ImageBase               10000000     <linker-defined>
 0001:00000000       ?roundUp@@YAIII@Z          10001000 f   utils.obj
 0001:00000040       ?roundUp64@@YA_K_KI@Z      10001040 f   utils.obj
 0001:000000b0       ?roundDown64@@YA_K_KI@Z    100010b0 f   utils.obj
 0001:00000110       ?trim@@YA?AV?$basic_string@DU?$char_traits@D@std@@V?$allocator@D@2@@std@@ABV12@@Z 10001110 f   utils.obj
 0001:00000200       ?tolowercase@@YA?AV?$basic_string@DU?$char_traits@D@std@@V?$allocator@D@2@@std@@ABV12@@Z 10001200 f   utils.obj
 0001:00000330       ?getline@@YA_NPAU_iobuf@@AAV?$basic_string@DU?$char_traits@D@std@@V?$allocator@D@2@@std@@@Z 10001330 f   utils.obj
 0001:00000450       ??0?$basic_string@DU?$char_traits@D@std@@V?$allocator@D@2@@std@@QAE@ABV01@@Z 10001450 f i utils.obj
 0001:000004c0       ??0?$basic_string@DU?$char_traits@D@std@@V?$allocator@D@2@@std@@QAE@PBD@Z 100014c0 f i utils.obj
 0001:00000530       ??1?$basic_string@DU?$char_traits@D@std@@V?$allocator@D@2@@std@@QAE@XZ 10001530 f i utils.obj
 0001:00000580       ??Y?$basic_string@DU?$char_traits@D@std@@V?$allocator@D@2@@std@@QAEAAV01@PBD@Z 10001580 f i utils.obj
 0001:000005d0       ?erase@?$basic_string@DU?$char_traits@D@std@@V?$allocator@D@2@@std@@QAEAAV12@II@Z 100015d0 f i utils.obj
 0001:00000690       ?move@?$char_traits@D@std@@SAPADPADPBDI@Z 10001690 f i utils.obj
 0001:000006e0       ?clear@?$basic_string@DU?$char_traits@D@std@@V?$allocator@D@2@@std@@QAEXXZ 100016e0 f i utils.obj
 0001:00000750       ??A?$basic_string@DU?$char_traits@D@std@@V?$allocator@D@2@@std@@QAEAADI@Z 10001750 f i utils.obj
 0001:000007a0       ?length@?$basic_string@DU?$char_traits@D@std@@V?$allocator@D@2@@std@@QBEIXZ 100017a0 f i utils.obj
 0001:000007d0       ?find_first_not_of@?$basic_string@DU?$char_traits@D@std@@V?$allocator@D@2@@std@@QBEIPBDI@Z 100017d0 f i utils.obj
 0001:00000830       ?length@?$char_traits@D@std@@SAIPBD@Z 10001830 f i utils.obj
 0001:00000870       ?find_last_not_of@?$basic_string@DU?$char_traits@D@std@@V?$allocator@D@2@@std@@QBEIPBDI@Z 10001870 f i utils.obj
 0001:000008d0       ?substr@?$basic_string@DU?$char_traits@D@std@@V?$allocator@D@2@@std@@QBE?AV12@II@Z 100018d0 f i utils.obj
 0001:00000940       ??0?$basic_string@DU?$char_traits@D@std@@V?$allocator@D@2@@std@@QAE@ABV01@II@Z 10001940 f i utils.obj
 0001:000009b0       ?append@?$basic_string@DU?$char_traits@D@std@@V?$allocator@D@2@@std@@QAEAAV12@PBD@Z 100019b0 f i utils.obj
 0001:00000a10       ?assign@?$basic_string@DU?$char_traits@D@std@@V?$allocator@D@2@@std@@QAEAAV12@ABV12@II@Z 10001a10 f i utils.obj
 0001:00000af0       ?copy@?$char_traits@D@std@@SAPADPADPBDI@Z 10001af0 f i utils.obj
 0001:00000b40       ?size@?$basic_string@DU?$char_traits@D@std@@V?$allocator@D@2@@std@@QBEIXZ 10001b40 f i utils.obj
 0001:00000b70       ?assign@?$basic_string@DU?$char_traits@D@std@@V?$allocator@D@2@@std@@QAEAAV12@PBD@Z 10001b70 f i utils.obj
 0001:00000bd0       ?erase@?$basic_string@DU?$char_traits@D@std@@V?$allocator@D@2@@std@@QAE?AViterator@12@V312@0@Z 10001bd0 f i utils.obj
 0001:00000c90       ?begin@?$basic_string@DU?$char_traits@D@std@@V?$allocator@D@2@@std@@QAE?AViterator@12@XZ 10001c90 f i utils.obj
 0001:00000ce0       ?end@?$basic_string@DU?$char_traits@D@std@@V?$allocator@D@2@@std@@QAE?AViterator@12@XZ 10001ce0 f i utils.obj
 0001:00000d40       ?find_first_not_of@?$basic_string@DU?$char_traits@D@std@@V?$allocator@D@2@@std@@QBEIPBDII@Z 10001d40 f i utils.obj
 0001:00000df0       ?find@?$char_traits@D@std@@SAPBDPBDIABD@Z 10001df0 f i utils.obj
 0001:00000e50       ?find_last_not_of@?$basic_string@DU?$char_traits@D@std@@V?$allocator@D@2@@std@@QBEIPBDII@Z 10001e50 f i utils.obj
 0001:00000f20       ?_Eos@?$basic_string@DU?$char_traits@D@std@@V?$allocator@D@2@@std@@IAEXI@Z 10001f20 f i utils.obj
 0001:00000f90       ?assign@?$char_traits@D@std@@SAXAADABD@Z 10001f90 f i utils.obj
 0001:00000fc0       ?_Tidy@?$basic_string@DU?$char_traits@D@std@@V?$allocator@D@2@@std@@IAEX_NI@Z 10001fc0 f i utils.obj
 0001:00001060       ?_Myptr@?$basic_string@DU?$char_traits@D@std@@V?$allocator@D@2@@std@@QAEPADXZ 10002060 f i utils.obj
 0001:000010c0       ?_Myptr@?$basic_string@DU?$char_traits@D@std@@V?$allocator@D@2@@std@@QBEPBDXZ 100020c0 f i utils.obj
 0001:00001120       ??0?$_String_val@DV?$allocator@D@std@@@std@@IAE@V?$allocator@D@1@@Z 10002120 f i utils.obj
 0001:00001170       ??0?$allocator@D@std@@QAE@XZ 10002170 f i utils.obj
 0001:000011a0       ??0?$allocator@D@std@@QAE@ABV01@@Z 100021a0 f i utils.obj
 0001:000011d0       ?deallocate@?$allocator@D@std@@QAEXPADI@Z 100021d0 f i utils.obj
 0001:00001220       ?append@?$basic_string@DU?$char_traits@D@std@@V?$allocator@D@2@@std@@QAEAAV12@PBDI@Z 10002220 f i utils.obj
 0001:00001300       ?assign@?$basic_string@DU?$char_traits@D@std@@V?$allocator@D@2@@std@@QAEAAV12@PBDI@Z 10002300 f i utils.obj
 0001:000013b0       ?_Grow@?$basic_string@DU?$char_traits@D@std@@V?$allocator@D@2@@std@@IAE_NI_N@Z 100023b0 f i utils.obj
 0001:00001480       ?_Pdif@?$basic_string@DU?$char_traits@D@std@@V?$allocator@D@2@@std@@KAIVconst_iterator@12@0@Z 10002480 f i utils.obj
 0001:000014e0       ??0iterator@?$basic_string@DU?$char_traits@D@std@@V?$allocator@D@2@@std@@QAE@PAD@Z 100024e0 f i utils.obj
 0001:00001530       ?append@?$basic_string@DU?$char_traits@D@std@@V?$allocator@D@2@@std@@QAEAAV12@ABV12@II@Z 10002530 f i utils.obj
 0001:00001610       ?max_size@?$basic_string@DU?$char_traits@D@std@@V?$allocator@D@2@@std@@QBEIXZ 10002610 f i utils.obj
 0001:00001680       ?_Copy@?$basic_string@DU?$char_traits@D@std@@V?$allocator@D@2@@std@@IAEXII@Z 10002680 f i utils.obj
 0001:00001810       ?allocate@?$allocator@D@std@@QAEPADI@Z 10002810 f i utils.obj
 0001:00001860       ?_Inside@?$basic_string@DU?$char_traits@D@std@@V?$allocator@D@2@@std@@IAE_NPBD@Z 10002860 f i utils.obj
 0001:000018c0       ??0const_iterator@?$basic_string@DU?$char_traits@D@std@@V?$allocator@D@2@@std@@QAE@PBD@Z 100028c0 f i utils.obj
 0001:00001900       ??Gconst_iterator@?$basic_string@DU?$char_traits@D@std@@V?$allocator@D@2@@std@@QBEHABV012@@Z 10002900 f i utils.obj
 0001:00001940       ?max_size@?$allocator@D@std@@QBEIXZ 10002940 f i utils.obj
 0001:000019a0       ??$_Allocate@D@std@@YAPADIPAD@Z 100029a0 f i utils.obj
 0001:000019e0       ??0?$basic_string@DU?$char_traits@D@std@@V?$allocator@D@2@@std@@QAE@XZ 100029e0 f i utils.obj
 0001:00001a40       ??0id@locale@std@@QAE@I@Z  10002a40 f i utils.obj
 0001:00001a80       ??0Thread@@QAE@XZ          10002a80 f   thread.obj
 0001:00001ac0       ??_EThread@@UAEPAXI@Z      10002ac0 f i thread.obj
 0001:00001ac0       ??_GThread@@UAEPAXI@Z      10002ac0 f i thread.obj
 0001:00001b20       ??1Thread@@UAE@XZ          10002b20 f   thread.obj
 0001:00001b90       ?start@Thread@@UAE_NXZ     10002b90 f   thread.obj
 0001:00001d60       ?waitToFinish@Thread@@QAEXXZ 10002d60 f   thread.obj
 0001:00001de0       ?initSocketLibrary@@YAXXZ  10002de0 f   sockets.obj
 0001:00001e90       ?cleanupSocketLibrary@@YAXXZ 10002e90 f   sockets.obj
 0001:00001ee0       ??0SocketEvent@@QAE@XZ     10002ee0 f   sockets.obj
 0001:00001f70       ??0SocketException@@QAE@PBD@Z 10002f70 f i sockets.obj
 0001:00001fd0       ??1SocketException@@QAE@XZ 10002fd0 f i sockets.obj
 0001:00002010       ??_ESocketEvent@@UAEPAXI@Z 10003010 f i sockets.obj
 0001:00002010       ??_GSocketEvent@@UAEPAXI@Z 10003010 f i sockets.obj
 0001:00002070       ??0SocketException@@QAE@ABV0@@Z 10003070 f i sockets.obj
 0001:000020d0       ??1SocketEvent@@UAE@XZ     100030d0 f   sockets.obj
 0001:00002130       ?getEvent@SocketEvent@@QBEPAXXZ 10003130 f   sockets.obj
 0001:00002160       ?wait@SocketEvent@@QAEXI@Z 10003160 f   sockets.obj
 0001:00002280       ??0TimeoutException@@QAE@XZ 10003280 f i sockets.obj
 0001:000022d0       ??1TimeoutException@@QAE@XZ 100032d0 f i sockets.obj
 0001:00002310       ??0TimeoutException@@QAE@ABV0@@Z 10003310 f i sockets.obj
 0001:00002360       ?reset@SocketEvent@@QAEXXZ 10003360 f   sockets.obj
 0001:000023e0       ?signal@SocketEvent@@QAEXXZ 100033e0 f   sockets.obj
 0001:00002460       ??0Socket@@QAE@XZ          10003460 f   sockets.obj
 0001:00002540       ??_ESocket@@UAEPAXI@Z      10003540 f i sockets.obj
 0001:00002540       ??_GSocket@@UAEPAXI@Z      10003540 f i sockets.obj
 0001:000025a0       ??0Socket@@QAE@I@Z         100035a0 f   sockets.obj
 0001:00002670       ??1Socket@@UAE@XZ          10003670 f   sockets.obj
 0001:000026e0       ?bind@Socket@@QAEXPAUsockaddr_in@@@Z 100036e0 f   sockets.obj
 0001:000027a0       ??0AddressAlreadyInUseException@@QAE@XZ 100037a0 f i sockets.obj
 0001:000027f0       ??0SocketException@@QAE@XZ 100037f0 f i sockets.obj
 0001:00002840       ??1AddressAlreadyInUseException@@QAE@XZ 10003840 f i sockets.obj
 0001:00002880       ??0AddressAlreadyInUseException@@QAE@ABV0@@Z 10003880 f i sockets.obj
 0001:000028d0       ?listen@Socket@@QAEXXZ     100038d0 f   sockets.obj
 0001:00002950       ?accept@Socket@@QAEPAVConnection@@XZ 10003950 f   sockets.obj
 0001:00002b40       ?connect@Socket@@QAEXPAUsockaddr_in@@@Z 10003b40 f   sockets.obj
 0001:00002c00       ??0ConnectionRefusedException@@QAE@XZ 10003c00 f i sockets.obj
 0001:00002c50       ??1ConnectionRefusedException@@QAE@XZ 10003c50 f i sockets.obj
 0001:00002c90       ??0ConnectionRefusedException@@QAE@ABV0@@Z 10003c90 f i sockets.obj
 0001:00002ce0       ?send@Socket@@QAEXPBDH@Z   10003ce0 f   sockets.obj
 0001:00002d90       ?recv@Socket@@QAEHPADH@Z   10003d90 f   sockets.obj
 0001:00002e70       ??0SocketClosedException@@QAE@XZ 10003e70 f i sockets.obj
 0001:00002ec0       ??1SocketClosedException@@QAE@XZ 10003ec0 f i sockets.obj
 0001:00002f00       ??0SocketClosedException@@QAE@ABV0@@Z 10003f00 f i sockets.obj
 0001:00002f50       ?getLocalAddress@Socket@@QAEXPAUsockaddr_in@@@Z 10003f50 f   sockets.obj
 0001:00003010       ?select@Socket@@QAE_NW4socket_status@1@@Z 10004010 f   sockets.obj
 0001:00003060       ?select@Socket@@QAE_NW4socket_status@1@H@Z 10004060 f   sockets.obj
 0001:00003240       ?eventSelect@Socket@@QAEXJ@Z 10004240 f   sockets.obj
 0001:000032d0       ?setTimeout@Socket@@QAEXH@Z 100042d0 f   sockets.obj
 0001:00003310       ?wait@Socket@@QAEXH@Z      10004310 f   sockets.obj
 0001:000033b0       ??0InterruptedException@@QAE@XZ 100043b0 f i sockets.obj
 0001:00003400       ??1InterruptedException@@QAE@XZ 10004400 f i sockets.obj
 0001:00003440       ??0InterruptedException@@QAE@ABV0@@Z 10004440 f i sockets.obj
 0001:00003490       ?interrupt@Socket@@QAEXXZ  10004490 f   sockets.obj
 0001:000034e0       ??0Connection@@QAE@H@Z     100044e0 f   sockets.obj
 0001:000035e0       ??_EConnection@@UAEPAXI@Z  100045e0 f i sockets.obj
 0001:000035e0       ??_GConnection@@UAEPAXI@Z  100045e0 f i sockets.obj
 0001:00003640       ??1Connection@@UAE@XZ      10004640 f i sockets.obj
 0001:00003690       ??0Connection@@QAE@I@Z     10004690 f   sockets.obj
 0001:00003720       ?sendMessage@Connection@@QAEXABV?$vector@DV?$allocator@D@std@@@std@@@Z 10004720 f   sockets.obj
 0001:00003780       ?receiveMessage@Connection@@QAEXAAV?$vector@DV?$allocator@D@std@@@std@@@Z 10004780 f   sockets.obj
 0001:000038b0       ??0ServerSocket@@QAE@H@Z   100048b0 f   sockets.obj
 0001:000039c0       ??_GServerSocket@@UAEPAXI@Z 100049c0 f i sockets.obj
 0001:000039c0       ??_EServerSocket@@UAEPAXI@Z 100049c0 f i sockets.obj
 0001:00003a20       ??1ServerSocket@@UAE@XZ    10004a20 f i sockets.obj
 0001:00003a70       ??0?$vector@DV?$allocator@D@std@@@std@@QAE@I@Z 10004a70 f i sockets.obj
 0001:00003ae0       ??1?$vector@DV?$allocator@D@std@@@std@@QAE@XZ 10004ae0 f i sockets.obj
 0001:00003b20       ?begin@?$vector@DV?$allocator@D@std@@@std@@QAE?AViterator@12@XZ 10004b20 f i sockets.obj
 0001:00003b70       ?end@?$vector@DV?$allocator@D@std@@@std@@QAE?AViterator@12@XZ 10004b70 f i sockets.obj
 0001:00003bc0       ?size@?$vector@DV?$allocator@D@std@@@std@@QBEIXZ 10004bc0 f i sockets.obj
 0001:00003c20       ??A?$vector@DV?$allocator@D@std@@@std@@QBEABDI@Z 10004c20 f i sockets.obj
 0001:00003c90       ??A?$vector@DV?$allocator@D@std@@@std@@QAEAADI@Z 10004c90 f i sockets.obj
 0001:00003d00       ??Hiterator@?$vector@DV?$allocator@D@std@@@std@@QBE?AV012@H@Z 10004d00 f i sockets.obj
 0001:00003d90       ?_Construct_n@?$vector@DV?$allocator@D@std@@@std@@QAEXIABD@Z 10004d90 f i sockets.obj
 0001:00003e50       ?begin@?$vector@DV?$allocator@D@std@@@std@@QBE?AVconst_iterator@12@XZ 10004e50 f i sockets.obj
 0001:00003ea0       ?_Tidy@?$vector@DV?$allocator@D@std@@@std@@IAEXXZ 10004ea0 f i sockets.obj
 0001:00003f30       ??0?$_Vector_val@DV?$allocator@D@std@@@std@@IAE@V?$allocator@D@1@@Z 10004f30 f i sockets.obj
 0001:00003f80       ??0iterator@?$vector@DV?$allocator@D@std@@@std@@QAE@PAD@Z 10004f80 f i sockets.obj
 0001:00003fd0       ??Diterator@?$vector@DV?$allocator@D@std@@@std@@QBEAADXZ 10004fd0 f i sockets.obj
 0001:00004010       ??Yiterator@?$vector@DV?$allocator@D@std@@@std@@QAEAAV012@H@Z 10005010 f i sockets.obj
 0001:00004050       ??Dconst_iterator@?$vector@DV?$allocator@D@std@@@std@@QBEABDXZ 10005050 f i sockets.obj
 0001:00004080       ??Hconst_iterator@?$vector@DV?$allocator@D@std@@@std@@QBE?AV012@H@Z 10005080 f i sockets.obj
 0001:00004110       ?_Buy@?$vector@DV?$allocator@D@std@@@std@@IAE_NI@Z 10005110 f i sockets.obj
 0001:000041c0       ?_Destroy@?$vector@DV?$allocator@D@std@@@std@@IAEXPAD0@Z 100051c0 f i sockets.obj
 0001:00004210       ?_Ufill@?$vector@DV?$allocator@D@std@@@std@@IAEPADPADIABD@Z 10005210 f i sockets.obj
 0001:00004270       ??0const_iterator@?$vector@DV?$allocator@D@std@@@std@@QAE@PAD@Z 10005270 f i sockets.obj
 0001:000042b0       ??Yconst_iterator@?$vector@DV?$allocator@D@std@@@std@@QAEAAV012@H@Z 100052b0 f i sockets.obj
 0001:000042f0       ?max_size@?$vector@DV?$allocator@D@std@@@std@@QBEIXZ 100052f0 f i sockets.obj
 0001:00004330       ?_Xlen@?$vector@DV?$allocator@D@std@@@std@@IBEXXZ 10005330 f i sockets.obj
 0001:000043c0       ??0length_error@std@@QAE@ABV?$basic_string@DU?$char_traits@D@std@@V?$allocator@D@2@@1@@Z 100053c0 f i sockets.obj
 0001:00004420       ??0logic_error@std@@QAE@ABV?$basic_string@DU?$char_traits@D@std@@V?$allocator@D@2@@1@@Z 10005420 f i sockets.obj
 0001:000044c0       ?what@logic_error@std@@UBEPBDXZ 100054c0 f i sockets.obj
 0001:00004510       ??_Glogic_error@std@@UAEPAXI@Z 10005510 f i sockets.obj
 0001:00004510       ??_Elogic_error@std@@UAEPAXI@Z 10005510 f i sockets.obj
 0001:00004570       ??1logic_error@std@@UAE@XZ 10005570 f i sockets.obj
 0001:00004600       ??1length_error@std@@UAE@XZ 10005600 f i sockets.obj
 0001:00004650       ??_Elength_error@std@@UAEPAXI@Z 10005650 f i sockets.obj
 0001:00004650       ??_Glength_error@std@@UAEPAXI@Z 10005650 f i sockets.obj
 0001:000046b0       ?c_str@?$basic_string@DU?$char_traits@D@std@@V?$allocator@D@2@@std@@QBEPBDXZ 100056b0 f i sockets.obj
 0001:000046f0       ??0length_error@std@@QAE@ABV01@@Z 100056f0 f i sockets.obj
 0001:00004750       ??0logic_error@std@@QAE@ABV01@@Z 10005750 f i sockets.obj
 0001:000047f0       ??$insert@Viterator@?$vector@DV?$allocator@D@std@@@std@@@?$vector@DV?$allocator@D@std@@@std@@QAEXViterator@01@00@Z 100057f0 f i sockets.obj
 0001:00004860       ??$_Destroy_range@DV?$allocator@D@std@@@std@@YAXPAD0AAV?$allocator@D@0@@Z 10005860 f i sockets.obj
 0001:000048d0       ?_Ptr_cat@std@@YA?AU_Scalar_ptr_iterator_tag@1@PAD0@Z 100058d0 f i sockets.obj
 0001:00004930       ??$_Uninitialized_fill_n@PADIDV?$allocator@D@std@@@std@@YAXPADIABDAAV?$allocator@D@0@@Z 10005930 f i sockets.obj
 0001:000049a0       ??$_Iter_cat@Viterator@?$vector@DV?$allocator@D@std@@@std@@@std@@YA?AUrandom_access_iterator_tag@0@ABViterator@?$vector@DV?$allocator@D@std@@@0@@Z 100059a0 f i sockets.obj
 0001:00004a00       ??$_Insert@Viterator@?$vector@DV?$allocator@D@std@@@std@@@?$vector@DV?$allocator@D@std@@@std@@QAEXViterator@01@00Uforward_iterator_tag@1@@Z 10005a00 f i sockets.obj
 0001:00004db0       ??$_Destroy_range@DV?$allocator@D@std@@@std@@YAXPAD0AAV?$allocator@D@0@U_Scalar_ptr_iterator_tag@0@@Z 10005db0 f i sockets.obj
 0001:00004de0       ??$_Uninit_fill_n@DID@std@@YAXPADIABDAAV?$allocator@D@0@U_Scalar_ptr_iterator_tag@0@@Z 10005de0 f i sockets.obj
 0001:00004e30       ?capacity@?$vector@DV?$allocator@D@std@@@std@@QBEIXZ 10005e30 f i sockets.obj
 0001:00004e90       ??Giterator@?$vector@DV?$allocator@D@std@@@std@@QBEHABVconst_iterator@12@@Z 10005e90 f i sockets.obj
 0001:00004ef0       ??Gconst_iterator@?$vector@DV?$allocator@D@std@@@std@@QBEHABV012@@Z 10005ef0 f i sockets.obj
 0001:00004f30       ??$_Distance@Viterator@?$vector@DV?$allocator@D@std@@@std@@I@std@@YAXViterator@?$vector@DV?$allocator@D@std@@@0@0AAI@Z 10005f30 f i sockets.obj
 0001:00004f90       ??$_Ucopy@PAD@?$vector@DV?$allocator@D@std@@@std@@IAEPADPAD00@Z 10005f90 f i sockets.obj
 0001:00004ff0       ??$_Ucopy@Viterator@?$vector@DV?$allocator@D@std@@@std@@@?$vector@DV?$allocator@D@std@@@std@@IAEPADViterator@01@0PAD@Z 10005ff0 f i sockets.obj
 0001:00005050       ??$advance@Viterator@?$vector@DV?$allocator@D@std@@@std@@H@std@@YAXAAViterator@?$vector@DV?$allocator@D@std@@@0@H@Z 10006050 f i sockets.obj
 0001:000050b0       ??$copy@Viterator@?$vector@DV?$allocator@D@std@@@std@@PAD@std@@YAPADViterator@?$vector@DV?$allocator@D@std@@@0@0PAD@Z 100060b0 f i sockets.obj
 0001:00005120       ??$copy_backward@PADPAD@std@@YAPADPAD00@Z 10006120 f i sockets.obj
 0001:00005190       ??$fill_n@PADID@std@@YAXPADIABD@Z 10006190 f i sockets.obj
 0001:000051e0       ??$_Distance2@Viterator@?$vector@DV?$allocator@D@std@@@std@@I@std@@YAXViterator@?$vector@DV?$allocator@D@std@@@0@0AAIUrandom_access_iterator_tag@0@@Z 100061e0 f i sockets.obj
 0001:00005230       ??$_Uninitialized_copy@PADPADV?$allocator@D@std@@@std@@YAPADPAD00AAV?$allocator@D@0@@Z 10006230 f i sockets.obj
 0001:000052a0       ??$_Uninitialized_copy@Viterator@?$vector@DV?$allocator@D@std@@@std@@PADV?$allocator@D@3@@std@@YAPADViterator@?$vector@DV?$allocator@D@std@@@0@0PADAAV?$allocator@D@0@@Z 100062a0 f i sockets.obj
 0001:00005310       ??$_Advance@Viterator@?$vector@DV?$allocator@D@std@@@std@@H@std@@YAXAAViterator@?$vector@DV?$allocator@D@std@@@0@HUrandom_access_iterator_tag@0@@Z 10006310 f i sockets.obj
 0001:00005350       ??$_Ptr_cat@Viterator@?$vector@DV?$allocator@D@std@@@std@@PAD@std@@YA?AU_Nonscalar_ptr_iterator_tag@0@AAViterator@?$vector@DV?$allocator@D@std@@@0@AAPAD@Z 10006350 f i sockets.obj
 0001:000053b0       ??$_Copy_opt@Viterator@?$vector@DV?$allocator@D@std@@@std@@PAD@std@@YAPADViterator@?$vector@DV?$allocator@D@std@@@0@0PADU_Nonscalar_ptr_iterator_tag@0@@Z 100063b0 f i sockets.obj
 0001:00005420       ??$_Copy_backward_opt@PADPAD@std@@YAPADPAD00U_Scalar_ptr_iterator_tag@0@@Z 10006420 f i sockets.obj
 0001:00005480       ??Eiterator@?$vector@DV?$allocator@D@std@@@std@@QAEAAV012@XZ 10006480 f i sockets.obj
 0001:000054c0       ??9const_iterator@?$vector@DV?$allocator@D@std@@@std@@QBE_NABV012@@Z 100064c0 f i sockets.obj
 0001:00005510       ??8const_iterator@?$vector@DV?$allocator@D@std@@@std@@QBE_NABV012@@Z 10006510 f i sockets.obj
 0001:00005550       ??$_Uninit_copy@DD@std@@YAPADPAD00AAV?$allocator@D@0@U_Scalar_ptr_iterator_tag@0@@Z 10006550 f i sockets.obj
 0001:000055b0       ??$_Uninit_copy@Viterator@?$vector@DV?$allocator@D@std@@@std@@PADV?$allocator@D@3@@std@@YAPADViterator@?$vector@DV?$allocator@D@std@@@0@0PADAAV?$allocator@D@0@U_Nonscalar_ptr_iterator_tag@0@@Z 100065b0 f i sockets.obj
 0001:000056a0       ?construct@?$allocator@D@std@@QAEXPADABD@Z 100066a0 f i sockets.obj
 0001:000056f0       ?destroy@?$allocator@D@std@@QAEXPAD@Z 100066f0 f i sockets.obj
 0001:00005740       ??$_Destroy@D@std@@YAXPAD@Z 10006740 f i sockets.obj
 0001:00005770       ??$_Construct@DD@std@@YAXPADABD@Z 10006770 f i sockets.obj
 0001:000057f0       ??2@YAPAXIPAX@Z            100067f0 f i sockets.obj
 0001:00005820       ?addEventSource@@YAXXZ     10006820 f   print.obj
 0001:00005a70       ??0RegKeyCloser@@QAE@PAUHKEY__@@@Z 10006a70 f i print.obj
 0001:00005ab0       ??1RegKeyCloser@@QAE@XZ    10006ab0 f i print.obj
 0001:00005b20       ?removeEventSource@@YAXXZ  10006b20 f   print.obj
 0001:00005cb0       ?openLogFile@@YAXABV?$basic_string@DU?$char_traits@D@std@@V?$allocator@D@2@@std@@@Z 10006cb0 f   print.obj
 0001:00005db0       ?jqs_error@@YAXPBDZZ       10006db0 f   print.obj
 0001:00006240       ?jqs_warn@@YAXPBDZZ        10007240 f   print.obj
 0001:00006330       ?jqs_info@@YAXIPBDZZ       10007330 f   print.obj
 0001:00006430       ?empty@?$basic_string@DU?$char_traits@D@std@@V?$allocator@D@2@@std@@QBE_NXZ 10007430 f i print.obj
 0001:00006470       ?jqs_at_exit@@YAXP6AXH@Z@Z 10007470 f   os_utils.obj
 0001:000064e0       ?jqs_exit@@YAXH@Z          100074e0 f   os_utils.obj
 0001:000065a0       ?jqs_exception_filter@@YAHPAU_EXCEPTION_POINTERS@@@Z 100075a0 f   os_utils.obj
 0001:00006680       ?getMyFileName@@YA?AV?$basic_string@DU?$char_traits@D@std@@V?$allocator@D@2@@std@@PAUHINSTANCE__@@@Z 10007680 f   os_utils.obj
 0001:000067c0       ?getFullPath@@YA?AV?$basic_string@DU?$char_traits@D@std@@V?$allocator@D@2@@std@@ABV12@@Z 100077c0 f   os_utils.obj
 0001:00006a30       ?getBaseName@@YA?AV?$basic_string@DU?$char_traits@D@std@@V?$allocator@D@2@@std@@ABV12@@Z 10007a30 f   os_utils.obj
 0001:00006ae0       ?getSatelliteFileName@@YA?AV?$basic_string@DU?$char_traits@D@std@@V?$allocator@D@2@@std@@ABV12@PAUHINSTANCE__@@@Z 10007ae0 f   os_utils.obj
 0001:00006c40       ?convertMappedFileName@@YA?AV?$basic_string@DU?$char_traits@D@std@@V?$allocator@D@2@@std@@ABV12@@Z 10007c40 f   os_utils.obj
 0001:00006f30       ?openDeviceByFileName@@YAPAXPBD@Z 10007f30 f   os_utils.obj
 0001:00007160       ??0PerformanceCountersMonitor@@QAE@XZ 10008160 f   os_utils.obj
 0001:000071e0       ??1PerformanceCountersMonitor@@QAE@XZ 100081e0 f   os_utils.obj
 0001:00007290       ?init@PerformanceCountersMonitor@@QAE_NXZ 10008290 f   os_utils.obj
 0001:00007540       ?collect@PerformanceCountersMonitor@@QAEXXZ 10008540 f   os_utils.obj
 0001:00007770       ?getCounterValue@PerformanceCountersMonitor@@QAENI@Z 10008770 f   os_utils.obj
 0001:000077e0       ?print_process_working_set_size@@YAXPBDPAUworking_set_size@@@Z 100087e0 f   os_utils.obj
 0001:00007840       ?get_process_working_set_size@@YAXPAUworking_set_size@@@Z 10008840 f   os_utils.obj
 0001:00007910       ?set_process_working_set_size@@YAXPAUworking_set_size@@@Z 10008910 f   os_utils.obj
 0001:00007a70       ?convUnicodeToString@@YA?AV?$basic_string@DU?$char_traits@D@std@@V?$allocator@D@2@@std@@PBG@Z 10008a70 f   os_utils.obj
 0001:00007c10       ?isAdmin@@YA_NXZ           10008c10 f   os_utils.obj
 0001:00007f60       ??0HandleCloser@@QAE@PAX@Z 10008f60 f i os_utils.obj
 0001:00007fa0       ??1HandleCloser@@QAE@XZ    10008fa0 f i os_utils.obj
 0001:00008010       ?has_extension@@YA_NABV?$basic_string@DU?$char_traits@D@std@@V?$allocator@D@2@@std@@PAPBD@Z 10009010 f   os_utils.obj
 0001:00008190       ?is_executable@@YA_NABV?$basic_string@DU?$char_traits@D@std@@V?$allocator@D@2@@std@@@Z 10009190 f   os_utils.obj
 0001:000081e0       ?getLocaleString@@YA?AV?$basic_string@DU?$char_traits@D@std@@V?$allocator@D@2@@std@@XZ 100091e0 f   os_utils.obj
 0001:00008310       ?getDefaultPageSize@@YAIXZ 10009310 f   os_utils.obj
 0001:00008380       ?find_last_of@?$basic_string@DU?$char_traits@D@std@@V?$allocator@D@2@@std@@QBEIDI@Z 10009380 f i os_utils.obj
 0001:000083d0       ?resize@?$vector@DV?$allocator@D@std@@@std@@QAEXI@Z 100093d0 f i os_utils.obj
 0001:00008420       ?clear@?$vector@DV?$allocator@D@std@@@std@@QAEXXZ 10009420 f i os_utils.obj
 0001:00008460       ?rfind@?$basic_string@DU?$char_traits@D@std@@V?$allocator@D@2@@std@@QBEIPBDII@Z 10009460 f i os_utils.obj
 0001:00008580       ?eq@?$char_traits@D@std@@SA_NABD0@Z 10009580 f i os_utils.obj
 0001:000085c0       ?compare@?$char_traits@D@std@@SAHPBD0I@Z 100095c0 f i os_utils.obj
 0001:00008610       ?resize@?$vector@DV?$allocator@D@std@@@std@@QAEXID@Z 10009610 f i os_utils.obj
 0001:000086e0       ?erase@?$vector@DV?$allocator@D@std@@@std@@QAE?AViterator@12@V312@0@Z 100096e0 f i os_utils.obj
 0001:00008770       ?_Insert_n@?$vector@DV?$allocator@D@std@@@std@@IAEXViterator@12@IABD@Z 10009770 f i os_utils.obj
 0001:00008ad0       ??$?HDU?$char_traits@D@std@@V?$allocator@D@1@@std@@YA?AV?$basic_string@DU?$char_traits@D@std@@V?$allocator@D@2@@0@ABV10@0@Z 10009ad0 f i os_utils.obj
 0001:00008b90       ??$?8DU?$char_traits@D@std@@V?$allocator@D@1@@std@@YA_NABV?$basic_string@DU?$char_traits@D@std@@V?$allocator@D@2@@0@PBD@Z 10009b90 f i os_utils.obj
 0001:00008be0       ??$copy@PADPAD@std@@YAPADPAD00@Z 10009be0 f i os_utils.obj
 0001:00008c50       ??$fill@PADD@std@@YAXPAD0ABD@Z 10009c50 f i os_utils.obj
 0001:00008ca0       ??Y?$basic_string@DU?$char_traits@D@std@@V?$allocator@D@2@@std@@QAEAAV01@ABV01@@Z 10009ca0 f i os_utils.obj
 0001:00008cf0       ?compare@?$basic_string@DU?$char_traits@D@std@@V?$allocator@D@2@@std@@QBEHPBD@Z 10009cf0 f i os_utils.obj
 0001:00008d50       ?append@?$basic_string@DU?$char_traits@D@std@@V?$allocator@D@2@@std@@QAEAAV12@ABV12@@Z 10009d50 f i os_utils.obj
 0001:00008da0       ?compare@?$basic_string@DU?$char_traits@D@std@@V?$allocator@D@2@@std@@QBEHIIPBDI@Z 10009da0 f i os_utils.obj
 0001:00008eb0       ??$_Copy_opt@PADPAD@std@@YAPADPAD00U_Scalar_ptr_iterator_tag@0@@Z 10009eb0 f i os_utils.obj
 0001:00008f10       ?initOSLayer@@YAXXZ        10009f10 f   os_layer.obj
 0001:00009410       ?cleanupOSLayer@@YAXXZ     1000a410 f   os_layer.obj
 0001:0000a170       ?_AtlGetThreadACPThunk@ATL@@YGIXZ 1000b170 f i jqsiestartdetectorimpl.obj
 0001:0000a250       ?InterlockedExchangePointer@@YGPAXPAPAXPAX@Z 1000b250 f i jqsiestartdetectorimpl.obj
 0001:0000a2a0       ?_AtlGetThreadACPFake@ATL@@YGIXZ 1000b2a0 f i jqsiestartdetectorimpl.obj
 0001:0000a3a0       ?_AtlGetThreadACPReal@ATL@@YGIXZ 1000b3a0 f i jqsiestartdetectorimpl.obj
 0001:0000a3d0       ?ObjectMain@CComObjectRootBase@ATL@@SGX_N@Z 1000b3d0 f i jqsiestartdetectorimpl.obj
 0001:0000a400       ?GetCategoryMap@CComObjectRootBase@ATL@@SAPBU_ATL_CATMAP_ENTRY@2@XZ 1000b400 f i jqsiestartdetectorimpl.obj
 0001:0000a430       ??_Estringdispid@CComTypeInfoHolder@ATL@@QAEPAXI@Z 1000b430 f i jqsiestartdetectorimpl.obj
 0001:0000a4d0       ??1stringdispid@CComTypeInfoHolder@ATL@@QAE@XZ 1000b4d0 f i jqsiestartdetectorimpl.obj
 0001:0000a510       ??1CComBSTR@ATL@@QAE@XZ    1000b510 f i jqsiestartdetectorimpl.obj
 0001:0000a560       ?UpdateRegistry@CJQSIEStartDetectorImpl@@SGJH@Z 1000b560 f i jqsiestartdetectorimpl.obj
 0001:0000a5b0       ?UpdateRegistryFromResourceS@CAtlModule@ATL@@QAGJIHPAU_ATL_REGMAP_ENTRY@2@@Z 1000b5b0 f i jqsiestartdetectorimpl.obj
 0001:0000aa50       ?_AtlVerifyStackAvailable@_ATL_SAFE_ALLOCA_IMPL@ATL@@YA_NK@Z 1000ba50 f i jqsiestartdetectorimpl.obj
 0001:0000ab40       ?_AtlGetConversionACP@ATL@@YGIXZ 1000bb40 f i jqsiestartdetectorimpl.obj
 0001:0000ab90       ?AtlA2WHelper@@YGPAGPAGPBDHI@Z 1000bb90 f i jqsiestartdetectorimpl.obj
 0001:0000ac10       ?ocslen@@YAHPBG@Z          1000bc10 f i jqsiestartdetectorimpl.obj
 0001:0000ac60       ?ocscpy@@YAPAGPAGPBG@Z     1000bc60 f i jqsiestartdetectorimpl.obj
 0001:0000acc0       ?GetModuleInstance@CAtlBaseModule@ATL@@QAEPAUHINSTANCE__@@XZ 1000bcc0 f i jqsiestartdetectorimpl.obj
 0001:0000acf0       ?AtlHresultFromLastError@ATL@@YAJXZ 1000bcf0 f i jqsiestartdetectorimpl.obj
 0001:0000ad70       ?EscapeSingleQuote@CAtlModule@ATL@@SAXPAGPBG@Z 1000bd70 f i jqsiestartdetectorimpl.obj
 0001:0000adf0       ??1CRegObject@ATL@@UAE@XZ  1000bdf0 f i jqsiestartdetectorimpl.obj
 0001:0000ae80       ??1CExpansionVector@ATL@@QAE@XZ 1000be80 f i jqsiestartdetectorimpl.obj
 0001:0000af00       ?ClearReplacements@CExpansionVector@ATL@@QAEJXZ 1000bf00 f i jqsiestartdetectorimpl.obj
 0001:0000afb0       ?QueryInterface@CRegObject@ATL@@UAGJABU_GUID@@PAPAX@Z 1000bfb0 f i jqsiestartdetectorimpl.obj
 0001:0000afe0       ?AddRef@CRegObject@ATL@@UAGKXZ 1000bfe0 f i jqsiestartdetectorimpl.obj
 0001:0000b010       ?Release@CRegObject@ATL@@UAGKXZ 1000c010 f i jqsiestartdetectorimpl.obj
 0001:0000b040       ??_ECRegObject@ATL@@UAEPAXI@Z 1000c040 f i jqsiestartdetectorimpl.obj
 0001:0000b040       ??_GCRegObject@ATL@@UAEPAXI@Z 1000c040 f i jqsiestartdetectorimpl.obj
 0001:0000b0a0       ?AddReplacement@CRegObject@ATL@@UAGJPBG0@Z 1000c0a0 f i jqsiestartdetectorimpl.obj
 0001:0000b280       ?AtlW2AHelper@@YGPADPADPBGHI@Z 1000c280 f i jqsiestartdetectorimpl.obj
 0001:0000b310       ?Lock@CComFakeCriticalSection@ATL@@QAEJXZ 1000c310 f i jqsiestartdetectorimpl.obj
 0001:0000b340       ?Unlock@CComFakeCriticalSection@ATL@@QAEJXZ 1000c340 f i jqsiestartdetectorimpl.obj
 0001:0000b370       ?Add@CExpansionVector@ATL@@QAEHPBDPBG@Z 1000c370 f i jqsiestartdetectorimpl.obj
 0001:0000b580       ?ResourceRegister@CRegObject@ATL@@QAGJPBGI0@Z 1000c580 f i jqsiestartdetectorimpl.obj
 0001:0000b730       ?RegisterFromResource@CRegObject@ATL@@IAEJPBGPBD1H@Z 1000c730 f i jqsiestartdetectorimpl.obj
 0001:0000bac0       ?ResourceUnregister@CRegObject@ATL@@QAGJPBGI0@Z 1000cac0 f i jqsiestartdetectorimpl.obj
 0001:0000bc70       ?ClearReplacements@CRegObject@ATL@@UAGJXZ 1000cc70 f i jqsiestartdetectorimpl.obj
 0001:0000bcd0       ??0CRegParser@ATL@@QAE@PAVCRegObject@1@@Z 1000ccd0 f i jqsiestartdetectorimpl.obj
 0001:0000bd20       ?RegisterBuffer@CRegParser@ATL@@QAEJPADH@Z 1000cd20 f i jqsiestartdetectorimpl.obj
 0001:0000bf70       ?GenerateError@CRegParser@ATL@@IAEJI@Z 1000cf70 f i jqsiestartdetectorimpl.obj
 0001:0000bfb0       ?HKeyFromString@CRegParser@ATL@@KAPAUHKEY__@@PAD@Z 1000cfb0 f i jqsiestartdetectorimpl.obj
 0001:0000c030       ?SkipWhiteSpace@CRegParser@ATL@@IAEXXZ 1000d030 f i jqsiestartdetectorimpl.obj
 0001:0000c0a0       ?IsSpace@CRegParser@ATL@@IAEHD@Z 1000d0a0 f i jqsiestartdetectorimpl.obj
 0001:0000c130       ?NextToken@CRegParser@ATL@@IAEJPAD@Z 1000d130 f i jqsiestartdetectorimpl.obj
 0001:0000c380       ?EndOfVar@CRegParser@ATL@@IAEHXZ 1000d380 f i jqsiestartdetectorimpl.obj
 0001:0000c400       ?PreProcessBuffer@CRegParser@ATL@@QAEJPADPAPAD@Z 1000d400 f i jqsiestartdetectorimpl.obj
 0001:0000c6f0       ??0CParseBuffer@CRegParser@ATL@@QAE@H@Z 1000d6f0 f i jqsiestartdetectorimpl.obj
 0001:0000c780       ??1CParseBuffer@CRegParser@ATL@@QAE@XZ 1000d780 f i jqsiestartdetectorimpl.obj
 0001:0000c7d0       ?AddChar@CParseBuffer@CRegParser@ATL@@QAEHPBD@Z 1000d7d0 f i jqsiestartdetectorimpl.obj
 0001:0000c840       ?Append@CParseBuffer@CRegParser@ATL@@QAEHPBDH@Z 1000d840 f i jqsiestartdetectorimpl.obj
 0001:0000c930       ?AddString@CParseBuffer@CRegParser@ATL@@QAEHPBG@Z 1000d930 f i jqsiestartdetectorimpl.obj
 0001:0000cad0       ?Detach@CParseBuffer@CRegParser@ATL@@QAEPADXZ 1000dad0 f i jqsiestartdetectorimpl.obj
 0001:0000cb30       ?StrFromMap@CRegObject@ATL@@QAEPBGPAD@Z 1000db30 f i jqsiestartdetectorimpl.obj
 0001:0000cba0       ?StrChrA@CRegParser@ATL@@KAPADPADD@Z 1000dba0 f i jqsiestartdetectorimpl.obj
 0001:0000cc20       ?RegisterSubkeys@CRegParser@ATL@@IAEJPADPAUHKEY__@@HH@Z 1000dc20 f i jqsiestartdetectorimpl.obj
 0001:0000d5a0       ?AtlHresultFromWin32@ATL@@YAJK@Z 1000e5a0 f i jqsiestartdetectorimpl.obj
 0001:0000d600       ??0CRegKey@ATL@@QAE@XZ     1000e600 f i jqsiestartdetectorimpl.obj
 0001:0000d640       ??1CRegKey@ATL@@QAE@XZ     1000e640 f i jqsiestartdetectorimpl.obj
 0001:0000d680       ??BCRegKey@ATL@@QBEPAUHKEY__@@XZ 1000e680 f i jqsiestartdetectorimpl.obj
 0001:0000d6b0       ?Detach@CRegKey@ATL@@QAEPAUHKEY__@@XZ 1000e6b0 f i jqsiestartdetectorimpl.obj
 0001:0000d6f0       ?Attach@CRegKey@ATL@@QAEXPAUHKEY__@@@Z 1000e6f0 f i jqsiestartdetectorimpl.obj
 0001:0000d730       ?DeleteSubKey@CRegKey@ATL@@QAEJPBD@Z 1000e730 f i jqsiestartdetectorimpl.obj
 0001:0000d790       ?DeleteValue@CRegKey@ATL@@QAEJPBD@Z 1000e790 f i jqsiestartdetectorimpl.obj
 0001:0000d7f0       ?Close@CRegKey@ATL@@QAEJXZ 1000e7f0 f i jqsiestartdetectorimpl.obj
 0001:0000d860       ?Create@CRegKey@ATL@@QAEJPAUHKEY__@@PBDPADKKPAU_SECURITY_ATTRIBUTES@@PAK@Z 1000e860 f i jqsiestartdetectorimpl.obj
 0001:0000d940       ?Open@CRegKey@ATL@@QAEJPAUHKEY__@@PBDK@Z 1000e940 f i jqsiestartdetectorimpl.obj
 0001:0000d9f0       ?RecurseDeleteKey@CRegKey@ATL@@QAEJPBD@Z 1000e9f0 f i jqsiestartdetectorimpl.obj
 0001:0000db80       ?AddValue@CRegParser@ATL@@IAEJAAVCRegKey@2@PBDPAD@Z 1000eb80 f i jqsiestartdetectorimpl.obj
 0001:0000e2e0       ?SetDWORDValue@CRegKey@ATL@@QAEJPBDK@Z 1000f2e0 f i jqsiestartdetectorimpl.obj
 0001:0000e340       ?SetStringValue@CRegKey@ATL@@QAEJPBD0K@Z 1000f340 f i jqsiestartdetectorimpl.obj
 0001:0000e3c0       ?SetMultiStringValue@CRegKey@ATL@@QAEJPBD0@Z 1000f3c0 f i jqsiestartdetectorimpl.obj
 0001:0000e460       ?VTFromRegType@CRegParser@ATL@@KAHPBDAAG@Z 1000f460 f i jqsiestartdetectorimpl.obj
 0001:0000e550       ?ChToByte@CRegParser@ATL@@KAED@Z 1000f550 f i jqsiestartdetectorimpl.obj
 0001:0000e610       ?CanForceRemoveKey@CRegParser@ATL@@IAEHPBD@Z 1000f610 f i jqsiestartdetectorimpl.obj
 0001:0000e690       ?HasSubKeys@CRegParser@ATL@@IAEHPAUHKEY__@@@Z 1000f690 f i jqsiestartdetectorimpl.obj
 0001:0000e740       ?SkipAssignment@CRegParser@ATL@@IAEJPAD@Z 1000f740 f i jqsiestartdetectorimpl.obj
 0001:0000e820       ??0CRegObject@ATL@@QAE@XZ  1000f820 f i jqsiestartdetectorimpl.obj
 0001:0000e880       ??0IRegistrarBase@@QAE@XZ  1000f880 f i jqsiestartdetectorimpl.obj
 0001:0000e8d0       ??0CExpansionVector@ATL@@QAE@XZ 1000f8d0 f i jqsiestartdetectorimpl.obj
 0001:0000e920       ??0IUnknown@@QAE@XZ        1000f920 f i jqsiestartdetectorimpl.obj
 0001:0000e950       ?SetSite@CJQSIEStartDetectorImpl@@UAGJPAUIUnknown@@@Z 1000f950 f   jqsiestartdetectorimpl.obj
 0001:0000ea00       ??0?$CAtlSafeAllocBufferManager@VCCRTAllocator@ATL@@@_ATL_SAFE_ALLOCA_IMPL@ATL@@QAE@XZ 1000fa00 f i jqsiestartdetectorimpl.obj
 0001:0000ea40       ?Allocate@?$CAtlSafeAllocBufferManager@VCCRTAllocator@ATL@@@_ATL_SAFE_ALLOCA_IMPL@ATL@@QAEPAXK@Z 1000fa40 f i jqsiestartdetectorimpl.obj
 0001:0000eab0       ?Allocate@CCRTAllocator@ATL@@SAPAXI@Z 1000fab0 f i jqsiestartdetectorimpl.obj
 0001:0000eb00       ??1?$CAtlSafeAllocBufferManager@VCCRTAllocator@ATL@@@_ATL_SAFE_ALLOCA_IMPL@ATL@@QAE@XZ 1000fb00 f i jqsiestartdetectorimpl.obj
 0001:0000eb70       ?Free@CCRTAllocator@ATL@@SAXPAX@Z 1000fb70 f i jqsiestartdetectorimpl.obj
 0001:0000ebc0       ??0?$CSimpleMap@PADPAGVCExpansionVectorEqualHelper@ATL@@@ATL@@QAE@XZ 1000fbc0 f i jqsiestartdetectorimpl.obj
 0001:0000ec10       ??1?$CSimpleMap@PADPAGVCExpansionVectorEqualHelper@ATL@@@ATL@@QAE@XZ 1000fc10 f i jqsiestartdetectorimpl.obj
 0001:0000ec50       ?GetSize@?$CSimpleMap@PADPAGVCExpansionVectorEqualHelper@ATL@@@ATL@@QBEHXZ 1000fc50 f i jqsiestartdetectorimpl.obj
 0001:0000ec80       ?Add@?$CSimpleMap@PADPAGVCExpansionVectorEqualHelper@ATL@@@ATL@@QAEHABQADABQAG@Z 1000fc80 f i jqsiestartdetectorimpl.obj
 0001:0000ed60       ?RemoveAll@?$CSimpleMap@PADPAGVCExpansionVectorEqualHelper@ATL@@@ATL@@QAEXXZ 1000fd60 f i jqsiestartdetectorimpl.obj
 0001:0000ee20       ?Lookup@?$CSimpleMap@PADPAGVCExpansionVectorEqualHelper@ATL@@@ATL@@QBEPAGABQAD@Z 1000fe20 f i jqsiestartdetectorimpl.obj
 0001:0000ee80       ?GetKeyAt@?$CSimpleMap@PADPAGVCExpansionVectorEqualHelper@ATL@@@ATL@@QBEAAPADH@Z 1000fe80 f i jqsiestartdetectorimpl.obj
 0001:0000eef0       ?_AtlRaiseException@ATL@@YAXKK@Z 1000fef0 f i jqsiestartdetectorimpl.obj
 0001:0000ef40       ?GetValueAt@?$CSimpleMap@PADPAGVCExpansionVectorEqualHelper@ATL@@@ATL@@QBEAAPAGH@Z 1000ff40 f i jqsiestartdetectorimpl.obj
 0001:0000efb0       ??0?$CTempBuffer@D$0EAA@VCCRTAllocator@ATL@@@ATL@@QAE@XZ 1000ffb0 f i jqsiestartdetectorimpl.obj
 0001:0000eff0       ??1?$CTempBuffer@D$0EAA@VCCRTAllocator@ATL@@@ATL@@QAE@XZ 1000fff0 f i jqsiestartdetectorimpl.obj
 0001:0000f040       ??B?$CTempBuffer@D$0EAA@VCCRTAllocator@ATL@@@ATL@@QBEPADXZ 10010040 f i jqsiestartdetectorimpl.obj
 0001:0000f070       ?Allocate@?$CTempBuffer@D$0EAA@VCCRTAllocator@ATL@@@ATL@@QAEPADI@Z 10010070 f i jqsiestartdetectorimpl.obj
 0001:0000f0c0       ??0?$CTempBuffer@D$0BAA@VCCRTAllocator@ATL@@@ATL@@QAE@XZ 100100c0 f i jqsiestartdetectorimpl.obj
 0001:0000f100       ??1?$CTempBuffer@D$0BAA@VCCRTAllocator@ATL@@@ATL@@QAE@XZ 10010100 f i jqsiestartdetectorimpl.obj
 0001:0000f150       ??B?$CTempBuffer@D$0BAA@VCCRTAllocator@ATL@@@ATL@@QBEPADXZ 10010150 f i jqsiestartdetectorimpl.obj
 0001:0000f180       ?Allocate@?$CTempBuffer@D$0BAA@VCCRTAllocator@ATL@@@ATL@@QAEPADI@Z 10010180 f i jqsiestartdetectorimpl.obj
 0001:0000f1d0       ??0?$CTempBuffer@E$0BAA@VCCRTAllocator@ATL@@@ATL@@QAE@XZ 100101d0 f i jqsiestartdetectorimpl.obj
 0001:0000f210       ??1?$CTempBuffer@E$0BAA@VCCRTAllocator@ATL@@@ATL@@QAE@XZ 10010210 f i jqsiestartdetectorimpl.obj
 0001:0000f260       ??B?$CTempBuffer@E$0BAA@VCCRTAllocator@ATL@@@ATL@@QBEPAEXZ 10010260 f i jqsiestartdetectorimpl.obj
 0001:0000f290       ?Allocate@?$CTempBuffer@E$0BAA@VCCRTAllocator@ATL@@@ATL@@QAEPAEI@Z 10010290 f i jqsiestartdetectorimpl.obj
 0001:0000f2e0       ?GetObjectDescription@?$CComCoClass@VCJQSIEStartDetectorImpl@@$1?CLSID_JQSIEStartDetectorImpl@@3U_GUID@@B@ATL@@SGPBDXZ 100102e0 f i jqsiestartdetectorimpl.obj
 0001:0000f310       ?SetSite@?$IObjectWithSiteImpl@VCJQSIEStartDetectorImpl@@@ATL@@UAGJPAUIUnknown@@@Z 10010310 f i jqsiestartdetectorimpl.obj
 0001:0000f360       ?CreateInstance@?$CComCreator@V?$CComObjectNoLock@VCComClassFactory@ATL@@@ATL@@@ATL@@SGJPAXABU_GUID@@PAPAX@Z 10010360 f i jqsiestartdetectorimpl.obj
 0001:0000f530       ?FinalConstruct@CComObjectRootBase@ATL@@QAEJXZ 10010530 f i jqsiestartdetectorimpl.obj
 0001:0000f560       ?_AtlFinalConstruct@CComObjectRootBase@ATL@@QAEJXZ 10010560 f i jqsiestartdetectorimpl.obj
 0001:0000f590       ?InternalFinalConstructAddRef@CComObjectRootBase@ATL@@QAEXXZ 10010590 f i jqsiestartdetectorimpl.obj
 0001:0000f5c0       ?InternalFinalConstructRelease@CComObjectRootBase@ATL@@QAEXXZ 100105c0 f i jqsiestartdetectorimpl.obj
 0001:0000f5f0       ?SetVoid@CComClassFactory@ATL@@QAEXPAX@Z 100105f0 f i jqsiestartdetectorimpl.obj
 0001:0000f630       ?CreateInstance@?$CComCreator2@V?$CComCreator@V?$CComObject@VCJQSIEStartDetectorImpl@@@ATL@@@ATL@@V?$CComFailCreator@$0?HPPLPOPA@@2@@ATL@@SGJPAXABU_GUID@@PAPAX@Z 10010630 f i jqsiestartdetectorimpl.obj
 0001:0000f6a0       ??4?$CComPtr@UIUnknown@@@ATL@@QAEPAUIUnknown@@PAU2@@Z 100106a0 f i jqsiestartdetectorimpl.obj
 0001:0000f6f0       ?AtlComPtrAssign@ATL@@YGPAUIUnknown@@PAPAU2@PAU2@@Z 100106f0 f i jqsiestartdetectorimpl.obj
 0001:0000f780       ?FindKey@?$CSimpleMap@PADPAGVCExpansionVectorEqualHelper@ATL@@@ATL@@QBEHABQAD@Z 10010780 f i jqsiestartdetectorimpl.obj
 0001:0000f810       ?IsEqualKey@CExpansionVectorEqualHelper@ATL@@SA_NQAD0@Z 10010810 f i jqsiestartdetectorimpl.obj
 0001:0000f870       ?InternalSetAtIndex@?$CSimpleMap@PADPAGVCExpansionVectorEqualHelper@ATL@@@ATL@@QAEXHABQADABQAG@Z 10010870 f i jqsiestartdetectorimpl.obj
 0001:0000f990       ?AllocateBytes@?$CTempBuffer@D$0EAA@VCCRTAllocator@ATL@@@ATL@@QAEPADI@Z 10010990 f i jqsiestartdetectorimpl.obj
 0001:0000f9f0       ?FreeHeap@?$CTempBuffer@D$0EAA@VCCRTAllocator@ATL@@@ATL@@AAEXXZ 100109f0 f i jqsiestartdetectorimpl.obj
 0001:0000fa40       ?AllocateBytes@?$CTempBuffer@D$0BAA@VCCRTAllocator@ATL@@@ATL@@QAEPADI@Z 10010a40 f i jqsiestartdetectorimpl.obj
 0001:0000faa0       ?FreeHeap@?$CTempBuffer@D$0BAA@VCCRTAllocator@ATL@@@ATL@@AAEXXZ 10010aa0 f i jqsiestartdetectorimpl.obj
 0001:0000faf0       ?AllocateBytes@?$CTempBuffer@E$0BAA@VCCRTAllocator@ATL@@@ATL@@QAEPAEI@Z 10010af0 f i jqsiestartdetectorimpl.obj
 0001:0000fb50       ?FreeHeap@?$CTempBuffer@E$0BAA@VCCRTAllocator@ATL@@@ATL@@AAEXXZ 10010b50 f i jqsiestartdetectorimpl.obj
 0001:0000fba0       ?GetData@CAtlSafeAllocBufferNode@?$CAtlSafeAllocBufferManager@VCCRTAllocator@ATL@@@_ATL_SAFE_ALLOCA_IMPL@ATL@@QAEPAXXZ 10010ba0 f i jqsiestartdetectorimpl.obj
 0001:0000fbd0       ??0?$CComObjectNoLock@VCComClassFactory@ATL@@@ATL@@QAE@PAX@Z 10010bd0 f i jqsiestartdetectorimpl.obj
 0001:0000fc20       ?CreateInstance@CComClassFactory@ATL@@UAGJPAUIUnknown@@ABU_GUID@@PAPAX@Z 10010c20 f i jqsiestartdetectorimpl.obj
 0001:0000fcb0       ?InlineIsEqualUnknown@ATL@@YGHABU_GUID@@@Z 10010cb0 f i jqsiestartdetectorimpl.obj
 0001:0000fd20       ?LockServer@CComClassFactory@ATL@@UAGJH@Z 10010d20 f i jqsiestartdetectorimpl.obj
 0001:0000fd90       ?AddRef@?$CComObjectNoLock@VCComClassFactory@ATL@@@ATL@@UAGKXZ 10010d90 f i jqsiestartdetectorimpl.obj
 0001:0000fdd0       ?Release@?$CComObjectNoLock@VCComClassFactory@ATL@@@ATL@@UAGKXZ 10010dd0 f i jqsiestartdetectorimpl.obj
 0001:0000fe70       ?QueryInterface@?$CComObjectNoLock@VCComClassFactory@ATL@@@ATL@@UAGJABU_GUID@@PAPAX@Z 10010e70 f i jqsiestartdetectorimpl.obj
 0001:0000fec0       ?_InternalQueryInterface@CComClassFactory@ATL@@QAEJABU_GUID@@PAPAX@Z 10010ec0 f i jqsiestartdetectorimpl.obj
 0001:0000ff10       ?InternalQueryInterface@CComObjectRootBase@ATL@@SGJPAXPBU_ATL_INTMAP_ENTRY@2@ABU_GUID@@PAPAX@Z 10010f10 f i jqsiestartdetectorimpl.obj
 0001:0000ff60       ?AtlInternalQueryInterface@ATL@@YGJPAXPBU_ATL_INTMAP_ENTRY@1@ABU_GUID@@PAPAX@Z 10010f60 f i jqsiestartdetectorimpl.obj
 0001:000100c0       _InlineIsEqualGUID         100110c0 f i jqsiestartdetectorimpl.obj
 0001:00010140       ?_GetEntries@CComClassFactory@ATL@@SGPBU_ATL_INTMAP_ENTRY@2@XZ 10011140 f i jqsiestartdetectorimpl.obj
 0001:00010170       ?CreateInstance@?$CComCreator@V?$CComObject@VCJQSIEStartDetectorImpl@@@ATL@@@ATL@@SGJPAXABU_GUID@@PAPAX@Z 10011170 f i jqsiestartdetectorimpl.obj
 0001:00010320       ?SetVoid@CComObjectRootBase@ATL@@QAEXPAX@Z 10011320 f i jqsiestartdetectorimpl.obj
 0001:00010350       ?InternalFinalConstructAddRef@CJQSIEStartDetectorImpl@@QAEXXZ 10011350 f i jqsiestartdetectorimpl.obj
 0001:000103a0       ?InternalAddRef@?$CComObjectRootEx@VCComSingleThreadModel@ATL@@@ATL@@QAEKXZ 100113a0 f i jqsiestartdetectorimpl.obj
 0001:000103e0       ?Increment@CComSingleThreadModel@ATL@@SGKPAJ@Z 100113e0 f i jqsiestartdetectorimpl.obj
 0001:00010420       ?InternalFinalConstructRelease@CJQSIEStartDetectorImpl@@QAEXXZ 10011420 f i jqsiestartdetectorimpl.obj
 0001:00010470       ?InternalRelease@?$CComObjectRootEx@VCComSingleThreadModel@ATL@@@ATL@@QAEKXZ 10011470 f i jqsiestartdetectorimpl.obj
 0001:000104b0       ?Decrement@CComSingleThreadModel@ATL@@SGKPAJ@Z 100114b0 f i jqsiestartdetectorimpl.obj
 0001:000104f0       ?FinalConstruct@CJQSIEStartDetectorImpl@@QAEJXZ 100114f0 f i jqsiestartdetectorimpl.obj
 0001:00010520       ?CreateInstance@?$CComFailCreator@$0?HPPLPOPA@@ATL@@SGJPAXABU_GUID@@PAPAX@Z 10011520 f i jqsiestartdetectorimpl.obj
 0001:00010570       ??_E?$CComObjectNoLock@VCComClassFactory@ATL@@@ATL@@UAEPAXI@Z 10011570 f i jqsiestartdetectorimpl.obj
 0001:00010570       ??_G?$CComObjectNoLock@VCComClassFactory@ATL@@@ATL@@UAEPAXI@Z 10011570 f i jqsiestartdetectorimpl.obj
 0001:000105d0       ??1?$CComObjectNoLock@VCComClassFactory@ATL@@@ATL@@UAE@XZ 100115d0 f i jqsiestartdetectorimpl.obj
 0001:00010660       ?FinalRelease@CComObjectRootBase@ATL@@QAEXXZ 10011660 f i jqsiestartdetectorimpl.obj
 0001:00010690       ??1CComClassFactory@ATL@@UAE@XZ 10011690 f i jqsiestartdetectorimpl.obj
 0001:00010700       ??_GCComClassFactory@ATL@@UAEPAXI@Z 10011700 f i jqsiestartdetectorimpl.obj
 0001:00010700       ??_ECComClassFactory@ATL@@UAEPAXI@Z 10011700 f i jqsiestartdetectorimpl.obj
 0001:00010760       ??1?$CComObjectRootEx@VCComMultiThreadModel@ATL@@@ATL@@QAE@XZ 10011760 f i jqsiestartdetectorimpl.obj
 0001:000107b0       ??1CComAutoCriticalSection@ATL@@QAE@XZ 100117b0 f i jqsiestartdetectorimpl.obj
 0001:000107f0       ?Term@CComCriticalSection@ATL@@QAEJXZ 100117f0 f i jqsiestartdetectorimpl.obj
 0001:00010840       ??0CComClassFactory@ATL@@QAE@XZ 10011840 f i jqsiestartdetectorimpl.obj
 0001:000108a0       ??0IClassFactory@@QAE@XZ   100118a0 f i jqsiestartdetectorimpl.obj
 0001:000108f0       ??0?$CComObjectRootEx@VCComMultiThreadModel@ATL@@@ATL@@QAE@XZ 100118f0 f i jqsiestartdetectorimpl.obj
 0001:00010940       ??0CComAutoCriticalSection@ATL@@QAE@XZ 10011940 f i jqsiestartdetectorimpl.obj
 0001:000109a0       ?AtlThrow@ATL@@YGXJ@Z      100119a0 f i jqsiestartdetectorimpl.obj
 0001:00010a00       ??0CAtlException@ATL@@QAE@J@Z 10011a00 f i jqsiestartdetectorimpl.obj
 0001:00010a40       ??0CComCriticalSection@ATL@@QAE@XZ 10011a40 f i jqsiestartdetectorimpl.obj
 0001:00010a90       ?Init@CComCriticalSection@ATL@@QAEJXZ 10011a90 f i jqsiestartdetectorimpl.obj
 0001:00010b60       ??0CComObjectRootBase@ATL@@QAE@XZ 10011b60 f i jqsiestartdetectorimpl.obj
 0001:00010ba0       ?AllocateHeap@?$CTempBuffer@D$0EAA@VCCRTAllocator@ATL@@@ATL@@AAEXI@Z 10011ba0 f i jqsiestartdetectorimpl.obj
 0001:00010c00       ?AllocateHeap@?$CTempBuffer@D$0BAA@VCCRTAllocator@ATL@@@ATL@@AAEXI@Z 10011c00 f i jqsiestartdetectorimpl.obj
 0001:00010c60       ?AllocateHeap@?$CTempBuffer@E$0BAA@VCCRTAllocator@ATL@@@ATL@@AAEXI@Z 10011c60 f i jqsiestartdetectorimpl.obj
 0001:00010cc0       ?InternalAddRef@?$CComObjectRootEx@VCComMultiThreadModel@ATL@@@ATL@@QAEKXZ 10011cc0 f i jqsiestartdetectorimpl.obj
 0001:00010d00       ?Increment@CComMultiThreadModel@ATL@@SGKPAJ@Z 10011d00 f i jqsiestartdetectorimpl.obj
 0001:00010d50       ?InternalRelease@?$CComObjectRootEx@VCComMultiThreadModel@ATL@@@ATL@@QAEKXZ 10011d50 f i jqsiestartdetectorimpl.obj
 0001:00010d90       ?Decrement@CComMultiThreadModel@ATL@@SGKPAJ@Z 10011d90 f i jqsiestartdetectorimpl.obj
 0001:00010de0       ??0?$Wrapper@PAD@?$CSimpleMap@PADPAGVCExpansionVectorEqualHelper@ATL@@@ATL@@QAE@ABQAD@Z 10011de0 f i jqsiestartdetectorimpl.obj
 0001:00010e20       ??0?$Wrapper@PAG@?$CSimpleMap@PADPAGVCExpansionVectorEqualHelper@ATL@@@ATL@@QAE@ABQAG@Z 10011e20 f i jqsiestartdetectorimpl.obj
 0001:00010e60       ??0?$CComObject@VCJQSIEStartDetectorImpl@@@ATL@@QAE@PAX@Z 10011e60 f i jqsiestartdetectorimpl.obj
 0001:00010ed0       ??0CJQSIEStartDetectorImpl@@QAE@XZ 10011ed0 f i jqsiestartdetectorimpl.obj
 0001:00010f30       ??0?$CComObjectRootEx@VCComSingleThreadModel@ATL@@@ATL@@QAE@XZ 10011f30 f i jqsiestartdetectorimpl.obj
 0001:00010f80       ??0?$IObjectWithSiteImpl@VCJQSIEStartDetectorImpl@@@ATL@@QAE@XZ 10011f80 f i jqsiestartdetectorimpl.obj
 0001:00010fd0       ??0?$IDispatchImpl@UIJQSIEStartDetectorImpl@@$1?IID_IJQSIEStartDetectorImpl@@3U_GUID@@B$1?LIBID_JQSIEStartDetectorLib@@3U3@B$00$0A@VCComTypeInfoHolder@ATL@@@ATL@@QAE@XZ 10011fd0 f i jqsiestartdetectorimpl.obj
 0001:00011020       ??0IObjectWithSite@@QAE@XZ 10012020 f i jqsiestartdetectorimpl.obj
 0001:00011070       ??0IJQSIEStartDetectorImpl@@QAE@XZ 10012070 f i jqsiestartdetectorimpl.obj
 0001:000110c0       ??0IDispatch@@QAE@XZ       100120c0 f i jqsiestartdetectorimpl.obj
 0001:00011110       ??0?$CComPtr@UIUnknown@@@ATL@@QAE@XZ 10012110 f i jqsiestartdetectorimpl.obj
 0001:00011160       ?GetSite@?$IObjectWithSiteImpl@VCJQSIEStartDetectorImpl@@@ATL@@UAGJABU_GUID@@PAPAX@Z 10012160 f i jqsiestartdetectorimpl.obj
 0001:00011210       ?GetTypeInfoCount@?$IDispatchImpl@UIJQSIEStartDetectorImpl@@$1?IID_IJQSIEStartDetectorImpl@@3U_GUID@@B$1?LIBID_JQSIEStartDetectorLib@@3U3@B$00$0A@VCComTypeInfoHolder@ATL@@@ATL@@UAGJPAI@Z 10012210 f i jqsiestartdetectorimpl.obj
 0001:00011250       ?GetTypeInfo@?$IDispatchImpl@UIJQSIEStartDetectorImpl@@$1?IID_IJQSIEStartDetectorImpl@@3U_GUID@@B$1?LIBID_JQSIEStartDetectorLib@@3U3@B$00$0A@VCComTypeInfoHolder@ATL@@@ATL@@UAGJIKPAPAUITypeInfo@@@Z 10012250 f i jqsiestartdetectorimpl.obj
 0001:000112a0       ?GetTypeInfo@CComTypeInfoHolder@ATL@@QAEJIKPAPAUITypeInfo@@@Z 100122a0 f i jqsiestartdetectorimpl.obj
 0001:000112f0       ?GetTI@CComTypeInfoHolder@ATL@@QAEJKPAPAUITypeInfo@@@Z 100122f0 f i jqsiestartdetectorimpl.obj
 0001:00011390       ?GetTI@CComTypeInfoHolder@ATL@@QAEJK@Z 10012390 f i jqsiestartdetectorimpl.obj
 0001:000118a0       ?AddTermFunc@CAtlModule@ATL@@QAEJP6GXK@ZK@Z 100128a0 f i jqsiestartdetectorimpl.obj
 0001:00011910       ?AtlModuleAddTermFunc@ATL@@YGJPAU_ATL_MODULE70@1@P6GXK@ZK@Z 10012910 f i jqsiestartdetectorimpl.obj
 0001:00011a70       ??1?$CComPtr@UITypeInfo@@@ATL@@QAE@XZ 10012a70 f i jqsiestartdetectorimpl.obj
 0001:00011ab0       ?Cleanup@CComTypeInfoHolder@ATL@@SGXK@Z 10012ab0 f i jqsiestartdetectorimpl.obj
 0001:00011b70       ?LoadNameCache@CComTypeInfoHolder@ATL@@QAEJPAUITypeInfo@@@Z 10012b70 f i jqsiestartdetectorimpl.obj
 0001:00011e80       ??0CComBSTR@ATL@@QAE@XZ    10012e80 f i jqsiestartdetectorimpl.obj
 0001:00011ec0       ??BCComBSTR@ATL@@QBEPAGXZ  10012ec0 f i jqsiestartdetectorimpl.obj
 0001:00011ef0       ??ICComBSTR@ATL@@QAEPAPAGXZ 10012ef0 f i jqsiestartdetectorimpl.obj
 0001:00011f20       ?Attach@CComBSTR@ATL@@QAEXPAG@Z 10012f20 f i jqsiestartdetectorimpl.obj
 0001:00011f80       ?Detach@CComBSTR@ATL@@QAEPAGXZ 10012f80 f i jqsiestartdetectorimpl.obj
 0001:00011fc0       ??0stringdispid@CComTypeInfoHolder@ATL@@QAE@XZ 10012fc0 f i jqsiestartdetectorimpl.obj
 0001:00012020       ??1?$CComPtr@UITypeInfo2@@@ATL@@QAE@XZ 10013020 f i jqsiestartdetectorimpl.obj
 0001:00012060       ??0?$CComPtr@UITypeInfo@@@ATL@@QAE@XZ 10013060 f i jqsiestartdetectorimpl.obj
 0001:000120b0       ??0?$CComPtr@UITypeInfo@@@ATL@@QAE@ABV01@@Z 100130b0 f i jqsiestartdetectorimpl.obj
 0001:00012100       ??1?$CComPtrBase@UITypeInfo@@@ATL@@QAE@XZ 10013100 f i jqsiestartdetectorimpl.obj
 0001:00012160       ??I?$CComPtrBase@UITypeInfo@@@ATL@@QAEPAPAUITypeInfo@@XZ 10013160 f i jqsiestartdetectorimpl.obj
 0001:00012190       ??C?$CComPtrBase@UITypeInfo@@@ATL@@QBEPAV?$_NoAddRefReleaseOnCComPtr@UITypeInfo@@@1@XZ 10013190 f i jqsiestartdetectorimpl.obj
 0001:000121c0       ?Detach@?$CComPtrBase@UITypeInfo@@@ATL@@QAEPAUITypeInfo@@XZ 100131c0 f i jqsiestartdetectorimpl.obj
 0001:00012200       ??0?$CComPtr@UITypeInfo2@@@ATL@@QAE@XZ 10013200 f i jqsiestartdetectorimpl.obj
 0001:00012250       ??1?$CComPtrBase@UITypeInfo2@@@ATL@@QAE@XZ 10013250 f i jqsiestartdetectorimpl.obj
 0001:000122b0       ??I?$CComPtrBase@UITypeInfo2@@@ATL@@QAEPAPAUITypeInfo2@@XZ 100132b0 f i jqsiestartdetectorimpl.obj
 0001:000122e0       ?GetIDsOfNames@?$IDispatchImpl@UIJQSIEStartDetectorImpl@@$1?IID_IJQSIEStartDetectorImpl@@3U_GUID@@B$1?LIBID_JQSIEStartDetectorLib@@3U3@B$00$0A@VCComTypeInfoHolder@ATL@@@ATL@@UAGJABU_GUID@@PAPAGIKPAJ@Z 100132e0 f i jqsiestartdetectorimpl.obj
 0001:00012340       ?GetIDsOfNames@CComTypeInfoHolder@ATL@@QAEJABU_GUID@@PAPAGIKPAJ@Z 10013340 f i jqsiestartdetectorimpl.obj
 0001:00012480       ?EnsureTI@CComTypeInfoHolder@ATL@@QAEJK@Z 10013480 f i jqsiestartdetectorimpl.obj
 0001:000124f0       ?Invoke@?$IDispatchImpl@UIJQSIEStartDetectorImpl@@$1?IID_IJQSIEStartDetectorImpl@@3U_GUID@@B$1?LIBID_JQSIEStartDetectorLib@@3U3@B$00$0A@VCComTypeInfoHolder@ATL@@@ATL@@UAGJJABU_GUID@@KGPAUtagDISPPARAMS@@PAUtagVARIANT@@PAUtagEXCEPINFO@@PAI@Z 100134f0 f i jqsiestartdetectorimpl.obj
 0001:00012560       ?Invoke@CComTypeInfoHolder@ATL@@QAEJPAUIDispatch@@JABU_GUID@@KGPAUtagDISPPARAMS@@PAUtagVARIANT@@PAUtagEXCEPINFO@@PAI@Z 10013560 f i jqsiestartdetectorimpl.obj
 0001:000125f0       ??0?$CComPtrBase@UIUnknown@@@ATL@@IAE@XZ 100135f0 f i jqsiestartdetectorimpl.obj
 0001:00012630       ??B?$CComPtrBase@UIUnknown@@@ATL@@QBEPAUIUnknown@@XZ 10013630 f i jqsiestartdetectorimpl.obj
 0001:00012660       ??C?$CComPtrBase@UIUnknown@@@ATL@@QBEPAV?$_NoAddRefReleaseOnCComPtr@UIUnknown@@@1@XZ 10013660 f i jqsiestartdetectorimpl.obj
 0001:00012690       ??0?$CComPtrBase@UITypeInfo@@@ATL@@IAE@XZ 10013690 f i jqsiestartdetectorimpl.obj
 0001:000126d0       ??0?$CComPtrBase@UITypeInfo@@@ATL@@IAE@PAUITypeInfo@@@Z 100136d0 f i jqsiestartdetectorimpl.obj
 0001:00012740       ??0?$CComPtrBase@UITypeInfo2@@@ATL@@IAE@XZ 10013740 f i jqsiestartdetectorimpl.obj
 0001:00012780       ?AddRef@?$CComObject@VCJQSIEStartDetectorImpl@@@ATL@@UAGKXZ 10013780 f i jqsiestartdetectorimpl.obj
 0001:000127c0       ?Release@?$CComObject@VCJQSIEStartDetectorImpl@@@ATL@@UAGKXZ 100137c0 f i jqsiestartdetectorimpl.obj
 0001:00012860       ?QueryInterface@?$CComObject@VCJQSIEStartDetectorImpl@@@ATL@@UAGJABU_GUID@@PAPAX@Z 10013860 f i jqsiestartdetectorimpl.obj
 0001:000128b0       ?_InternalQueryInterface@CJQSIEStartDetectorImpl@@QAEJABU_GUID@@PAPAX@Z 100138b0 f i jqsiestartdetectorimpl.obj
 0001:00012900       ?_GetEntries@CJQSIEStartDetectorImpl@@SGPBU_ATL_INTMAP_ENTRY@ATL@@XZ 10013900 f i jqsiestartdetectorimpl.obj
 0001:00012930       ??_G?$CComObject@VCJQSIEStartDetectorImpl@@@ATL@@UAEPAXI@Z 10013930 f i jqsiestartdetectorimpl.obj
 0001:00012930       ??_E?$CComObject@VCJQSIEStartDetectorImpl@@@ATL@@UAEPAXI@Z 10013930 f i jqsiestartdetectorimpl.obj
 0001:00012990       ??1?$CComObject@VCJQSIEStartDetectorImpl@@@ATL@@UAE@XZ 10013990 f i jqsiestartdetectorimpl.obj
 0001:00012a10       ?FinalRelease@CJQSIEStartDetectorImpl@@QAEXXZ 10013a10 f i jqsiestartdetectorimpl.obj
 0001:00012a40       ??1CJQSIEStartDetectorImpl@@UAE@XZ 10013a40 f i jqsiestartdetectorimpl.obj
 0001:00012a80       ??1?$IObjectWithSiteImpl@VCJQSIEStartDetectorImpl@@@ATL@@UAE@XZ 10013a80 f i jqsiestartdetectorimpl.obj
 0001:00012ad0       ??1?$CComPtr@UIUnknown@@@ATL@@QAE@XZ 10013ad0 f i jqsiestartdetectorimpl.obj
 0001:00012b10       ??1?$CComPtrBase@UIUnknown@@@ATL@@QAE@XZ 10013b10 f i jqsiestartdetectorimpl.obj
 0001:00012b70       ??0?$CComCritSecLock@VCComCriticalSection@ATL@@@ATL@@QAE@AAVCComCriticalSection@1@_N@Z 10013b70 f i jqsiestartdetectorimpl.obj
 0001:00012be0       ??1?$CComCritSecLock@VCComCriticalSection@ATL@@@ATL@@QAE@XZ 10013be0 f i jqsiestartdetectorimpl.obj
 0001:00012c30       ?Lock@?$CComCritSecLock@VCComCriticalSection@ATL@@@ATL@@QAEJXZ 10013c30 f i jqsiestartdetectorimpl.obj
 0001:00012c90       ?Lock@CComCriticalSection@ATL@@QAEJXZ 10013c90 f i jqsiestartdetectorimpl.obj
 0001:00012ce0       ??$QueryInterface@UITypeInfo2@@@IUnknown@@QAGJPAPAUITypeInfo2@@@Z 10013ce0 f i jqsiestartdetectorimpl.obj
 0001:00012d40       ??$?4UITypeInfo2@@@?$CComPtr@UITypeInfo@@@ATL@@QAEPAUITypeInfo@@ABV?$CComPtr@UITypeInfo2@@@1@@Z 10013d40 f i jqsiestartdetectorimpl.obj
 0001:00012d90       ?AtlComQIPtrAssign@ATL@@YGPAUIUnknown@@PAPAU2@PAU2@ABU_GUID@@@Z 10013d90 f i jqsiestartdetectorimpl.obj
 0001:00012e30       ??$?2PAD@?$Wrapper@PAD@?$CSimpleMap@PADPAGVCExpansionVectorEqualHelper@ATL@@@ATL@@SAPAXIPAPAD@Z 10013e30 f i jqsiestartdetectorimpl.obj
 0001:00012e60       ??$?3PAD@?$Wrapper@PAD@?$CSimpleMap@PADPAGVCExpansionVectorEqualHelper@ATL@@@ATL@@SAXPAXPAPAD@Z 10013e60 f i jqsiestartdetectorimpl.obj
 0001:00012e90       ??$?2PAG@?$Wrapper@PAG@?$CSimpleMap@PADPAGVCExpansionVectorEqualHelper@ATL@@@ATL@@SAPAXIPAPAG@Z 10013e90 f i jqsiestartdetectorimpl.obj
 0001:00012ec0       ??$?3PAG@?$Wrapper@PAG@?$CSimpleMap@PADPAGVCExpansionVectorEqualHelper@ATL@@@ATL@@SAXPAXPAPAG@Z 10013ec0 f i jqsiestartdetectorimpl.obj
 0001:00012ef0       ??B?$CComPtrBase@UITypeInfo2@@@ATL@@QBEPAUITypeInfo2@@XZ 10013ef0 f i jqsiestartdetectorimpl.obj
 0001:00012f20       ?Unlock@?$CComCritSecLock@VCComCriticalSection@ATL@@@ATL@@QAEXXZ 10013f20 f i jqsiestartdetectorimpl.obj
 0001:00012f70       ?Unlock@CComCriticalSection@ATL@@QAEJXZ 10013f70 f i jqsiestartdetectorimpl.obj
 0001:00012fc0       ?QueryInterface@?$CComObject@VCJQSIEStartDetectorImpl@@@ATL@@W7AGJABU_GUID@@PAPAX@Z 10013fc0 f i jqsiestartdetectorimpl.obj
 0001:00012fd0       ?AddRef@?$CComObject@VCJQSIEStartDetectorImpl@@@ATL@@W7AGKXZ 10013fd0 f i jqsiestartdetectorimpl.obj
 0001:00012fe0       ?Release@?$CComObject@VCJQSIEStartDetectorImpl@@@ATL@@W7AGKXZ 10013fe0 f i jqsiestartdetectorimpl.obj
 0001:00012ff0       ??0CAtlWinModule@ATL@@QAE@XZ 10013ff0 f i jqsiestartdetectorimpl.obj
 0001:00013060       ??0_ATL_WIN_MODULE70@ATL@@QAE@XZ 10014060 f i jqsiestartdetectorimpl.obj
 0001:000130b0       ?AtlWinModuleInit@ATL@@YGJPAU_ATL_WIN_MODULE70@1@@Z 100140b0 f i jqsiestartdetectorimpl.obj
 0001:00013120       ??0?$CSimpleArray@GV?$CSimpleArrayEqualHelper@G@ATL@@@ATL@@QAE@XZ 10014120 f i jqsiestartdetectorimpl.obj
 0001:00013170       ??1CAtlWinModule@ATL@@QAE@XZ 10014170 f i jqsiestartdetectorimpl.obj
 0001:000131f0       ?Term@CAtlWinModule@ATL@@QAEXXZ 100141f0 f i jqsiestartdetectorimpl.obj
 0001:00013240       ??1_ATL_WIN_MODULE70@ATL@@QAE@XZ 10014240 f i jqsiestartdetectorimpl.obj
 0001:00013290       ?AtlWinModuleTerm@ATL@@YGJPAU_ATL_WIN_MODULE70@1@PAUHINSTANCE__@@@Z 10014290 f i jqsiestartdetectorimpl.obj
 0001:00013360       ??1?$CSimpleArray@GV?$CSimpleArrayEqualHelper@G@ATL@@@ATL@@QAE@XZ 10014360 f i jqsiestartdetectorimpl.obj
 0001:000133a0       ?GetSize@?$CSimpleArray@GV?$CSimpleArrayEqualHelper@G@ATL@@@ATL@@QBEHXZ 100143a0 f i jqsiestartdetectorimpl.obj
 0001:000133d0       ?RemoveAll@?$CSimpleArray@GV?$CSimpleArrayEqualHelper@G@ATL@@@ATL@@QAEXXZ 100143d0 f i jqsiestartdetectorimpl.obj
 0001:00013470       ??A?$CSimpleArray@GV?$CSimpleArrayEqualHelper@G@ATL@@@ATL@@QAEAAGH@Z 10014470 f i jqsiestartdetectorimpl.obj
 0001:000134e0       _DllMain@12                100144e0 f   jqsiestartdetector.obj
 0001:00013540       _DllCanUnloadNow@0         10014540 f   jqsiestartdetector.obj
 0001:00013580       _DllGetClassObject@12      10014580 f   jqsiestartdetector.obj
 0001:000135d0       _DllRegisterServer@0       100145d0 f   jqsiestartdetector.obj
 0001:00013620       _DllUnregisterServer@0     10014620 f   jqsiestartdetector.obj
 0001:00013670       ?DllMain@?$CAtlDllModuleT@VCJQSIEStartDetectorModule@@@ATL@@QAGHKPAX@Z 10014670 f i jqsiestartdetector.obj
 0001:000136c0       ?DllCanUnloadNow@?$CAtlDllModuleT@VCJQSIEStartDetectorModule@@@ATL@@QAEJXZ 100146c0 f i jqsiestartdetector.obj
 0001:00013720       ?DllGetClassObject@?$CAtlDllModuleT@VCJQSIEStartDetectorModule@@@ATL@@QAEJABU_GUID@@0PAPAX@Z 10014720 f i jqsiestartdetector.obj
 0001:00013780       ?DllRegisterServer@?$CAtlDllModuleT@VCJQSIEStartDetectorModule@@@ATL@@QAEJH@Z 10014780 f i jqsiestartdetector.obj
 0001:000137f0       ?DllUnregisterServer@?$CAtlDllModuleT@VCJQSIEStartDetectorModule@@@ATL@@QAEJH@Z 100147f0 f i jqsiestartdetector.obj
 0001:00013860       ?GetClassObject@?$CAtlDllModuleT@VCJQSIEStartDetectorModule@@@ATL@@QAEJABU_GUID@@0PAPAX@Z 10014860 f i jqsiestartdetector.obj
 0001:000138b0       ?AtlComModuleGetClassObject@ATL@@YGJPAU_ATL_COM_MODULE70@1@ABU_GUID@@1PAPAX@Z 100148b0 f i jqsiestartdetector.obj
 0001:00013a70       ?RegisterServer@?$CAtlModuleT@VCJQSIEStartDetectorModule@@@ATL@@QAEJHPBU_GUID@@@Z 10014a70 f i jqsiestartdetector.obj
 0001:00013b00       ?RegisterServer@CAtlComModule@ATL@@QAEJHPBU_GUID@@@Z 10014b00 f i jqsiestartdetector.obj
 0001:00013b50       ?AtlComModuleRegisterServer@ATL@@YGJPAU_ATL_COM_MODULE70@1@HPBU_GUID@@@Z 10014b50 f i jqsiestartdetector.obj
 0001:00013c60       _IsEqualGUID               10014c60 f i jqsiestartdetector.obj
 0001:00013cb0       ?AtlRegisterTypeLib@ATL@@YGJPAUHINSTANCE__@@PBG@Z 10014cb0 f i jqsiestartdetector.obj
 0001:00013f30       ?CharNextO@@YAPAGPBG@Z     10014f30 f i jqsiestartdetector.obj
 0001:00013f80       ?AtlLoadTypeLib@ATL@@YGJPAUHINSTANCE__@@PBGPAPAGPAPAUITypeLib@@@Z 10014f80 f i jqsiestartdetector.obj
 0001:00014510       ??1?$CComPtr@UITypeLib@@@ATL@@QAE@XZ 10015510 f i jqsiestartdetector.obj
 0001:00014550       ?AtlRegisterClassCategoriesHelper@ATL@@YGJABU_GUID@@PBU_ATL_CATMAP_ENTRY@1@H@Z 10015550 f i jqsiestartdetector.obj
 0001:00014bb0       ??0CRegKey@ATL@@QAE@PAUHKEY__@@@Z 10015bb0 f i jqsiestartdetector.obj
 0001:00014bf0       ??1?$CComPtr@UICatRegister@@@ATL@@QAE@XZ 10015bf0 f i jqsiestartdetector.obj
 0001:00014c30       ??0?$CComPtr@UITypeLib@@@ATL@@QAE@XZ 10015c30 f i jqsiestartdetector.obj
 0001:00014c80       ??1?$CComPtrBase@UITypeLib@@@ATL@@QAE@XZ 10015c80 f i jqsiestartdetector.obj
 0001:00014ce0       ??B?$CComPtrBase@UITypeLib@@@ATL@@QBEPAUITypeLib@@XZ 10015ce0 f i jqsiestartdetector.obj
 0001:00014d10       ??I?$CComPtrBase@UITypeLib@@@ATL@@QAEPAPAUITypeLib@@XZ 10015d10 f i jqsiestartdetector.obj
 0001:00014d40       ??0?$CComPtr@UICatRegister@@@ATL@@QAE@XZ 10015d40 f i jqsiestartdetector.obj
 0001:00014d90       ??1?$CComPtrBase@UICatRegister@@@ATL@@QAE@XZ 10015d90 f i jqsiestartdetector.obj
 0001:00014df0       ??I?$CComPtrBase@UICatRegister@@@ATL@@QAEPAPAUICatRegister@@XZ 10015df0 f i jqsiestartdetector.obj
 0001:00014e20       ??C?$CComPtrBase@UICatRegister@@@ATL@@QBEPAV?$_NoAddRefReleaseOnCComPtr@UICatRegister@@@1@XZ 10015e20 f i jqsiestartdetector.obj
 0001:00014e50       ??0?$CComPtrBase@UITypeLib@@@ATL@@IAE@XZ 10015e50 f i jqsiestartdetector.obj
 0001:00014e90       ??0?$CComPtrBase@UICatRegister@@@ATL@@IAE@XZ 10015e90 f i jqsiestartdetector.obj
 0001:00014ed0       ?UnregisterServer@?$CAtlModuleT@VCJQSIEStartDetectorModule@@@ATL@@QAEJHPBU_GUID@@@Z 10015ed0 f i jqsiestartdetector.obj
 0001:00014f50       ?UnregisterServer@CAtlComModule@ATL@@QAEJHPBU_GUID@@@Z 10015f50 f i jqsiestartdetector.obj
 0001:00014fa0       ?AtlComModuleUnregisterServer@ATL@@YGJPAU_ATL_COM_MODULE70@1@HPBU_GUID@@@Z 10015fa0 f i jqsiestartdetector.obj
 0001:000150b0       ?AtlUnRegisterTypeLib@ATL@@YGJPAUHINSTANCE__@@PBG@Z 100160b0 f i jqsiestartdetector.obj
 0001:00015230       ??C?$CComPtrBase@UITypeLib@@@ATL@@QBEPAV?$_NoAddRefReleaseOnCComPtr@UITypeLib@@@1@XZ 10016230 f i jqsiestartdetector.obj
 0001:00015260       ?RegisterAppId@?$CAtlModuleT@VCJQSIEStartDetectorModule@@@ATL@@QAEJXZ 10016260 f i jqsiestartdetector.obj
 0001:000152a0       ?UpdateRegistryAppId@CJQSIEStartDetectorModule@@SGJH@Z 100162a0 f i jqsiestartdetector.obj
 0001:00015340       ?GetAppId@CJQSIEStartDetectorModule@@SAPBGXZ 10016340 f i jqsiestartdetector.obj
 0001:00015370       ?UnregisterAppId@?$CAtlModuleT@VCJQSIEStartDetectorModule@@@ATL@@QAEJXZ 10016370 f i jqsiestartdetector.obj
 0001:000153b0       ??0CJQSIEStartDetectorModule@@QAE@XZ 100163b0 f i jqsiestartdetector.obj
 0001:00015400       ?Lock@CAtlModule@ATL@@UAEJXZ 10016400 f i jqsiestartdetector.obj
 0001:00015450       ?Unlock@CAtlModule@ATL@@UAEJXZ 10016450 f i jqsiestartdetector.obj
 0001:000154a0       ?GetLockCount@CAtlModule@ATL@@UAEJXZ 100164a0 f i jqsiestartdetector.obj
 0001:000154d0       ?GetGITPtr@CAtlModule@ATL@@UAEJPAPAUIGlobalInterfaceTable@@@Z 100164d0 f i jqsiestartdetector.obj
 0001:00015580       ??_ECJQSIEStartDetectorModule@@UAEPAXI@Z 10016580 f i jqsiestartdetector.obj
 0001:00015580       ??_GCJQSIEStartDetectorModule@@UAEPAXI@Z 10016580 f i jqsiestartdetector.obj
 0001:000155e0       ??1CJQSIEStartDetectorModule@@UAE@XZ 100165e0 f i jqsiestartdetector.obj
 0001:00015620       ??0?$CAtlDllModuleT@VCJQSIEStartDetectorModule@@@ATL@@QAE@XZ 10016620 f i jqsiestartdetector.obj
 0001:00015670       ?ExecuteObjectMain@CAtlComModule@ATL@@QAEX_N@Z 10016670 f i jqsiestartdetector.obj
 0001:000156f0       ??1?$CAtlDllModuleT@VCJQSIEStartDetectorModule@@@ATL@@UAE@XZ 100166f0 f i jqsiestartdetector.obj
 0001:00015740       ?AddCommonRGSReplacements@?$CAtlModuleT@VCJQSIEStartDetectorModule@@@ATL@@UAEJPAUIRegistrarBase@@@Z 10016740 f i jqsiestartdetector.obj
 0001:000157a0       ??1?$CAtlModuleT@VCJQSIEStartDetectorModule@@@ATL@@UAE@XZ 100167a0 f i jqsiestartdetector.obj
 0001:000157e0       ??1CAtlModule@ATL@@UAE@XZ  100167e0 f i jqsiestartdetector.obj
 0001:00015820       ?Term@CAtlModule@ATL@@QAEXXZ 10016820 f i jqsiestartdetector.obj
 0001:000158e0       ?AtlCallTermFunc@ATL@@YGXPAU_ATL_MODULE70@1@@Z 100168e0 f i jqsiestartdetector.obj
 0001:00015990       ??0?$CAtlModuleT@VCJQSIEStartDetectorModule@@@ATL@@QAE@XZ 10016990 f i jqsiestartdetector.obj
 0001:000159e0       ??0CAtlModule@ATL@@QAE@XZ  100169e0 f i jqsiestartdetector.obj
 0001:00015a70       ??0_ATL_MODULE70@ATL@@QAE@XZ 10016a70 f i jqsiestartdetector.obj
 0001:00015ac0       ?InitLibId@CJQSIEStartDetectorModule@@SAXXZ 10016ac0 f i jqsiestartdetector.obj
 0001:00015b20       ?sendJQSAPICommand@@YA_NW4JQSAPIMessageKind@@@Z 10016b20 f   jqs_api_client.obj
 0001:00015ce0       ??0JQSAPIMessage@@QAE@W4JQSAPIMessageKind@@I@Z 10016ce0 f i jqs_api_client.obj
 0001:00015d80       ?append@JQSAPIMessage@@QAEXI@Z 10016d80 f i jqs_api_client.obj
 0001:00015e30       ?getBytes@JQSAPIMessage@@QBEABV?$vector@DV?$allocator@D@std@@@std@@XZ 10016e30 f i jqs_api_client.obj
 0001:00015e60       ?getMessage@SocketException@@QBEPBDXZ 10016e60 f i jqs_api_client.obj
 0001:00015ea0       ?getSocketError@SocketException@@QBEHXZ 10016ea0 f i jqs_api_client.obj
 0001:00015ed0       ?setTimeout@Connection@@QAEXH@Z 10016ed0 f i jqs_api_client.obj
 0001:00015f20       ??1JQSAPIMessage@@QAE@XZ   10016f20 f i jqs_api_client.obj
 0001:00015f60       ??0?$vector@DV?$allocator@D@std@@@std@@QAE@XZ 10016f60 f i jqs_api_client.obj
 0001:00015fc0       ?push_back@?$vector@DV?$allocator@D@std@@@std@@QAEXABD@Z 10016fc0 f i jqs_api_client.obj
 0001:00016060       ?insert@?$vector@DV?$allocator@D@std@@@std@@QAE?AViterator@12@V312@ABD@Z 10017060 f i jqs_api_client.obj
 0001:0001610c       _WSAStartup@8              1001710c f   ws2_32:WS2_32.dll
 0001:00016112       _WSACleanup@0              10017112 f   ws2_32:WS2_32.dll
 0001:00016118       _WSACreateEvent@0          10017118 f   ws2_32:WS2_32.dll
 0001:0001611e       _WSAGetLastError@0         1001711e f   ws2_32:WS2_32.dll
 0001:00016124       _WSACloseEvent@4           10017124 f   ws2_32:WS2_32.dll
 0001:0001612a       _WSAResetEvent@4           1001712a f   ws2_32:WS2_32.dll
 0001:00016130       _WSAWaitForMultipleEvents@20 10017130 f   ws2_32:WS2_32.dll
 0001:00016136       _WSASetEvent@4             10017136 f   ws2_32:WS2_32.dll
 0001:0001613c       _socket@12                 1001713c f   ws2_32:WS2_32.dll
 0001:00016142       _closesocket@4             10017142 f   ws2_32:WS2_32.dll
 0001:00016148       _bind@12                   10017148 f   ws2_32:WS2_32.dll
 0001:0001614e       _listen@8                  1001714e f   ws2_32:WS2_32.dll
 0001:00016154       _htonl@4                   10017154 f   ws2_32:WS2_32.dll
 0001:0001615a       _accept@12                 1001715a f   ws2_32:WS2_32.dll
 0001:00016160       _connect@12                10017160 f   ws2_32:WS2_32.dll
 0001:00016166       _send@16                   10017166 f   ws2_32:WS2_32.dll
 0001:0001616c       _recv@16                   1001716c f   ws2_32:WS2_32.dll
 0001:00016172       _getsockname@12            10017172 f   ws2_32:WS2_32.dll
 0001:00016178       _select@20                 10017178 f   ws2_32:WS2_32.dll
 0001:0001617e       _WSAEventSelect@12         1001717e f   ws2_32:WS2_32.dll
 0001:00016184       _htons@4                   10017184 f   ws2_32:WS2_32.dll
 0001:0001618a       _CoTaskMemFree@4           1001718a f   ole32:ole32.dll
 0001:00016190       _CoTaskMemAlloc@4          10017190 f   ole32:ole32.dll
 0001:00016196       _CoTaskMemRealloc@8        10017196 f   ole32:ole32.dll
 0001:0001619c       _StringFromGUID2@12        1001719c f   ole32:ole32.dll
 0001:000161a2       _CoCreateInstance@20       100171a2 f   ole32:ole32.dll
 0001:000161a8       _SysFreeString@4           100171a8 f   oleaut32:OLEAUT32.dll
 0001:000161ae       _VarUI4FromStr@16          100171ae f   oleaut32:OLEAUT32.dll
 0001:000161b4       _LoadRegTypeLib@20         100171b4 f   oleaut32:OLEAUT32.dll
 0001:000161ba       _LoadTypeLib@8             100171ba f   oleaut32:OLEAUT32.dll
 0001:000161c0       _SysStringLen@4            100171c0 f   oleaut32:OLEAUT32.dll
 0001:000161c6       _RegisterTypeLib@12        100171c6 f   oleaut32:OLEAUT32.dll
 0001:000161cc       _SysAllocString@4          100171cc f   oleaut32:OLEAUT32.dll
 0001:000161d2       _UnRegisterTypeLib@20      100171d2 f   oleaut32:OLEAUT32.dll
 0001:000161d8       __RTC_InitBase             100171d8 f   MSVCRT:init.obj
 0001:000161fe       __RTC_Shutdown             100171fe f   MSVCRT:init.obj
 0001:00016210       __RTC_CheckEsp             10017210 f   MSVCRT:stack.obj
 0001:00016233       @_RTC_CheckStackVars@8     10017233 f   MSVCRT:stack.obj
 0001:00016290       __allmul                   10017290 f   MSVCRT:llmul.obj
 0001:000162d0       __aulldiv                  100172d0 f   MSVCRT:ulldiv.obj
 0001:00016338       _tolower                   10017338 f   MSVCRT:MSVCR71.dll
 0001:0001633e       ___CxxFrameHandler         1001733e f   MSVCRT:MSVCR71.dll
 0001:00016375       @__security_check_cookie@4 10017375 f   MSVCRT:secchk.obj
 0001:00016390       _fgets                     10017390 f   MSVCRT:MSVCR71.dll
 0001:00016396       _memmove                   10017396 f   MSVCRT:MSVCR71.dll
 0001:0001639c       _strlen                    1001739c f   MSVCRT:MSVCR71.dll
 0001:000163a2       _memcpy                    100173a2 f   MSVCRT:MSVCR71.dll
 0001:000163a8       _memchr                    100173a8 f   MSVCRT:MSVCR71.dll
 0001:000163ae       ??3@YAXPAX@Z               100173ae f   MSVCRT:MSVCR71.dll
 0001:000163b4       __CxxThrowException@8      100173b4 f   MSVCRT:MSVCR71.dll
 0001:000163ba       ??2@YAPAXI@Z               100173ba f   MSVCRT:MSVCR71.dll
 0001:000163c0       __onexit                   100173c0 f   MSVCRT:atonexit.obj
 0001:000163e6       _atexit                    100173e6 f   MSVCRT:atonexit.obj
 0001:000163f8       __purecall                 100173f8 f   MSVCRT:MSVCR71.dll
 0001:000163fe       _strerror                  100173fe f   MSVCRT:MSVCR71.dll
 0001:00016404       __errno                    10017404 f   MSVCRT:MSVCR71.dll
 0001:0001640a       __beginthreadex            1001740a f   MSVCRT:MSVCR71.dll
 0001:00016410       __endthreadex              10017410 f   MSVCRT:MSVCR71.dll
 0001:00016416       __except_handler3          10017416 f   MSVCRT:MSVCR71.dll
 0001:0001641c       ??0type_info@@AAE@ABV0@@Z  1001741c f   MSVCRT:ti_inst.obj
 0001:00016427       ??_Etype_info@@UAEPAXI@Z   10017427 f i MSVCRT:ti_inst.obj
 0001:00016472       ??4type_info@@AAEAAV0@ABV0@@Z 10017472 f   MSVCRT:ti_inst.obj
 0001:00016478       ??0exception@@QAE@ABV0@@Z  10017478 f   MSVCRT:MSVCR71.dll
 0001:0001647e       ??1exception@@UAE@XZ       1001747e f   MSVCRT:MSVCR71.dll
 0001:00016484       ??0exception@@QAE@XZ       10017484 f   MSVCRT:MSVCR71.dll
 0001:0001648a       _fopen                     1001748a f   MSVCRT:MSVCR71.dll
 0001:00016490       _fclose                    10017490 f   MSVCRT:MSVCR71.dll
 0001:00016496       _setlocale                 10017496 f   MSVCRT:MSVCR71.dll
 0001:0001649c       __vsnprintf                1001749c f   MSVCRT:MSVCR71.dll
 0001:000164a2       _fflush                    100174a2 f   MSVCRT:MSVCR71.dll
 0001:000164a8       _fprintf                   100174a8 f   MSVCRT:MSVCR71.dll
 0001:000164ae       _strftime                  100174ae f   MSVCRT:MSVCR71.dll
 0001:000164b4       _localtime                 100174b4 f   MSVCRT:MSVCR71.dll
 0001:000164ba       _time                      100174ba f   MSVCRT:MSVCR71.dll
 0001:000164c0       _exit                      100174c0 f   MSVCRT:MSVCR71.dll
 0001:000164c6       __strnicmp                 100174c6 f   MSVCRT:MSVCR71.dll
 0001:000164cc       _memcmp                    100174cc f   MSVCRT:MSVCR71.dll
 0001:000164d2       ??_V@YAXPAX@Z              100174d2 f   MSVCRT:MSVCR71.dll
 0001:000164ea       ?__ArrayUnwind@@YGXPAXIHP6EX0@Z@Z 100174ea f   MSVCRT:ehvecdtr.obj
 0001:00016548       ??_M@YGXPAXIHP6EX0@Z@Z     10017548 f   MSVCRT:ehvecdtr.obj
 0001:000165b0       __alloca_probe             100175b0     MSVCRT:chkstk.obj
 0001:000165b0       __chkstk                   100175b0 f   MSVCRT:chkstk.obj
 0001:000165ee       __resetstkoflw             100175ee f   MSVCRT:MSVCR71.dll
 0001:000165f4       ??_U@YAPAXI@Z              100175f4 f   MSVCRT:MSVCR71.dll
 0001:000165fa       _memset                    100175fa f   MSVCRT:MSVCR71.dll
 0001:00016600       _malloc                    10017600 f   MSVCRT:MSVCR71.dll
 0001:00016606       _free                      10017606 f   MSVCRT:MSVCR71.dll
 0001:0001660c       _realloc                   1001760c f   MSVCRT:MSVCR71.dll
 0001:00016612       ??_L@YGXPAXIHP6EX0@Z1@Z    10017612 f   MSVCRT:ehvecctr.obj
 0001:00016674       _wcsncpy                   10017674 f   MSVCRT:MSVCR71.dll
 0001:0001667a       __CRT_INIT@12              1001767a f   MSVCRT:crtdll.obj
 0001:00016738       __DllMainCRTStartup@12     10017738 f   MSVCRT:crtdll.obj
 0001:0001681c       __RTC_NumErrors            1001781c f   MSVCRT:userapi.obj
 0001:00016820       __RTC_GetErrDesc           10017820 f   MSVCRT:userapi.obj
 0001:00016838       __RTC_SetErrorType         10017838 f   MSVCRT:userapi.obj
 0001:00016859       __RTC_SetErrorFunc         10017859 f   MSVCRT:userapi.obj
 0001:00016869       ?_RTC_GetErrorFunc@@YAP6AHHPBDH00ZZPBX@Z 10017869 f   MSVCRT:userapi.obj
 0001:00016870       __CRT_RTC_INIT             10017870 f   MSVCRT:MSVCR71.dll
 0001:00016b23       ?_RTC_Failure@@YAXPAXH@Z   10017b23 f   MSVCRT:error.obj
 0001:00016b61       ?_RTC_MemFailure@@YAXPAXHPBX@Z 10017b61 f   MSVCRT:error.obj
 0001:00016cf5       ?_RTC_StackFailure@@YAXPAXPBD@Z 10017cf5 f   MSVCRT:error.obj
 0001:00016d81       __RTC_UninitUse            10017d81 f   MSVCRT:error.obj
 0001:00016e27       ___security_init_cookie    10017e27 f   MSVCRT:seccinit.obj
 0001:00016e8e       ___security_error_handler  10017e8e f   MSVCRT:MSVCR71.dll
 0001:00016e94       __SEH_prolog               10017e94 f   MSVCRT:sehprolg.obj
 0001:00016ecf       __SEH_epilog               10017ecf f   MSVCRT:sehprolg.obj
 0001:00016ee0       ___dllonexit               10017ee0 f   MSVCRT:MSVCR71.dll
 0001:00016ee6       ??1type_info@@UAE@XZ       10017ee6 f   MSVCRT:MSVCR71.dll
 0001:00016eec       ?terminate@@YAXXZ          10017eec f   MSVCRT:MSVCR71.dll
 0001:00016ef2       __initterm                 10017ef2 f   MSVCRT:MSVCR71.dll
 0001:00016ef8       __RTC_Initialize           10017ef8 f   MSVCRT:initsect.obj
 0001:00016f3c       __RTC_Terminate            10017f3c f   MSVCRT:initsect.obj
 0001:00016f80       ___CppXcptFilter           10017f80 f   MSVCRT:MSVCR71.dll
 0001:0001740f       ?_RTC_GetSrcLine@@YAHKPADHPAHPAPAD@Z 1001840f f   MSVCRT:pdblkup.obj
 0001:0001775e       ??0out_of_range@std@@QAE@ABV?$basic_string@DU?$char_traits@D@std@@V?$allocator@D@2@@1@@Z 1001875e f i libcpmt:string.obj
 0001:00017776       ??_Gout_of_range@std@@UAEPAXI@Z 10018776 f i libcpmt:string.obj
 0001:00017776       ??_Eout_of_range@std@@UAEPAXI@Z 10018776 f i libcpmt:string.obj
 0001:00017792       ??1out_of_range@std@@UAE@XZ 10018792 f i libcpmt:string.obj
 0001:0001779d       ?_Xran@_String_base@std@@QBEXXZ 1001879d f   libcpmt:string.obj
 0001:000177dd       ??0out_of_range@std@@QAE@ABV01@@Z 100187dd f i libcpmt:string.obj
 0001:000177f5       ?_Xlen@_String_base@std@@QBEXXZ 100187f5 f   libcpmt:string.obj
 0001:00017835       ??0?$CSimpleArray@PAUHINSTANCE__@@V?$CSimpleArrayEqualHelper@PAUHINSTANCE__@@@ATL@@@ATL@@QAE@XZ 10018835 f i atls:atlbase.obj
 0001:00017842       ?GetSize@?$CSimpleArray@PAUHINSTANCE__@@V?$CSimpleArrayEqualHelper@PAUHINSTANCE__@@@ATL@@@ATL@@QBEHXZ 10018842 f i atls:atlbase.obj
 0001:00017846       ?RemoveAt@?$CSimpleArray@PAUHINSTANCE__@@V?$CSimpleArrayEqualHelper@PAUHINSTANCE__@@@ATL@@@ATL@@QAEHH@Z 10018846 f i atls:atlbase.obj
 0001:00017889       ?RemoveAll@?$CSimpleArray@PAUHINSTANCE__@@V?$CSimpleArrayEqualHelper@PAUHINSTANCE__@@@ATL@@@ATL@@QAEXXZ 10018889 f i atls:atlbase.obj
 0001:000178a6       ??0Wrapper@?$CSimpleArray@PAUHINSTANCE__@@V?$CSimpleArrayEqualHelper@PAUHINSTANCE__@@@ATL@@@ATL@@QAE@ABQAUHINSTANCE__@@@Z 100188a6 f i atls:atlbase.obj
 0001:000178b3       ??$?2PAUHINSTANCE__@@@Wrapper@?$CSimpleArray@PAUHINSTANCE__@@V?$CSimpleArrayEqualHelper@PAUHINSTANCE__@@@ATL@@@ATL@@SAPAXIPAPAUHINSTANCE__@@@Z 100188b3 f i atls:atlbase.obj
 0001:000178b8       ??1?$CSimpleArray@PAUHINSTANCE__@@V?$CSimpleArrayEqualHelper@PAUHINSTANCE__@@@ATL@@@ATL@@QAE@XZ 100188b8 f i atls:atlbase.obj
 0001:000178bd       ??A?$CSimpleArray@PAUHINSTANCE__@@V?$CSimpleArrayEqualHelper@PAUHINSTANCE__@@@ATL@@@ATL@@QAEAAPAUHINSTANCE__@@H@Z 100188bd f i atls:atlbase.obj
 0001:000178e4       ?InternalSetAtIndex@?$CSimpleArray@PAUHINSTANCE__@@V?$CSimpleArrayEqualHelper@PAUHINSTANCE__@@@ATL@@@ATL@@QAEXHABQAUHINSTANCE__@@@Z 100188e4 f i atls:atlbase.obj
 0001:000178fc       ??0_ATL_BASE_MODULE70@ATL@@QAE@XZ 100188fc f i atls:atlbase.obj
 0001:00017916       ??1_ATL_BASE_MODULE70@ATL@@QAE@XZ 10018916 f i atls:atlbase.obj
 0001:0001791e       ??1CAtlBaseModule@ATL@@QAE@XZ 1001891e f   atls:atlbase.obj
 0001:00017934       ?RemoveResourceInstance@CAtlBaseModule@ATL@@QAE_NPAUHINSTANCE__@@@Z 10018934 f   atls:atlbase.obj
 0001:0001798d       ?GetHInstanceAt@CAtlBaseModule@ATL@@QAEPAUHINSTANCE__@@H@Z 1001898d f   atls:atlbase.obj
 0001:000179db       ?Add@?$CSimpleArray@PAUHINSTANCE__@@V?$CSimpleArrayEqualHelper@PAUHINSTANCE__@@@ATL@@@ATL@@QAEHABQAUHINSTANCE__@@@Z 100189db f i atls:atlbase.obj
 0001:00017a26       ??0CAtlBaseModule@ATL@@QAE@XZ 10018a26 f   atls:atlbase.obj
 0001:00017ad1       ?AddResourceInstance@CAtlBaseModule@ATL@@QAE_NPAUHINSTANCE__@@@Z 10018ad1 f   atls:atlbase.obj
 0001:00017b0c       ?Term@CAtlComModule@ATL@@QAEXXZ 10018b0c f i atls:atlcommodule.obj
 0001:00017b4e       ??0_ATL_COM_MODULE70@ATL@@QAE@XZ 10018b4e f i atls:atlcommodule.obj
 0001:00017b5d       ??0CAtlComModule@ATL@@QAE@XZ 10018b5d f i atls:atlcommodule.obj
 0001:00017b9d       ??1CAtlComModule@ATL@@QAE@XZ 10018b9d f i atls:atlcommodule.obj
 0001:00017ba2       _CloseHandle@4             10018ba2 f   kernel32:KERNEL32.dll
 0001:00017ba8       _GetLastError@0            10018ba8 f   kernel32:KERNEL32.dll
 0001:00017bae       _WaitForSingleObject@8     10018bae f   kernel32:KERNEL32.dll
 0001:00017bb4       _GetModuleFileNameA@12     10018bb4 f   kernel32:KERNEL32.dll
 0001:00017bba       _GetLongPathNameA@12       10018bba f   kernel32:KERNEL32.dll
 0001:00017bc0       _GetFullPathNameA@16       10018bc0 f   kernel32:KERNEL32.dll
 0001:00017bc6       _QueryDosDeviceA@12        10018bc6 f   kernel32:KERNEL32.dll
 0001:00017bcc       _GetLogicalDrives@0        10018bcc f   kernel32:KERNEL32.dll
 0001:00017bd2       _CreateFileA@28            10018bd2 f   kernel32:KERNEL32.dll
 0001:00017bd8       _WideCharToMultiByte@32    10018bd8 f   kernel32:KERNEL32.dll
 0001:00017bde       _GetCurrentProcess@0       10018bde f   kernel32:KERNEL32.dll
 0001:00017be4       _GetCurrentThread@0        10018be4 f   kernel32:KERNEL32.dll
 0001:00017bea       _GetThreadLocale@0         10018bea f   kernel32:KERNEL32.dll
 0001:00017bf0       _LoadLibraryA@4            10018bf0 f   kernel32:KERNEL32.dll
 0001:00017bf6       _GetSystemInfo@4           10018bf6 f   kernel32:KERNEL32.dll
 0001:00017bfc       _GetVersionExA@4           10018bfc f   kernel32:KERNEL32.dll
 0001:00017c02       _SetErrorMode@4            10018c02 f   kernel32:KERNEL32.dll
 0001:00017c08       _FreeLibrary@4             10018c08 f   kernel32:KERNEL32.dll
 0001:00017c0e       _GetProcAddress@8          10018c0e f   kernel32:KERNEL32.dll
 0001:00017c14       _InterlockedExchange@8     10018c14 f   kernel32:KERNEL32.dll
 0001:00017c1a       _GetACP@0                  10018c1a f   kernel32:KERNEL32.dll
 0001:00017c20       _GetLocaleInfoA@16         10018c20 f   kernel32:KERNEL32.dll
 0001:00017c26       _GetModuleHandleA@4        10018c26 f   kernel32:KERNEL32.dll
 0001:00017c2c       _lstrlenA@4                10018c2c f   kernel32:KERNEL32.dll
 0001:00017c32       _MultiByteToWideChar@24    10018c32 f   kernel32:KERNEL32.dll
 0001:00017c38       _lstrlenW@4                10018c38 f   kernel32:KERNEL32.dll
 0001:00017c3e       _SizeofResource@8          10018c3e f   kernel32:KERNEL32.dll
 0001:00017c44       _LoadResource@8            10018c44 f   kernel32:KERNEL32.dll
 0001:00017c4a       _FindResourceA@12          10018c4a f   kernel32:KERNEL32.dll
 0001:00017c50       _LoadLibraryExA@12         10018c50 f   kernel32:KERNEL32.dll
 0001:00017c56       _lstrcmpiA@8               10018c56 f   kernel32:KERNEL32.dll
 0001:00017c5c       _lstrcpynA@12              10018c5c f   kernel32:KERNEL32.dll
 0001:00017c62       _IsDBCSLeadByte@4          10018c62 f   kernel32:KERNEL32.dll
 0001:00017c68       _RaiseException@16         10018c68 f   kernel32:KERNEL32.dll
 0001:00017c6e       _DeleteCriticalSection@4   10018c6e f   kernel32:KERNEL32.dll
 0001:00017c74       _InitializeCriticalSection@4 10018c74 f   kernel32:KERNEL32.dll
 0001:00017c7a       _InterlockedIncrement@4    10018c7a f   kernel32:KERNEL32.dll
 0001:00017c80       _InterlockedDecrement@4    10018c80 f   kernel32:KERNEL32.dll
 0001:00017c86       _EnterCriticalSection@4    10018c86 f   kernel32:KERNEL32.dll
 0001:00017c8c       _LeaveCriticalSection@4    10018c8c f   kernel32:KERNEL32.dll
 0001:00017c92       _DisableThreadLibraryCalls@4 10018c92 f   kernel32:KERNEL32.dll
 0001:00017c98       _lstrcpyA@8                10018c98 f   kernel32:KERNEL32.dll
 0001:00017c9e       _lstrcatA@8                10018c9e f   kernel32:KERNEL32.dll
 0001:00017ca4       _ExitProcess@4             10018ca4 f   kernel32:KERNEL32.dll
 0001:00017caa       _DebugBreak@0              10018caa f   kernel32:KERNEL32.dll
 0001:00017cb0       _QueryPerformanceCounter@4 10018cb0 f   kernel32:KERNEL32.dll
 0001:00017cb6       _GetTickCount@0            10018cb6 f   kernel32:KERNEL32.dll
 0001:00017cbc       _GetCurrentThreadId@0      10018cbc f   kernel32:KERNEL32.dll
 0001:00017cc2       _GetCurrentProcessId@0     10018cc2 f   kernel32:KERNEL32.dll
 0001:00017cc8       _GetSystemTimeAsFileTime@4 10018cc8 f   kernel32:KERNEL32.dll
 0001:00017cce       _HeapAlloc@12              10018cce f   kernel32:KERNEL32.dll
 0001:00017cd4       _HeapFree@12               10018cd4 f   kernel32:KERNEL32.dll
 0001:00017cda       _GetProcessHeap@0          10018cda f   kernel32:KERNEL32.dll
 0001:00017ce0       _CharNextA@4               10018ce0 f   user32:USER32.dll
 0001:00017ce6       _UnregisterClassA@8        10018ce6 f   user32:USER32.dll
 0001:00017cec       _RegSetValueExA@24         10018cec f   advapi32:ADVAPI32.dll
 0001:00017cf2       _RegCreateKeyExA@36        10018cf2 f   advapi32:ADVAPI32.dll
 0001:00017cf8       _RegCloseKey@4             10018cf8 f   advapi32:ADVAPI32.dll
 0001:00017cfe       _RegDeleteKeyA@8           10018cfe f   advapi32:ADVAPI32.dll
 0001:00017d04       _RegOpenKeyExA@20          10018d04 f   advapi32:ADVAPI32.dll
 0001:00017d0a       _DeregisterEventSource@4   10018d0a f   advapi32:ADVAPI32.dll
 0001:00017d10       _ReportEventA@36           10018d10 f   advapi32:ADVAPI32.dll
 0001:00017d16       _RegisterEventSourceA@8    10018d16 f   advapi32:ADVAPI32.dll
 0001:00017d1c       _FreeSid@4                 10018d1c f   advapi32:ADVAPI32.dll
 0001:00017d22       _EqualSid@8                10018d22 f   advapi32:ADVAPI32.dll
 0001:00017d28       _AllocateAndInitializeSid@44 10018d28 f   advapi32:ADVAPI32.dll
 0001:00017d2e       _GetTokenInformation@20    10018d2e f   advapi32:ADVAPI32.dll
 0001:00017d34       _OpenProcessToken@12       10018d34 f   advapi32:ADVAPI32.dll
 0001:00017d3a       _OpenThreadToken@16        10018d3a f   advapi32:ADVAPI32.dll
 0001:00017d40       _RegDeleteValueA@8         10018d40 f   advapi32:ADVAPI32.dll
 0001:00017d46       _RegEnumKeyExA@32          10018d46 f   advapi32:ADVAPI32.dll
 0001:00017d4c       _RegQueryInfoKeyA@48       10018d4c f   advapi32:ADVAPI32.dll
 0001:00017d52       _PathFindExtensionA@4      10018d52 f   shlwapi:SHLWAPI.dll
 0001:00017d58       __EH_prolog                10018d58 f   MSVCRT:ehprolog.obj
 0002:00000000       __imp__EqualSid@8          1001a000     advapi32:ADVAPI32.dll
 0002:00000004       __imp__RegCreateKeyExA@36  1001a004     advapi32:ADVAPI32.dll
 0002:00000008       __imp__RegQueryInfoKeyA@48 1001a008     advapi32:ADVAPI32.dll
 0002:0000000c       __imp__RegEnumKeyExA@32    1001a00c     advapi32:ADVAPI32.dll
 0002:00000010       __imp__RegDeleteValueA@8   1001a010     advapi32:ADVAPI32.dll
 0002:00000014       __imp__OpenThreadToken@16  1001a014     advapi32:ADVAPI32.dll
 0002:00000018       __imp__OpenProcessToken@12 1001a018     advapi32:ADVAPI32.dll
 0002:0000001c       __imp__GetTokenInformation@20 1001a01c     advapi32:ADVAPI32.dll
 0002:00000020       __imp__AllocateAndInitializeSid@44 1001a020     advapi32:ADVAPI32.dll
 0002:00000024       __imp__RegSetValueExA@24   1001a024     advapi32:ADVAPI32.dll
 0002:00000028       __imp__FreeSid@4           1001a028     advapi32:ADVAPI32.dll
 0002:0000002c       __imp__RegisterEventSourceA@8 1001a02c     advapi32:ADVAPI32.dll
 0002:00000030       __imp__ReportEventA@36     1001a030     advapi32:ADVAPI32.dll
 0002:00000034       __imp__DeregisterEventSource@4 1001a034     advapi32:ADVAPI32.dll
 0002:00000038       __imp__RegOpenKeyExA@20    1001a038     advapi32:ADVAPI32.dll
 0002:0000003c       __imp__RegDeleteKeyA@8     1001a03c     advapi32:ADVAPI32.dll
 0002:00000040       __imp__RegCloseKey@4       1001a040     advapi32:ADVAPI32.dll
 0002:00000044       \177ADVAPI32_NULL_THUNK_DATA 1001a044     advapi32:ADVAPI32.dll
 0002:00000048       __imp__QueryPerformanceCounter@4 1001a048     kernel32:KERNEL32.dll
 0002:0000004c       __imp__DebugBreak@0        1001a04c     kernel32:KERNEL32.dll
 0002:00000050       __imp__GetProcessHeap@0    1001a050     kernel32:KERNEL32.dll
 0002:00000054       __imp__HeapFree@12         1001a054     kernel32:KERNEL32.dll
 0002:00000058       __imp__HeapAlloc@12        1001a058     kernel32:KERNEL32.dll
 0002:0000005c       __imp__GetSystemTimeAsFileTime@4 1001a05c     kernel32:KERNEL32.dll
 0002:00000060       __imp__GetCurrentProcessId@0 1001a060     kernel32:KERNEL32.dll
 0002:00000064       __imp__GetCurrentThreadId@0 1001a064     kernel32:KERNEL32.dll
 0002:00000068       __imp__GetTickCount@0      1001a068     kernel32:KERNEL32.dll
 0002:0000006c       __imp__ExitProcess@4       1001a06c     kernel32:KERNEL32.dll
 0002:00000070       __imp__lstrcatA@8          1001a070     kernel32:KERNEL32.dll
 0002:00000074       __imp__lstrcpyA@8          1001a074     kernel32:KERNEL32.dll
 0002:00000078       __imp__DisableThreadLibraryCalls@4 1001a078     kernel32:KERNEL32.dll
 0002:0000007c       __imp__LeaveCriticalSection@4 1001a07c     kernel32:KERNEL32.dll
 0002:00000080       __imp__EnterCriticalSection@4 1001a080     kernel32:KERNEL32.dll
 0002:00000084       __imp__InterlockedDecrement@4 1001a084     kernel32:KERNEL32.dll
 0002:00000088       __imp__InterlockedIncrement@4 1001a088     kernel32:KERNEL32.dll
 0002:0000008c       __imp__InitializeCriticalSection@4 1001a08c     kernel32:KERNEL32.dll
 0002:00000090       __imp__IsDBCSLeadByte@4    1001a090     kernel32:KERNEL32.dll
 0002:00000094       __imp__lstrcpynA@12        1001a094     kernel32:KERNEL32.dll
 0002:00000098       __imp__lstrcmpiA@8         1001a098     kernel32:KERNEL32.dll
 0002:0000009c       __imp__LoadLibraryExA@12   1001a09c     kernel32:KERNEL32.dll
 0002:000000a0       __imp__FindResourceA@12    1001a0a0     kernel32:KERNEL32.dll
 0002:000000a4       __imp__LoadResource@8      1001a0a4     kernel32:KERNEL32.dll
 0002:000000a8       __imp__SizeofResource@8    1001a0a8     kernel32:KERNEL32.dll
 0002:000000ac       __imp__lstrlenW@4          1001a0ac     kernel32:KERNEL32.dll
 0002:000000b0       __imp__MultiByteToWideChar@24 1001a0b0     kernel32:KERNEL32.dll
 0002:000000b4       __imp__lstrlenA@4          1001a0b4     kernel32:KERNEL32.dll
 0002:000000b8       __imp__GetModuleHandleA@4  1001a0b8     kernel32:KERNEL32.dll
 0002:000000bc       __imp__GetLocaleInfoA@16   1001a0bc     kernel32:KERNEL32.dll
 0002:000000c0       __imp__GetACP@0            1001a0c0     kernel32:KERNEL32.dll
 0002:000000c4       __imp__InterlockedExchange@8 1001a0c4     kernel32:KERNEL32.dll
 0002:000000c8       __imp__GetProcAddress@8    1001a0c8     kernel32:KERNEL32.dll
 0002:000000cc       __imp__FreeLibrary@4       1001a0cc     kernel32:KERNEL32.dll
 0002:000000d0       __imp__SetErrorMode@4      1001a0d0     kernel32:KERNEL32.dll
 0002:000000d4       __imp__GetVersionExA@4     1001a0d4     kernel32:KERNEL32.dll
 0002:000000d8       __imp__GetSystemInfo@4     1001a0d8     kernel32:KERNEL32.dll
 0002:000000dc       __imp__LoadLibraryA@4      1001a0dc     kernel32:KERNEL32.dll
 0002:000000e0       __imp__GetThreadLocale@0   1001a0e0     kernel32:KERNEL32.dll
 0002:000000e4       __imp__GetCurrentThread@0  1001a0e4     kernel32:KERNEL32.dll
 0002:000000e8       __imp__GetCurrentProcess@0 1001a0e8     kernel32:KERNEL32.dll
 0002:000000ec       __imp__RaiseException@16   1001a0ec     kernel32:KERNEL32.dll
 0002:000000f0       __imp__WideCharToMultiByte@32 1001a0f0     kernel32:KERNEL32.dll
 0002:000000f4       __imp__CreateFileA@28      1001a0f4     kernel32:KERNEL32.dll
 0002:000000f8       __imp__GetLogicalDrives@0  1001a0f8     kernel32:KERNEL32.dll
 0002:000000fc       __imp__QueryDosDeviceA@12  1001a0fc     kernel32:KERNEL32.dll
 0002:00000100       __imp__GetFullPathNameA@16 1001a100     kernel32:KERNEL32.dll
 0002:00000104       __imp__GetLongPathNameA@12 1001a104     kernel32:KERNEL32.dll
 0002:00000108       __imp__GetModuleFileNameA@12 1001a108     kernel32:KERNEL32.dll
 0002:0000010c       __imp__WaitForSingleObject@8 1001a10c     kernel32:KERNEL32.dll
 0002:00000110       __imp__GetLastError@0      1001a110     kernel32:KERNEL32.dll
 0002:00000114       __imp__CloseHandle@4       1001a114     kernel32:KERNEL32.dll
 0002:00000118       __imp__DeleteCriticalSection@4 1001a118     kernel32:KERNEL32.dll
 0002:0000011c       \177KERNEL32_NULL_THUNK_DATA 1001a11c     kernel32:KERNEL32.dll
 0002:00000120       __imp__memset              1001a120     MSVCRT:MSVCR71.dll
 0002:00000124       __imp__malloc              1001a124     MSVCRT:MSVCR71.dll
 0002:00000128       __imp__free                1001a128     MSVCRT:MSVCR71.dll
 0002:0000012c       __imp__realloc             1001a12c     MSVCRT:MSVCR71.dll
 0002:00000130       __imp__wcsncpy             1001a130     MSVCRT:MSVCR71.dll
 0002:00000134       __imp___CRT_RTC_INIT       1001a134     MSVCRT:MSVCR71.dll
 0002:00000138       __imp____security_error_handler 1001a138     MSVCRT:MSVCR71.dll
 0002:0000013c       __imp____dllonexit         1001a13c     MSVCRT:MSVCR71.dll
 0002:00000140       __imp___onexit             1001a140     MSVCRT:MSVCR71.dll
 0002:00000144       __imp_??1type_info@@UAE@XZ 1001a144     MSVCRT:MSVCR71.dll
 0002:00000148       __imp_??_U@YAPAXI@Z        1001a148     MSVCRT:MSVCR71.dll
 0002:0000014c       __imp___initterm           1001a14c     MSVCRT:MSVCR71.dll
 0002:00000150       __imp___adjust_fdiv        1001a150     MSVCRT:MSVCR71.dll
 0002:00000154       __imp____CppXcptFilter     1001a154     MSVCRT:MSVCR71.dll
 0002:00000158       __imp___resetstkoflw       1001a158     MSVCRT:MSVCR71.dll
 0002:0000015c       __imp_??_V@YAXPAX@Z        1001a15c     MSVCRT:MSVCR71.dll
 0002:00000160       __imp__memcmp              1001a160     MSVCRT:MSVCR71.dll
 0002:00000164       __imp___strnicmp           1001a164     MSVCRT:MSVCR71.dll
 0002:00000168       __imp__exit                1001a168     MSVCRT:MSVCR71.dll
 0002:0000016c       __imp__time                1001a16c     MSVCRT:MSVCR71.dll
 0002:00000170       __imp__localtime           1001a170     MSVCRT:MSVCR71.dll
 0002:00000174       __imp__strftime            1001a174     MSVCRT:MSVCR71.dll
 0002:00000178       __imp__fprintf             1001a178     MSVCRT:MSVCR71.dll
 0002:0000017c       __imp__fflush              1001a17c     MSVCRT:MSVCR71.dll
 0002:00000180       __imp___vsnprintf          1001a180     MSVCRT:MSVCR71.dll
 0002:00000184       __imp__setlocale           1001a184     MSVCRT:MSVCR71.dll
 0002:00000188       __imp__fclose              1001a188     MSVCRT:MSVCR71.dll
 0002:0000018c       __imp__fopen               1001a18c     MSVCRT:MSVCR71.dll
 0002:00000190       __imp_??0exception@@QAE@XZ 1001a190     MSVCRT:MSVCR71.dll
 0002:00000194       __imp_??1exception@@UAE@XZ 1001a194     MSVCRT:MSVCR71.dll
 0002:00000198       __imp_??0exception@@QAE@ABV0@@Z 1001a198     MSVCRT:MSVCR71.dll
 0002:0000019c       __imp___except_handler3    1001a19c     MSVCRT:MSVCR71.dll
 0002:000001a0       __imp___endthreadex        1001a1a0     MSVCRT:MSVCR71.dll
 0002:000001a4       __imp___beginthreadex      1001a1a4     MSVCRT:MSVCR71.dll
 0002:000001a8       __imp___errno              1001a1a8     MSVCRT:MSVCR71.dll
 0002:000001ac       __imp__strerror            1001a1ac     MSVCRT:MSVCR71.dll
 0002:000001b0       __imp___purecall           1001a1b0     MSVCRT:MSVCR71.dll
 0002:000001b4       __imp_??2@YAPAXI@Z         1001a1b4     MSVCRT:MSVCR71.dll
 0002:000001b8       __imp___CxxThrowException@8 1001a1b8     MSVCRT:MSVCR71.dll
 0002:000001bc       __imp_??3@YAXPAX@Z         1001a1bc     MSVCRT:MSVCR71.dll
 0002:000001c0       __imp__memchr              1001a1c0     MSVCRT:MSVCR71.dll
 0002:000001c4       __imp__memcpy              1001a1c4     MSVCRT:MSVCR71.dll
 0002:000001c8       __imp__strlen              1001a1c8     MSVCRT:MSVCR71.dll
 0002:000001cc       __imp__memmove             1001a1cc     MSVCRT:MSVCR71.dll
 0002:000001d0       __imp__fgets               1001a1d0     MSVCRT:MSVCR71.dll
 0002:000001d4       __imp____CxxFrameHandler   1001a1d4     MSVCRT:MSVCR71.dll
 0002:000001d8       __imp__tolower             1001a1d8     MSVCRT:MSVCR71.dll
 0002:000001dc       __imp___iob                1001a1dc     MSVCRT:MSVCR71.dll
 0002:000001e0       __imp_?terminate@@YAXXZ    1001a1e0     MSVCRT:MSVCR71.dll
 0002:000001e4       \177MSVCR71_NULL_THUNK_DATA 1001a1e4     MSVCRT:MSVCR71.dll
 0002:000001e8       __imp__UnRegisterTypeLib@20 1001a1e8     oleaut32:OLEAUT32.dll
 0002:000001ec       __imp__SysAllocString@4    1001a1ec     oleaut32:OLEAUT32.dll
 0002:000001f0       __imp__RegisterTypeLib@12  1001a1f0     oleaut32:OLEAUT32.dll
 0002:000001f4       __imp__SysStringLen@4      1001a1f4     oleaut32:OLEAUT32.dll
 0002:000001f8       __imp__LoadTypeLib@8       1001a1f8     oleaut32:OLEAUT32.dll
 0002:000001fc       __imp__LoadRegTypeLib@20   1001a1fc     oleaut32:OLEAUT32.dll
 0002:00000200       __imp__VarUI4FromStr@16    1001a200     oleaut32:OLEAUT32.dll
 0002:00000204       __imp__SysFreeString@4     1001a204     oleaut32:OLEAUT32.dll
 0002:00000208       \177OLEAUT32_NULL_THUNK_DATA 1001a208     oleaut32:OLEAUT32.dll
 0002:0000020c       __imp__PathFindExtensionA@4 1001a20c     shlwapi:SHLWAPI.dll
 0002:00000210       \177SHLWAPI_NULL_THUNK_DATA 1001a210     shlwapi:SHLWAPI.dll
 0002:00000214       __imp__CharNextA@4         1001a214     user32:USER32.dll
 0002:00000218       __imp__UnregisterClassA@8  1001a218     user32:USER32.dll
 0002:0000021c       \177USER32_NULL_THUNK_DATA 1001a21c     user32:USER32.dll
 0002:00000220       __imp__WSACloseEvent@4     1001a220     ws2_32:WS2_32.dll
 0002:00000224       __imp__WSACreateEvent@0    1001a224     ws2_32:WS2_32.dll
 0002:00000228       __imp__htons@4             1001a228     ws2_32:WS2_32.dll
 0002:0000022c       __imp__WSACleanup@0        1001a22c     ws2_32:WS2_32.dll
 0002:00000230       __imp__WSAResetEvent@4     1001a230     ws2_32:WS2_32.dll
 0002:00000234       __imp__WSAGetLastError@0   1001a234     ws2_32:WS2_32.dll
 0002:00000238       __imp__send@16             1001a238     ws2_32:WS2_32.dll
 0002:0000023c       __imp__WSAEventSelect@12   1001a23c     ws2_32:WS2_32.dll
 0002:00000240       __imp__select@20           1001a240     ws2_32:WS2_32.dll
 0002:00000244       __imp__getsockname@12      1001a244     ws2_32:WS2_32.dll
 0002:00000248       __imp__recv@16             1001a248     ws2_32:WS2_32.dll
 0002:0000024c       __imp__WSAStartup@8        1001a24c     ws2_32:WS2_32.dll
 0002:00000250       __imp__connect@12          1001a250     ws2_32:WS2_32.dll
 0002:00000254       __imp__accept@12           1001a254     ws2_32:WS2_32.dll
 0002:00000258       __imp__htonl@4             1001a258     ws2_32:WS2_32.dll
 0002:0000025c       __imp__listen@8            1001a25c     ws2_32:WS2_32.dll
 0002:00000260       __imp__bind@12             1001a260     ws2_32:WS2_32.dll
 0002:00000264       __imp__closesocket@4       1001a264     ws2_32:WS2_32.dll
 0002:00000268       __imp__socket@12           1001a268     ws2_32:WS2_32.dll
 0002:0000026c       __imp__WSASetEvent@4       1001a26c     ws2_32:WS2_32.dll
 0002:00000270       __imp__WSAWaitForMultipleEvents@20 1001a270     ws2_32:WS2_32.dll
 0002:00000274       \177WS2_32_NULL_THUNK_DATA 1001a274     ws2_32:WS2_32.dll
 0002:00000278       __imp__CoTaskMemAlloc@4    1001a278     ole32:ole32.dll
 0002:0000027c       __imp__CoTaskMemRealloc@8  1001a27c     ole32:ole32.dll
 0002:00000280       __imp__StringFromGUID2@12  1001a280     ole32:ole32.dll
 0002:00000284       __imp__CoCreateInstance@20 1001a284     ole32:ole32.dll
 0002:00000288       __imp__CoTaskMemFree@4     1001a288     ole32:ole32.dll
 0002:0000028c       \177ole32_NULL_THUNK_DATA  1001a28c     ole32:ole32.dll
 0002:000002ac       _IID_IJQSIEStartDetectorImpl 1001a2ac     jqsiestartdetector_i.obj
 0002:000002bc       _LIBID_JQSIEStartDetectorLib 1001a2bc     jqsiestartdetector_i.obj
 0002:000002cc       _CLSID_JQSIEStartDetectorImpl 1001a2cc     jqsiestartdetector_i.obj
 0002:000002dc       ?end@?$_Iosb@H@std@@2W4_Seekdir@12@B 1001a2dc     utils.obj
 0002:000002e0       ?cur@?$_Iosb@H@std@@2W4_Seekdir@12@B 1001a2e0     utils.obj
 0002:000002e4       ?beg@?$_Iosb@H@std@@2W4_Seekdir@12@B 1001a2e4     utils.obj
 0002:000002e8       ?binary@?$_Iosb@H@std@@2W4_Openmode@12@B 1001a2e8     utils.obj
 0002:000002ec       ?_Noreplace@?$_Iosb@H@std@@2W4_Openmode@12@B 1001a2ec     utils.obj
 0002:000002f0       ?_Nocreate@?$_Iosb@H@std@@2W4_Openmode@12@B 1001a2f0     utils.obj
 0002:000002f4       ?trunc@?$_Iosb@H@std@@2W4_Openmode@12@B 1001a2f4     utils.obj
 0002:000002f8       ?app@?$_Iosb@H@std@@2W4_Openmode@12@B 1001a2f8     utils.obj
 0002:000002fc       ?ate@?$_Iosb@H@std@@2W4_Openmode@12@B 1001a2fc     utils.obj
 0002:00000300       ?out@?$_Iosb@H@std@@2W4_Openmode@12@B 1001a300     utils.obj
 0002:00000304       ?in@?$_Iosb@H@std@@2W4_Openmode@12@B 1001a304     utils.obj
 0002:00000308       ?_Hardfail@?$_Iosb@H@std@@2W4_Iostate@12@B 1001a308     utils.obj
 0002:0000030c       ?badbit@?$_Iosb@H@std@@2W4_Iostate@12@B 1001a30c     utils.obj
 0002:00000310       ?failbit@?$_Iosb@H@std@@2W4_Iostate@12@B 1001a310     utils.obj
 0002:00000314       ?eofbit@?$_Iosb@H@std@@2W4_Iostate@12@B 1001a314     utils.obj
 0002:00000318       ?goodbit@?$_Iosb@H@std@@2W4_Iostate@12@B 1001a318     utils.obj
 0002:0000031c       ?floatfield@?$_Iosb@H@std@@2W4_Fmtflags@12@B 1001a31c     utils.obj
 0002:00000320       ?basefield@?$_Iosb@H@std@@2W4_Fmtflags@12@B 1001a320     utils.obj
 0002:00000324       ?adjustfield@?$_Iosb@H@std@@2W4_Fmtflags@12@B 1001a324     utils.obj
 0002:00000328       ?_Stdio@?$_Iosb@H@std@@2W4_Fmtflags@12@B 1001a328     utils.obj
 0002:0000032c       ?boolalpha@?$_Iosb@H@std@@2W4_Fmtflags@12@B 1001a32c     utils.obj
 0002:00000330       ?fixed@?$_Iosb@H@std@@2W4_Fmtflags@12@B 1001a330     utils.obj
 0002:00000334       ?scientific@?$_Iosb@H@std@@2W4_Fmtflags@12@B 1001a334     utils.obj
 0002:00000338       ?hex@?$_Iosb@H@std@@2W4_Fmtflags@12@B 1001a338     utils.obj
 0002:0000033c       ?oct@?$_Iosb@H@std@@2W4_Fmtflags@12@B 1001a33c     utils.obj
 0002:00000340       ?dec@?$_Iosb@H@std@@2W4_Fmtflags@12@B 1001a340     utils.obj
 0002:00000344       ?internal@?$_Iosb@H@std@@2W4_Fmtflags@12@B 1001a344     utils.obj
 0002:00000348       ?right@?$_Iosb@H@std@@2W4_Fmtflags@12@B 1001a348     utils.obj
 0002:0000034c       ?left@?$_Iosb@H@std@@2W4_Fmtflags@12@B 1001a34c     utils.obj
 0002:00000350       ?showpos@?$_Iosb@H@std@@2W4_Fmtflags@12@B 1001a350     utils.obj
 0002:00000354       ?showpoint@?$_Iosb@H@std@@2W4_Fmtflags@12@B 1001a354     utils.obj
 0002:00000358       ?showbase@?$_Iosb@H@std@@2W4_Fmtflags@12@B 1001a358     utils.obj
 0002:0000035c       ?uppercase@?$_Iosb@H@std@@2W4_Fmtflags@12@B 1001a35c     utils.obj
 0002:00000360       ?unitbuf@?$_Iosb@H@std@@2W4_Fmtflags@12@B 1001a360     utils.obj
 0002:00000364       ?skipws@?$_Iosb@H@std@@2W4_Fmtflags@12@B 1001a364     utils.obj
 0002:00000368       ?none@?$_Locbase@H@std@@2HB 1001a368     utils.obj
 0002:0000036c       ?all@?$_Locbase@H@std@@2HB 1001a36c     utils.obj
 0002:00000370       ?messages@?$_Locbase@H@std@@2HB 1001a370     utils.obj
 0002:00000374       ?time@?$_Locbase@H@std@@2HB 1001a374     utils.obj
 0002:00000378       ?numeric@?$_Locbase@H@std@@2HB 1001a378     utils.obj
 0002:0000037c       ?monetary@?$_Locbase@H@std@@2HB 1001a37c     utils.obj
 0002:00000380       ?ctype@?$_Locbase@H@std@@2HB 1001a380     utils.obj
 0002:00000384       ?collate@?$_Locbase@H@std@@2HB 1001a384     utils.obj
 0002:00000388       ??_C@_0BL@MEPKDKDH@Assertion?5failed?5at?5?$CFs?3?$CFd?6?$AA@ 1001a388     utils.obj
 0002:000003a4       ??_C@_0DF@BIPJNCBN@c?3?2build_area?2jdk6_21?2deploy?2src@ 1001a3a4     utils.obj
 0002:000003d9       ??_C@_00CNPNBAHC@?$AA@     1001a3d9     utils.obj
 0002:000003dc       ?npos@?$basic_string@DU?$char_traits@D@std@@V?$allocator@D@2@@std@@2IB 1001a3dc     utils.obj
 0002:000003e0       ??_C@_02OJDBNLEE@?5?7?$AA@ 1001a3e0     utils.obj
 0002:000003e4       ??_7Thread@@6B@            1001a3e4     thread.obj
 0002:000003f0       ??_C@_0BM@DJLNFPAJ@Unable?5to?5start?5thread?3?5?$CFs?6?$AA@ 1001a3f0     thread.obj
 0002:0000041c       ??_C@_0CP@CBGLPFCI@Waiting?5for?5thread?5to?5finish?5fai@ 1001a41c     thread.obj
 0002:0000044c       ??_C@_0CP@IOJAJCJB@Unable?5to?5initialize?5socket?5libr@ 1001a44c     sockets.obj
 0002:0000047c       ??_C@_0BI@GFMINELA@WSACreateEvent?$CI?$CJ?5failed?$AA@ 1001a47c     sockets.obj
 0002:00000494       ??_7SocketEvent@@6B@       1001a494     sockets.obj
 0002:00000498       ??_C@_0BH@FGAKDBKF@WSAResetEvent?$CI?$CJ?5failed?$AA@ 1001a498     sockets.obj
 0002:000004b0       ??_C@_0CC@BABELECA@WSAWaitForMultipleEvents?$CI?$CJ?5faile@ 1001a4b0     sockets.obj
 0002:000004d4       ??_C@_0BE@IKLCAJAA@operation?5timed?5out?$AA@ 1001a4d4     sockets.obj
 0002:000004e8       ??_C@_0BF@HHKPMNE@WSASetEvent?$CI?$CJ?5failed?$AA@ 1001a4e8     sockets.obj
 0002:00000500       ??_C@_0BA@BOOPIKBM@socket?$CI?$CJ?5failed?$AA@ 1001a500     sockets.obj
 0002:00000510       ??_7Socket@@6B@            1001a510     sockets.obj
 0002:00000514       ??_C@_0DF@ELIAJGMP@Socket?5creation?5failed?3?5unable?5t@ 1001a514     sockets.obj
 0002:0000054c       ??_C@_0O@OBMAANOD@bind?$CI?$CJ?5failed?$AA@ 1001a54c     sockets.obj
 0002:0000055c       ??_C@_0BA@ONEENEIG@listen?$CI?$CJ?5failed?$AA@ 1001a55c     sockets.obj
 0002:0000056c       ??_C@_0BO@FKAGCCIK@incomming?5connection?5refused?6?$AA@ 1001a56c     sockets.obj
 0002:0000058c       ??_C@_0CF@NEBFIDBO@Connection?5from?5?$CFd?4?$CFd?4?$CFd?4?$CFd?5refu@ 1001a58c     sockets.obj
 0002:000005b4       ??_C@_0BA@FEMAKOFJ@accept?$CI?$CJ?5failed?$AA@ 1001a5b4     sockets.obj
 0002:000005c4       ??_C@_0BB@EBBLNDML@connect?$CI?$CJ?5failed?$AA@ 1001a5c4     sockets.obj
 0002:000005d8       ??_C@_0O@IAMHGJAC@send?$CI?$CJ?5failed?$AA@ 1001a5d8     sockets.obj
 0002:000005e8       ??_C@_0O@HFPNPEJA@recv?$CI?$CJ?5failed?$AA@ 1001a5e8     sockets.obj
 0002:000005f8       ??_C@_0BF@DCLFGLOB@getsockname?$CI?$CJ?5failed?$AA@ 1001a5f8     sockets.obj
 0002:00000610       ??_C@_0BA@DKKPOKKM@select?$CI?$CJ?5failed?$AA@ 1001a610     sockets.obj
 0002:00000620       ??_C@_0BI@CLABGLMH@WSAEventSelect?$CI?$CJ?5failed?$AA@ 1001a620     sockets.obj
 0002:00000638       ??_7Connection@@6B@        1001a638     sockets.obj
 0002:0000063c       ??_7ServerSocket@@6B@      1001a63c     sockets.obj
 0002:00000640       ??_C@_0BD@OLBABOEK@vector?$DMT?$DO?5too?5long?$AA@ 1001a640     sockets.obj
 0002:00000658       ??_C@_0FB@MDHGHGDN@Unable?5to?5initialize?5event?5loggi@ 1001a658     print.obj
 0002:000006ac       ??_C@_0P@HMHKAGML@TypesSupported?$AA@ 1001a6ac     print.obj
 0002:000006c0       ??_C@_0FE@CGHBHDGI@Unable?5to?5initialize?5event?5loggi@ 1001a6c0     print.obj
 0002:00000714       ??_C@_0BB@MGBBNDJK@EventMessageFile?$AA@ 1001a714     print.obj
 0002:00000728       ??_C@_0GH@OHEBHNKI@Unable?5to?5initialize?5event?5loggi@ 1001a728     print.obj
 0002:00000790       ??_C@_0EP@FEOGGPF@SYSTEM?2CurrentControlSet?2Service@ 1001a790     print.obj
 0002:000007e0       ??_C@_0CH@IJOKAFCK@Error?5closing?5registry?5key?4?5Erro@ 1001a7e0     print.obj
 0002:00000808       ??_C@_0EI@MKIALPPE@Could?5not?5delete?5the?5registry?5va@ 1001a808     print.obj
 0002:00000850       ??_C@_0DI@BJJJOBFC@Registry?5value?5HKEY_LOCAL_MACHIN@ 1001a850     print.obj
 0002:00000888       ??_C@_0BI@NEKFDLEC@JavaQuickStarterService?$AA@ 1001a888     print.obj
 0002:000008a0       ??_C@_0EB@NJFAKAPC@Could?5not?5open?5the?5registry?5key?5@ 1001a8a0     print.obj
 0002:000008e4       ??_C@_0DD@OKGKLCIK@Registry?5key?5HKEY_LOCAL_MACHINE?2@ 1001a8e4     print.obj
 0002:00000918       ??_C@_0DH@EPMDEMKK@SYSTEM?2CurrentControlSet?2Service@ 1001a918     print.obj
 0002:00000950       ??_C@_0CA@DJNAAFPH@Unable?5to?5open?5log?5file?5?$CFs?3?5?$CFs?6?$AA@ 1001a950     print.obj
 0002:00000970       ??_C@_01MCMALHOG@a?$AA@    1001a970     print.obj
 0002:00000974       ??_C@_04HDOCAJNK@?$CFs?$CFs?$AA@ 1001a974     print.obj
 0002:0000097c       ??_C@_06DIJPEION@?$CFs?$CFs?$CFs?$AA@ 1001a97c     print.obj
 0002:00000984       ??_C@_05PJCGMHLA@?$FL?$CFc?$FN?5?$AA@ 1001a984     print.obj
 0002:0000098c       ??_C@_06COOONKFB@INFO?3?5?$AA@ 1001a98c     print.obj
 0002:00000994       ??_C@_06MFIFNJDA@WARN?3?5?$AA@ 1001a994     print.obj
 0002:0000099c       ??_C@_07JHDPBCI@ERROR?3?5?$AA@ 1001a99c     print.obj
 0002:000009a8       ??_C@_0FI@IGDNIAMM@Unable?5to?5report?5messages?5to?5sys@ 1001a9a8     print.obj
 0002:00000a00       ??_C@_0EO@NAGIEKFG@Unable?5to?5report?5messages?5to?5sys@ 1001aa00     print.obj
 0002:00000a50       ??_C@_0EC@HKJBGHCE@Unable?5to?5report?5messages?5to?5sys@ 1001aa50     print.obj
 0002:00000a98       ??_C@_0FG@DLJFHFDJ@Unable?5to?5report?5messages?5to?5sys@ 1001aa98     print.obj
 0002:00000af0       ??_C@_03OCHKFGFI@dll?$AA@  1001aaf0     os_utils.obj
 0002:00000af4       ??_C@_03JACLIBNI@exe?$AA@  1001aaf4     os_utils.obj
 0002:00000af8       ??_C@_0M@JKEPBHMD@?$CF?5Disk?5Time?$AA@ 1001aaf8     os_utils.obj
 0002:00000b04       ??_C@_0N@IIPOPMKF@PhysicalDisk?$AA@ 1001ab04     os_utils.obj
 0002:00000b14       ??_C@_0BB@FLIOBCMB@?$CF?5Processor?5Time?$AA@ 1001ab14     os_utils.obj
 0002:00000b28       ??_C@_06FPHDKBNF@_Total?$AA@ 1001ab28     os_utils.obj
 0002:00000b30       ??_C@_09JOCICBA@Processor?$AA@ 1001ab30     os_utils.obj
 0002:00000b3c       ??_C@_05PCINFEFG@MS950?$AA@ 1001ab3c     os_utils.obj
 0002:00000b44       ??_C@_03LIOLIPAH@GBK?$AA@  1001ab44     os_utils.obj
 0002:00000b48       ??_C@_06EDLLDHDE@Cp1254?$AA@ 1001ab48     os_utils.obj
 0002:00000b50       ??_C@_05CNNJCCFJ@MS874?$AA@ 1001ab50     os_utils.obj
 0002:00000b58       ??_C@_02ELAAOLJA@sr?$AA@   1001ab58     os_utils.obj
 0002:00000b5c       ??_C@_05CCINIFCI@MS949?$AA@ 1001ab5c     os_utils.obj
 0002:00000b64       ??_C@_05MEDGEKGG@MS932?$AA@ 1001ab64     os_utils.obj
 0002:00000b6c       ??_C@_06FKKAAGHF@Cp1255?$AA@ 1001ab6c     os_utils.obj
 0002:00000b74       ??_C@_06GIJGGEPH@Cp1257?$AA@ 1001ab74     os_utils.obj
 0002:00000b7c       ??_C@_06MPKKBPD@Cp1253?$AA@ 1001ab7c     os_utils.obj
 0002:00000b84       ??_C@_06CHNHPCDA@Cp1250?$AA@ 1001ab84     os_utils.obj
 0002:00000b8c       ??_C@_06DOMMMDHB@Cp1251?$AA@ 1001ab8c     os_utils.obj
 0002:00000b94       ??_C@_06HBINFFLG@Cp1256?$AA@ 1001ab94     os_utils.obj
 0002:00000b9c       ??_C@_05NPCJFEDI@es_PR?$AA@ 1001ab9c     os_utils.obj
 0002:00000ba4       ??_C@_05GAKHBBNI@es_NI?$AA@ 1001aba4     os_utils.obj
 0002:00000bac       ??_C@_05CLGLPLKN@es_HN?$AA@ 1001abac     os_utils.obj
 0002:00000bb4       ??_C@_05LJADCPGF@es_SV?$AA@ 1001abb4     os_utils.obj
 0002:00000bbc       ??_C@_05DPOHEPDK@es_BO?$AA@ 1001abbc     os_utils.obj
 0002:00000bc4       ??_C@_05BJPFBEDL@ar_QA?$AA@ 1001abc4     os_utils.obj
 0002:00000bcc       ??_C@_05DMNNINPD@es_PY?$AA@ 1001abcc     os_utils.obj
 0002:00000bd4       ??_C@_05NGFHLCFL@ar_BH?$AA@ 1001abd4     os_utils.obj
 0002:00000bdc       ??_C@_05DKBGEPBI@es_UY?$AA@ 1001abdc     os_utils.obj
 0002:00000be4       ??_C@_05GBLPHCEP@ar_AE?$AA@ 1001abe4     os_utils.obj
 0002:00000bec       ??_C@_05BFAIHGMO@es_CL?$AA@ 1001abec     os_utils.obj
 0002:00000bf4       ??_C@_05PHHEPNNA@en_PH?$AA@ 1001abf4     os_utils.obj
 0002:00000bfc       ??_C@_05BENMIHEK@ar_KW?$AA@ 1001abfc     os_utils.obj
 0002:00000c04       ??_C@_05JGBNBGLD@es_EC?$AA@ 1001ac04     os_utils.obj
 0002:00000c0c       ??_C@_05DHLJHGJI@en_ZW?$AA@ 1001ac0c     os_utils.obj
 0002:00000c14       ??_C@_05CGCGHHNL@ar_LB?$AA@ 1001ac14     os_utils.obj
 0002:00000c1c       ??_C@_05MCMNJNHP@es_AR?$AA@ 1001ac1c     os_utils.obj
 0002:00000c24       ??_C@_05BGAKAIFB@en_TT?$AA@ 1001ac24     os_utils.obj
 0002:00000c2c       ??_C@_05JHAFHFCE@ar_JO?$AA@ 1001ac2c     os_utils.obj
 0002:00000c34       ??_C@_05NKKKNAKO@es_PE?$AA@ 1001ac34     os_utils.obj
 0002:00000c3c       ??_C@_05JACCPKBN@en_BZ?$AA@ 1001ac3c     os_utils.obj
 0002:00000c44       ??_C@_05JIGKFIAM@ar_SY?$AA@ 1001ac44     os_utils.obj
 0002:00000c4c       ??_C@_05DOCFCFAN@es_CO?$AA@ 1001ac4c     os_utils.obj
 0002:00000c54       ??_C@_05HDIKIAIH@ar_YE?$AA@ 1001ac54     os_utils.obj
 0002:00000c5c       ??_C@_05NOCHKMBM@es_VE?$AA@ 1001ac5c     os_utils.obj
 0002:00000c64       ??_C@_05JLLCCPDD@en_JM?$AA@ 1001ac64     os_utils.obj
 0002:00000c6c       ??_C@_05KDPINFEN@ar_OM?$AA@ 1001ac6c     os_utils.obj
 0002:00000c74       ??_C@_05DLGKDDII@es_DO?$AA@ 1001ac74     os_utils.obj
 0002:00000c7c       ??_C@_05CLCBMDEP@en_ZA?$AA@ 1001ac7c     os_utils.obj
 0002:00000c84       ??_C@_05JIKGMKBP@ar_TN?$AA@ 1001ac84     os_utils.obj
 0002:00000c8c       ??_C@_05CDPKBMBF@fr_MC?$AA@ 1001ac8c     os_utils.obj
 0002:00000c94       ??_C@_05LOMGBFKK@es_PA?$AA@ 1001ac94     os_utils.obj
 0002:00000c9c       ??_C@_05FBCNBLGC@en_IE?$AA@ 1001ac9c     os_utils.obj
 0002:00000ca4       ??_C@_05MMJEOCP@ar_MA?$AA@ 1001aca4     os_utils.obj
 0002:00000cac       ??_C@_05DOKAMDPF@fr_LU?$AA@ 1001acac     os_utils.obj
 0002:00000cb4       ??_C@_05MBEJEJBB@es_CR?$AA@ 1001acb4     os_utils.obj
 0002:00000cbc       ??_C@_05JJDIADHJ@en_NZ?$AA@ 1001acbc     os_utils.obj
 0002:00000cc4       ??_C@_05EHNPHEDB@de_LI?$AA@ 1001acc4     os_utils.obj
 0002:00000ccc       ??_C@_05NBALBONK@zh_MO?$AA@ 1001accc     os_utils.obj
 0002:00000cd4       ??_C@_05KKCOLODK@ar_DZ?$AA@ 1001acd4     os_utils.obj
 0002:00000cdc       ??_C@_05MKJAOINE@fr_CH?$AA@ 1001acdc     os_utils.obj
 0002:00000ce4       ??_C@_05JABKEGEL@es_GT?$AA@ 1001ace4     os_utils.obj
 0002:00000cec       ??_C@_05DINGFLLA@en_CA?$AA@ 1001acec     os_utils.obj
 0002:00000cf4       ??_C@_05KBKICJGM@de_LU?$AA@ 1001acf4     os_utils.obj
 0002:00000cfc       ??_C@_05PGKBKKI@zh_SG?$AA@ 1001acfc     os_utils.obj
 0002:00000d04       ??_C@_05IPBALMEB@ar_LY?$AA@ 1001ad04     os_utils.obj
 0002:00000d0c       ??_C@_05HHFGDBEG@sr_YU?$AA@ 1001ad0c     os_utils.obj
 0002:00000d14       ??_C@_05BLFCFDJN@fr_CA?$AA@ 1001ad14     os_utils.obj
 0002:00000d1c       ??_C@_05BFPMFIIL@en_AU?$AA@ 1001ad1c     os_utils.obj
 0002:00000d24       ??_C@_05LAGLILHO@de_AT?$AA@ 1001ad24     os_utils.obj
 0002:00000d2c       ??_C@_05LDKMBJDF@zh_HK?$AA@ 1001ad2c     os_utils.obj
 0002:00000d34       ??_C@_05FEIALIBB@ar_EG?$AA@ 1001ad34     os_utils.obj
 0002:00000d3c       ??_C@_05MKKPPMBG@ms_BN?$AA@ 1001ad3c     os_utils.obj
 0002:00000d44       ??_C@_05JOLFCNLI@ga_IE?$AA@ 1001ad44     os_utils.obj
 0002:00000d4c       ??_C@_05HDNLCOJG@sv_FI?$AA@ 1001ad4c     os_utils.obj
 0002:00000d54       ??_C@_05FNAGLOGF@sh_YU?$AA@ 1001ad54     os_utils.obj
 0002:00000d5c       ??_C@_05EGNMBGEP@ru_MD?$AA@ 1001ad5c     os_utils.obj
 0002:00000d64       ??_C@_05GMIMJJGM@ro_MD?$AA@ 1001ad64     os_utils.obj
 0002:00000d6c       ??_C@_05GIEILMIG@pt_PT?$AA@ 1001ad6c     os_utils.obj
 0002:00000d74       ??_C@_08DMODGHIJ@no_NO_NY?$AA@ 1001ad74     os_utils.obj
 0002:00000d80       ??_C@_05ENHPFHCA@nl_BE?$AA@ 1001ad80     os_utils.obj
 0002:00000d88       ??_C@_05LEIGKPKB@it_CH?$AA@ 1001ad88     os_utils.obj
 0002:00000d90       ??_C@_05HOPMPMKO@fr_BE?$AA@ 1001ad90     os_utils.obj
 0002:00000d98       ??_C@_05DBDIIMJB@es_MX?$AA@ 1001ad98     os_utils.obj
 0002:00000da0       ??_C@_05BEPCKAKP@en_GB?$AA@ 1001ada0     os_utils.obj
 0002:00000da8       ??_C@_05FFJIACEN@de_CH?$AA@ 1001ada8     os_utils.obj
 0002:00000db0       ??_C@_05MCIOACJB@zh_CN?$AA@ 1001adb0     os_utils.obj
 0002:00000db8       ??_C@_05EBACPEKC@ar_IQ?$AA@ 1001adb8     os_utils.obj
 0002:00000dc0       ??_C@_05OKNGNLHJ@sw_KE?$AA@ 1001adc0     os_utils.obj
 0002:00000dc8       ??_C@_05MEHADPLN@ms_MY?$AA@ 1001adc8     os_utils.obj
 0002:00000dd0       ??_C@_02OPKBKFNM@yi?$AA@   1001add0     os_utils.obj
 0002:00000dd4       ??_C@_05BDIKBJAF@gd_GB?$AA@ 1001add4     os_utils.obj
 0002:00000ddc       ??_C@_05MDPOJNOA@mt_MT?$AA@ 1001addc     os_utils.obj
 0002:00000de4       ??_C@_05LMGHANGH@hi_IN?$AA@ 1001ade4     os_utils.obj
 0002:00000dec       ??_C@_05BLGKOPML@fo_FO?$AA@ 1001adec     os_utils.obj
 0002:00000df4       ??_C@_05IAMAMKJI@af_ZA?$AA@ 1001adf4     os_utils.obj
 0002:00000dfc       ??_C@_05ONAGFFGO@tn_BW?$AA@ 1001adfc     os_utils.obj
 0002:00000e04       ??_C@_02FHFEMMFE@ts?$AA@   1001ae04     os_utils.obj
 0002:00000e08       ??_C@_05OMBEJDCN@mk_MK?$AA@ 1001ae08     os_utils.obj
 0002:00000e10       ??_C@_05FDJPPBEC@eu_ES?$AA@ 1001ae10     os_utils.obj
 0002:00000e18       ??_C@_05JCMBIKMB@vi_VN?$AA@ 1001ae18     os_utils.obj
 0002:00000e20       ??_C@_05FAGKHKIL@fa_IR?$AA@ 1001ae20     os_utils.obj
 0002:00000e28       ??_C@_05JGACEHC@lt_LT?$AA@ 1001ae28     os_utils.obj
 0002:00000e30       ??_C@_05EBJGBFJA@lv_LV?$AA@ 1001ae30     os_utils.obj
 0002:00000e38       ??_C@_05HCGHGNCF@et_EE?$AA@ 1001ae38     os_utils.obj
 0002:00000e40       ??_C@_05EDGGMACO@sl_SI?$AA@ 1001ae40     os_utils.obj
 0002:00000e48       ??_C@_05NBNKKIHH@be_BY?$AA@ 1001ae48     os_utils.obj
 0002:00000e50       ??_C@_05OLELAJJJ@uk_UA?$AA@ 1001ae50     os_utils.obj
 0002:00000e58       ??_C@_05DPPEOKFI@in_ID?$AA@ 1001ae58     os_utils.obj
 0002:00000e60       ??_C@_05CNMKAEGK@tr_TR?$AA@ 1001ae60     os_utils.obj
 0002:00000e68       ??_C@_05LHLHHBJC@th_TH?$AA@ 1001ae68     os_utils.obj
 0002:00000e70       ??_C@_05MFIDAAAB@sv_SE?$AA@ 1001ae70     os_utils.obj
 0002:00000e78       ??_C@_05LJMDBAEG@sq_AL?$AA@ 1001ae78     os_utils.obj
 0002:00000e80       ??_C@_05MDHAHOLM@sk_SK?$AA@ 1001ae80     os_utils.obj
 0002:00000e88       ??_C@_05EMOCJMJO@hr_HR?$AA@ 1001ae88     os_utils.obj
 0002:00000e90       ??_C@_05CHPNBBC@ru_RU?$AA@ 1001ae90     os_utils.obj
 0002:00000e98       ??_C@_05JIACKEOK@ro_RO?$AA@ 1001ae98     os_utils.obj
 0002:00000ea0       ??_C@_05LAGHKIAK@rm_CH?$AA@ 1001aea0     os_utils.obj
 0002:00000ea8       ??_C@_05CBLAGMBO@pt_BR?$AA@ 1001aea8     os_utils.obj
 0002:00000eb0       ??_C@_05LKMDPIJM@pl_PL?$AA@ 1001aeb0     os_utils.obj
 0002:00000eb8       ??_C@_05PJCKDMBO@no_NO?$AA@ 1001aeb8     os_utils.obj
 0002:00000ec0       ??_C@_05JFKHBFAN@nl_NL?$AA@ 1001aec0     os_utils.obj
 0002:00000ec8       ??_C@_05FAEAADFK@ko_KR?$AA@ 1001aec8     os_utils.obj
 0002:00000ed0       ??_C@_05BHNIGGCL@ja_JP?$AA@ 1001aed0     os_utils.obj
 0002:00000ed8       ??_C@_05FPGGHHCK@it_IT?$AA@ 1001aed8     os_utils.obj
 0002:00000ee0       ??_C@_05KCAHDNPN@is_IS?$AA@ 1001aee0     os_utils.obj
 0002:00000ee8       ??_C@_05LBIDNGEJ@hu_HU?$AA@ 1001aee8     os_utils.obj
 0002:00000ef0       ??_C@_05JKNNJFKD@iw_IL?$AA@ 1001aef0     os_utils.obj
 0002:00000ef8       ??_C@_05HMHGNAOE@fr_FR?$AA@ 1001aef8     os_utils.obj
 0002:00000f00       ??_C@_05MCHALNON@fi_FI?$AA@ 1001af00     os_utils.obj
 0002:00000f08       ??_C@_05NMNPAEOC@es_ES?$AA@ 1001af08     os_utils.obj
 0002:00000f10       ??_C@_05FIIJPEKB@en_US?$AA@ 1001af10     os_utils.obj
 0002:00000f18       ??_C@_05CEPAOBJO@el_GR?$AA@ 1001af18     os_utils.obj
 0002:00000f20       ??_C@_05OFHJGKIF@de_DE?$AA@ 1001af20     os_utils.obj
 0002:00000f28       ??_C@_05IOHKOBML@da_DK?$AA@ 1001af28     os_utils.obj
 0002:00000f30       ??_C@_05NPMJCAAE@cs_CZ?$AA@ 1001af30     os_utils.obj
 0002:00000f38       ??_C@_05EAOHBOHM@zh_TW?$AA@ 1001af38     os_utils.obj
 0002:00000f40       ??_C@_05BAKGCDBN@ca_ES?$AA@ 1001af40     os_utils.obj
 0002:00000f48       ??_C@_05HPFLMEMI@bg_BG?$AA@ 1001af48     os_utils.obj
 0002:00000f50       ??_C@_05BKHBMAFF@ar_SA?$AA@ 1001af50     os_utils.obj
 0002:00000f58       ??_C@_02EMLHFFOL@gd?$AA@   1001af58     os_utils.obj
 0002:00000f5c       ??_C@_02LOCMCGM@mt?$AA@    1001af5c     os_utils.obj
 0002:00000f60       ??_C@_02PCEFGMJL@hi?$AA@   1001af60     os_utils.obj
 0002:00000f64       ??_C@_02KOIBOGBH@fo?$AA@   1001af64     os_utils.obj
 0002:00000f68       ??_C@_02HKAMELNL@af?$AA@   1001af68     os_utils.obj
 0002:00000f6c       ??_C@_02LJAEGNI@zu?$AA@    1001af6c     os_utils.obj
 0002:00000f70       ??_C@_02PHHIPOKK@xh?$AA@   1001af70     os_utils.obj
 0002:00000f74       ??_C@_02KIDIKAEI@tn?$AA@   1001af74     os_utils.obj
 0002:00000f78       ??_C@_02MGLIMMPC@mk?$AA@   1001af78     os_utils.obj
 0002:00000f7c       ??_C@_02BMOKKCJF@eu?$AA@   1001af7c     os_utils.obj
 0002:00000f80       ??_C@_02OEPNOCOB@vi?$AA@   1001af80     os_utils.obj
 0002:00000f84       ??_C@_02DAACMLJJ@fa?$AA@   1001af84     os_utils.obj
 0002:00000f88       ??_C@_02KCAKIFL@lt?$AA@    1001af88     os_utils.obj
 0002:00000f8c       ??_C@_02DIBGMKNJ@lv?$AA@   1001af8c     os_utils.obj
 0002:00000f90       ??_C@_02FPBJDNE@et?$AA@    1001af90     os_utils.obj
 0002:00000f94       ??_C@_02JPEBNEEP@sl?$AA@   1001af94     os_utils.obj
 0002:00000f98       ??_C@_02FDGHKGEB@be?$AA@   1001af98     os_utils.obj
 0002:00000f9c       ??_C@_02NEINDODK@uk?$AA@   1001af9c     os_utils.obj
 0002:00000fa0       ??_C@_02LMMGJAGL@in?$AA@   1001afa0     os_utils.obj
 0002:00000fa4       ??_C@_02EPINJHCC@ur?$AA@   1001afa4     os_utils.obj
 0002:00000fa8       ??_C@_02EOEPPNBF@tr?$AA@   1001afa8     os_utils.obj
 0002:00000fac       ??_C@_02POGCAHMO@th?$AA@   1001afac     os_utils.obj
 0002:00000fb0       ??_C@_02CPGMCOJE@sv?$AA@   1001afb0     os_utils.obj
 0002:00000fb4       ??_C@_02GACNLIFD@sq?$AA@   1001afb4     os_utils.obj
 0002:00000fb8       ??_C@_02NAAAECII@sk?$AA@   1001afb8     os_utils.obj
 0002:00000fbc       ??_C@_02PLCNBBEL@sh?$AA@   1001afbc     os_utils.obj
 0002:00000fc0       ??_C@_02FIDBHGA@ru?$AA@    1001afc0     os_utils.obj
 0002:00000fc4       ??_C@_02LFKOONLL@ro?$AA@   1001afc4     os_utils.obj
 0002:00000fc8       ??_C@_02IHJIIPDJ@rm?$AA@   1001afc8     os_utils.obj
 0002:00000fcc       ??_C@_02BPBMPCEP@pt?$AA@   1001afcc     os_utils.obj
 0002:00000fd0       ??_C@_02JNAHGKBG@pl?$AA@   1001afd0     os_utils.obj
 0002:00000fd4       ??_C@_02KAJCLHKP@no?$AA@   1001afd4     os_utils.obj
 0002:00000fd8       ??_C@_02ILLPOEGM@nl?$AA@   1001afd8     os_utils.obj
 0002:00000fdc       ??_C@_02KGFJHFEE@ko?$AA@   1001afdc     os_utils.obj
 0002:00000fe0       ??_C@_02DJBIDCPN@ja?$AA@   1001afe0     os_utils.obj
 0002:00000fe4       ??_C@_02MOLGKLA@it?$AA@    1001afe4     os_utils.obj
 0002:00000fe8       ??_C@_02EDKKPMHH@is?$AA@   1001afe8     os_utils.obj
 0002:00000fec       ??_C@_02BEDCDBMG@hu?$AA@   1001afec     os_utils.obj
 0002:00000ff0       ??_C@_02CHMGDJHD@iw?$AA@   1001aff0     os_utils.obj
 0002:00000ff4       ??_C@_02FBONIKAL@fr?$AA@   1001aff4     os_utils.obj
 0002:00000ff8       ??_C@_02PINLEBJB@fi?$AA@   1001aff8     os_utils.obj
 0002:00000ffc       ??_C@_02EKLAAFBD@es?$AA@   1001affc     os_utils.obj
 0002:00001000       ??_C@_02LFNMGJAP@en?$AA@   1001b000     os_utils.obj
 0002:00001004       ??_C@_02IHOKALIN@el?$AA@   1001b004     os_utils.obj
 0002:00001008       ??_C@_02FHOKNKPD@de?$AA@   1001b008     os_utils.obj
 0002:0000100c       ??_C@_02DDIGBPPH@da?$AA@   1001b00c     os_utils.obj
 0002:00001010       ??_C@_02EODNHJKB@cs?$AA@   1001b010     os_utils.obj
 0002:00001014       ??_C@_02PEPMCKME@zh?$AA@   1001b014     os_utils.obj
 0002:00001018       ??_C@_02DGMJAJHC@ca?$AA@   1001b018     os_utils.obj
 0002:0000101c       ??_C@_02GBFBMEMD@bg?$AA@   1001b01c     os_utils.obj
 0002:00001020       ??_C@_02FEKCJMIO@ar?$AA@   1001b020     os_utils.obj
 0002:00001024       ??_C@_0DK@CCNIBPLA@c?3?2build_area?2jdk6_21?2deploy?2src@ 1001b024     os_utils.obj
 0002:0000106c       ??_C@_0BN@IJIGDHEL@System?5exception?5?$CF?$CDx?5at?5?$CF?$CDx?6?$AA@ 1001b06c     os_utils.obj
 0002:0000108c       ??_C@_0CL@GALBFDGB@Access?5violation?5at?5?$CF?$CDx?0?5access?5@ 1001b08c     os_utils.obj
 0002:000010c8       ??_C@_0EE@NEGBMFDL@Unable?5to?5obtain?5module?5path?3?5Ge@ 1001b0c8     os_utils.obj
 0002:00001110       ??_C@_0EK@HKGEOFEI@Unable?5to?5get?5long?5path?5name?5for@ 1001b110     os_utils.obj
 0002:00001160       ??_C@_0EF@BEMMILAO@Unable?5to?5get?5full?5path?5for?5?$CC?$CFs?$CC@ 1001b160     os_utils.obj
 0002:000011a8       ??_C@_0DA@HLDMIJCG@Unable?5to?5get?5JQS?5file?5?$CFs?3?5inval@ 1001b1a8     os_utils.obj
 0002:000011d8       ??_C@_0CL@GBHFEBJC@QueryDosDevice?5failed?5for?5?$CC?$CFs?$CC?5?$CI@ 1001b1d8     os_utils.obj
 0002:00001208       ??_C@_0EL@JBAIJJCJ@Unable?5to?5convert?5mapped?5file?5na@ 1001b208     os_utils.obj
 0002:00001254       ??_C@_0DJ@LGMDNMMG@Unable?5to?5open?5device?5?$CFs?3?5Create@ 1001b254     os_utils.obj
 0002:00001290       ??_C@_0DI@EEKHKAJH@Unable?5to?5open?5device?3?5full?5path@ 1001b290     os_utils.obj
 0002:000012c8       __real@0000000000000000    1001b2c8     os_utils.obj
 0002:000012d0       ??_C@_0DH@DDHINGAI@Performance?5counter?5monitor?5for?5@ 1001b2d0     os_utils.obj
 0002:00001308       ??_C@_0FH@KNCGGLAK@Unable?5to?5initialize?5performance@ 1001b308     os_utils.obj
 0002:00001360       ??_C@_0FM@MEPMKHEN@Unable?5to?5initialize?5performance@ 1001b360     os_utils.obj
 0002:000013bc       ??_C@_0DI@GDFGGOIG@Registering?5performance?5counter?5@ 1001b3bc     os_utils.obj
 0002:000013f8       ??_C@_0FG@DCHAPPCI@Unable?5to?5initialize?5performance@ 1001b3f8     os_utils.obj
 0002:00001450       ??_C@_0CH@CJMOJKIF@Performance?5counter?5?$CC?$CFs?2?$CFs?2?$CFs?$CC?3?5@ 1001b450     os_utils.obj
 0002:00001478       ??_C@_0FP@HBMJAGAD@Unable?5to?5collect?5performance?5co@ 1001b478     os_utils.obj
 0002:000014d8       __real@4059000000000000    1001b4d8     os_utils.obj
 0002:000014e0       ??_C@_0GH@HFHHHAIM@Unable?5to?5collect?5performance?5co@ 1001b4e0     os_utils.obj
 0002:00001548       ??_C@_0GO@BNEJOOPM@Unable?5to?5collect?5performance?5co@ 1001b548     os_utils.obj
 0002:000015b8       ??_C@_0HE@OPCCIEIJ@Unable?5to?5collect?5performance?5co@ 1001b5b8     os_utils.obj
 0002:00001630       ??_C@_0FH@NIBNBNNK@Unable?5to?5collect?5performance?5co@ 1001b630     os_utils.obj
 0002:00001688       ??_C@_0DA@FJJBKFPF@?$CFs?5process?5working?5set?5size?3?5min@ 1001b688     os_utils.obj
 0002:000016b8       ??_C@_0FE@ILPMNBJP@Could?5not?5get?5process?5working?5se@ 1001b6b8     os_utils.obj
 0002:0000170c       ??_C@_0DN@NPFOEIAA@Could?5not?5get?5working?5set?5size?3?5@ 1001b70c     os_utils.obj
 0002:00001750       ??_C@_0FN@DAFJJIHF@Could?5not?5set?5process?5working?5se@ 1001b750     os_utils.obj
 0002:000017b0       ??_C@_0DI@NGNEADBF@Setting?5process?5working?5set?5size@ 1001b7b0     os_utils.obj
 0002:000017e8       ??_C@_0BO@IKOMAGDM@Flushing?5process?5working?5set?6?$AA@ 1001b7e8     os_utils.obj
 0002:00001808       ??_C@_07PHIKMPOB@Before?5?$AA@ 1001b808     os_utils.obj
 0002:00001810       ??_C@_0DN@FELDILDF@Could?5not?5set?5working?5set?5size?3?5@ 1001b810     os_utils.obj
 0002:00001850       ??_C@_0EC@GDHGNMJC@Failed?5to?5convert?5unicode?5string@ 1001b850     os_utils.obj
 0002:00001894       ??_C@_0CC@EPNBFAHE@Error?5closing?5handle?5?$CIerror?5?$CFd?$CJ?4@ 1001b894     os_utils.obj
 0002:000018b8       ??_C@_0BE@KMEBPKBN@PdhMakeCounterPathA?$AA@ 1001b8b8     os_layer.obj
 0002:000018cc       ??_C@_0BM@EOJADGC@PdhGetFormattedCounterValue?$AA@ 1001b8cc     os_layer.obj
 0002:000018e8       ??_C@_0O@EGDBAKJC@PdhCloseQuery?$AA@ 1001b8e8     os_layer.obj
 0002:000018f8       ??_C@_0BE@GPNBOCHE@PdhCollectQueryData?$AA@ 1001b8f8     os_layer.obj
 0002:0000190c       ??_C@_0BB@EBECGLNG@PdhRemoveCounter?$AA@ 1001b90c     os_layer.obj
 0002:00001920       ??_C@_0P@CIDEDEDD@PdhAddCounterA?$AA@ 1001b920     os_layer.obj
 0002:00001930       ??_C@_0O@HFNMDKII@PdhOpenQueryA?$AA@ 1001b930     os_layer.obj
 0002:00001940       ??_C@_0BD@FIEJBLME@EnumProcessModules?$AA@ 1001b940     os_layer.obj
 0002:00001954       ??_C@_0BA@NCBDADEG@QueryWorkingSet?$AA@ 1001b954     os_layer.obj
 0002:00001964       ??_C@_0BD@CIEGPBCN@GetMappedFileNameA?$AA@ 1001b964     os_layer.obj
 0002:00001978       ??_C@_0BF@OCLFCNKN@GetModuleInformation?$AA@ 1001b978     os_layer.obj
 0002:00001990       ??_C@_0BN@NEFACCFH@UnregisterDeviceNotification?$AA@ 1001b990     os_layer.obj
 0002:000019b0       ??_C@_0BM@JAFAJCAJ@RegisterDeviceNotificationA?$AA@ 1001b9b0     os_layer.obj
 0002:000019cc       ??_C@_0BO@BLPFHHKB@RegisterServiceCtrlHandlerExA?$AA@ 1001b9cc     os_layer.obj
 0002:000019ec       ??_C@_0BG@LJCGGEN@ChangeServiceConfig2A?$AA@ 1001b9ec     os_layer.obj
 0002:00001a04       ??_C@_0BG@IOJLJHLJ@LookupPrivilegeValueA?$AA@ 1001ba04     os_layer.obj
 0002:00001a1c       ??_C@_0BB@EANJDCJP@OpenProcessToken?$AA@ 1001ba1c     os_layer.obj
 0002:00001a30       ??_C@_0BG@CGCLCMLG@AdjustTokenPrivileges?$AA@ 1001ba30     os_layer.obj
 0002:00001a48       ??_C@_0BE@LKCPEHGM@GetDevicePowerState?$AA@ 1001ba48     os_layer.obj
 0002:00001a5c       ??_C@_0BB@GDGABGCO@SetFilePointerEx?$AA@ 1001ba5c     os_layer.obj
 0002:00001a70       ??_C@_0BF@HBLKIEKP@GetSystemPowerStatus?$AA@ 1001ba70     os_layer.obj
 0002:00001a88       ??_C@_0BE@HBJAPNJA@GetLargePageMinimum?$AA@ 1001ba88     os_layer.obj
 0002:00001a9c       ??_C@_0BJ@NJMMOILG@GetProcessWorkingSetSize?$AA@ 1001ba9c     os_layer.obj
 0002:00001ab8       ??_C@_0BJ@HKGGIFCD@SetProcessWorkingSetSize?$AA@ 1001bab8     os_layer.obj
 0002:00001ad4       ??_C@_0P@LKABJJMO@IsWow64Process?$AA@ 1001bad4     os_layer.obj
 0002:00001ae4       ??_C@_0BE@HLKFLAJF@GetNativeSystemInfo?$AA@ 1001bae4     os_layer.obj
 0002:00001af8       ??_C@_0CB@KGJIADAA@CreateMemoryResourceNotification@ 1001baf8     os_layer.obj
 0002:00001b1c       ??_C@_0CA@CCCBBGPH@QueryMemoryResourceNotification?$AA@ 1001bb1c     os_layer.obj
 0002:00001b3c       ??_C@_0BF@PJNLIDED@GlobalMemoryStatusEx?$AA@ 1001bb3c     os_layer.obj
 0002:00001b54       ??_C@_0BB@EOGHMADD@SetDllDirectoryA?$AA@ 1001bb54     os_layer.obj
 0002:00001b68       ??_C@_0CD@LDJFLCHA@Unable?5to?5load?5pdh?4dll?5?$CIerror?5?$CFd@ 1001bb68     os_layer.obj
 0002:00001b8c       ??_C@_07OPODLDBJ@pdh?4dll?$AA@ 1001bb8c     os_layer.obj
 0002:00001b94       ??_C@_0CF@LGAOFDMA@Unable?5to?5load?5psapi?4dll?5?$CIerror?5@ 1001bb94     os_layer.obj
 0002:00001bbc       ??_C@_09LOPACEED@psapi?4dll?$AA@ 1001bbbc     os_layer.obj
 0002:00001bc8       ??_C@_0CG@FPEHOCAJ@Unable?5to?5load?5user32?4dll?5?$CIerror@ 1001bbc8     os_layer.obj
 0002:00001bf0       ??_C@_0L@GMPLCCII@user32?4dll?$AA@ 1001bbf0     os_layer.obj
 0002:00001bfc       ??_C@_0CI@BMPCECHI@Unable?5to?5load?5advapi32?4dll?5?$CIerr@ 1001bbfc     os_layer.obj
 0002:00001c24       ??_C@_0N@INAGJMNN@advapi32?4dll?$AA@ 1001bc24     os_layer.obj
 0002:00001c34       ??_C@_0CI@BADBGOLA@Unable?5to?5load?5kernel32?4dll?5?$CIerr@ 1001bc34     os_layer.obj
 0002:00001c5c       ??_C@_0N@MDJJJHMB@kernel32?4dll?$AA@ 1001bc5c     os_layer.obj
 0002:00001c6c       ??_C@_0DN@BCJHODEG@Java?5Quick?5Starter?5does?5not?5supp@ 1001bc6c     os_layer.obj
 0002:00001cac       ??_C@_0BN@FDEMMCBL@System?5function?5?$CFs?5?$DN?50x?$CF08x?6?$AA@ 1001bcac     os_layer.obj
 0002:00001ccc       __GUID_e7e6f031_17ce_4c07_bc86_eabfe594f69c 1001bccc     jqsiestartdetectorimpl.obj
 0002:00001cdc       ?cbNeverDelete@CRegParser@ATL@@1HB 1001bcdc     jqsiestartdetectorimpl.obj
 0002:00001ce0       ?rgszNeverDelete@CRegParser@ATL@@1QBQBDB 1001bce0     jqsiestartdetectorimpl.obj
 0002:00001d10       ??_C@_07KJLOKDKB@TypeLib?$AA@ 1001bd10     jqsiestartdetectorimpl.obj
 0002:00001d18       ??_C@_08KEKAJNJI@Software?$AA@ 1001bd18     jqsiestartdetectorimpl.obj
 0002:00001d24       ??_C@_06FDHFNJBJ@SYSTEM?$AA@ 1001bd24     jqsiestartdetectorimpl.obj
 0002:00001d2c       ??_C@_08LOPHEHKG@SECURITY?$AA@ 1001bd2c     jqsiestartdetectorimpl.obj
 0002:00001d38       ??_C@_03DDIMFGBA@SAM?$AA@  1001bd38     jqsiestartdetectorimpl.obj
 0002:00001d3c       ??_C@_04IHBFOLAC@Mime?$AA@ 1001bd3c     jqsiestartdetectorimpl.obj
 0002:00001d44       ??_C@_08PPIOJEA@Hardware?$AA@ 1001bd44     jqsiestartdetectorimpl.obj
 0002:00001d50       ??_C@_09JKPGEJCH@Interface?$AA@ 1001bd50     jqsiestartdetectorimpl.obj
 0002:00001d5c       ??_C@_08PICKODJL@FileType?$AA@ 1001bd5c     jqsiestartdetectorimpl.obj
 0002:00001d68       ??_C@_0BF@HDDNNDFH@Component?5Categories?$AA@ 1001bd68     jqsiestartdetectorimpl.obj
 0002:00001d80       ??_C@_05GIBEAPNE@CLSID?$AA@ 1001bd80     jqsiestartdetectorimpl.obj
 0002:00001d88       ??_C@_05PDIKPLII@AppID?$AA@ 1001bd88     jqsiestartdetectorimpl.obj
 0002:00001d90       ?MAX_TYPE@CRegParser@ATL@@1HB 1001bd90     jqsiestartdetectorimpl.obj
 0002:00001d94       ?MAX_VALUE@CRegParser@ATL@@1HB 1001bd94     jqsiestartdetectorimpl.obj
 0002:00001db8       ??_C@_06JBKGCNBB@Delete?$AA@ 1001bdb8     jqsiestartdetectorimpl.obj
 0002:00001dc0       ??_C@_08KAAPDIAN@NoRemove?$AA@ 1001bdc0     jqsiestartdetectorimpl.obj
 0002:00001dcc       ??_C@_0M@DBGDLGLL@ForceRemove?$AA@ 1001bdcc     jqsiestartdetectorimpl.obj
 0002:00001dd8       ??_C@_03LAIAPFCB@Val?$AA@  1001bdd8     jqsiestartdetectorimpl.obj
 0002:00001ddc       ??_C@_01HMGJMAIH@B?$AA@    1001bddc     jqsiestartdetectorimpl.obj
 0002:00001de0       ??_C@_01CKDDGHAB@D?$AA@    1001bde0     jqsiestartdetectorimpl.obj
 0002:00001de4       ??_C@_01PLPBNMEI@M?$AA@    1001bde4     jqsiestartdetectorimpl.obj
 0002:00001de8       ??_C@_01CPLAODJH@S?$AA@    1001bde8     jqsiestartdetectorimpl.obj
 0002:00001dec       _CLSID_StdGlobalInterfaceTable 1001bdec     jqsiestartdetectorimpl.obj
 0002:00001dfc       _IID_IAxWinAmbientDispatchEx 1001bdfc     jqsiestartdetectorimpl.obj
 0002:00001e0c       _IID_IAxWinHostWindowLic   1001be0c     jqsiestartdetectorimpl.obj
 0002:00001e1c       _IID_IDocHostUIHandlerDispatch 1001be1c     jqsiestartdetectorimpl.obj
 0002:00001e2c       _IID_IInternalConnection   1001be2c     jqsiestartdetectorimpl.obj
 0002:00001e3c       _IID_IAxWinAmbientDispatch 1001be3c     jqsiestartdetectorimpl.obj
 0002:00001e4c       _IID_IAxWinHostWindow      1001be4c     jqsiestartdetectorimpl.obj
 0002:00001e5c       _IID_IRegistrar            1001be5c     jqsiestartdetectorimpl.obj
 0002:00001e6c       _CLSID_Registrar           1001be6c     jqsiestartdetectorimpl.obj
 0002:00001e7c       _LIBID_ATLLib              1001be7c     jqsiestartdetectorimpl.obj
 0002:00001e8c       ?pmField@?$CVarTypeInfo@PATtagCY@@@ATL@@2QQtagVARIANT@@PATtagCY@@Q3@ 1001be8c     jqsiestartdetectorimpl.obj
 0002:00001e90       ?VT@?$CVarTypeInfo@PATtagCY@@@ATL@@2GB 1001be90     jqsiestartdetectorimpl.obj
 0002:00001e94       ?pmField@?$CVarTypeInfo@TtagCY@@@ATL@@2QQtagVARIANT@@TtagCY@@Q3@ 1001be94     jqsiestartdetectorimpl.obj
 0002:00001e98       ?VT@?$CVarTypeInfo@TtagCY@@@ATL@@2GB 1001be98     jqsiestartdetectorimpl.obj
 0002:00001e9c       ?pmField@?$CVarTypeInfo@PAPAUIDispatch@@@ATL@@2QQtagVARIANT@@PAPAUIDispatch@@Q3@ 1001be9c     jqsiestartdetectorimpl.obj
 0002:00001ea0       ?VT@?$CVarTypeInfo@PAPAUIDispatch@@@ATL@@2GB 1001bea0     jqsiestartdetectorimpl.obj
 0002:00001ea4       ?pmField@?$CVarTypeInfo@PAUIDispatch@@@ATL@@2QQtagVARIANT@@PAUIDispatch@@Q3@ 1001bea4     jqsiestartdetectorimpl.obj
 0002:00001ea8       ?VT@?$CVarTypeInfo@PAUIDispatch@@@ATL@@2GB 1001bea8     jqsiestartdetectorimpl.obj
 0002:00001eac       ?pmField@?$CVarTypeInfo@PAPAUIUnknown@@@ATL@@2QQtagVARIANT@@PAPAUIUnknown@@Q3@ 1001beac     jqsiestartdetectorimpl.obj
 0002:00001eb0       ?VT@?$CVarTypeInfo@PAPAUIUnknown@@@ATL@@2GB 1001beb0     jqsiestartdetectorimpl.obj
 0002:00001eb4       ?pmField@?$CVarTypeInfo@PAUIUnknown@@@ATL@@2QQtagVARIANT@@PAUIUnknown@@Q3@ 1001beb4     jqsiestartdetectorimpl.obj
 0002:00001eb8       ?VT@?$CVarTypeInfo@PAUIUnknown@@@ATL@@2GB 1001beb8     jqsiestartdetectorimpl.obj
 0002:00001ebc       ?pmField@?$CVarTypeInfo@PAPAG@ATL@@2QQtagVARIANT@@PAPAGQ3@ 1001bebc     jqsiestartdetectorimpl.obj
 0002:00001ec0       ?VT@?$CVarTypeInfo@PAPAG@ATL@@2GB 1001bec0     jqsiestartdetectorimpl.obj
 0002:00001ec4       ?pmField@?$CVarTypeInfo@PAG@ATL@@2QQtagVARIANT@@PAGQ3@ 1001bec4     jqsiestartdetectorimpl.obj
 0002:00001ec8       ?VT@?$CVarTypeInfo@PAG@ATL@@2GB 1001bec8     jqsiestartdetectorimpl.obj
 0002:00001ecc       ?VT@?$CVarTypeInfo@UtagVARIANT@@@ATL@@2GB 1001becc     jqsiestartdetectorimpl.obj
 0002:00001ed0       ?pmField@?$CVarTypeInfo@PAN@ATL@@2QQtagVARIANT@@PANQ3@ 1001bed0     jqsiestartdetectorimpl.obj
 0002:00001ed4       ?VT@?$CVarTypeInfo@PAN@ATL@@2GB 1001bed4     jqsiestartdetectorimpl.obj
 0002:00001ed8       ?pmField@?$CVarTypeInfo@N@ATL@@2QQtagVARIANT@@NQ3@ 1001bed8     jqsiestartdetectorimpl.obj
 0002:00001edc       ?VT@?$CVarTypeInfo@N@ATL@@2GB 1001bedc     jqsiestartdetectorimpl.obj
 0002:00001ee0       ?pmField@?$CVarTypeInfo@PAM@ATL@@2QQtagVARIANT@@PAMQ3@ 1001bee0     jqsiestartdetectorimpl.obj
 0002:00001ee4       ?VT@?$CVarTypeInfo@PAM@ATL@@2GB 1001bee4     jqsiestartdetectorimpl.obj
 0002:00001ee8       ?pmField@?$CVarTypeInfo@M@ATL@@2QQtagVARIANT@@MQ3@ 1001bee8     jqsiestartdetectorimpl.obj
 0002:00001eec       ?VT@?$CVarTypeInfo@M@ATL@@2GB 1001beec     jqsiestartdetectorimpl.obj
 0002:00001ef0       ?pmField@?$CVarTypeInfo@PA_K@ATL@@2QQtagVARIANT@@PA_KQ3@ 1001bef0     jqsiestartdetectorimpl.obj
 0002:00001ef4       ?VT@?$CVarTypeInfo@PA_K@ATL@@2GB 1001bef4     jqsiestartdetectorimpl.obj
 0002:00001ef8       ?pmField@?$CVarTypeInfo@_K@ATL@@2QQtagVARIANT@@_KQ3@ 1001bef8     jqsiestartdetectorimpl.obj
 0002:00001efc       ?VT@?$CVarTypeInfo@_K@ATL@@2GB 1001befc     jqsiestartdetectorimpl.obj
 0002:00001f00       ?pmField@?$CVarTypeInfo@PA_J@ATL@@2QQtagVARIANT@@PA_JQ3@ 1001bf00     jqsiestartdetectorimpl.obj
 0002:00001f04       ?VT@?$CVarTypeInfo@PA_J@ATL@@2GB 1001bf04     jqsiestartdetectorimpl.obj
 0002:00001f08       ?pmField@?$CVarTypeInfo@_J@ATL@@2QQtagVARIANT@@_JQ3@ 1001bf08     jqsiestartdetectorimpl.obj
 0002:00001f0c       ?VT@?$CVarTypeInfo@_J@ATL@@2GB 1001bf0c     jqsiestartdetectorimpl.obj
 0002:00001f10       ?pmField@?$CVarTypeInfo@PAK@ATL@@2QQtagVARIANT@@PAKQ3@ 1001bf10     jqsiestartdetectorimpl.obj
 0002:00001f14       ?VT@?$CVarTypeInfo@PAK@ATL@@2GB 1001bf14     jqsiestartdetectorimpl.obj
 0002:00001f18       ?pmField@?$CVarTypeInfo@K@ATL@@2QQtagVARIANT@@KQ3@ 1001bf18     jqsiestartdetectorimpl.obj
 0002:00001f1c       ?VT@?$CVarTypeInfo@K@ATL@@2GB 1001bf1c     jqsiestartdetectorimpl.obj
 0002:00001f20       ?pmField@?$CVarTypeInfo@PAJ@ATL@@2QQtagVARIANT@@PAJQ3@ 1001bf20     jqsiestartdetectorimpl.obj
 0002:00001f24       ?VT@?$CVarTypeInfo@PAJ@ATL@@2GB 1001bf24     jqsiestartdetectorimpl.obj
 0002:00001f28       ?pmField@?$CVarTypeInfo@J@ATL@@2QQtagVARIANT@@JQ3@ 1001bf28     jqsiestartdetectorimpl.obj
 0002:00001f2c       ?VT@?$CVarTypeInfo@J@ATL@@2GB 1001bf2c     jqsiestartdetectorimpl.obj
 0002:00001f30       ?pmField@?$CVarTypeInfo@PAI@ATL@@2QQtagVARIANT@@PAIQ3@ 1001bf30     jqsiestartdetectorimpl.obj
 0002:00001f34       ?VT@?$CVarTypeInfo@PAI@ATL@@2GB 1001bf34     jqsiestartdetectorimpl.obj
 0002:00001f38       ?pmField@?$CVarTypeInfo@I@ATL@@2QQtagVARIANT@@IQ3@ 1001bf38     jqsiestartdetectorimpl.obj
 0002:00001f3c       ?VT@?$CVarTypeInfo@I@ATL@@2GB 1001bf3c     jqsiestartdetectorimpl.obj
 0002:00001f40       ?pmField@?$CVarTypeInfo@PAH@ATL@@2QQtagVARIANT@@PAHQ3@ 1001bf40     jqsiestartdetectorimpl.obj
 0002:00001f44       ?VT@?$CVarTypeInfo@PAH@ATL@@2GB 1001bf44     jqsiestartdetectorimpl.obj
 0002:00001f48       ?pmField@?$CVarTypeInfo@H@ATL@@2QQtagVARIANT@@HQ3@ 1001bf48     jqsiestartdetectorimpl.obj
 0002:00001f4c       ?VT@?$CVarTypeInfo@H@ATL@@2GB 1001bf4c     jqsiestartdetectorimpl.obj
 0002:00001f50       ?pmField@?$CVarTypeInfo@G@ATL@@2QQtagVARIANT@@GQ3@ 1001bf50     jqsiestartdetectorimpl.obj
 0002:00001f54       ?VT@?$CVarTypeInfo@G@ATL@@2GB 1001bf54     jqsiestartdetectorimpl.obj
 0002:00001f58       ?pmField@?$CVarTypeInfo@PAF@ATL@@2QQtagVARIANT@@PAFQ3@ 1001bf58     jqsiestartdetectorimpl.obj
 0002:00001f5c       ?VT@?$CVarTypeInfo@PAF@ATL@@2GB 1001bf5c     jqsiestartdetectorimpl.obj
 0002:00001f60       ?pmField@?$CVarTypeInfo@F@ATL@@2QQtagVARIANT@@FQ3@ 1001bf60     jqsiestartdetectorimpl.obj
 0002:00001f64       ?VT@?$CVarTypeInfo@F@ATL@@2GB 1001bf64     jqsiestartdetectorimpl.obj
 0002:00001f68       ?pmField@?$CVarTypeInfo@PAE@ATL@@2QQtagVARIANT@@PAEQ3@ 1001bf68     jqsiestartdetectorimpl.obj
 0002:00001f6c       ?VT@?$CVarTypeInfo@PAE@ATL@@2GB 1001bf6c     jqsiestartdetectorimpl.obj
 0002:00001f70       ?pmField@?$CVarTypeInfo@PAD@ATL@@2QQtagVARIANT@@PADQ3@ 1001bf70     jqsiestartdetectorimpl.obj
 0002:00001f74       ?VT@?$CVarTypeInfo@PAD@ATL@@2GB 1001bf74     jqsiestartdetectorimpl.obj
 0002:00001f78       ?pmField@?$CVarTypeInfo@E@ATL@@2QQtagVARIANT@@EQ3@ 1001bf78     jqsiestartdetectorimpl.obj
 0002:00001f7c       ?VT@?$CVarTypeInfo@E@ATL@@2GB 1001bf7c     jqsiestartdetectorimpl.obj
 0002:00001f80       ?pmField@?$CVarTypeInfo@D@ATL@@2QQtagVARIANT@@DQ3@ 1001bf80     jqsiestartdetectorimpl.obj
 0002:00001f84       ?VT@?$CVarTypeInfo@D@ATL@@2GB 1001bf84     jqsiestartdetectorimpl.obj
 0002:00001f88       ??_C@_1BC@KAILKFFG@?$AAR?$AAE?$AAG?$AAI?$AAS?$AAT?$AAR?$AAY?$AA?$AA@ 1001bf88     jqsiestartdetectorimpl.obj
 0002:00001f9c       ??_C@_1BG@JBACFMF@?$AAM?$AAo?$AAd?$AAu?$AAl?$AAe?$AA_?$AAR?$AAa?$AAw?$AA?$AA@ 1001bf9c     jqsiestartdetectorimpl.obj
 0002:00001fb4       ??_C@_1O@MNLDABAF@?$AAM?$AAo?$AAd?$AAu?$AAl?$AAe?$AA?$AA@ 1001bfb4     jqsiestartdetectorimpl.obj
 0002:00001fd4       ??_7CRegObject@ATL@@6B@    1001bfd4     jqsiestartdetectorimpl.obj
 0002:00001fec       ??_C@_0BE@NLNNHLLF@HKEY_CURRENT_CONFIG?$AA@ 1001bfec     jqsiestartdetectorimpl.obj
 0002:00002000       ??_C@_0O@MJDLIIGK@HKEY_DYN_DATA?$AA@ 1001c000     jqsiestartdetectorimpl.obj
 0002:00002010       ??_C@_0BG@IDBEHNDO@HKEY_PERFORMANCE_DATA?$AA@ 1001c010     jqsiestartdetectorimpl.obj
 0002:00002028       ??_C@_0L@OEMMANAM@HKEY_USERS?$AA@ 1001c028     jqsiestartdetectorimpl.obj
 0002:00002034       ??_C@_0BD@GIIFIKDM@HKEY_LOCAL_MACHINE?$AA@ 1001c034     jqsiestartdetectorimpl.obj
 0002:00002048       ??_C@_0BC@GMMMKLBI@HKEY_CURRENT_USER?$AA@ 1001c048     jqsiestartdetectorimpl.obj
 0002:0000205c       ??_C@_0BC@JBJOLKMF@HKEY_CLASSES_ROOT?$AA@ 1001c05c     jqsiestartdetectorimpl.obj
 0002:00002070       ??_C@_04LEMDOLAJ@HKCC?$AA@ 1001c070     jqsiestartdetectorimpl.obj
 0002:00002078       ??_C@_04POMNGLEL@HKDD?$AA@ 1001c078     jqsiestartdetectorimpl.obj
 0002:00002080       ??_C@_04OFOCGAOH@HKPD?$AA@ 1001c080     jqsiestartdetectorimpl.obj
 0002:00002088       ??_C@_03DLBIJLAB@HKU?$AA@  1001c088     jqsiestartdetectorimpl.obj
 0002:0000208c       ??_C@_04CBBMIBLK@HKLM?$AA@ 1001c08c     jqsiestartdetectorimpl.obj
 0002:00002094       ??_C@_04KIFLFONO@HKCU?$AA@ 1001c094     jqsiestartdetectorimpl.obj
 0002:0000209c       ??_C@_04OHBKMIBJ@HKCR?$AA@ 1001c09c     jqsiestartdetectorimpl.obj
 0002:000020a8       ?map@?2??HKeyFromString@CRegParser@ATL@@KAPAUHKEY__@@PAD@Z@4QBUkeymap@23@B 1001c0a8     jqsiestartdetectorimpl.obj
 0002:00002124       ??_7?$CComObjectNoLock@VCComClassFactory@ATL@@@ATL@@6B@ 1001c124     jqsiestartdetectorimpl.obj
 0002:0000213c       __GUID_00000001_0000_0000_c000_000000000046 1001c13c     jqsiestartdetectorimpl.obj
 0002:0000214c       ?_entries@?1??_GetEntries@CComClassFactory@ATL@@SGPBU_ATL_INTMAP_ENTRY@3@XZ@4QBU43@B 1001c14c     jqsiestartdetectorimpl.obj
 0002:00002164       ??_7CComClassFactory@ATL@@6B@ 1001c164     jqsiestartdetectorimpl.obj
 0002:0000218c       ??_7?$CComObject@VCJQSIEStartDetectorImpl@@@ATL@@6B?$IDispatchImpl@UIJQSIEStartDetectorImpl@@$1?IID_IJQSIEStartDetectorImpl@@3U_GUID@@B$1?LIBID_JQSIEStartDetectorLib@@3U3@B$00$0A@VCComTypeInfoHolder@ATL@@@1@@ 1001c18c     jqsiestartdetectorimpl.obj
 0002:000021a8       ??_7?$CComObject@VCJQSIEStartDetectorImpl@@@ATL@@6B?$IObjectWithSiteImpl@VCJQSIEStartDetectorImpl@@@1@@ 1001c1a8     jqsiestartdetectorimpl.obj
 0002:000021c0       __GUID_fc4801a3_2ba9_11cf_a229_00aa003d7352 1001c1c0     jqsiestartdetectorimpl.obj
 0002:000021d0       __GUID_00020400_0000_0000_c000_000000000046 1001c1d0     jqsiestartdetectorimpl.obj
 0002:000021e0       __GUID_ad5fb04f_5a8d_44d4_8206_6a8734186ea2 1001c1e0     jqsiestartdetectorimpl.obj
 0002:000021f0       ?_entries@?1??_GetEntries@CJQSIEStartDetectorImpl@@SGPBU_ATL_INTMAP_ENTRY@ATL@@XZ@4QBU34@B 1001c1f0     jqsiestartdetectorimpl.obj
 0002:00002220       __GUID_00020412_0000_0000_c000_000000000046 1001c220     jqsiestartdetectorimpl.obj
 0002:00002230       __GUID_00020401_0000_0000_c000_000000000046 1001c230     jqsiestartdetectorimpl.obj
 0002:00002260       __GUID_00000000_0000_0000_c000_000000000046 1001c260     jqsiestartdetector.obj
 0002:00002270       ??_C@_04LFHHJFCN@?4tlb?$AA@ 1001c270     jqsiestartdetector.obj
 0002:00002278       ??_C@_0BI@LFOHFLDB@?2Implemented?5Categories?$AA@ 1001c278     jqsiestartdetector.obj
 0002:00002290       ??_C@_0BF@CCIMKLEB@?2Required?5Categories?$AA@ 1001c290     jqsiestartdetector.obj
 0002:000022a8       ??_C@_06JHNIBAJK@CLSID?2?$AA@ 1001c2a8     jqsiestartdetector.obj
 0002:000022b0       __GUID_0002e012_0000_0000_c000_000000000046 1001c2b0     jqsiestartdetector.obj
 0002:000022c0       ??_C@_1M@PPPPCDEP@?$AAA?$AAP?$AAP?$AAI?$AAD?$AA?$AA@ 1001c2c0     jqsiestartdetector.obj
 0002:000022d0       ??_C@_1EO@MLPNFDNL@?$AA?$HL?$AAE?$AA3?$AA1?$AA1?$AAB?$AAF?$AAF?$AA9?$AA?9?$AA7?$AA2?$AA8?$AA0?$AA?9?$AA4?$AA0?$AAD?$AA3?$AA?9@ 1001c2d0     jqsiestartdetector.obj
 0002:00002320       ??_7CJQSIEStartDetectorModule@@6B@ 1001c320     jqsiestartdetector.obj
 0002:00002338       __GUID_00000146_0000_0000_c000_000000000046 1001c338     jqsiestartdetector.obj
 0002:00002348       ??_C@_0DN@MMEAFJBM@Unable?5to?5send?5message?5to?5JQS?5se@ 1001c348     jqs_api_client.obj
 0002:00002388       ??_C@_0DG@LKAGGKP@Unable?5to?5connect?5to?5JQS?5service@ 1001c388     jqs_api_client.obj
 0002:000023c0       ??_C@_0DO@ONECLNJE@c?3?2build_area?2jdk6_21?2deploy?2src@ 1001c3c0     jqs_api_client.obj
 0002:00002400       _SID_SVersionHost          1001c400     uuid:ieguids.obj
 0002:00002410       _CGID_InternetExplorer     1001c410     uuid:ieguids.obj
 0002:00002420       _CGID_DownloadHost         1001c420     uuid:ieguids.obj
 0002:00002430       _CLSID_SubscriptionThrottler 1001c430     uuid:ieguids.obj
 0002:00002440       _CLSID_HTMLLoadOptions     1001c440     uuid:ieguids.obj
 0002:00002450       _CLSID_InternetZoneManager 1001c450     uuid:ieguids.obj
 0002:00002460       _CLSID_InternetSecurityManager 1001c460     uuid:ieguids.obj
 0002:00002470       _CLSID_IActiveXSafetyProvider 1001c470     uuid:ieguids.obj
 0002:00002480       _CLSID_SoftDistExt         1001c480     uuid:ieguids.obj
 0002:00002490       _NAMEDTIMER_DRAW           1001c490     uuid:ieguids.obj
 0002:000024a0       _IID_IIntDitherer          1001c4a0     uuid:ieguids.obj
 0002:000024b0       _CLSID_IntDitherer         1001c4b0     uuid:ieguids.obj
 0002:000024c0       _BFID_GRAY_16              1001c4c0     uuid:ieguids.obj
 0002:000024d0       _BFID_GRAY_8               1001c4d0     uuid:ieguids.obj
 0002:000024e0       _BFID_RGBA_32              1001c4e0     uuid:ieguids.obj
 0002:000024f0       _BFID_RGB_32               1001c4f0     uuid:ieguids.obj
 0002:00002500       _BFID_RGB_24               1001c500     uuid:ieguids.obj
 0002:00002510       _BFID_RGB_565              1001c510     uuid:ieguids.obj
 0002:00002520       _BFID_RGB_555              1001c520     uuid:ieguids.obj
 0002:00002530       _BFID_RGB_8                1001c530     uuid:ieguids.obj
 0002:00002540       _BFID_RGB_4                1001c540     uuid:ieguids.obj
 0002:00002550       _BFID_MONOCHROME           1001c550     uuid:ieguids.obj
 0002:00002560       _SID_SHTMLEditServices     1001c560     uuid:ieguids.obj
 0002:00002570       _CGID_DocHostCommandHandler 1001c570     uuid:ieguids.obj
 0002:00002580       _CLSID_HTMLPluginDocument  1001c580     uuid:ieguids.obj
 0002:00002590       _CLSID_HTMLApplication     1001c590     uuid:ieguids.obj
 0002:000025a0       _CLSID_HTADocument         1001c5a0     uuid:ieguids.obj
 0002:000025b0       _CLSID_MHTMLDocument       1001c5b0     uuid:ieguids.obj
 0002:000025c0       _CGID_MSHTML               1001c5c0     uuid:ieguids.obj
 0002:000025d0       _CLSID_IImageDecodeFilter  1001c5d0     uuid:ieguids.obj
 0002:000025e0       _IID_IImgCtx               1001c5e0     uuid:ieguids.obj
 0002:000025f0       _CLSID_IImgCtx             1001c5f0     uuid:ieguids.obj
 0002:00002600       _CATID_DesignTimeUIActivatableControl 1001c600     uuid:ieguids.obj
 0002:00002610       _CATID_SafeForInitializing 1001c610     uuid:ieguids.obj
 0002:00002620       _CATID_SafeForScripting    1001c620     uuid:ieguids.obj
 0002:00002630       _CATID_InternetAware       1001c630     uuid:ieguids.obj
 0002:00002640       _CATID_PersistsToPropertyBag 1001c640     uuid:ieguids.obj
 0002:00002650       _CATID_PersistsToFile      1001c650     uuid:ieguids.obj
 0002:00002660       _CATID_PersistsToMemory    1001c660     uuid:ieguids.obj
 0002:00002670       _CATID_PersistsToStream    1001c670     uuid:ieguids.obj
 0002:00002680       _CATID_PersistsToStreamInit 1001c680     uuid:ieguids.obj
 0002:00002690       _CATID_PersistsToStorage   1001c690     uuid:ieguids.obj
 0002:000026a0       _CATID_PersistsToMoniker   1001c6a0     uuid:ieguids.obj
 0002:000026b0       _CATID_RequiresDataPathHost 1001c6b0     uuid:ieguids.obj
 0002:000026c0       _CATID_Printable           1001c6c0     uuid:ieguids.obj
 0002:000026d0       _CATID_DocObject           1001c6d0     uuid:ieguids.obj
 0002:000026e0       _CATID_NeverShowExt        1001c6e0     uuid:ieguids.obj
 0002:000026f0       _CATID_IsShortcut          1001c6f0     uuid:ieguids.obj
 0002:00002700       _CATID_Programmable        1001c700     uuid:ieguids.obj
 0002:00002710       _CATID_Control             1001c710     uuid:ieguids.obj
 0002:00002720       _CATID_Insertable          1001c720     uuid:ieguids.obj
 0002:00002730       _CLSID_StdComponentCategoriesMgr 1001c730     uuid:ieguids.obj
 0002:00002740       _ARRAYID_PathProperties    1001c740     uuid:ieguids.obj
 0002:00002750       _FLAGID_Internet           1001c750     uuid:ieguids.obj
 0002:00002760       _OLE_DATAPATH_PENDATA      1001c760     uuid:ieguids.obj
 0002:00002770       _OLE_DATAPATH_PALETTE      1001c770     uuid:ieguids.obj
 0002:00002780       _OLE_DATAPATH_BIFF         1001c780     uuid:ieguids.obj
 0002:00002790       _OLE_DATAPATH_SYLK         1001c790     uuid:ieguids.obj
 0002:000027a0       _OLE_DATAPATH_DIF          1001c7a0     uuid:ieguids.obj
 0002:000027b0       _OLE_DATAPATH_ALLTEXT      1001c7b0     uuid:ieguids.obj
 0002:000027c0       _OLE_DATAPATH_POSTSCRIPT   1001c7c0     uuid:ieguids.obj
 0002:000027d0       _OLE_DATAPATH_HTML         1001c7d0     uuid:ieguids.obj
 0002:000027e0       _OLE_DATAPATH_RTF          1001c7e0     uuid:ieguids.obj
 0002:000027f0       _OLE_DATAPATH_UNICODE      1001c7f0     uuid:ieguids.obj
 0002:00002800       _OLE_DATAPATH_ANSITEXT     1001c800     uuid:ieguids.obj
 0002:00002810       _OLE_DATAPATH_ALLMM        1001c810     uuid:ieguids.obj
 0002:00002820       _OLE_DATAPATH_VIDEO        1001c820     uuid:ieguids.obj
 0002:00002830       _OLE_DATAPATH_SOUND        1001c830     uuid:ieguids.obj
 0002:00002840       _OLE_DATAPATH_RIFF         1001c840     uuid:ieguids.obj
 0002:00002850       _OLE_DATAPATH_WAV          1001c850     uuid:ieguids.obj
 0002:00002860       _OLE_DATAPATH_MIDI         1001c860     uuid:ieguids.obj
 0002:00002870       _OLE_DATAPATH_BASICAUDIO   1001c870     uuid:ieguids.obj
 0002:00002880       _OLE_DATAPATH_QUICKTIME    1001c880     uuid:ieguids.obj
 0002:00002890       _OLE_DATAPATH_MPEG         1001c890     uuid:ieguids.obj
 0002:000028a0       _OLE_DATAPATH_AVI          1001c8a0     uuid:ieguids.obj
 0002:000028b0       _OLE_DATAPATH_ALLIMAGE     1001c8b0     uuid:ieguids.obj
 0002:000028c0       _OLE_DATAPATH_COMMONIMAGE  1001c8c0     uuid:ieguids.obj
 0002:000028d0       _OLE_DATAPATH_EPS          1001c8d0     uuid:ieguids.obj
 0002:000028e0       _OLE_DATAPATH_CGM          1001c8e0     uuid:ieguids.obj
 0002:000028f0       _OLE_DATAPATH_PICT         1001c8f0     uuid:ieguids.obj
 0002:00002900       _OLE_DATAPATH_PCX          1001c900     uuid:ieguids.obj
 0002:00002910       _OLE_DATAPATH_XBM          1001c910     uuid:ieguids.obj
 0002:00002920       _OLE_DATAPATH_TIFF         1001c920     uuid:ieguids.obj
 0002:00002930       _OLE_DATAPATH_JPEG         1001c930     uuid:ieguids.obj
 0002:00002940       _OLE_DATAPATH_GIF          1001c940     uuid:ieguids.obj
 0002:00002950       _OLE_DATAPATH_ENHMF        1001c950     uuid:ieguids.obj
 0002:00002960       _OLE_DATAPATH_WMF          1001c960     uuid:ieguids.obj
 0002:00002970       _OLE_DATAPATH_DIB          1001c970     uuid:ieguids.obj
 0002:00002980       _OLE_DATAPATH_BMP          1001c980     uuid:ieguids.obj
 0002:00002990       _CLSID_StdHlinkBrowseContext 1001c990     uuid:ieguids.obj
 0002:000029a0       _CLSID_StdHlink            1001c9a0     uuid:ieguids.obj
 0002:000029b0       _GUID_HasPathProperties    1001c9b0     uuid:ieguids.obj
 0002:000029c0       _GUID_PathProperty         1001c9c0     uuid:ieguids.obj
 0002:000029d0       _SID_SDataPathBrowser      1001c9d0     uuid:ieguids.obj
 0002:000029e0       _SID_SContainerDispatch    1001c9e0     uuid:ieguids.obj
 0002:000029f0       _IID_IAccessible           1001c9f0     uuid:ieguids.obj
 0002:00002a00       _LIBID_Accessibility       1001ca00     uuid:ieguids.obj
 0002:00002a10       _CLSID_ClassInstallFilter  1001ca10     uuid:ieguids.obj
 0002:00002a20       _CLSID_CdlProtocol         1001ca20     uuid:ieguids.obj
 0002:00002a30       _CLSID_DeCompMimeFilter    1001ca30     uuid:ieguids.obj
 0002:00002a40       _CLSID_StdEncodingFilterFac 1001ca40     uuid:ieguids.obj
 0002:00002a50       _CLSID_NotificaitonTest4   1001ca50     uuid:ieguids.obj
 0002:00002a60       _CLSID_NotificaitonTest3   1001ca60     uuid:ieguids.obj
 0002:00002a70       _CLSID_NotificaitonTest2   1001ca70     uuid:ieguids.obj
 0002:00002a80       _CLSID_NotificaitonTest1   1001ca80     uuid:ieguids.obj
 0002:00002a90       _NOTIFICATIONTYPE_START_F  1001ca90     uuid:ieguids.obj
 0002:00002aa0       _NOTIFICATIONTYPE_START_E  1001caa0     uuid:ieguids.obj
 0002:00002ab0       _NOTIFICATIONTYPE_START_D  1001cab0     uuid:ieguids.obj
 0002:00002ac0       _NOTIFICATIONTYPE_START_C  1001cac0     uuid:ieguids.obj
 0002:00002ad0       _NOTIFICATIONTYPE_START_B  1001cad0     uuid:ieguids.obj
 0002:00002ae0       _NOTIFICATIONTYPE_START_A  1001cae0     uuid:ieguids.obj
 0002:00002af0       _NOTIFICATIONTYPE_START_9  1001caf0     uuid:ieguids.obj
 0002:00002b00       _NOTIFICATIONTYPE_START_8  1001cb00     uuid:ieguids.obj
 0002:00002b10       _NOTIFICATIONTYPE_START_7  1001cb10     uuid:ieguids.obj
 0002:00002b20       _NOTIFICATIONTYPE_START_6  1001cb20     uuid:ieguids.obj
 0002:00002b30       _NOTIFICATIONTYPE_START_5  1001cb30     uuid:ieguids.obj
 0002:00002b40       _NOTIFICATIONTYPE_START_4  1001cb40     uuid:ieguids.obj
 0002:00002b50       _NOTIFICATIONTYPE_START_3  1001cb50     uuid:ieguids.obj
 0002:00002b60       _NOTIFICATIONTYPE_START_2  1001cb60     uuid:ieguids.obj
 0002:00002b70       _NOTIFICATIONTYPE_START_1  1001cb70     uuid:ieguids.obj
 0002:00002b80       _NOTIFICATIONTYPE_START_0  1001cb80     uuid:ieguids.obj
 0002:00002b90       _NOTIFICATIONTYPE_15       1001cb90     uuid:ieguids.obj
 0002:00002ba0       _NOTIFICATIONTYPE_14       1001cba0     uuid:ieguids.obj
 0002:00002bb0       _NOTIFICATIONTYPE_13       1001cbb0     uuid:ieguids.obj
 0002:00002bc0       _NOTIFICATIONTYPE_12       1001cbc0     uuid:ieguids.obj
 0002:00002bd0       _NOTIFICATIONTYPE_11       1001cbd0     uuid:ieguids.obj
 0002:00002be0       _NOTIFICATIONTYPE_f        1001cbe0     uuid:ieguids.obj
 0002:00002bf0       _NOTIFICATIONTYPE_e        1001cbf0     uuid:ieguids.obj
 0002:00002c00       _NOTIFICATIONTYPE_d        1001cc00     uuid:ieguids.obj
 0002:00002c10       _NOTIFICATIONTYPE_TASKS_ERROR 1001cc10     uuid:ieguids.obj
 0002:00002c20       _NOTIFICATIONTYPE_TASKS_STARTED 1001cc20     uuid:ieguids.obj
 0002:00002c30       _NOTIFICATIONTYPE_USER_IDLE_END 1001cc30     uuid:ieguids.obj
 0002:00002c40       _NOTIFICATIONTYPE_USER_IDLE_BEGIN 1001cc40     uuid:ieguids.obj
 0002:00002c50       _NOTIFICATIONTYPE_PROGRESS_REPORT 1001cc50     uuid:ieguids.obj
 0002:00002c60       _NOTIFICATIONTYPE_CONFIG_CHANGED 1001cc60     uuid:ieguids.obj
 0002:00002c70       _NOTIFICATIONTYPE_DISCONNECT_FROM_INTERNET 1001cc70     uuid:ieguids.obj
 0002:00002c80       _NOTIFICATIONTYPE_CONNECT_TO_INTERNET 1001cc80     uuid:ieguids.obj
 0002:00002c90       _NOTIFICATIONTYPE_AGENT_INIT 1001cc90     uuid:ieguids.obj
 0002:00002ca0       _NOTIFICATIONTYPE_END_REPORT 1001cca0     uuid:ieguids.obj
 0002:00002cb0       _NOTIFICATIONTYPE_BEGIN_REPORT 1001ccb0     uuid:ieguids.obj
 0002:00002cc0       _NOTIFICATIONTYPE_AGENT_START 1001ccc0     uuid:ieguids.obj
 0002:00002cd0       _NOTIFICATIONTYPE_TASKS_PROGRESS 1001ccd0     uuid:ieguids.obj
 0002:00002ce0       _NOTIFICATIONTYPE_TASKS_COMPLETED 1001cce0     uuid:ieguids.obj
 0002:00002cf0       _NOTIFICATIONTYPE_TASKS_ABORT 1001ccf0     uuid:ieguids.obj
 0002:00002d00       _NOTIFICATIONTYPE_TASKS_RESUME 1001cd00     uuid:ieguids.obj
 0002:00002d10       _NOTIFICATIONTYPE_TASKS_SUSPEND 1001cd10     uuid:ieguids.obj
 0002:00002d20       _NOTIFICATIONTYPE_INET_ONLINE 1001cd20     uuid:ieguids.obj
 0002:00002d30       _NOTIFICATIONTYPE_INET_OFFLINE 1001cd30     uuid:ieguids.obj
 0002:00002d40       _NOTIFICATIONTYPE_INET_IDLE 1001cd40     uuid:ieguids.obj
 0002:00002d50       _NOTIFICATIONTYPE_ALERT    1001cd50     uuid:ieguids.obj
 0002:00002d60       _NOTIFICATIONTYPE_TASK     1001cd60     uuid:ieguids.obj
 0002:00002d70       _NOTIFICATIONTYPE_ANOUNCMENT 1001cd70     uuid:ieguids.obj
 0002:00002d80       _NOTIFICATIONTYPE_NULL     1001cd80     uuid:ieguids.obj
 0002:00002d90       _NOTFCOOKIE_SCHEDULE_GROUP_MANUAL 1001cd90     uuid:ieguids.obj
 0002:00002da0       _NOTFCOOKIE_SCHEDULE_GROUP_MONTHLY 1001cda0     uuid:ieguids.obj
 0002:00002db0       _NOTFCOOKIE_SCHEDULE_GROUP_WEEKLY 1001cdb0     uuid:ieguids.obj
 0002:00002dc0       _NOTFCOOKIE_SCHEDULE_GROUP_DAILY 1001cdc0     uuid:ieguids.obj
 0002:00002dd0       _NOTIFICATIONTYPE_iF       1001cdd0     uuid:ieguids.obj
 0002:00002de0       _NOTIFICATIONTYPE_iE       1001cde0     uuid:ieguids.obj
 0002:00002df0       _NOTIFICATIONTYPE_iD       1001cdf0     uuid:ieguids.obj
 0002:00002e00       _NOTIFICATIONTYPE_iC       1001ce00     uuid:ieguids.obj
 0002:00002e10       _NOTIFICATIONTYPE_iB       1001ce10     uuid:ieguids.obj
 0002:00002e20       _NOTIFICATIONTYPE_iA       1001ce20     uuid:ieguids.obj
 0002:00002e30       _NOTIFICATIONTYPE_i9       1001ce30     uuid:ieguids.obj
 0002:00002e40       _NOTIFICATIONTYPE_i8       1001ce40     uuid:ieguids.obj
 0002:00002e50       _NOTIFICATIONTYPE_i7       1001ce50     uuid:ieguids.obj
 0002:00002e60       _NOTIFICATIONTYPE_i6       1001ce60     uuid:ieguids.obj
 0002:00002e70       _NOTIFICATIONTYPE_GROUP_DONE 1001ce70     uuid:ieguids.obj
 0002:00002e80       _NOTIFICATIONTYPE_GROUP_RESTART 1001ce80     uuid:ieguids.obj
 0002:00002e90       _NOTIFICATIONTYPE_GROUP_START 1001ce90     uuid:ieguids.obj
 0002:00002ea0       _NOTIFICATIONTYPE_ITEM_DONE 1001cea0     uuid:ieguids.obj
 0002:00002eb0       _NOTIFICATIONTYPE_ITEM_RESTART 1001ceb0     uuid:ieguids.obj
 0002:00002ec0       _NOTIFICATIONTYPE_ITEM_START 1001cec0     uuid:ieguids.obj
 0002:00002ed0       _CLSID_d                   1001ced0     uuid:ieguids.obj
 0002:00002ee0       _CLSID_c                   1001cee0     uuid:ieguids.obj
 0002:00002ef0       _CLSID_b                   1001cef0     uuid:ieguids.obj
 0002:00002f00       _CLSID_a                   1001cf00     uuid:ieguids.obj
 0002:00002f10       _CLSID_9                   1001cf10     uuid:ieguids.obj
 0002:00002f20       _CLSID_8                   1001cf20     uuid:ieguids.obj
 0002:00002f30       _CLSID_7                   1001cf30     uuid:ieguids.obj
 0002:00002f40       _CLSID_6                   1001cf40     uuid:ieguids.obj
 0002:00002f50       _CLSID_5                   1001cf50     uuid:ieguids.obj
 0002:00002f60       _CLSID_4                   1001cf60     uuid:ieguids.obj
 0002:00002f70       _CLSID_3                   1001cf70     uuid:ieguids.obj
 0002:00002f80       _CLSID_2                   1001cf80     uuid:ieguids.obj
 0002:00002f90       _CLSID_1                   1001cf90     uuid:ieguids.obj
 0002:00002fa0       _CLSID_THREAD_BROADCAST    1001cfa0     uuid:ieguids.obj
 0002:00002fb0       _CLSID_PROCESS_BROADCAST   1001cfb0     uuid:ieguids.obj
 0002:00002fc0       _CLSID_GLOBAL_BROADCAST    1001cfc0     uuid:ieguids.obj
 0002:00002fd0       _IID_IOInetProtocolInfo    1001cfd0     uuid:ieguids.obj
 0002:00002fe0       _IID_IOInetPriority        1001cfe0     uuid:ieguids.obj
 0002:00002ff0       _IID_IOInetCache           1001cff0     uuid:ieguids.obj
 0002:00003000       _IID_IOInetThreadSwitch    1001d000     uuid:ieguids.obj
 0002:00003010       _IID_IOInetSession         1001d010     uuid:ieguids.obj
 0002:00003020       _IID_IOInetProtocolSink    1001d020     uuid:ieguids.obj
 0002:00003030       _IID_IOInetProtocol        1001d030     uuid:ieguids.obj
 0002:00003040       _IID_IOInetProtocolRoot    1001d040     uuid:ieguids.obj
 0002:00003050       _IID_IOInetBindClient      1001d050     uuid:ieguids.obj
 0002:00003060       _IID_IOInetBindInfo        1001d060     uuid:ieguids.obj
 0002:00003070       _IID_IOInet                1001d070     uuid:ieguids.obj
 0002:00003080       _IID_INotificationProcessMgr0 1001d080     uuid:ieguids.obj
 0002:00003090       _IID_INotificationRunning  1001d090     uuid:ieguids.obj
 0002:000030a0       _IID_INotificationPing     1001d0a0     uuid:ieguids.obj
 0002:000030b0       _IID_INotificationHelper   1001d0b0     uuid:ieguids.obj
 0002:000030c0       _IID_IEnumNotificationSinkItem 1001d0c0     uuid:ieguids.obj
 0002:000030d0       _IID_IEnumScheduleGroup    1001d0d0     uuid:ieguids.obj
 0002:000030e0       _IID_IEnumNotification     1001d0e0     uuid:ieguids.obj
 0002:000030f0       _IID_INotificationReport   1001d0f0     uuid:ieguids.obj
 0002:00003100       _IID_IScheduleGroup        1001d100     uuid:ieguids.obj
 0002:00003110       _IID_INotificationSink     1001d110     uuid:ieguids.obj
 0002:00003120       _IID_INotificationMgr      1001d120     uuid:ieguids.obj
 0002:00003130       _IID_INotification         1001d130     uuid:ieguids.obj
 0002:00003140       _IID_IPropertyMap          1001d140     uuid:ieguids.obj
 0002:00003150       _IID_IEnumPropertyMap      1001d150     uuid:ieguids.obj
 0002:00003160       _CLSID_WebCheckDefaultProcess 1001d160     uuid:ieguids.obj
 0002:00003170       _CLSID_StdNotificationMgr  1001d170     uuid:ieguids.obj
 0002:00003180       _IID_IDebugOut             1001d180     uuid:ieguids.obj
 0002:00003190       _IID_IDebugRegister        1001d190     uuid:ieguids.obj
 0002:000031a0       _IID_IBindStatusCallbackMsg 1001d1a0     uuid:ieguids.obj
 0002:000031b0       _IID_IAsyncBindCtx         1001d1b0     uuid:ieguids.obj
 0002:000031c0       _IID_IBindStatusCallbackHolder 1001d1c0     uuid:ieguids.obj
 0002:000031d0       _IID_IAsyncMoniker         1001d1d0     uuid:ieguids.obj
 0002:000031e0       _CLSID_AboutProtocol       1001d1e0     uuid:ieguids.obj
 0002:000031f0       _CLSID_ResProtocol         1001d1f0     uuid:ieguids.obj
 0002:00003200       _CLSID_UrlMkBindCtx        1001d200     uuid:ieguids.obj
 0002:00003210       _CLSID_PSUrlMonProxy       1001d210     uuid:ieguids.obj
 0002:00003220       _CLSID_FileProtocol        1001d220     uuid:ieguids.obj
 0002:00003230       _CLSID_MkProtocol          1001d230     uuid:ieguids.obj
 0002:00003240       _CLSID_HttpSProtocol       1001d240     uuid:ieguids.obj
 0002:00003250       _CLSID_GopherProtocol      1001d250     uuid:ieguids.obj
 0002:00003260       _CLSID_FtpProtocol         1001d260     uuid:ieguids.obj
 0002:00003270       _CLSID_HttpProtocol        1001d270     uuid:ieguids.obj
 0002:00003280       _CLSID_StdURLProtocol      1001d280     uuid:ieguids.obj
 0002:00003290       _CLSID_StdURLMoniker       1001d290     uuid:ieguids.obj
 0002:000032a0       _GUID_DEVINTERFACE_SERENUM_BUS_ENUMERATOR 1001d2a0     uuid:cguid_i.obj
 0002:000032b0       _GUID_DEVINTERFACE_COMPORT 1001d2b0     uuid:cguid_i.obj
 0002:000032c0       _GUID_DEVINTERFACE_STORAGEPORT 1001d2c0     uuid:cguid_i.obj
 0002:000032d0       _GUID_DEVINTERFACE_CDCHANGER 1001d2d0     uuid:cguid_i.obj
 0002:000032e0       _GUID_DEVINTERFACE_FLOPPY  1001d2e0     uuid:cguid_i.obj
 0002:000032f0       _GUID_DEVINTERFACE_MEDIUMCHANGER 1001d2f0     uuid:cguid_i.obj
 0002:00003300       _GUID_DEVINTERFACE_VOLUME  1001d300     uuid:cguid_i.obj
 0002:00003310       _GUID_DEVINTERFACE_WRITEONCEDISK 1001d310     uuid:cguid_i.obj
 0002:00003320       _GUID_DEVINTERFACE_TAPE    1001d320     uuid:cguid_i.obj
 0002:00003330       _GUID_DEVINTERFACE_PARTITION 1001d330     uuid:cguid_i.obj
 0002:00003340       _GUID_DEVINTERFACE_CDROM   1001d340     uuid:cguid_i.obj
 0002:00003350       _GUID_DEVINTERFACE_DISK    1001d350     uuid:cguid_i.obj
 0002:00003360       _GUID_DEVCLASS_FSFILTER_INFRASTRUCTURE 1001d360     uuid:cguid_i.obj
 0002:00003370       _GUID_DEVCLASS_FSFILTER_SYSTEM 1001d370     uuid:cguid_i.obj
 0002:00003380       _GUID_DEVCLASS_FSFILTER_COPYPROTECTION 1001d380     uuid:cguid_i.obj
 0002:00003390       _GUID_DEVCLASS_FSFILTER_SECURITYENHANCER 1001d390     uuid:cguid_i.obj
 0002:000033a0       _GUID_DEVCLASS_FSFILTER_OPENFILEBACKUP 1001d3a0     uuid:cguid_i.obj
 0002:000033b0       _GUID_DEVCLASS_FSFILTER_PHYSICALQUOTAMANAGEMENT 1001d3b0     uuid:cguid_i.obj
 0002:000033c0       _GUID_DEVCLASS_FSFILTER_ENCRYPTION 1001d3c0     uuid:cguid_i.obj
 0002:000033d0       _GUID_DEVCLASS_FSFILTER_COMPRESSION 1001d3d0     uuid:cguid_i.obj
 0002:000033e0       _GUID_DEVCLASS_FSFILTER_HSM 1001d3e0     uuid:cguid_i.obj
 0002:000033f0       _GUID_DEVCLASS_FSFILTER_CFSMETADATASERVER 1001d3f0     uuid:cguid_i.obj
 0002:00003400       _GUID_DEVCLASS_FSFILTER_SYSTEMRECOVERY 1001d400     uuid:cguid_i.obj
 0002:00003410       _GUID_DEVCLASS_FSFILTER_QUOTAMANAGEMENT 1001d410     uuid:cguid_i.obj
 0002:00003420       _GUID_DEVCLASS_FSFILTER_CONTENTSCREENER 1001d420     uuid:cguid_i.obj
 0002:00003430       _GUID_DEVCLASS_FSFILTER_CONTINUOUSBACKUP 1001d430     uuid:cguid_i.obj
 0002:00003440       _GUID_DEVCLASS_FSFILTER_REPLICATION 1001d440     uuid:cguid_i.obj
 0002:00003450       _GUID_DEVCLASS_FSFILTER_ANTIVIRUS 1001d450     uuid:cguid_i.obj
 0002:00003460       _GUID_DEVCLASS_FSFILTER_UNDELETE 1001d460     uuid:cguid_i.obj
 0002:00003470       _GUID_DEVCLASS_FSFILTER_ACTIVITYMONITOR 1001d470     uuid:cguid_i.obj
 0002:00003480       _GUID_DEVCLASS_BTRANS      1001d480     uuid:cguid_i.obj
 0002:00003490       _GUID_DEVCLASS_WCEUSBS     1001d490     uuid:cguid_i.obj
 0002:000034a0       _GUID_DEVCLASS_VOLUMESNAPSHOT 1001d4a0     uuid:cguid_i.obj
 0002:000034b0       _GUID_DEVCLASS_VOLUME      1001d4b0     uuid:cguid_i.obj
 0002:000034c0       _GUID_DEVCLASS_USB         1001d4c0     uuid:cguid_i.obj
 0002:000034d0       _GUID_DEVCLASS_UNKNOWN     1001d4d0     uuid:cguid_i.obj
 0002:000034e0       _GUID_DEVCLASS_TAPEDRIVE   1001d4e0     uuid:cguid_i.obj
 0002:000034f0       _GUID_DEVCLASS_SYSTEM      1001d4f0     uuid:cguid_i.obj
 0002:00003500       _GUID_DEVCLASS_SOUND       1001d500     uuid:cguid_i.obj
 0002:00003510       _GUID_DEVCLASS_SMARTCARDREADER 1001d510     uuid:cguid_i.obj
 0002:00003520       _GUID_DEVCLASS_SECURITYACCELERATOR 1001d520     uuid:cguid_i.obj
 0002:00003530       _GUID_DEVCLASS_SCSIADAPTER 1001d530     uuid:cguid_i.obj
 0002:00003540       _GUID_DEVCLASS_SBP2        1001d540     uuid:cguid_i.obj
 0002:00003550       _GUID_DEVCLASS_PROCESSOR   1001d550     uuid:cguid_i.obj
 0002:00003560       _GUID_DEVCLASS_PRINTERUPGRADE 1001d560     uuid:cguid_i.obj
 0002:00003570       _GUID_DEVCLASS_PRINTER     1001d570     uuid:cguid_i.obj
 0002:00003580       _GUID_DEVCLASS_PORTS       1001d580     uuid:cguid_i.obj
 0002:00003590       _GUID_DEVCLASS_PNPPRINTERS 1001d590     uuid:cguid_i.obj
 0002:000035a0       _GUID_DEVCLASS_PCMCIA      1001d5a0     uuid:cguid_i.obj
 0002:000035b0       _GUID_DEVCLASS_NODRIVER    1001d5b0     uuid:cguid_i.obj
 0002:000035c0       _GUID_DEVCLASS_NETTRANS    1001d5c0     uuid:cguid_i.obj
 0002:000035d0       _GUID_DEVCLASS_NETSERVICE  1001d5d0     uuid:cguid_i.obj
 0002:000035e0       _GUID_DEVCLASS_NETCLIENT   1001d5e0     uuid:cguid_i.obj
 0002:000035f0       _GUID_DEVCLASS_NET         1001d5f0     uuid:cguid_i.obj
 0002:00003600       _GUID_DEVCLASS_MULTIPORTSERIAL 1001d600     uuid:cguid_i.obj
 0002:00003610       _GUID_DEVCLASS_MULTIFUNCTION 1001d610     uuid:cguid_i.obj
 0002:00003620       _GUID_DEVCLASS_MTD         1001d620     uuid:cguid_i.obj
 0002:00003630       _GUID_DEVCLASS_MOUSE       1001d630     uuid:cguid_i.obj
 0002:00003640       _GUID_DEVCLASS_MONITOR     1001d640     uuid:cguid_i.obj
 0002:00003650       _GUID_DEVCLASS_MODEM       1001d650     uuid:cguid_i.obj
 0002:00003660       _GUID_DEVCLASS_MEDIUM_CHANGER 1001d660     uuid:cguid_i.obj
 0002:00003670       _GUID_DEVCLASS_MEDIA       1001d670     uuid:cguid_i.obj
 0002:00003680       _GUID_DEVCLASS_LEGACYDRIVER 1001d680     uuid:cguid_i.obj
 0002:00003690       _GUID_DEVCLASS_KEYBOARD    1001d690     uuid:cguid_i.obj
 0002:000036a0       _GUID_DEVCLASS_INFRARED    1001d6a0     uuid:cguid_i.obj
 0002:000036b0       _GUID_DEVCLASS_INFINIBAND  1001d6b0     uuid:cguid_i.obj
 0002:000036c0       _GUID_DEVCLASS_IMAGE       1001d6c0     uuid:cguid_i.obj
 0002:000036d0       _GUID_DEVCLASS_HIDCLASS    1001d6d0     uuid:cguid_i.obj
 0002:000036e0       _GUID_DEVCLASS_HDC         1001d6e0     uuid:cguid_i.obj
 0002:000036f0       _GUID_DEVCLASS_GPS         1001d6f0     uuid:cguid_i.obj
 0002:00003700       _GUID_DEVCLASS_FLOPPYDISK  1001d700     uuid:cguid_i.obj
 0002:00003710       _GUID_DEVCLASS_FDC         1001d710     uuid:cguid_i.obj
 0002:00003720       _GUID_DEVCLASS_ENUM1394    1001d720     uuid:cguid_i.obj
 0002:00003730       _GUID_DEVCLASS_DOT4PRINT   1001d730     uuid:cguid_i.obj
 0002:00003740       _GUID_DEVCLASS_DOT4        1001d740     uuid:cguid_i.obj
 0002:00003750       _GUID_DEVCLASS_DISPLAY     1001d750     uuid:cguid_i.obj
 0002:00003760       _GUID_DEVCLASS_DISKDRIVE   1001d760     uuid:cguid_i.obj
 0002:00003770       _GUID_DEVCLASS_DECODER     1001d770     uuid:cguid_i.obj
 0002:00003780       _GUID_DEVCLASS_COMPUTER    1001d780     uuid:cguid_i.obj
 0002:00003790       _GUID_DEVCLASS_CDROM       1001d790     uuid:cguid_i.obj
 0002:000037a0       _GUID_DEVCLASS_BLUETOOTH   1001d7a0     uuid:cguid_i.obj
 0002:000037b0       _GUID_DEVCLASS_BATTERY     1001d7b0     uuid:cguid_i.obj
 0002:000037c0       _GUID_DEVCLASS_AVC         1001d7c0     uuid:cguid_i.obj
 0002:000037d0       _GUID_DEVCLASS_APMSUPPORT  1001d7d0     uuid:cguid_i.obj
 0002:000037e0       _GUID_DEVCLASS_ADAPTER     1001d7e0     uuid:cguid_i.obj
 0002:000037f0       _GUID_DEVCLASS_61883       1001d7f0     uuid:cguid_i.obj
 0002:00003800       _GUID_DEVCLASS_1394DEBUG   1001d800     uuid:cguid_i.obj
 0002:00003810       _GUID_DEVCLASS_1394        1001d810     uuid:cguid_i.obj
 0002:00003820       _CLSID_ThumbnailUpdater    1001d820     uuid:cguid_i.obj
 0002:00003830       _CLSID_ThumbnailFCNHandler 1001d830     uuid:cguid_i.obj
 0002:00003840       _CLSID_GblComponentCategoriesMgr 1001d840     uuid:cguid_i.obj
 0002:00003850       _IID_IBoundObjectSite      1001d850     uuid:cguid_i.obj
 0002:00003860       _IID_IBoundObject          1001d860     uuid:cguid_i.obj
 0002:00003870       __DBCIDGUID                1001d870     uuid:cguid_i.obj
 0002:00003880       __DBBMKGUID                1001d880     uuid:cguid_i.obj
 0002:00003890       __GUID_NAMEONLY            1001d890     uuid:cguid_i.obj
 0002:000038a0       _IID_IEntryID              1001d8a0     uuid:cguid_i.obj
 0002:000038b0       _IID_ICursorFind           1001d8b0     uuid:cguid_i.obj
 0002:000038c0       _IID_INotifyDBEvents       1001d8c0     uuid:cguid_i.obj
 0002:000038d0       _IID_ICursorUpdateARow     1001d8d0     uuid:cguid_i.obj
 0002:000038e0       _IID_ICursorScroll         1001d8e0     uuid:cguid_i.obj
 0002:000038f0       _IID_ICursorMove           1001d8f0     uuid:cguid_i.obj
 0002:00003900       _IID_ICursor               1001d900     uuid:cguid_i.obj
 0002:00003910       _IID_StdOle                1001d910     uuid:cguid_i.obj
 0002:00003920       _GUID_HANDLE               1001d920     uuid:cguid_i.obj
 0002:00003930       _GUID_FONTSTRIKETHROUGH    1001d930     uuid:cguid_i.obj
 0002:00003940       _GUID_FONTUNDERSCORE       1001d940     uuid:cguid_i.obj
 0002:00003950       _GUID_FONTITALIC           1001d950     uuid:cguid_i.obj
 0002:00003960       _GUID_FONTBOLD             1001d960     uuid:cguid_i.obj
 0002:00003970       _GUID_FONTSIZE             1001d970     uuid:cguid_i.obj
 0002:00003980       _GUID_FONTNAME             1001d980     uuid:cguid_i.obj
 0002:00003990       _GUID_CHECKVALUEEXCLUSIVE  1001d990     uuid:cguid_i.obj
 0002:000039a0       _GUID_OPTIONVALUEEXCLUSIVE 1001d9a0     uuid:cguid_i.obj
 0002:000039b0       _GUID_TRISTATE             1001d9b0     uuid:cguid_i.obj
 0002:000039c0       _GUID_YSIZE                1001d9c0     uuid:cguid_i.obj
 0002:000039d0       _GUID_XSIZE                1001d9d0     uuid:cguid_i.obj
 0002:000039e0       _GUID_YPOS                 1001d9e0     uuid:cguid_i.obj
 0002:000039f0       _GUID_XPOS                 1001d9f0     uuid:cguid_i.obj
 0002:00003a00       _GUID_YSIZEPIXEL           1001da00     uuid:cguid_i.obj
 0002:00003a10       _GUID_XSIZEPIXEL           1001da10     uuid:cguid_i.obj
 0002:00003a20       _GUID_YPOSPIXEL            1001da20     uuid:cguid_i.obj
 0002:00003a30       _GUID_XPOSPIXEL            1001da30     uuid:cguid_i.obj
 0002:00003a40       _GUID_COLOR                1001da40     uuid:cguid_i.obj
 0002:00003a50       _GUID_HIMETRIC             1001da50     uuid:cguid_i.obj
 0002:00003a60       _CLSID_StdPicture          1001da60     uuid:cguid_i.obj
 0002:00003a70       _CLSID_StdFont             1001da70     uuid:cguid_i.obj
 0002:00003a80       _CLSID_ConvertVBX          1001da80     uuid:cguid_i.obj
 0002:00003a90       _CLSID_PersistPropset      1001da90     uuid:cguid_i.obj
 0002:00003aa0       _CLSID_StockPicturePage    1001daa0     uuid:cguid_i.obj
 0002:00003ab0       _CLSID_StockColorPage      1001dab0     uuid:cguid_i.obj
 0002:00003ac0       _CLSID_StockFontPage       1001dac0     uuid:cguid_i.obj
 0002:00003ad0       _CLSID_CPicturePropPage    1001dad0     uuid:cguid_i.obj
 0002:00003ae0       _CLSID_CColorPropPage      1001dae0     uuid:cguid_i.obj
 0002:00003af0       _CLSID_CFontPropPage       1001daf0     uuid:cguid_i.obj
 0002:00003b00       _IID_IPropertyFrame        1001db00     uuid:cguid_i.obj
 0002:00003b10       _CLSID_AddrControl         1001db10     uuid:cguid_i.obj
 0002:00003b20       _CLSID_CurrentUserClasses  1001db20     uuid:cguid_i.obj
 0002:00003b30       _CLSID_LocalMachineClasses 1001db30     uuid:cguid_i.obj
 0002:00003b40       _CLSID_AllClasses          1001db40     uuid:cguid_i.obj
 0002:00003b50       _IID_IRichEditOleCallback  1001db50     uuid:cguid_i.obj
 0002:00003b60       _IID_IRichEditOle          1001db60     uuid:cguid_i.obj
 0002:00003b70       _CLSID_RemoteUnknownPSFactory 1001db70     uuid:cguid_i.obj
 0002:00003b80       _CLSID_InProcFreeMarshaler 1001db80     uuid:cguid_i.obj
 0002:00003b90       _CLSID_StdAsyncActManager  1001db90     uuid:cguid_i.obj
 0002:00003ba0       _CLSID_ComBinding          1001dba0     uuid:cguid_i.obj
 0002:00003bb0       _CLSID_SynchronizeContainer 1001dbb0     uuid:cguid_i.obj
 0002:00003bc0       _CLSID_StdEvent            1001dbc0     uuid:cguid_i.obj
 0002:00003bd0       _CLSID_ManualResetEvent    1001dbd0     uuid:cguid_i.obj
 0002:00003be0       _CLSID_DCOMAccessControl   1001dbe0     uuid:cguid_i.obj
 0002:00003bf0       _CLSID_Picture_Dib         1001dbf0     uuid:cguid_i.obj
 0002:00003c00       _CLSID_Picture_EnhMetafile 1001dc00     uuid:cguid_i.obj
 0002:00003c10       _CLSID_Picture_Metafile    1001dc10     uuid:cguid_i.obj
 0002:00003c20       _CLSID_StaticDib           1001dc20     uuid:cguid_i.obj
 0002:00003c30       _CLSID_StaticMetafile      1001dc30     uuid:cguid_i.obj
 0002:00003c40       _CLSID_PSEnumerators       1001dc40     uuid:cguid_i.obj
 0002:00003c50       _CLSID_PSBindCtx           1001dc50     uuid:cguid_i.obj
 0002:00003c60       _CLSID_PSDragDrop          1001dc60     uuid:cguid_i.obj
 0002:00003c70       _CLSID_PSInPlaceFrame      1001dc70     uuid:cguid_i.obj
 0002:00003c80       _CLSID_PSInPlaceActive     1001dc80     uuid:cguid_i.obj
 0002:00003c90       _CLSID_PSClassObject       1001dc90     uuid:cguid_i.obj
 0002:00003ca0       _CLSID_PSClientSite        1001dca0     uuid:cguid_i.obj
 0002:00003cb0       _CLSID_PSGenObject         1001dcb0     uuid:cguid_i.obj
 0002:00003cc0       _IID_IDebugStream          1001dcc0     uuid:cguid_i.obj
 0002:00003cd0       _IID_IDebug                1001dcd0     uuid:cguid_i.obj
 0002:00003ce0       _IID_IOlePresObj           1001dce0     uuid:cguid_i.obj
 0002:00003cf0       _IID_IOleManager           1001dcf0     uuid:cguid_i.obj
 0002:00003d00       _IID_IEnumCallback         1001dd00     uuid:cguid_i.obj
 0002:00003d10       _IID_IEnumHolder           1001dd10     uuid:cguid_i.obj
 0002:00003d20       _IID_IEnumGeneric          1001dd20     uuid:cguid_i.obj
 0002:00003d30       _IID_IProxy                1001dd30     uuid:cguid_i.obj
 0002:00003d40       _IID_IStub                 1001dd40     uuid:cguid_i.obj
 0002:00003d50       _CLSID_StdMarshal          1001dd50     uuid:cguid_i.obj
 0002:00003d60       _IID_IDfReserved3          1001dd60     uuid:cguid_i.obj
 0002:00003d70       _IID_IDfReserved2          1001dd70     uuid:cguid_i.obj
 0002:00003d80       _IID_IDfReserved1          1001dd80     uuid:cguid_i.obj
 0002:00003d90       _IID_IInternalMoniker      1001dd90     uuid:cguid_i.obj
 0002:00003da0       _IID_IPSFactory            1001dda0     uuid:cguid_i.obj
 0002:00003db0       _IID_IProxyManager         1001ddb0     uuid:cguid_i.obj
 0002:00003dc0       _IID_IRpcProxy             1001ddc0     uuid:cguid_i.obj
 0002:00003dd0       _IID_IStubManager          1001ddd0     uuid:cguid_i.obj
 0002:00003de0       _IID_IRpcStub              1001dde0     uuid:cguid_i.obj
 0002:00003df0       _IID_IRpcChannel           1001ddf0     uuid:cguid_i.obj
 0002:00003e00       _CATID_MARSHALER           1001de00     uuid:cguid_i.obj
 0002:00003e10       _GUID_NULL                 1001de10     uuid:cguid_i.obj
 0002:00003e30       ??_7type_info@@6B@         1001de30     MSVCRT:ti_inst.obj
 0002:00003e74       ??_C@_0CK@CNLNOEPB@Local?5variable?5used?5before?5initi@ 1001de74     MSVCRT:userapi.obj
 0002:00003ea0       ??_C@_0BI@CIGMDCBH@Stack?5memory?5corruption?$AA@ 1001dea0     MSVCRT:userapi.obj
 0002:00003eb8       ??_C@_0CK@FEGOIOPB@Cast?5to?5smaller?5type?5causing?5los@ 1001deb8     MSVCRT:userapi.obj
 0002:00003ee4       ??_C@_0BJ@HEGAHDFO@Stack?5pointer?5corruption?$AA@ 1001dee4     MSVCRT:userapi.obj
 0002:00003f14       ??_C@_0BO@GNIAFIKK@Unknown?5Runtime?5Check?5Error?6?$AN?$AA@ 1001df14     MSVCRT:error.obj
 0002:00003f34       ??_C@_0DG@HKJMLLLP@A?5local?5variable?5was?5used?5before@ 1001df34     MSVCRT:error.obj
 0002:00003f6c       ??_C@_0BN@FFOINMNJ@Stack?5memory?5was?5corrupted?6?$AN?$AA@ 1001df6c     MSVCRT:error.obj
 0002:00003f90       ??_C@_0BBN@GPMLNJCF@A?5cast?5to?5a?5smaller?5data?5type?5ha@ 1001df90     MSVCRT:error.obj
 0002:000040b0       ??_C@_0NN@NGPKDKPD@The?5value?5of?5ESP?5was?5not?5properl@ 1001e0b0     MSVCRT:error.obj
 0002:000041ac       ??_C@_0BC@KNBMEBEO@IsDebuggerPresent?$AA@ 1001e1ac     MSVCRT:error.obj
 0002:000041c0       ??_C@_0N@HAOHNMDE@Kernel32?4dll?$AA@ 1001e1c0     MSVCRT:error.obj
 0002:000041d0       ??_C@_0CA@IODNCDPG@Run?9Time?5Check?5Failure?5?$CD?$CFd?5?9?5?$CFs?$AA@ 1001e1d0     MSVCRT:error.obj
 0002:000041f0       ??_C@_0L@CJCNHJJG@?6?$ANModule?3?7?$AA@ 1001e1f0     MSVCRT:error.obj
 0002:000041fc       ??_C@_08GJEJCAJD@?6?$ANLine?3?7?$AA@ 1001e1fc     MSVCRT:error.obj
 0002:00004208       ??_C@_0CI@INCLAPNB@Invalid?5pointer?5was?5assigned?5at?6@ 1001e208     MSVCRT:error.obj
 0002:00004230       ??_C@_0BB@JEGFEAAM@?8?5was?5corrupted?4?$AA@ 1001e230     MSVCRT:error.obj
 0002:00004244       ??_C@_0BM@FGFAMDLF@Stack?5around?5the?5variable?5?8?$AA@ 1001e244     MSVCRT:error.obj
 0002:00004260       ??_C@_0DA@BEGFPCGG@A?5variable?5is?5being?5used?5without@ 1001e260     MSVCRT:error.obj
 0002:00004290       ??_C@_0CH@LOIIHGKM@?8?5is?5being?5used?5without?5being?5de@ 1001e290     MSVCRT:error.obj
 0002:000042b8       ??_C@_0P@HLKMHJCG@The?5variable?5?8?$AA@ 1001e2b8     MSVCRT:error.obj
 0002:000042e4       ??_C@_0M@HHEBEAAO@MSPDB71?4DLL?$AA@ 1001e2e4     MSVCRT:pdblkup.obj
 0002:000042f0       ??_C@_0N@KIGOLBLC@Module32Next?$AA@ 1001e2f0     MSVCRT:pdblkup.obj
 0002:00004300       ??_C@_0O@CNMFJJGO@Module32First?$AA@ 1001e300     MSVCRT:pdblkup.obj
 0002:00004310       ??_C@_09EPMADGLA@PSAPI?4DLL?$AA@ 1001e310     MSVCRT:pdblkup.obj
 0002:0000431c       ??_C@_0BJ@JEFKDHMD@CreateToolhelp32Snapshot?$AA@ 1001e31c     MSVCRT:pdblkup.obj
 0002:00004338       ??_C@_0O@CHDGJGFP@ImageNtHeader?$AA@ 1001e338     MSVCRT:pdblkup.obj
 0002:00004348       ??_C@_0N@KBGMOMJO@IMAGEHLP?4DLL?$AA@ 1001e348     MSVCRT:pdblkup.obj
 0002:00004358       ??_C@_0N@NHGLKGEC@KERNEL32?4DLL?$AA@ 1001e358     MSVCRT:pdblkup.obj
 0002:00004368       ??_C@_0BF@BMIHBHCA@EnvironmentDirectory?$AA@ 1001e368     MSVCRT:pdblkup.obj
 0002:00004380       ??_C@_0CN@KGLAKABH@SOFTWARE?2Microsoft?2VisualStudio?2@ 1001e380     MSVCRT:pdblkup.obj
 0002:000043b0       ??_C@_0M@HLOHPNFA@RegCloseKey?$AA@ 1001e3b0     MSVCRT:pdblkup.obj
 0002:000043bc       ??_C@_0BB@HHEIPGME@RegQueryValueExA?$AA@ 1001e3bc     MSVCRT:pdblkup.obj
 0002:000043d0       ??_C@_0O@DCOGKJGG@RegOpenKeyExA?$AA@ 1001e3d0     MSVCRT:pdblkup.obj
 0002:000043e0       ??_C@_0N@JJPEKNFO@ADVAPI32?4DLL?$AA@ 1001e3e0     MSVCRT:pdblkup.obj
 0002:000043f0       ??_C@_01KDCPPGHE@r?$AA@    1001e3f0     MSVCRT:pdblkup.obj
 0002:000043f4       ??_C@_08ONJBEOFA@PDBClose?$AA@ 1001e3f4     MSVCRT:pdblkup.obj
 0002:00004400       ??_C@_08NINFAAFA@DBIClose?$AA@ 1001e400     MSVCRT:pdblkup.obj
 0002:0000440c       ??_C@_08LIGPJJNA@ModClose?$AA@ 1001e40c     MSVCRT:pdblkup.obj
 0002:00004418       ??_C@_0O@IPLOKOKN@ModQueryLines?$AA@ 1001e418     MSVCRT:pdblkup.obj
 0002:00004428       ??_C@_0BE@GDNPNLGH@DBIQueryModFromAddr?$AA@ 1001e428     MSVCRT:pdblkup.obj
 0002:0000443c       ??_C@_0L@KPMOCKEL@PDBOpenDBI?$AA@ 1001e43c     MSVCRT:pdblkup.obj
 0002:00004448       ??_C@_0BB@PENKIMFE@PDBOpenValidate3?$AA@ 1001e448     MSVCRT:pdblkup.obj
 0002:00004460       ??_7logic_error@std@@6B@   1001e460     libcpmt:string.obj
 0002:0000446c       ??_7length_error@std@@6B@  1001e46c     libcpmt:string.obj
 0002:00004478       ??_7out_of_range@std@@6B@  1001e478     libcpmt:string.obj
 0002:00004480       ??_C@_0BI@CFPLBAOH@invalid?5string?5position?$AA@ 1001e480     libcpmt:string.obj
 0002:00004498       ??_C@_0BA@JFNIOLAK@string?5too?5long?$AA@ 1001e498     libcpmt:string.obj
 0002:000044a8       _GUID_ATLVer30             1001e4a8     atls:atlbase.obj
 0002:000044b8       _GUID_ATLVer70             1001e4b8     atls:atlbase.obj
 0002:00004534       ??_R1A@?0A@A@type_info@@8  1001e534     MSVCRT:ti_inst.obj
 0002:0000454c       ??_R2type_info@@8          1001e54c     MSVCRT:ti_inst.obj
 0002:00004554       ??_R3type_info@@8          1001e554     MSVCRT:ti_inst.obj
 0002:00004564       ??_R4type_info@@6B@        1001e564     MSVCRT:ti_inst.obj
 0002:00004578       ??_R1A@?0A@A@exception@@8  1001e578     libcpmt:string.obj
 0002:00004590       ??_R1A@?0A@A@logic_error@std@@8 1001e590     libcpmt:string.obj
 0002:000045a8       ??_R2logic_error@std@@8    1001e5a8     libcpmt:string.obj
 0002:000045b4       ??_R3logic_error@std@@8    1001e5b4     libcpmt:string.obj
 0002:000045c4       ??_R4logic_error@std@@6B@  1001e5c4     libcpmt:string.obj
 0002:000045d8       ??_R1A@?0A@A@length_error@std@@8 1001e5d8     libcpmt:string.obj
 0002:000045f0       ??_R2length_error@std@@8   1001e5f0     libcpmt:string.obj
 0002:00004600       ??_R3length_error@std@@8   1001e600     libcpmt:string.obj
 0002:00004610       ??_R4length_error@std@@6B@ 1001e610     libcpmt:string.obj
 0002:00004624       ??_R1A@?0A@A@out_of_range@std@@8 1001e624     libcpmt:string.obj
 0002:0000463c       ??_R2out_of_range@std@@8   1001e63c     libcpmt:string.obj
 0002:0000464c       ??_R3out_of_range@std@@8   1001e64c     libcpmt:string.obj
 0002:0000465c       ??_R4out_of_range@std@@6B@ 1001e65c     libcpmt:string.obj
 0002:00004670       ___rtc_iaa                 1001e670     MSVCRT:initsect.obj
 0002:00004694       ___rtc_izz                 1001e694     MSVCRT:initsect.obj
 0002:00004698       ___rtc_taa                 1001e698     MSVCRT:initsect.obj
 0002:000046bc       ___rtc_tzz                 1001e6bc     MSVCRT:initsect.obj
 0002:00004770       __CT??_R0?AVSocketException@@@8??0SocketException@@QAE@ABV0@@Z32 1001e770     sockets.obj
 0002:0000478c       __CTA1?AVSocketException@@ 1001e78c     sockets.obj
 0002:00004794       __TI1?AVSocketException@@  1001e794     sockets.obj
 0002:000047a4       __CT??_R0?AVTimeoutException@@@8??0TimeoutException@@QAE@ABV0@@Z32 1001e7a4     sockets.obj
 0002:000047c0       __CTA2?AVTimeoutException@@ 1001e7c0     sockets.obj
 0002:000047cc       __TI2?AVTimeoutException@@ 1001e7cc     sockets.obj
 0002:00004824       __CT??_R0?AVAddressAlreadyInUseException@@@8??0AddressAlreadyInUseException@@QAE@ABV0@@Z32 1001e824     sockets.obj
 0002:00004840       __CTA2?AVAddressAlreadyInUseException@@ 1001e840     sockets.obj
 0002:0000484c       __TI2?AVAddressAlreadyInUseException@@ 1001e84c     sockets.obj
 0002:00004880       __CT??_R0?AVConnectionRefusedException@@@8??0ConnectionRefusedException@@QAE@ABV0@@Z32 1001e880     sockets.obj
 0002:0000489c       __CTA2?AVConnectionRefusedException@@ 1001e89c     sockets.obj
 0002:000048a8       __TI2?AVConnectionRefusedException@@ 1001e8a8     sockets.obj
 0002:000048b8       __CT??_R0?AVSocketClosedException@@@8??0SocketClosedException@@QAE@ABV0@@Z32 1001e8b8     sockets.obj
 0002:000048d4       __CTA2?AVSocketClosedException@@ 1001e8d4     sockets.obj
 0002:000048e0       __TI2?AVSocketClosedException@@ 1001e8e0     sockets.obj
 0002:000048f0       __CT??_R0?AVInterruptedException@@@8??0InterruptedException@@QAE@ABV0@@Z32 1001e8f0     sockets.obj
 0002:0000490c       __CTA2?AVInterruptedException@@ 1001e90c     sockets.obj
 0002:00004918       __TI2?AVInterruptedException@@ 1001e918     sockets.obj
 0002:00004a08       __CT??_R0?AVexception@@@8??0exception@@QAE@ABV0@@Z12 1001ea08     sockets.obj
 0002:00004a24       __CT??_R0?AVlogic_error@std@@@8??0logic_error@std@@QAE@ABV01@@Z40 1001ea24     sockets.obj
 0002:00004a40       __CT??_R0?AVlength_error@std@@@8??0length_error@std@@QAE@ABV01@@Z40 1001ea40     sockets.obj
 0002:00004a5c       __CTA3?AVlength_error@std@@ 1001ea5c     sockets.obj
 0002:00004a6c       __TI3?AVlength_error@std@@ 1001ea6c     sockets.obj
 0002:00005288       __CT??_R0?AVCAtlException@ATL@@@84 1001f288     jqsiestartdetectorimpl.obj
 0002:000052a4       __CTA1?AVCAtlException@ATL@@ 1001f2a4     jqsiestartdetectorimpl.obj
 0002:000052ac       __TI1?AVCAtlException@ATL@@ 1001f2ac     jqsiestartdetectorimpl.obj
 0002:00005468       __CT??_R0?AVout_of_range@std@@@8??0out_of_range@std@@QAE@ABV01@@Z40 1001f468     libcpmt:string.obj
 0002:00005484       __CTA3?AVout_of_range@std@@ 1001f484     libcpmt:string.obj
 0002:00005494       __TI3?AVout_of_range@std@@ 1001f494     libcpmt:string.obj
 0002:000054ec       ___pobjMapEntryFirst       1001f4ec     jqsiestartdetectorimpl.obj
 0002:000054f0       ___pobjMap_CJQSIEStartDetectorImpl 1001f4f0     jqsiestartdetectorimpl.obj
 0002:000054f4       ___pobjMapEntryLast        1001f4f4     jqsiestartdetectorimpl.obj
 0002:000054f8       __IMPORT_DESCRIPTOR_WS2_32 1001f4f8     ws2_32:WS2_32.dll
 0002:0000550c       __IMPORT_DESCRIPTOR_ole32  1001f50c     ole32:ole32.dll
 0002:00005520       __IMPORT_DESCRIPTOR_OLEAUT32 1001f520     oleaut32:OLEAUT32.dll
 0002:00005534       __IMPORT_DESCRIPTOR_MSVCR71 1001f534     MSVCRT:MSVCR71.dll
 0002:00005548       __IMPORT_DESCRIPTOR_KERNEL32 1001f548     kernel32:KERNEL32.dll
 0002:0000555c       __IMPORT_DESCRIPTOR_USER32 1001f55c     user32:USER32.dll
 0002:00005570       __IMPORT_DESCRIPTOR_ADVAPI32 1001f570     advapi32:ADVAPI32.dll
 0002:00005584       __IMPORT_DESCRIPTOR_SHLWAPI 1001f584     shlwapi:SHLWAPI.dll
 0002:00005598       __NULL_IMPORT_DESCRIPTOR   1001f598     ws2_32:WS2_32.dll
 0003:00000000       ___xc_a                    10021000     MSVCRT:cinitexe.obj
 0003:00000044       ___xc_z                    10021044     MSVCRT:cinitexe.obj
 0003:00000048       ___xi_a                    10021048     MSVCRT:cinitexe.obj
 0003:0000004c       ___xi_z                    1002104c     MSVCRT:cinitexe.obj
 0003:00000050       ?interval@@3IA             10021050     utils.obj
 0003:00000054       ?memoryLimit@@3IA          10021054     utils.obj
 0003:00000058       ?bootThresholds@@3UPerfCountersThreshold@@A 10021058     utils.obj
 0003:00000068       ?refreshThresholds@@3UPerfCountersThreshold@@A 10021068     utils.obj
 0003:00000078       ?__LINE__Var@?1??trim@@YA?AV?$basic_string@DU?$char_traits@D@std@@V?$allocator@D@2@@std@@ABV23@@Z@4JA 10021078     utils.obj
 0003:0000007c       ??_R0?AVSocketException@@@8 1002107c     sockets.obj
 0003:0000009c       ??_R0?AVTimeoutException@@@8 1002109c     sockets.obj
 0003:000000bc       ??_R0?AVAddressAlreadyInUseException@@@8 100210bc     sockets.obj
 0003:000000e8       ??_R0?AVConnectionRefusedException@@@8 100210e8     sockets.obj
 0003:00000114       ??_R0?AVSocketClosedException@@@8 10021114     sockets.obj
 0003:00000138       ??_R0?AVInterruptedException@@@8 10021138     sockets.obj
 0003:0000015c       ??_R0?AVexception@@@8      1002115c     sockets.obj
 0003:00000174       ??_R0?AVlogic_error@std@@@8 10021174     sockets.obj
 0003:00000194       ??_R0?AVlength_error@std@@@8 10021194     sockets.obj
 0003:00000814       ?MonitoredPerformanceCounters@@3PAU_PDH_COUNTER_PATH_ELEMENTS_A@@A 10021814     os_utils.obj
 0003:00000844       ?exe_extensions@@3PAPBDA   10021844     os_utils.obj
 0003:00000850       ?__LINE__Var@?1??jqs_at_exit@@YAXP6AXH@Z@Z@4JA 10021850     os_utils.obj
 0003:00000854       ?__LINE__Var@?1??getCounterValue@PerformanceCountersMonitor@@QAENI@Z@4JA 10021854     os_utils.obj
 0003:00000858       ?__LINE__Var@?1??get_process_working_set_size@@YAXPAUworking_set_size@@@Z@4JA 10021858     os_utils.obj
 0003:0000085c       ?__LINE__Var@?1??set_process_working_set_size@@YAXPAUworking_set_size@@@Z@4JA 1002185c     os_utils.obj
 0003:00000860       ?__LINE__Var@?1??convUnicodeToString@@YA?AV?$basic_string@DU?$char_traits@D@std@@V?$allocator@D@2@@std@@PBG@Z@4JA 10021860     os_utils.obj
 0003:00000864       ?__LINE__Var@?1??getDefaultPageSize@@YAIXZ@4JA 10021864     os_utils.obj
 0003:00000868       ?__objMap_CJQSIEStartDetectorImpl@@3U_ATL_OBJMAP_ENTRY30@ATL@@A 10021868     jqsiestartdetectorimpl.obj
 0003:0000088c       ?g_pfnGetThreadACP@ATL@@3P6GIXZA 1002188c     jqsiestartdetectorimpl.obj
 0003:00000890       ??_R0?AVCAtlException@ATL@@@8 10021890     jqsiestartdetectorimpl.obj
 0003:000008b0       ?_tih@?$IDispatchImpl@UIJQSIEStartDetectorImpl@@$1?IID_IJQSIEStartDetectorImpl@@3U_GUID@@B$1?LIBID_JQSIEStartDetectorLib@@3U3@B$00$0A@VCComTypeInfoHolder@ATL@@@ATL@@1VCComTypeInfoHolder@2@A 100218b0     jqsiestartdetectorimpl.obj
 0003:000008cc       ?__LINE__Var@?1??sendJQSAPICommand@@YA_NW4JQSAPIMessageKind@@@Z@4JA 100218cc     jqs_api_client.obj
 0003:000008d0       ___security_cookie         100218d0     MSVCRT:seccook.obj
 0003:000008e0       ??_R0?AVtype_info@@@8      100218e0     MSVCRT:ti_inst.obj
 0003:00000910       ?_RTC_ErrorLevels@@3PAHA   10021910     MSVCRT:error.obj
 0003:00000938       ??_R0?AVout_of_range@std@@@8 10021938     libcpmt:string.obj
 0003:00000958       ?rcDefault@CWindow@ATL@@2UtagRECT@@A 10021958     atls:atlbase.obj
 0003:00000968       ?id@?$num_put@DV?$ostreambuf_iterator@DU?$char_traits@D@std@@@std@@@std@@2V0locale@2@A 10021968     utils.obj
 0003:0000096c       ?id@?$numpunct@D@std@@2V0locale@2@A 1002196c     utils.obj
 0003:00000970       ?profileFileName@@3V?$basic_string@DU?$char_traits@D@std@@V?$allocator@D@2@@std@@A 10021970     utils.obj
 0003:0000098c       ?logFileName@@3V?$basic_string@DU?$char_traits@D@std@@V?$allocator@D@2@@std@@A 1002198c     utils.obj
 0003:000009a8       ?configFileName@@3V?$basic_string@DU?$char_traits@D@std@@V?$allocator@D@2@@std@@A 100219a8     utils.obj
 0003:000009c4       ?verbose@@3IA              100219c4     print.obj
 0003:000009c8       ?service_mode@@3_NA        100219c8     print.obj
 0003:000009d8       ?SystemInfo@@3U_SYSTEM_INFO@@A 100219d8     os_layer.obj
 0003:00000a00       ?OSVersion@@3U_OSVERSIONINFOA@@A 10021a00     os_layer.obj
 0003:00000a94       ?_SetDllDirectory@@3P6GHPBD@ZA 10021a94     os_layer.obj
 0003:00000a98       ?_GlobalMemoryStatusEx@@3P6GHPAU_MEMORYSTATUSEX@@@ZA 10021a98     os_layer.obj
 0003:00000a9c       ?_QueryMemoryResourceNotification@@3P6GHPAXPAH@ZA 10021a9c     os_layer.obj
 0003:00000aa0       ?_CreateMemoryResourceNotification@@3P6GPAXW4_MEMORY_RESOURCE_NOTIFICATION_TYPE@@@ZA 10021aa0     os_layer.obj
 0003:00000aa4       ?_GetNativeSystemInfo@@3P6GHPAU_SYSTEM_INFO@@@ZA 10021aa4     os_layer.obj
 0003:00000aa8       ?_IsWow64Process@@3P6GHPAXPAH@ZA 10021aa8     os_layer.obj
 0003:00000aac       ?_SetProcessWorkingSetSize@@3P6GHPAXKK@ZA 10021aac     os_layer.obj
 0003:00000ab0       ?_GetProcessWorkingSetSize@@3P6GHPAXPAK1@ZA 10021ab0     os_layer.obj
 0003:00000ab4       ?_GetLargePageMinimum@@3P6GKXZA 10021ab4     os_layer.obj
 0003:00000ab8       ?_AdjustTokenPrivileges@@3P6GHPAXHPAU_TOKEN_PRIVILEGES@@K1PAK@ZA 10021ab8     os_layer.obj
 0003:00000abc       ?_OpenProcessToken@@3P6GHPAXKPAPAX@ZA 10021abc     os_layer.obj
 0003:00000ac0       ?_LookupPrivilegeValue@@3P6GHPBD0PAU_LUID@@@ZA 10021ac0     os_layer.obj
 0003:00000ac4       ?_ChangeServiceConfig2@@3P6GHPAUSC_HANDLE__@@KPAX@ZA 10021ac4     os_layer.obj
 0003:00000ac8       ?_SetFilePointerEx@@3P6GHPAXT_LARGE_INTEGER@@PAT1@K@ZA 10021ac8     os_layer.obj
 0003:00000acc       ?_GetDevicePowerState@@3P6GHPAXPAH@ZA 10021acc     os_layer.obj
 0003:00000ad0       ?_GetModuleInformation@@3P6GHPAXPAUHINSTANCE__@@PAU_MODULEINFO@@K@ZA 10021ad0     os_layer.obj
 0003:00000ad4       ?_GetMappedFileName@@3P6GKPAX0PADK@ZA 10021ad4     os_layer.obj
 0003:00000ad8       ?_QueryWorkingSet@@3P6GHPAX0K@ZA 10021ad8     os_layer.obj
 0003:00000adc       ?_RegisterServiceCtrlHandlerEx@@3P6GPAUSERVICE_STATUS_HANDLE__@@PBDP6GKKKPAX1@Z1@ZA 10021adc     os_layer.obj
 0003:00000ae0       ?_RegisterDeviceNotification@@3P6GPAXPAX0K@ZA 10021ae0     os_layer.obj
 0003:00000ae4       ?_UnregisterDeviceNotification@@3P6GHPAX@ZA 10021ae4     os_layer.obj
 0003:00000ae8       ?_GetSystemPowerStatus@@3P6GHPAU_SYSTEM_POWER_STATUS@@@ZA 10021ae8     os_layer.obj
 0003:00000aec       ?_EnumProcessModules@@3P6GHPAXPAPAUHINSTANCE__@@KPAK@ZA 10021aec     os_layer.obj
 0003:00000af0       ?_PdhOpenQuery@@3P6GJPBDKPAPAX@ZA 10021af0     os_layer.obj
 0003:00000af4       ?_PdhAddCounter@@3P6GJPAXPBDKPAPAX@ZA 10021af4     os_layer.obj
 0003:00000af8       ?_PdhRemoveCounter@@3P6GJPAX@ZA 10021af8     os_layer.obj
 0003:00000afc       ?_PdhCollectQueryData@@3P6GJPAX@ZA 10021afc     os_layer.obj
 0003:00000b00       ?_PdhCloseQuery@@3P6GJPAX@ZA 10021b00     os_layer.obj
 0003:00000b04       ?_PdhGetFormattedCounterValue@@3P6GJPAXKPAKPAU_PDH_FMT_COUNTERVALUE@@@ZA 10021b04     os_layer.obj
 0003:00000b08       ?_PdhMakeCounterPath@@3P6GJPAU_PDH_COUNTER_PATH_ELEMENTS_A@@PADPAKK@ZA 10021b08     os_layer.obj
 0003:00000b0c       ?CurProcessHandle@@3PAXA   10021b0c     os_layer.obj
 0003:00000b24       ?ATL_CREATE_OBJECT@CComApartment@ATL@@2IA 10021b24     jqsiestartdetectorimpl.obj
 0003:00000b28       ?_pModule@ATL@@3PAVCComModule@1@A 10021b28     jqsiestartdetectorimpl.obj
 0003:00000b2c       ?m_libid@CAtlModule@ATL@@2U_GUID@@A 10021b2c     jqsiestartdetectorimpl.obj
 0003:00000b3c       ?_pAtlModule@ATL@@3PAVCAtlModule@1@A 10021b3c     jqsiestartdetectorimpl.obj
 0003:00000b40       ?_pPerfUnRegFunc@ATL@@3P6AJXZA 10021b40     jqsiestartdetectorimpl.obj
 0003:00000b44       ?_pPerfRegFunc@ATL@@3P6AJPAUHINSTANCE__@@@ZA 10021b44     jqsiestartdetectorimpl.obj
 0003:00000b48       ?m_bInitFailed@CAtlBaseModule@ATL@@2_NA 10021b48     jqsiestartdetectorimpl.obj
 0003:00000b4c       ?_pAtlAutoThreadModule@ATL@@3PAUIAtlAutoThreadModule@1@A 10021b4c     jqsiestartdetectorimpl.obj
 0003:00000b50       ?map@?2??VTFromRegType@CRegParser@ATL@@KAHPBDAAG@Z@4QBUtypemap@23@B 10021b50     jqsiestartdetectorimpl.obj
 0003:00000b70       ?$S4@?2??VTFromRegType@CRegParser@ATL@@KAHPBDAAG@Z@4IA 10021b70     jqsiestartdetectorimpl.obj
 0003:00000b74       ?_AtlWinModule@ATL@@3VCAtlWinModule@1@A 10021b74     jqsiestartdetectorimpl.obj
 0003:00000ba0       ?_AtlModule@@3VCJQSIEStartDetectorModule@@A 10021ba0     jqsiestartdetector.obj
 0003:00000c40       ?_AtlBaseModule@ATL@@3VCAtlBaseModule@1@A 10021c40     atls:atlbase.obj
 0003:00000c7c       ?_AtlComModule@ATL@@3VCAtlComModule@1@A 10021c7c     atls:atlcommodule.obj
 0003:00000ca4       __adjust_fdiv              10021ca4     <common>
 0003:00000ca8       __pRawDllMain              10021ca8     <common>
 0003:00000cac       ___onexitend               10021cac     <common>
 0003:00000cb0       ___onexitbegin             10021cb0     <common>

 entry point at        0001:00016738

 Static symbols

 0001:fffff000       __unwindfunclet$?_Xlen@?$vector@DV?$allocator@D@std@@@std@@IBEXXZ$0 10000000 f   print.obj
 0001:fffff000       __ehhandler$?_Construct_n@?$vector@DV?$allocator@D@std@@@std@@QAEXIABD@Z 10000000 f   os_utils.obj
 0001:fffff000       __ehhandler$?_Copy@?$basic_string@DU?$char_traits@D@std@@V?$allocator@D@2@@std@@IAEXII@Z 10000000 f   print.obj
 0001:fffff000       __unwindfunclet$??0logic_error@std@@QAE@ABV01@@Z$0 10000000 f   print.obj
 0001:fffff000       __ehhandler$?_Copy@?$basic_string@DU?$char_traits@D@std@@V?$allocator@D@2@@std@@IAEXII@Z 10000000 f   libcpmt:string.obj
 0001:fffff000       $L11742                    10000000 f   libcpmt:string.obj
 0001:fffff000       __unwindfunclet$?AddString@CParseBuffer@CRegParser@ATL@@QAEHPBG@Z$0 10000000 f   jqsiestartdetector.obj
 0001:fffff000       __unwindfunclet$??0logic_error@std@@QAE@ABV01@@Z$0 10000000 f   os_utils.obj
 0001:fffff000       __unwindfunclet$??1logic_error@std@@UAE@XZ$0 10000000 f   os_utils.obj
 0001:fffff000       __ehhandler$?_Insert_n@?$vector@DV?$allocator@D@std@@@std@@IAEXViterator@12@IABD@Z 10000000 f   jqs_api_client.obj
 0001:fffff000       __unwindfunclet$?_Xlen@?$vector@DV?$allocator@D@std@@@std@@IBEXXZ$0 10000000 f   jqs_api_client.obj
 0001:fffff000       __unwindfunclet$?AddValue@CRegParser@ATL@@IAEJAAVCRegKey@2@PBDPAD@Z$4 10000000 f   jqsiestartdetector.obj
 0001:fffff000       __unwindfunclet$??0logic_error@std@@QAE@ABV?$basic_string@DU?$char_traits@D@std@@V?$allocator@D@2@@1@@Z$0 10000000 f   jqs_api_client.obj
 0001:fffff000       __unwindfunclet$??0logic_error@std@@QAE@ABV?$basic_string@DU?$char_traits@D@std@@V?$allocator@D@2@@1@@Z$0 10000000 f   os_utils.obj
 0001:fffff000       __unwindfunclet$??1logic_error@std@@UAE@XZ$0 10000000 f   jqs_api_client.obj
 0001:fffff000       __ehhandler$?_Construct_n@?$vector@DV?$allocator@D@std@@@std@@QAEXIABD@Z 10000000 f   print.obj
 0001:fffff000       __unwindfunclet$??0logic_error@std@@QAE@ABV01@@Z$0 10000000 f   jqs_api_client.obj
 0001:fffff000       __unwindfunclet$?_Xlen@?$vector@DV?$allocator@D@std@@@std@@IBEXXZ$0 10000000 f   os_utils.obj
 0001:fffff000       __ehhandler$?_Copy@?$basic_string@DU?$char_traits@D@std@@V?$allocator@D@2@@std@@IAEXII@Z 10000000 f   sockets.obj
 0001:fffff000       __unwindfunclet$??1logic_error@std@@UAE@XZ$0 10000000 f   print.obj
 0001:fffff000       __ehhandler$?_Copy@?$basic_string@DU?$char_traits@D@std@@V?$allocator@D@2@@std@@IAEXII@Z 10000000 f   jqs_api_client.obj
 0001:fffff000       __ehhandler$?_Copy@?$basic_string@DU?$char_traits@D@std@@V?$allocator@D@2@@std@@IAEXII@Z 10000000 f   os_utils.obj
 0001:fffff000       __unwindfunclet$??1CRegObject@ATL@@UAE@XZ$0 10000000 f   jqsiestartdetector.obj
 0001:fffff000       __unwindfunclet$?InternalSetAtIndex@?$CSimpleMap@PADPAGVCExpansionVectorEqualHelper@ATL@@@ATL@@QAEXHABQADABQAG@Z$0 10000000 f   jqsiestartdetector.obj
 0001:fffff000       __unwindfunclet$??1CExpansionVector@ATL@@QAE@XZ$0 10000000 f   jqsiestartdetector.obj
 0001:fffff000       __unwindfunclet$?PreProcessBuffer@CRegParser@ATL@@QAEJPADPAPAD@Z$0 10000000 f   jqsiestartdetector.obj
 0001:fffff000       __unwindfunclet$?AddReplacement@CRegObject@ATL@@UAGJPBG0@Z$0 10000000 f   jqsiestartdetector.obj
 0001:fffff000       __unwindfunclet$?ResourceUnregister@CRegObject@ATL@@QAGJPBGI0@Z$0 10000000 f   jqsiestartdetector.obj
 0001:fffff000       __unwindfunclet$??1CAtlWinModule@ATL@@QAE@XZ$0 10000000 f   jqsiestartdetector.obj
 0001:fffff000       __unwindfunclet$??0logic_error@std@@QAE@ABV?$basic_string@DU?$char_traits@D@std@@V?$allocator@D@2@@1@@Z$0 10000000 f   print.obj
 0001:fffff000       __ehhandler$?Add@CExpansionVector@ATL@@QAEHPBDPBG@Z 10000000 f   jqsiestartdetector.obj
 0001:fffff000       __unwindfunclet$?ResourceRegister@CRegObject@ATL@@QAGJPBGI0@Z$0 10000000 f   jqsiestartdetector.obj
 0001:fffff000       __unwindfunclet$?RegisterSubkeys@CRegParser@ATL@@IAEJPADPAUHKEY__@@HH@Z$2 10000000 f   jqsiestartdetector.obj
 0001:fffff000       __unwindfunclet$?RegisterFromResource@CRegObject@ATL@@IAEJPBGPBD1H@Z$6 10000000 f   jqsiestartdetector.obj
 0001:fffff000       $L11600                    10000000 f   libcpmt:string.obj
 0001:fffff008       __ehhandler$?ResourceRegister@CRegObject@ATL@@QAGJPBGI0@Z 10000008 f   jqsiestartdetector.obj
 0001:fffff008       __ehhandler$??1CAtlWinModule@ATL@@QAE@XZ 10000008 f   jqsiestartdetector.obj
 0001:fffff008       __ehhandler$?AddReplacement@CRegObject@ATL@@UAGJPBG0@Z 10000008 f   jqsiestartdetector.obj
 0001:fffff008       __ehhandler$?ResourceUnregister@CRegObject@ATL@@QAGJPBGI0@Z 10000008 f   jqsiestartdetector.obj
 0001:fffff008       __ehhandler$??1CExpansionVector@ATL@@QAE@XZ 10000008 f   jqsiestartdetector.obj
 0001:fffff008       __ehhandler$?PreProcessBuffer@CRegParser@ATL@@QAEJPADPAPAD@Z 10000008 f   jqsiestartdetector.obj
 0001:fffff008       __ehhandler$??0logic_error@std@@QAE@ABV?$basic_string@DU?$char_traits@D@std@@V?$allocator@D@2@@1@@Z 10000008 f   libcpmt:string.obj
 0001:fffff008       __ehhandler$?AddString@CParseBuffer@CRegParser@ATL@@QAEHPBG@Z 10000008 f   jqsiestartdetector.obj
 0001:fffff008       __ehhandler$??0logic_error@std@@QAE@ABV01@@Z 10000008 f   libcpmt:string.obj
 0001:fffff008       __unwindfunclet$?RegisterFromResource@CRegObject@ATL@@IAEJPBGPBD1H@Z$7 10000008 f   jqsiestartdetector.obj
 0001:fffff008       __unwindfunclet$?RegisterSubkeys@CRegParser@ATL@@IAEJPADPAUHKEY__@@HH@Z$3 10000008 f   jqsiestartdetector.obj
 0001:fffff00b       __ehhandler$?_Xlen@?$vector@DV?$allocator@D@std@@@std@@IBEXXZ 1000000b f   os_utils.obj
 0001:fffff00b       __unwindfunclet$?AddValue@CRegParser@ATL@@IAEJAAVCRegKey@2@PBDPAD@Z$5 1000000b f   jqsiestartdetector.obj
 0001:fffff00b       __ehhandler$?_Xlen@?$vector@DV?$allocator@D@std@@@std@@IBEXXZ 1000000b f   jqs_api_client.obj
 0001:fffff00b       __ehhandler$??1CRegObject@ATL@@UAE@XZ 1000000b f   jqsiestartdetector.obj
 0001:fffff00b       __ehhandler$?_Xlen@?$vector@DV?$allocator@D@std@@@std@@IBEXXZ 1000000b f   print.obj
 0001:fffff012       __ehhandler$??0logic_error@std@@QAE@ABV?$basic_string@DU?$char_traits@D@std@@V?$allocator@D@2@@1@@Z 10000012 f   print.obj
 0001:fffff012       __ehhandler$??0logic_error@std@@QAE@ABV01@@Z 10000012 f   print.obj
 0001:fffff012       __ehhandler$??1logic_error@std@@UAE@XZ 10000012 f   os_utils.obj
 0001:fffff012       __ehhandler$??1logic_error@std@@UAE@XZ 10000012 f   print.obj
 0001:fffff012       __ehhandler$??0logic_error@std@@QAE@ABV?$basic_string@DU?$char_traits@D@std@@V?$allocator@D@2@@1@@Z 10000012 f   os_utils.obj
 0001:fffff012       __ehhandler$??0logic_error@std@@QAE@ABV?$basic_string@DU?$char_traits@D@std@@V?$allocator@D@2@@1@@Z 10000012 f   jqs_api_client.obj
 0001:fffff012       __ehhandler$??1logic_error@std@@UAE@XZ 10000012 f   jqs_api_client.obj
 0001:fffff012       __ehhandler$??0logic_error@std@@QAE@ABV01@@Z 10000012 f   jqs_api_client.obj
 0001:fffff012       __ehhandler$??0logic_error@std@@QAE@ABV01@@Z 10000012 f   os_utils.obj
 0001:fffff013       __unwindfunclet$?RegisterSubkeys@CRegParser@ATL@@IAEJPADPAUHKEY__@@HH@Z$4 10000013 f   jqsiestartdetector.obj
 0001:fffff013       __ehhandler$?RegisterFromResource@CRegObject@ATL@@IAEJPBGPBD1H@Z 10000013 f   jqsiestartdetector.obj
 0001:fffff016       __unwindfunclet$?AddValue@CRegParser@ATL@@IAEJAAVCRegKey@2@PBDPAD@Z$6 10000016 f   jqsiestartdetector.obj
 0001:fffff01c       __unwindfunclet$?InternalSetAtIndex@?$CSimpleMap@PADPAGVCExpansionVectorEqualHelper@ATL@@@ATL@@QAEXHABQADABQAG@Z$1 1000001c f   jqsiestartdetector.obj
 0001:fffff01e       __ehhandler$?RegisterSubkeys@CRegParser@ATL@@IAEJPADPAUHKEY__@@HH@Z 1000001e f   jqsiestartdetector.obj
 0001:fffff021       __ehhandler$?AddValue@CRegParser@ATL@@IAEJAAVCRegKey@2@PBDPAD@Z 10000021 f   jqsiestartdetector.obj
 0001:fffff039       __ehhandler$?InternalSetAtIndex@?$CSimpleMap@PADPAGVCExpansionVectorEqualHelper@ATL@@@ATL@@QAEXHABQADABQAG@Z 10000039 f   jqsiestartdetector.obj
 0001:fffff05f       $L11471                    1000005f f   libcpmt:string.obj
 0001:fffff081       __catch$?_Construct_n@?$vector@DV?$allocator@D@std@@@std@@QAEXIABD@Z$0 10000081 f   print.obj
 0001:fffff081       __catch$?_Construct_n@?$vector@DV?$allocator@D@std@@@std@@QAEXIABD@Z$0 10000081 f   os_utils.obj
 0001:fffff0a6       __catch$?Add@CExpansionVector@ATL@@QAEHPBDPBG@Z$0 100000a6 f   jqsiestartdetector.obj
 0001:fffff0c4       __catch$?_Copy@?$basic_string@DU?$char_traits@D@std@@V?$allocator@D@2@@std@@IAEXII@Z$0 100000c4 f   print.obj
 0001:fffff0c4       __catch$?_Copy@?$basic_string@DU?$char_traits@D@std@@V?$allocator@D@2@@std@@IAEXII@Z$0 100000c4 f   os_utils.obj
 0001:fffff0c4       __catch$?_Copy@?$basic_string@DU?$char_traits@D@std@@V?$allocator@D@2@@std@@IAEXII@Z$0 100000c4 f   sockets.obj
 0001:fffff0c4       __catch$?_Copy@?$basic_string@DU?$char_traits@D@std@@V?$allocator@D@2@@std@@IAEXII@Z$0 100000c4 f   jqs_api_client.obj
 0001:fffff0d3       $L11473                    100000d3 f   libcpmt:string.obj
 0001:fffff0f1       __catch$?_Copy@?$basic_string@DU?$char_traits@D@std@@V?$allocator@D@2@@std@@IAEXII@Z$1 100000f1 f   jqs_api_client.obj
 0001:fffff0f1       __catch$?_Copy@?$basic_string@DU?$char_traits@D@std@@V?$allocator@D@2@@std@@IAEXII@Z$1 100000f1 f   sockets.obj
 0001:fffff0f1       __catch$?_Copy@?$basic_string@DU?$char_traits@D@std@@V?$allocator@D@2@@std@@IAEXII@Z$1 100000f1 f   os_utils.obj
 0001:fffff0f1       __catch$?_Copy@?$basic_string@DU?$char_traits@D@std@@V?$allocator@D@2@@std@@IAEXII@Z$1 100000f1 f   print.obj
 0001:fffff101       __catch$?Add@CExpansionVector@ATL@@QAEHPBDPBG@Z$2 10000101 f   jqsiestartdetector.obj
 0001:fffff167       __catch$?_Insert_n@?$vector@DV?$allocator@D@std@@@std@@IAEXViterator@12@IABD@Z$0 10000167 f   jqs_api_client.obj
 0001:fffff191       __catch$?AddValue@CRegParser@ATL@@IAEJAAVCRegKey@2@PBDPAD@Z$0 10000191 f   jqsiestartdetector.obj
 0001:fffff248       __catch$?RegisterFromResource@CRegObject@ATL@@IAEJPBGPBD1H@Z$3 10000248 f   jqsiestartdetector.obj
 0001:fffff25d       __catch$?_Insert_n@?$vector@DV?$allocator@D@std@@@std@@IAEXViterator@12@IABD@Z$2 1000025d f   jqs_api_client.obj
 0001:fffff51b       __catch$?AddValue@CRegParser@ATL@@IAEJAAVCRegKey@2@PBDPAD@Z$2 1000051b f   jqsiestartdetector.obj
 0001:00001744       __catch$?_Copy@?$basic_string@DU?$char_traits@D@std@@V?$allocator@D@2@@std@@IAEXII@Z$0 10002744 f i utils.obj
 0001:00001771       __catch$?_Copy@?$basic_string@DU?$char_traits@D@std@@V?$allocator@D@2@@std@@IAEXII@Z$1 10002771 f i utils.obj
 0001:00001c70       ?_thread_body@@YGIPAX@Z    10002c70 f   thread.obj
 0001:00003e11       __catch$?_Construct_n@?$vector@DV?$allocator@D@std@@@std@@QAEXIABD@Z$0 10004e11 f i sockets.obj
 0001:00004b7a       __catch$??$_Insert@Viterator@?$vector@DV?$allocator@D@std@@@std@@@?$vector@DV?$allocator@D@std@@@std@@QAEXViterator@01@00Uforward_iterator_tag@1@@Z$0 10005b7a f i sockets.obj
 0001:00004ca3       __catch$??$_Insert@Viterator@?$vector@DV?$allocator@D@std@@@std@@@?$vector@DV?$allocator@D@std@@@std@@QAEXViterator@01@00Uforward_iterator_tag@1@@Z$2 10005ca3 f i sockets.obj
 0001:00005649       __catch$??$_Uninit_copy@Viterator@?$vector@DV?$allocator@D@std@@@std@@PADV?$allocator@D@3@@std@@YAPADViterator@?$vector@DV?$allocator@D@std@@@0@0PADAAV?$allocator@D@0@U_Nonscalar_ptr_iterator_tag@0@@Z$0 10006649 f i sockets.obj
 0001:00005ea0       ?print@@YAXW4MessageKind@@PBD@Z 10006ea0 f   print.obj
 0001:000060a0       ?reportEvent@@YAXW4MessageKind@@PBD@Z 100070a0 f   print.obj
 0001:000088d7       __catch$?_Insert_n@?$vector@DV?$allocator@D@std@@@std@@IAEXViterator@12@IABD@Z$0 100098d7 f i os_utils.obj
 0001:000089cd       __catch$?_Insert_n@?$vector@DV?$allocator@D@std@@@std@@IAEXViterator@12@IABD@Z$2 100099cd f i os_utils.obj
 0001:00009610       ??$InitFunc@P6GHPBD@Z@@YAXAAP6GHPBD@ZPAUHINSTANCE__@@0@Z 1000a610 f   os_layer.obj
 0001:00009680       ??$InitFunc@P6GHPAU_MEMORYSTATUSEX@@@Z@@YAXAAP6GHPAU_MEMORYSTATUSEX@@@ZPAUHINSTANCE__@@PBD@Z 1000a680 f   os_layer.obj
 0001:000096f0       ??$InitFunc@P6GHPAXPAH@Z@@YAXAAP6GHPAXPAH@ZPAUHINSTANCE__@@PBD@Z 1000a6f0 f   os_layer.obj
 0001:00009760       ??$InitFunc@P6GPAXW4_MEMORY_RESOURCE_NOTIFICATION_TYPE@@@Z@@YAXAAP6GPAXW4_MEMORY_RESOURCE_NOTIFICATION_TYPE@@@ZPAUHINSTANCE__@@PBD@Z 1000a760 f   os_layer.obj
 0001:000097d0       ??$InitFunc@P6GHPAU_SYSTEM_INFO@@@Z@@YAXAAP6GHPAU_SYSTEM_INFO@@@ZPAUHINSTANCE__@@PBD@Z 1000a7d0 f   os_layer.obj
 0001:00009840       ??$InitFunc@P6GHPAXKK@Z@@YAXAAP6GHPAXKK@ZPAUHINSTANCE__@@PBD@Z 1000a840 f   os_layer.obj
 0001:000098b0       ??$InitFunc@P6GHPAXPAK1@Z@@YAXAAP6GHPAXPAK1@ZPAUHINSTANCE__@@PBD@Z 1000a8b0 f   os_layer.obj
 0001:00009920       ??$InitFunc@P6GKXZ@@YAXAAP6GKXZPAUHINSTANCE__@@PBD@Z 1000a920 f   os_layer.obj
 0001:00009990       ??$InitFunc@P6GHPAU_SYSTEM_POWER_STATUS@@@Z@@YAXAAP6GHPAU_SYSTEM_POWER_STATUS@@@ZPAUHINSTANCE__@@PBD@Z 1000a990 f   os_layer.obj
 0001:00009a00       ??$InitFunc@P6GHPAXT_LARGE_INTEGER@@PAT1@K@Z@@YAXAAP6GHPAXT_LARGE_INTEGER@@PAT0@K@ZPAUHINSTANCE__@@PBD@Z 1000aa00 f   os_layer.obj
 0001:00009a70       ??$InitFunc@P6GHPAXHPAU_TOKEN_PRIVILEGES@@K1PAK@Z@@YAXAAP6GHPAXHPAU_TOKEN_PRIVILEGES@@K1PAK@ZPAUHINSTANCE__@@PBD@Z 1000aa70 f   os_layer.obj
 0001:00009ae0       ??$InitFunc@P6GHPAXKPAPAX@Z@@YAXAAP6GHPAXKPAPAX@ZPAUHINSTANCE__@@PBD@Z 1000aae0 f   os_layer.obj
 0001:00009b50       ??$InitFunc@P6GHPBD0PAU_LUID@@@Z@@YAXAAP6GHPBD0PAU_LUID@@@ZPAUHINSTANCE__@@0@Z 1000ab50 f   os_layer.obj
 0001:00009bc0       ??$InitFunc@P6GHPAUSC_HANDLE__@@KPAX@Z@@YAXAAP6GHPAUSC_HANDLE__@@KPAX@ZPAUHINSTANCE__@@PBD@Z 1000abc0 f   os_layer.obj
 0001:00009c30       ??$InitFunc@P6GPAUSERVICE_STATUS_HANDLE__@@PBDP6GKKKPAX1@Z1@Z@@YAXAAP6GPAUSERVICE_STATUS_HANDLE__@@PBDP6GKKKPAX1@Z1@ZPAUHINSTANCE__@@0@Z 1000ac30 f   os_layer.obj
 0001:00009ca0       ??$InitFunc@P6GPAXPAX0K@Z@@YAXAAP6GPAXPAX0K@ZPAUHINSTANCE__@@PBD@Z 1000aca0 f   os_layer.obj
 0001:00009d10       ??$InitFunc@P6GHPAX@Z@@YAXAAP6GHPAX@ZPAUHINSTANCE__@@PBD@Z 1000ad10 f   os_layer.obj
 0001:00009d80       ??$InitFunc@P6GHPAXPAUHINSTANCE__@@PAU_MODULEINFO@@K@Z@@YAXAAP6GHPAXPAUHINSTANCE__@@PAU_MODULEINFO@@K@Z1PBD@Z 1000ad80 f   os_layer.obj
 0001:00009df0       ??$InitFunc@P6GKPAX0PADK@Z@@YAXAAP6GKPAX0PADK@ZPAUHINSTANCE__@@PBD@Z 1000adf0 f   os_layer.obj
 0001:00009e60       ??$InitFunc@P6GHPAX0K@Z@@YAXAAP6GHPAX0K@ZPAUHINSTANCE__@@PBD@Z 1000ae60 f   os_layer.obj
 0001:00009ed0       ??$InitFunc@P6GHPAXPAPAUHINSTANCE__@@KPAK@Z@@YAXAAP6GHPAXPAPAUHINSTANCE__@@KPAK@ZPAU0@PBD@Z 1000aed0 f   os_layer.obj
 0001:00009f40       ??$InitFunc@P6GJPBDKPAPAX@Z@@YAXAAP6GJPBDKPAPAX@ZPAUHINSTANCE__@@0@Z 1000af40 f   os_layer.obj
 0001:00009fb0       ??$InitFunc@P6GJPAXPBDKPAPAX@Z@@YAXAAP6GJPAXPBDKPAPAX@ZPAUHINSTANCE__@@1@Z 1000afb0 f   os_layer.obj
 0001:0000a020       ??$InitFunc@P6GJPAX@Z@@YAXAAP6GJPAX@ZPAUHINSTANCE__@@PBD@Z 1000b020 f   os_layer.obj
 0001:0000a090       ??$InitFunc@P6GJPAXKPAKPAU_PDH_FMT_COUNTERVALUE@@@Z@@YAXAAP6GJPAXKPAKPAU_PDH_FMT_COUNTERVALUE@@@ZPAUHINSTANCE__@@PBD@Z 1000b090 f   os_layer.obj
 0001:0000a100       ??$InitFunc@P6GJPAU_PDH_COUNTER_PATH_ELEMENTS_A@@PADPAKK@Z@@YAXAAP6GJPAU_PDH_COUNTER_PATH_ELEMENTS_A@@PADPAKK@ZPAUHINSTANCE__@@PBD@Z 1000b100 f   os_layer.obj
 0001:0000b416       __catch$?Add@CExpansionVector@ATL@@QAEHPBDPBG@Z$0 1000c416 f i jqsiestartdetectorimpl.obj
 0001:0000b471       __catch$?Add@CExpansionVector@ATL@@QAEHPBDPBG@Z$2 1000c471 f i jqsiestartdetectorimpl.obj
 0001:0000b978       __catch$?RegisterFromResource@CRegObject@ATL@@IAEJPBGPBD1H@Z$3 1000c978 f i jqsiestartdetectorimpl.obj
 0001:0000dd11       __catch$?AddValue@CRegParser@ATL@@IAEJAAVCRegKey@2@PBDPAD@Z$0 1000ed11 f i jqsiestartdetectorimpl.obj
 0001:0000e09b       __catch$?AddValue@CRegParser@ATL@@IAEJAAVCRegKey@2@PBDPAD@Z$2 1000f09b f i jqsiestartdetectorimpl.obj
 0001:0000f436       __catch$?CreateInstance@?$CComCreator@V?$CComObjectNoLock@VCComClassFactory@ATL@@@ATL@@@ATL@@SGJPAXABU_GUID@@PAPAX@Z$0 10010436 f i jqsiestartdetectorimpl.obj
 0001:00010226       __catch$?CreateInstance@?$CComCreator@V?$CComObject@VCJQSIEStartDetectorImpl@@@ATL@@@ATL@@SGJPAXABU_GUID@@PAPAX@Z$0 10011226 f i jqsiestartdetectorimpl.obj
 0001:00011993       __catch$?AtlModuleAddTermFunc@ATL@@YGJPAU_ATL_MODULE70@1@P6GXK@ZK@Z$0 10012993 f i jqsiestartdetectorimpl.obj
 0001:00011caa       __catch$?LoadNameCache@CComTypeInfoHolder@ATL@@QAEJPAUITypeInfo@@@Z$0 10012caa f i jqsiestartdetectorimpl.obj
 0001:00013e90       ?AtlGetDirLen@ATL@@YGIPBG@Z 10014e90 f   jqsiestartdetector.obj
 0001:00015c08       __catch$?sendJQSAPICommand@@YA_NW4JQSAPIMessageKind@@@Z$0 10016c08 f   jqs_api_client.obj
 0001:00015c22       __catch$?sendJQSAPICommand@@YA_NW4JQSAPIMessageKind@@@Z$1 10016c22 f   jqs_api_client.obj
 0001:00016344       _report_failure            10017344 f   MSVCRT:secchk.obj
 0001:000164d8       ?ArrayUnwindFilter@@YAHPAU_EXCEPTION_POINTERS@@@Z 100174d8 f   MSVCRT:ehvecdtr.obj
 0001:00016876       ?DebuggerProbe@@YAHK@Z     10017876 f   MSVCRT:error.obj
 0001:000168c3       ?DebuggerRuntime@@YAHKHPAXPB_W@Z 100178c3 f   MSVCRT:error.obj
 0001:00016922       ?IntToString@@YAPADH@Z     10017922 f   MSVCRT:error.obj
 0001:0001695c       ?GetCurrentTib@@YAPAU_TIB@@XZ 1001795c f   MSVCRT:error.obj
 0001:00016963       ?WinGetDebugContext@@YAPAXXZ 10017963 f   MSVCRT:error.obj
 0001:0001696d       ?Win95IsDebuggerPresent@@YGHXZ 1001796d f   MSVCRT:error.obj
 0001:0001697e       ?Initialize@@YAHXZ         1001797e f   MSVCRT:error.obj
 0001:000169e6       ?_IsDebuggerPresent@@YAHXZ 100179e6 f   MSVCRT:error.obj
 0001:00016a16       ?failwithmessage@@YAXPAXHHPBD@Z 10017a16 f   MSVCRT:error.obj
 0001:00016f86       ?GetImageInfo@@YAPAUImageInfo@@K@Z 10017f86 f   MSVCRT:pdblkup.obj
 0001:000172d7       ?GetPdbDll@@YAPAUHINSTANCE__@@XZ 100182d7 f   MSVCRT:pdblkup.obj
 0001:00017d80       __unwindfunclet$?tolowercase@@YA?AV?$basic_string@DU?$char_traits@D@std@@V?$allocator@D@2@@std@@ABV12@@Z$0 10018d80 f   utils.obj
 0001:00017d88       __unwindfunclet$?tolowercase@@YA?AV?$basic_string@DU?$char_traits@D@std@@V?$allocator@D@2@@std@@ABV12@@Z$1 10018d88 f   utils.obj
 0001:00017da7       __ehhandler$?tolowercase@@YA?AV?$basic_string@DU?$char_traits@D@std@@V?$allocator@D@2@@std@@ABV12@@Z 10018da7 f   utils.obj
 0001:00017dc0       __ehhandler$?_Copy@?$basic_string@DU?$char_traits@D@std@@V?$allocator@D@2@@std@@IAEXII@Z 10018dc0 f   utils.obj
 0001:00017dd0       __unwindfunclet$??0Socket@@QAE@XZ$0 10018dd0 f   sockets.obj
 0001:00017ddb       __ehhandler$??0Socket@@QAE@XZ 10018ddb f   sockets.obj
 0001:00017df0       __unwindfunclet$??0Socket@@QAE@I@Z$0 10018df0 f   sockets.obj
 0001:00017dfb       __ehhandler$??0Socket@@QAE@I@Z 10018dfb f   sockets.obj
 0001:00017e10       __unwindfunclet$?accept@Socket@@QAEPAVConnection@@XZ$0 10018e10 f   sockets.obj
 0001:00017e1e       __ehhandler$?accept@Socket@@QAEPAVConnection@@XZ 10018e1e f   sockets.obj
 0001:00017e30       __unwindfunclet$??0Connection@@QAE@H@Z$0 10018e30 f   sockets.obj
 0001:00017e38       __ehhandler$??0Connection@@QAE@H@Z 10018e38 f   sockets.obj
 0001:00017e50       __unwindfunclet$??0Connection@@QAE@I@Z$0 10018e50 f   sockets.obj
 0001:00017e58       __ehhandler$??0Connection@@QAE@I@Z 10018e58 f   sockets.obj
 0001:00017e70       __unwindfunclet$?receiveMessage@Connection@@QAEXAAV?$vector@DV?$allocator@D@std@@@std@@@Z$0 10018e70 f   sockets.obj
 0001:00017e78       __ehhandler$?receiveMessage@Connection@@QAEXAAV?$vector@DV?$allocator@D@std@@@std@@@Z 10018e78 f   sockets.obj
 0001:00017e90       __unwindfunclet$??0ServerSocket@@QAE@H@Z$0 10018e90 f   sockets.obj
 0001:00017e98       __ehhandler$??0ServerSocket@@QAE@H@Z 10018e98 f   sockets.obj
 0001:00017eb0       __ehhandler$?_Construct_n@?$vector@DV?$allocator@D@std@@@std@@QAEXIABD@Z 10018eb0 f   sockets.obj
 0001:00017ec0       __unwindfunclet$?_Xlen@?$vector@DV?$allocator@D@std@@@std@@IBEXXZ$0 10018ec0 f   sockets.obj
 0001:00017ecb       __ehhandler$?_Xlen@?$vector@DV?$allocator@D@std@@@std@@IBEXXZ 10018ecb f   sockets.obj
 0001:00017ee0       __unwindfunclet$??0logic_error@std@@QAE@ABV?$basic_string@DU?$char_traits@D@std@@V?$allocator@D@2@@1@@Z$0 10018ee0 f   sockets.obj
 0001:00017ef2       __ehhandler$??0logic_error@std@@QAE@ABV?$basic_string@DU?$char_traits@D@std@@V?$allocator@D@2@@1@@Z 10018ef2 f   sockets.obj
 0001:00017f00       __unwindfunclet$??1logic_error@std@@UAE@XZ$0 10018f00 f   sockets.obj
 0001:00017f12       __ehhandler$??1logic_error@std@@UAE@XZ 10018f12 f   sockets.obj
 0001:00017f20       __unwindfunclet$??0logic_error@std@@QAE@ABV01@@Z$0 10018f20 f   sockets.obj
 0001:00017f32       __ehhandler$??0logic_error@std@@QAE@ABV01@@Z 10018f32 f   sockets.obj
 0001:00017f40       __ehhandler$??$_Insert@Viterator@?$vector@DV?$allocator@D@std@@@std@@@?$vector@DV?$allocator@D@std@@@std@@QAEXViterator@01@00Uforward_iterator_tag@1@@Z 10018f40 f   sockets.obj
 0001:00017f50       __ehhandler$??$_Uninit_copy@Viterator@?$vector@DV?$allocator@D@std@@@std@@PADV?$allocator@D@3@@std@@YAPADViterator@?$vector@DV?$allocator@D@std@@@0@0PADAAV?$allocator@D@0@U_Nonscalar_ptr_iterator_tag@0@@Z 10018f50 f   sockets.obj
 0001:00017f60       __unwindfunclet$?addEventSource@@YAXXZ$0 10018f60 f   print.obj
 0001:00017f68       __unwindfunclet$?addEventSource@@YAXXZ$1 10018f68 f   print.obj
 0001:00017f70       __ehhandler$?addEventSource@@YAXXZ 10018f70 f   print.obj
 0001:00017f80       __unwindfunclet$?removeEventSource@@YAXXZ$0 10018f80 f   print.obj
 0001:00017f88       __ehhandler$?removeEventSource@@YAXXZ 10018f88 f   print.obj
 0001:00017fa0       __unwindfunclet$?jqs_error@@YAXPBDZZ$0 10018fa0 f   print.obj
 0001:00017fa8       __ehhandler$?jqs_error@@YAXPBDZZ 10018fa8 f   print.obj
 0001:00017fc0       __unwindfunclet$?jqs_warn@@YAXPBDZZ$0 10018fc0 f   print.obj
 0001:00017fc8       __ehhandler$?jqs_warn@@YAXPBDZZ 10018fc8 f   print.obj
 0001:00017fe0       __unwindfunclet$?jqs_info@@YAXIPBDZZ$0 10018fe0 f   print.obj
 0001:00017fe8       __ehhandler$?jqs_info@@YAXIPBDZZ 10018fe8 f   print.obj
 0001:00018000       __unwindfunclet$?getMyFileName@@YA?AV?$basic_string@DU?$char_traits@D@std@@V?$allocator@D@2@@std@@PAUHINSTANCE__@@@Z$0 10019000 f   os_utils.obj
 0001:00018008       __unwindfunclet$?getMyFileName@@YA?AV?$basic_string@DU?$char_traits@D@std@@V?$allocator@D@2@@std@@PAUHINSTANCE__@@@Z$1 10019008 f   os_utils.obj
 0001:00018027       __ehhandler$?getMyFileName@@YA?AV?$basic_string@DU?$char_traits@D@std@@V?$allocator@D@2@@std@@PAUHINSTANCE__@@@Z 10019027 f   os_utils.obj
 0001:00018040       __unwindfunclet$?getFullPath@@YA?AV?$basic_string@DU?$char_traits@D@std@@V?$allocator@D@2@@std@@ABV12@@Z$0 10019040 f   os_utils.obj
 0001:00018048       __unwindfunclet$?getFullPath@@YA?AV?$basic_string@DU?$char_traits@D@std@@V?$allocator@D@2@@std@@ABV12@@Z$1 10019048 f   os_utils.obj
 0001:00018067       __unwindfunclet$?getFullPath@@YA?AV?$basic_string@DU?$char_traits@D@std@@V?$allocator@D@2@@std@@ABV12@@Z$2 10019067 f   os_utils.obj
 0001:0001806f       __ehhandler$?getFullPath@@YA?AV?$basic_string@DU?$char_traits@D@std@@V?$allocator@D@2@@std@@ABV12@@Z 1001906f f   os_utils.obj
 0001:00018080       __unwindfunclet$?getSatelliteFileName@@YA?AV?$basic_string@DU?$char_traits@D@std@@V?$allocator@D@2@@std@@ABV12@PAUHINSTANCE__@@@Z$0 10019080 f   os_utils.obj
 0001:00018088       __unwindfunclet$?getSatelliteFileName@@YA?AV?$basic_string@DU?$char_traits@D@std@@V?$allocator@D@2@@std@@ABV12@PAUHINSTANCE__@@@Z$1 10019088 f   os_utils.obj
 0001:000180a7       __ehhandler$?getSatelliteFileName@@YA?AV?$basic_string@DU?$char_traits@D@std@@V?$allocator@D@2@@std@@ABV12@PAUHINSTANCE__@@@Z 100190a7 f   os_utils.obj
 0001:000180c0       __unwindfunclet$?convertMappedFileName@@YA?AV?$basic_string@DU?$char_traits@D@std@@V?$allocator@D@2@@std@@ABV12@@Z$1 100190c0 f   os_utils.obj
 0001:000180c8       __unwindfunclet$?convertMappedFileName@@YA?AV?$basic_string@DU?$char_traits@D@std@@V?$allocator@D@2@@std@@ABV12@@Z$2 100190c8 f   os_utils.obj
 0001:000180d3       __unwindfunclet$?convertMappedFileName@@YA?AV?$basic_string@DU?$char_traits@D@std@@V?$allocator@D@2@@std@@ABV12@@Z$3 100190d3 f   os_utils.obj
 0001:000180de       __ehhandler$?convertMappedFileName@@YA?AV?$basic_string@DU?$char_traits@D@std@@V?$allocator@D@2@@std@@ABV12@@Z 100190de f   os_utils.obj
 0001:000180f0       __unwindfunclet$?openDeviceByFileName@@YAPAXPBD@Z$0 100190f0 f   os_utils.obj
 0001:000180f8       __ehhandler$?openDeviceByFileName@@YAPAXPBD@Z 100190f8 f   os_utils.obj
 0001:00018110       __unwindfunclet$?init@PerformanceCountersMonitor@@QAE_NXZ$0 10019110 f   os_utils.obj
 0001:00018118       __ehhandler$?init@PerformanceCountersMonitor@@QAE_NXZ 10019118 f   os_utils.obj
 0001:00018130       __unwindfunclet$?convUnicodeToString@@YA?AV?$basic_string@DU?$char_traits@D@std@@V?$allocator@D@2@@std@@PBG@Z$0 10019130 f   os_utils.obj
 0001:00018138       __unwindfunclet$?convUnicodeToString@@YA?AV?$basic_string@DU?$char_traits@D@std@@V?$allocator@D@2@@std@@PBG@Z$1 10019138 f   os_utils.obj
 0001:00018157       __ehhandler$?convUnicodeToString@@YA?AV?$basic_string@DU?$char_traits@D@std@@V?$allocator@D@2@@std@@PBG@Z 10019157 f   os_utils.obj
 0001:00018170       __unwindfunclet$?isAdmin@@YA_NXZ$0 10019170 f   os_utils.obj
 0001:00018178       __unwindfunclet$?isAdmin@@YA_NXZ$1 10019178 f   os_utils.obj
 0001:00018180       __ehhandler$?isAdmin@@YA_NXZ 10019180 f   os_utils.obj
 0001:00018190       __unwindfunclet$?has_extension@@YA_NABV?$basic_string@DU?$char_traits@D@std@@V?$allocator@D@2@@std@@PAPBD@Z$0 10019190 f   os_utils.obj
 0001:0001819b       __unwindfunclet$?has_extension@@YA_NABV?$basic_string@DU?$char_traits@D@std@@V?$allocator@D@2@@std@@PAPBD@Z$1 1001919b f   os_utils.obj
 0001:000181a3       __ehhandler$?has_extension@@YA_NABV?$basic_string@DU?$char_traits@D@std@@V?$allocator@D@2@@std@@PAPBD@Z 100191a3 f   os_utils.obj
 0001:000181b0       __ehhandler$?_Insert_n@?$vector@DV?$allocator@D@std@@@std@@IAEXViterator@12@IABD@Z 100191b0 f   os_utils.obj
 0001:000181c0       __unwindfunclet$??$?HDU?$char_traits@D@std@@V?$allocator@D@1@@std@@YA?AV?$basic_string@DU?$char_traits@D@std@@V?$allocator@D@2@@0@ABV10@0@Z$0 100191c0 f   os_utils.obj
 0001:000181cb       __unwindfunclet$??$?HDU?$char_traits@D@std@@V?$allocator@D@1@@std@@YA?AV?$basic_string@DU?$char_traits@D@std@@V?$allocator@D@2@@0@ABV10@0@Z$1 100191cb f   os_utils.obj
 0001:000181ea       __ehhandler$??$?HDU?$char_traits@D@std@@V?$allocator@D@1@@std@@YA?AV?$basic_string@DU?$char_traits@D@std@@V?$allocator@D@2@@0@ABV10@0@Z 100191ea f   os_utils.obj
 0001:00018200       __unwindfunclet$??1CRegObject@ATL@@UAE@XZ$0 10019200 f   jqsiestartdetectorimpl.obj
 0001:0001820b       __ehhandler$??1CRegObject@ATL@@UAE@XZ 1001920b f   jqsiestartdetectorimpl.obj
 0001:00018220       __unwindfunclet$??1CExpansionVector@ATL@@QAE@XZ$0 10019220 f   jqsiestartdetectorimpl.obj
 0001:00018228       __ehhandler$??1CExpansionVector@ATL@@QAE@XZ 10019228 f   jqsiestartdetectorimpl.obj
 0001:00018240       __unwindfunclet$?AddReplacement@CRegObject@ATL@@UAGJPBG0@Z$0 10019240 f   jqsiestartdetectorimpl.obj
 0001:00018248       __ehhandler$?AddReplacement@CRegObject@ATL@@UAGJPBG0@Z 10019248 f   jqsiestartdetectorimpl.obj
 0001:00018260       __ehhandler$?Add@CExpansionVector@ATL@@QAEHPBDPBG@Z 10019260 f   jqsiestartdetectorimpl.obj
 0001:00018270       __unwindfunclet$?ResourceRegister@CRegObject@ATL@@QAGJPBGI0@Z$0 10019270 f   jqsiestartdetectorimpl.obj
 0001:00018278       __ehhandler$?ResourceRegister@CRegObject@ATL@@QAGJPBGI0@Z 10019278 f   jqsiestartdetectorimpl.obj
 0001:00018290       __unwindfunclet$?RegisterFromResource@CRegObject@ATL@@IAEJPBGPBD1H@Z$6 10019290 f   jqsiestartdetectorimpl.obj
 0001:00018298       __unwindfunclet$?RegisterFromResource@CRegObject@ATL@@IAEJPBGPBD1H@Z$7 10019298 f   jqsiestartdetectorimpl.obj
 0001:000182a3       __ehhandler$?RegisterFromResource@CRegObject@ATL@@IAEJPBGPBD1H@Z 100192a3 f   jqsiestartdetectorimpl.obj
 0001:000182b0       __unwindfunclet$?ResourceUnregister@CRegObject@ATL@@QAGJPBGI0@Z$0 100192b0 f   jqsiestartdetectorimpl.obj
 0001:000182b8       __ehhandler$?ResourceUnregister@CRegObject@ATL@@QAGJPBGI0@Z 100192b8 f   jqsiestartdetectorimpl.obj
 0001:000182d0       __unwindfunclet$?PreProcessBuffer@CRegParser@ATL@@QAEJPADPAPAD@Z$0 100192d0 f   jqsiestartdetectorimpl.obj
 0001:000182d8       __ehhandler$?PreProcessBuffer@CRegParser@ATL@@QAEJPADPAPAD@Z 100192d8 f   jqsiestartdetectorimpl.obj
 0001:000182f0       __unwindfunclet$?AddString@CParseBuffer@CRegParser@ATL@@QAEHPBG@Z$0 100192f0 f   jqsiestartdetectorimpl.obj
 0001:000182f8       __ehhandler$?AddString@CParseBuffer@CRegParser@ATL@@QAEHPBG@Z 100192f8 f   jqsiestartdetectorimpl.obj
 0001:00018310       __unwindfunclet$?RegisterSubkeys@CRegParser@ATL@@IAEJPADPAUHKEY__@@HH@Z$2 10019310 f   jqsiestartdetectorimpl.obj
 0001:00018318       __unwindfunclet$?RegisterSubkeys@CRegParser@ATL@@IAEJPADPAUHKEY__@@HH@Z$3 10019318 f   jqsiestartdetectorimpl.obj
 0001:00018323       __unwindfunclet$?RegisterSubkeys@CRegParser@ATL@@IAEJPADPAUHKEY__@@HH@Z$4 10019323 f   jqsiestartdetectorimpl.obj
 0001:0001832e       __ehhandler$?RegisterSubkeys@CRegParser@ATL@@IAEJPADPAUHKEY__@@HH@Z 1001932e f   jqsiestartdetectorimpl.obj
 0001:00018340       __unwindfunclet$?AddValue@CRegParser@ATL@@IAEJAAVCRegKey@2@PBDPAD@Z$4 10019340 f   jqsiestartdetectorimpl.obj
 0001:0001834b       __unwindfunclet$?AddValue@CRegParser@ATL@@IAEJAAVCRegKey@2@PBDPAD@Z$5 1001934b f   jqsiestartdetectorimpl.obj
 0001:00018356       __unwindfunclet$?AddValue@CRegParser@ATL@@IAEJAAVCRegKey@2@PBDPAD@Z$6 10019356 f   jqsiestartdetectorimpl.obj
 0001:00018361       __ehhandler$?AddValue@CRegParser@ATL@@IAEJAAVCRegKey@2@PBDPAD@Z 10019361 f   jqsiestartdetectorimpl.obj
 0001:00018370       __unwindfunclet$?CreateInstance@?$CComCreator@V?$CComObjectNoLock@VCComClassFactory@ATL@@@ATL@@@ATL@@SGJPAXABU_GUID@@PAPAX@Z$2 10019370 f   jqsiestartdetectorimpl.obj
 0001:0001837e       __ehhandler$?CreateInstance@?$CComCreator@V?$CComObjectNoLock@VCComClassFactory@ATL@@@ATL@@@ATL@@SGJPAXABU_GUID@@PAPAX@Z 1001937e f   jqsiestartdetectorimpl.obj
 0001:00018390       __unwindfunclet$?InternalSetAtIndex@?$CSimpleMap@PADPAGVCExpansionVectorEqualHelper@ATL@@@ATL@@QAEXHABQADABQAG@Z$0 10019390 f   jqsiestartdetectorimpl.obj
 0001:000183ac       __unwindfunclet$?InternalSetAtIndex@?$CSimpleMap@PADPAGVCExpansionVectorEqualHelper@ATL@@@ATL@@QAEXHABQADABQAG@Z$1 100193ac f   jqsiestartdetectorimpl.obj
 0001:000183c9       __ehhandler$?InternalSetAtIndex@?$CSimpleMap@PADPAGVCExpansionVectorEqualHelper@ATL@@@ATL@@QAEXHABQADABQAG@Z 100193c9 f   jqsiestartdetectorimpl.obj
 0001:000183e0       __ehhandler$?CreateInstance@?$CComCreator@V?$CComObject@VCJQSIEStartDetectorImpl@@@ATL@@@ATL@@SGJPAXABU_GUID@@PAPAX@Z 100193e0 f   jqsiestartdetectorimpl.obj
 0001:000183f0       __unwindfunclet$??1?$CComObjectNoLock@VCComClassFactory@ATL@@@ATL@@UAE@XZ$0 100193f0 f   jqsiestartdetectorimpl.obj
 0001:000183f8       __ehhandler$??1?$CComObjectNoLock@VCComClassFactory@ATL@@@ATL@@UAE@XZ 100193f8 f   jqsiestartdetectorimpl.obj
 0001:00018410       __unwindfunclet$?GetTI@CComTypeInfoHolder@ATL@@QAEJK@Z$0 10019410 f   jqsiestartdetectorimpl.obj
 0001:00018418       __unwindfunclet$?GetTI@CComTypeInfoHolder@ATL@@QAEJK@Z$1 10019418 f   jqsiestartdetectorimpl.obj
 0001:00018423       __unwindfunclet$?GetTI@CComTypeInfoHolder@ATL@@QAEJK@Z$2 10019423 f   jqsiestartdetectorimpl.obj
 0001:0001842e       __unwindfunclet$?GetTI@CComTypeInfoHolder@ATL@@QAEJK@Z$3 1001942e f   jqsiestartdetectorimpl.obj
 0001:00018439       __unwindfunclet$?GetTI@CComTypeInfoHolder@ATL@@QAEJK@Z$4 10019439 f   jqsiestartdetectorimpl.obj
 0001:00018444       __ehhandler$?GetTI@CComTypeInfoHolder@ATL@@QAEJK@Z 10019444 f   jqsiestartdetectorimpl.obj
 0001:00018450       __ehhandler$?AtlModuleAddTermFunc@ATL@@YGJPAU_ATL_MODULE70@1@P6GXK@ZK@Z 10019450 f   jqsiestartdetectorimpl.obj
 0001:00018460       __unwindfunclet$?LoadNameCache@CComTypeInfoHolder@ATL@@QAEJPAUITypeInfo@@@Z$2 10019460 f   jqsiestartdetectorimpl.obj
 0001:0001846e       __unwindfunclet$?LoadNameCache@CComTypeInfoHolder@ATL@@QAEJPAUITypeInfo@@@Z$3 1001946e f   jqsiestartdetectorimpl.obj
 0001:00018476       __ehhandler$?LoadNameCache@CComTypeInfoHolder@ATL@@QAEJPAUITypeInfo@@@Z 10019476 f   jqsiestartdetectorimpl.obj
 0001:00018480       __unwindfunclet$??1CAtlWinModule@ATL@@QAE@XZ$0 10019480 f   jqsiestartdetectorimpl.obj
 0001:00018488       __ehhandler$??1CAtlWinModule@ATL@@QAE@XZ 10019488 f   jqsiestartdetectorimpl.obj
 0001:000184a0       __unwindfunclet$?sendJQSAPICommand@@YA_NW4JQSAPIMessageKind@@@Z$3 100194a0 f   jqs_api_client.obj
 0001:000184a8       __unwindfunclet$?sendJQSAPICommand@@YA_NW4JQSAPIMessageKind@@@Z$4 100194a8 f   jqs_api_client.obj
 0001:000184b0       __ehhandler$?sendJQSAPICommand@@YA_NW4JQSAPIMessageKind@@@Z 100194b0 f   jqs_api_client.obj
 0001:000184c0       __unwindfunclet$??0JQSAPIMessage@@QAE@W4JQSAPIMessageKind@@I@Z$0 100194c0 f   jqs_api_client.obj
 0001:000184c8       __ehhandler$??0JQSAPIMessage@@QAE@W4JQSAPIMessageKind@@I@Z 100194c8 f   jqs_api_client.obj
 0001:000184d2       $L11664                    100194d2 f   libcpmt:string.obj
 0001:000184da       __ehhandler$?_Xran@_String_base@std@@QBEXXZ 100194da f   libcpmt:string.obj
 0001:000184e4       $L11871                    100194e4 f   libcpmt:string.obj
 0001:000184ec       __ehhandler$?_Xlen@_String_base@std@@QBEXXZ 100194ec f   libcpmt:string.obj
 0001:00018500       _$E1                       10019500 f   utils.obj
 0001:00018550       _$E4                       10019550 f   utils.obj
 0001:000185a0       _$E7                       100195a0 f   utils.obj
 0001:000185f0       _$E10                      100195f0 f   utils.obj
 0001:00018630       _$E12                      10019630 f   utils.obj
 0001:00018670       _$E1                       10019670 f   jqsiestartdetectorimpl.obj
 0001:000186c0       _$E1                       100196c0 f   jqsiestartdetector.obj
 0001:00018710       _$E5                       10019710 f   jqsiestartdetector.obj
 0001:00018759       _$E5                       10019759 f   atls:atlbase.obj
 0001:0001876f       _$E1                       1001976f f   atls:atlbase.obj
 0001:00018785       _$E5                       10019785 f   atls:atlcommodule.obj
 0001:0001879b       _$E1                       1001979b f   atls:atlcommodule.obj
 0001:000187c0       _$E2                       100197c0 f   utils.obj
 0001:00018800       _$E5                       10019800 f   utils.obj
 0001:00018840       _$E8                       10019840 f   utils.obj
 0001:00018880       _$E2                       10019880 f   jqsiestartdetectorimpl.obj
 0001:000188c0       _$E2                       100198c0 f   jqsiestartdetector.obj
 0001:00018900       _$E6                       10019900 f   jqsiestartdetector.obj
 0001:0001893c       _$E6                       1001993c f   atls:atlbase.obj
 0001:00018946       _$E2                       10019946 f   atls:atlbase.obj
 0001:00018950       _$E6                       10019950 f   atls:atlcommodule.obj
 0001:0001895a       _$E2                       1001995a f   atls:atlcommodule.obj

Line numbers for C:/BUILD_~1/jdk6_21/control/build/WINDOW~2/tmp/deploy/jqs/jqs_plugin/jqs_api_client.obj(c:\program files\microsoft visual studio .net 2003\vc7\include\vector) segment .text

   299 0001:00015f60   300 0001:00015f93   301 0001:00015f9d   579 0001:00015fc0
   580 0001:00015fe3   581 0001:00015ff9   582 0001:00016014   583 0001:00016016
   584 0001:0001603b   620 0001:00016060   621 0001:00016083   622 0001:000160c2
   623 0001:000160d4   624 0001:000160f5

Line numbers for C:/BUILD_~1/jdk6_21/control/build/WINDOW~2/tmp/deploy/jqs/jqs_plugin/jqs_api_client.obj(c:\build_area\jdk6_21\deploy\src\jqs\windows\sockets.hpp) segment .text

    55 0001:00015e60    56 0001:00015e83    57 0001:00015e8b    59 0001:00015ea0
    60 0001:00015ec3    61 0001:00015ec9   285 0001:00015ed0   286 0001:00015ef3
   287 0001:00015eff

Line numbers for C:/BUILD_~1/jdk6_21/control/build/WINDOW~2/tmp/deploy/jqs/jqs_plugin/jqs_api_client.obj(c:\build_area\jdk6_21\deploy\src\jqs\share\jqs_api.hpp) segment .text

    64 0001:00015ce0    65 0001:00015d27    66 0001:00015d34    67 0001:00015d40
    68 0001:00015d4c    70 0001:00015d80    72 0001:00015da3    73 0001:00015dbe
    74 0001:00015dd9    75 0001:00015df4    76 0001:00015e0c    83 0001:00015e30

Line numbers for C:/BUILD_~1/jdk6_21/control/build/WINDOW~2/tmp/deploy/jqs/jqs_plugin/jqs_api_client.obj(c:\build_area\jdk6_21\deploy\src\jqs\share\jqs_api_client.cpp) segment .text

    22 0001:00015b20    23 0001:00015b57    25 0001:00015b8e    26 0001:00015b95
    27 0001:00015bac    29 0001:00015bb9    30 0001:00015bd1    32 0001:00015bee
    33 0001:00015c08    34 0001:00015c15    38 0001:00015c22    39 0001:00015c41
    40 0001:00015c4e    34 0001:00015c55    39 0001:00015c57    34 0001:00015c5f
    42 0001:00015c69    43 0001:00015c6b

Line numbers for C:/BUILD_~1/jdk6_21/control/build/WINDOW~2/tmp/deploy/jqs/jqs_plugin/jqsiestartdetector.obj(c:\program files\microsoft visual studio .net 2003\vc7\atlmfc\include\atlcomcli.h) segment .text

   248 0001:00014c30   250 0001:00014c5b   126 0001:00014c80   127 0001:00014ca3
   128 0001:00014cab   129 0001:00014cc4   131 0001:00014ce0   132 0001:00014d03
   133 0001:00014d08   142 0001:00014d10   144 0001:00014d33   145 0001:00014d36
   248 0001:00014d40   250 0001:00014d6b   126 0001:00014d90   127 0001:00014db3
   128 0001:00014dbb   129 0001:00014dd4   142 0001:00014df0   144 0001:00014e13
   145 0001:00014e16   147 0001:00014e20   149 0001:00014e43   150 0001:00014e48
   107 0001:00014e50   109 0001:00014e73   110 0001:00014e7c   107 0001:00014e90
   109 0001:00014eb3   110 0001:00014ebc   147 0001:00015230   149 0001:00015253
   150 0001:00015258

Line numbers for C:/BUILD_~1/jdk6_21/control/build/WINDOW~2/tmp/deploy/jqs/jqs_plugin/jqsiestartdetector.obj(c:\program files\microsoft visual studio .net 2003\vc7\atlmfc\include\atlconv.h) segment .text

   700 0001:00013f30

Line numbers for C:/BUILD_~1/jdk6_21/control/build/WINDOW~2/tmp/deploy/jqs/jqs_plugin/jqsiestartdetector.obj(c:\program files\microsoft visual studio .net 2003\vc7\platformsdk\include\guiddef.h) segment .text

   160 0001:00013c60   161 0001:00013c7e   162 0001:00013c95

Line numbers for C:/BUILD_~1/jdk6_21/control/build/WINDOW~2/tmp/deploy/jqs/jqs_plugin/jqsiestartdetector.obj(c:\program files\microsoft visual studio .net 2003\vc7\atlmfc\include\atlbase.inl) segment .text

   116 0001:000138b0   118 0001:000138ce   119 0001:000138d4   120 0001:000138de
   121 0001:000138e6   123 0001:000138f0   124 0001:000138f6   125 0001:00013900
   127 0001:00013909   129 0001:00013910   131 0001:00013933   133 0001:0001393f
   134 0001:00013947   136 0001:0001396e   138 0001:00013977   139 0001:00013988
   140 0001:00013993   144 0001:00013999   146 0001:000139a3   147 0001:000139ac
   148 0001:000139d1   149 0001:000139d9   150 0001:000139e2   151 0001:00013a07
   154 0001:00013a09   156 0001:00013a0e   157 0001:00013a1c   158 0001:00013a23
   159 0001:00013a26   406 0001:000158e0   407 0001:000158fe   408 0001:00015904
   410 0001:00015910   411 0001:00015919   412 0001:00015920   414 0001:00015926
   415 0001:0001593b   416 0001:00015944   417 0001:0001595c   418 0001:00015962
   419 0001:00015964   420 0001:0001596e

Line numbers for C:/BUILD_~1/jdk6_21/control/build/WINDOW~2/tmp/deploy/jqs/jqs_plugin/jqsiestartdetector.obj(c:\program files\microsoft visual studio .net 2003\vc7\atlmfc\include\atlbase.h) segment .text

  2960 0001:00013670  2961 0001:0001368e  2963 0001:00013694  2966 0001:0001369f
  2980 0001:000136a3  2981 0001:000136a8  2984 0001:000136c0  2985 0001:000136e3
  2986 0001:000136e9  2987 0001:00013703  2990 0001:00013720  2991 0001:00013743
  2992 0001:00013749  2993 0001:0001375d  2996 0001:00013780  2998 0001:000137a3
  2999 0001:000137a9  3000 0001:000137b4  3001 0001:000137ba  3002 0001:000137cb
  3003 0001:000137ce  3006 0001:000137f0  3007 0001:00013813  3008 0001:00013819
  3009 0001:0001382a  3010 0001:00013830  3011 0001:0001383b  3012 0001:0001383e
  3016 0001:00013860  3022 0001:00013883  3023 0001:00013899  2873 0001:00013a70
  2877 0001:00013a93  2881 0001:00013a9a  2888 0001:00013aaf  2889 0001:00013abe
  2893 0001:00013ad9  2894 0001:00013adc  2335 0001:00013b00  2336 0001:00013b23
  2337 0001:00013b34  6028 0001:00013b50  6030 0001:00013b6e  6031 0001:00013b74
  6034 0001:00013b7e  6036 0001:00013b85  6038 0001:00013ba4  6040 0001:00013bac
  6041 0001:00013bb4  6043 0001:00013bba  6044 0001:00013bd0  6046 0001:00013bd2
  6047 0001:00013be6  6048 0001:00013bec  6050 0001:00013bee  6051 0001:00013c0e
  6052 0001:00013c14  6054 0001:00013c16  6056 0001:00013c1b  6057 0001:00013c27
  6059 0001:00013c38  6060 0001:00013c3b  5998 0001:00013cb0  5999 0001:00013cd6
  6000 0001:00013cde  6001 0001:00013ce6  6002 0001:00013d08  6005 0001:00013d12
  6006 0001:00013d39  6008 0001:00013d3f  6010 0001:00013d45  6011 0001:00013d5a
  6012 0001:00013d6c  6013 0001:00013d9b  6015 0001:00013db1  6016 0001:00013dc7
  6018 0001:00013df2  6019 0001:00013e11  5888 0001:00013e90  5890 0001:00013eae
  5891 0001:00013eb4  5894 0001:00013eb8  5895 0001:00013ebe  5897 0001:00013ece
  5899 0001:00013edd  5900 0001:00013efe  5901 0001:00013f04  5902 0001:00013f0a
  5904 0001:00013f0c  5905 0001:00013f14  5913 0001:00013f80  5915 0001:00013fa6
  5916 0001:00013fb2  5918 0001:00013fbc  5919 0001:00013fc5  5921 0001:00013fce
  5925 0001:00013fde  5926 0001:00014003  5927 0001:0001400c  5928 0001:0001402a
  5929 0001:00014036  5932 0001:00014053  5934 0001:0001405d  5936 0001:00014079
  5938 0001:00014083  5940 0001:00014132  5941 0001:0001413b  5943 0001:00014158
  5945 0001:00014174  5946 0001:00014187  5947 0001:000141a4  5949 0001:000141c8
  5951 0001:00014283  5952 0001:0001428c  5954 0001:000142a9  5955 0001:000142c9
  5958 0001:000142d6  5959 0001:000142ed  5960 0001:00014305  5962 0001:00014322
  5963 0001:0001433f  5965 0001:000143fa  5966 0001:00014403  5968 0001:0001441d
  5970 0001:0001443d  5972 0001:00014446  5973 0001:00014461  5974 0001:00014469
  5976 0001:00014473  5977 0001:0001448d  6099 0001:00014550  6100 0001:00014576
  6105 0001:0001457e  6107 0001:00014584  6110 0001:000145a1  6113 0001:000145b6
  6117 0001:000145d3  6118 0001:000145fc  6126 0001:00014602  6129 0001:0001461f
  6130 0001:00014626  6131 0001:0001462c  6133 0001:00014638  6134 0001:00014655
  6136 0001:0001465f  6139 0001:00014667  6141 0001:0001469d  6145 0001:0001469f
  6147 0001:000146d5  6149 0001:000146db  6152 0001:000146f7  6154 0001:000146f9
  6156 0001:00014701  6158 0001:00014734  6161 0001:00014736  6164 0001:00014769
  6165 0001:00014772  6168 0001:00014777  6171 0001:00014781  6172 0001:0001479d
  6173 0001:000147b3  6174 0001:00014889  6177 0001:00014896  6178 0001:000148b1
  6179 0001:000148ce  6181 0001:000148e9  6182 0001:000148f9  6183 0001:00014904
  6185 0001:0001490e  6186 0001:00014937  6188 0001:00014940  6189 0001:0001497c
  6190 0001:00014987  6192 0001:00014999  6196 0001:000149ab  6197 0001:000149c6
  6198 0001:000149e3  6199 0001:000149fe  6200 0001:00014a27  6202 0001:00014a30
  6203 0001:00014a6c  6204 0001:00014a77  6206 0001:00014a89  6209 0001:00014a9b
  6210 0001:00014ab1  6211 0001:00014abc  6212 0001:00014ad4  4799 0001:00014bb0
  4800 0001:00014bdb  2897 0001:00014ed0  2901 0001:00014ef3  2905 0001:00014efa
  2906 0001:00014f03  2912 0001:00014f15  2913 0001:00014f1b  2917 0001:00014f30
  2919 0001:00014f33  2343 0001:00014f50  2344 0001:00014f73  2345 0001:00014f84
  6066 0001:00014fa0  6068 0001:00014fbe  6069 0001:00014fc4  6071 0001:00014fce
  6073 0001:00014fd5  6075 0001:00014ff4  6077 0001:00014ffc  6078 0001:00015004
  6080 0001:0001500a  6081 0001:00015020  6083 0001:00015022  6084 0001:00015042
  6085 0001:00015048  6086 0001:0001504a  6087 0001:0001505e  6088 0001:00015064
  6090 0001:00015066  6091 0001:0001506b  6092 0001:00015077  6094 0001:00015088
  6095 0001:0001508b  5980 0001:000150b0  5981 0001:000150ce  5982 0001:000150d6
  5983 0001:000150de  5984 0001:00015100  5987 0001:0001510a  5988 0001:0001513a
  5990 0001:00015140  5991 0001:00015174  5994 0001:000151a1  5995 0001:000151c0
  2926 0001:00015260  2927 0001:00015283  2928 0001:0001528a  2931 0001:00015370
  2932 0001:00015393  2933 0001:0001539a  2662 0001:00015400  2663 0001:00015423
  2664 0001:0001542f  2667 0001:00015450  2668 0001:00015473  2669 0001:0001547f
  2672 0001:000154a0  2673 0001:000154c3  2674 0001:000154c9  2682 0001:000154d0
  2685 0001:000154f3  2686 0001:000154f9  2688 0001:00015500  2689 0001:00015507
  2692 0001:00015510  2695 0001:00015537  2698 0001:0001553d  2699 0001:00015548
  2701 0001:00015563  2702 0001:00015566  2949 0001:00015620  2951 0001:0001564b
  2952 0001:00015657  2351 0001:00015670  2352 0001:00015693  2354 0001:000156b2
  2355 0001:000156ba  2356 0001:000156cf  2357 0001:000156d1  2955 0001:000156f0
  2956 0001:00015713  2957 0001:0001571f  2936 0001:00015740  2937 0001:00015763
  2938 0001:00015783  2657 0001:000157e0  2658 0001:00015803  2659 0001:0001580b
  2636 0001:00015820  2638 0001:00015843  2639 0001:0001584c  2642 0001:0001584e
  2644 0001:00015857  2645 0001:00015881  2648 0001:0001588b  2649 0001:00015894
  2651 0001:000158af  2653 0001:000158ba  2654 0001:000158c4  2863 0001:00015990
  2865 0001:000159bb  2866 0001:000159c0  2615 0001:000159e0  2620 0001:00015a0e
  2621 0001:00015a18  2623 0001:00015a22  2624 0001:00015a2c  2625 0001:00015a34
  2629 0001:00015a43  2632 0001:00015a4a  2633 0001:00015a54  2602 0001:000186c0

Line numbers for C:/BUILD_~1/jdk6_21/control/build/WINDOW~2/tmp/deploy/jqs/jqs_plugin/jqsiestartdetector.obj(c:\build_area\jdk6_21\deploy\src\jqs\windows\ie\jqsiestartdetector.cpp) segment .text

    27 0001:000134e0    28 0001:000134fe    30 0001:00013504    32 0001:00013517
    33 0001:00013529    44 0001:00013540    45 0001:0001355e    46 0001:00013568
    51 0001:00013580    52 0001:0001359e    53 0001:000135b4    58 0001:000135d0
    60 0001:000135ee    61 0001:000135fd    62 0001:00013600    67 0001:00013620
    68 0001:0001363e    69 0001:0001364d    70 0001:00013650    15 0001:000152a0
    15 0001:00015340    14 0001:00015ac0    18 0001:00018710

Line numbers for C:/BUILD_~1/jdk6_21/control/build/WINDOW~2/tmp/deploy/jqs/jqs_plugin/jqsiestartdetectorimpl.obj(c:\program files\microsoft visual studio .net 2003\vc7\platformsdk\include\unknwn.h) segment .text

   123 0001:00012ce0   124 0001:00012cfe   125 0001:00012d1b

Line numbers for C:/BUILD_~1/jdk6_21/control/build/WINDOW~2/tmp/deploy/jqs/jqs_plugin/jqsiestartdetectorimpl.obj(c:\program files\microsoft visual studio .net 2003\vc7\platformsdk\include\guiddef.h) segment .text

   151 0001:000100c0   156 0001:000100de   157 0001:00010130

Line numbers for C:/BUILD_~1/jdk6_21/control/build/WINDOW~2/tmp/deploy/jqs/jqs_plugin/jqsiestartdetectorimpl.obj(c:\program files\microsoft visual studio .net 2003\vc7\atlmfc\include\atlbase.inl) segment .text

   240 0001:0000ff60   244 0001:0000ff7e   245 0001:0000ff8a   249 0001:0000ff94
   250 0001:0000ff9a   251 0001:0000ffa4   252 0001:0000ffad   254 0001:0000ffba
   255 0001:0000ffc6   256 0001:0000ffdb   257 0001:0000ffe3   259 0001:0000ffea
   261 0001:0000fff7   262 0001:00010005   264 0001:00010021   267 0001:0001002a
   268 0001:00010036   269 0001:0001004b   270 0001:00010053   275 0001:00010057
   276 0001:0001007c   277 0001:0001008e   280 0001:00010093   281 0001:0001009c
   282 0001:000100a1   283 0001:000100a6   375 0001:00011910   376 0001:00011947
   377 0001:0001194d   379 0001:00011957   380 0001:0001195e   381 0001:00011965
   382 0001:000119a2   383 0001:000119a8   384 0001:000119af   386 0001:000119b1
   387 0001:000119b9   388 0001:000119c2   389 0001:000119d3   390 0001:000119de
   392 0001:000119e4   393 0001:000119f0   395 0001:000119f9   397 0001:000119fb
   401 0001:00011a13   402 0001:00011a1b   403 0001:00011a1e   352 0001:000130b0
   353 0001:000130ce   354 0001:000130d4   357 0001:000130db   358 0001:000130e3
   360 0001:000130ea   362 0001:000130f4   368 0001:00013102   369 0001:00013105

Line numbers for C:/BUILD_~1/jdk6_21/control/build/WINDOW~2/tmp/deploy/jqs/jqs_plugin/jqsiestartdetectorimpl.obj(c:\program files\microsoft visual studio .net 2003\vc7\atlmfc\include\atlexcept.h) segment .text

    26 0001:0000eef0    27 0001:0000ef0e    28 0001:0000ef29    61 0001:000109a0
    73 0001:000109be    75 0001:000109e6    40 0001:00010a00    41 0001:00010a2b

Line numbers for C:/BUILD_~1/jdk6_21/control/build/WINDOW~2/tmp/deploy/jqs/jqs_plugin/jqsiestartdetectorimpl.obj(c:\program files\microsoft visual studio .net 2003\vc7\atlmfc\include\atlsimpcoll.h) segment .text

   273 0001:0000ebc0   276 0001:0000ec10   277 0001:0000ec33   278 0001:0000ec3b
   282 0001:0000ec50   283 0001:0000ec73   284 0001:0000ec79   286 0001:0000ec80
   288 0001:0000eca3   289 0001:0000eccc   290 0001:0000ecd2   291 0001:0000ecd6
   293 0001:0000ecde   294 0001:0000ed08   295 0001:0000ed0e   296 0001:0000ed12
   297 0001:0000ed1b   298 0001:0000ed32   299 0001:0000ed41   300 0001:0000ed46
   332 0001:0000ed60   333 0001:0000ed83   335 0001:0000ed8b   339 0001:0000eda8
   340 0001:0000edaa   341 0001:0000edc2   343 0001:0000edcb   345 0001:0000edd4
   346 0001:0000eded   349 0001:0000edf7   350 0001:0000ee01   363 0001:0000ee20
   364 0001:0000ee43   365 0001:0000ee52   366 0001:0000ee58   367 0001:0000ee5c
   368 0001:0000ee6a   377 0001:0000ee80   379 0001:0000eea3   380 0001:0000eeb4
   382 0001:0000eec0   383 0001:0000eecb   385 0001:0000ef40   387 0001:0000ef63
   388 0001:0000ef74   390 0001:0000ef80   391 0001:0000ef8c   394 0001:0000f780
   395 0001:0000f7a3   397 0001:0000f7c0   398 0001:0000f7e1   399 0001:0000f7e6
   400 0001:0000f7e8   401 0001:0000f7eb   442 0001:0000f870   443 0001:0000f8a8
   444 0001:0000f908   445 0001:0000f969   428 0001:00010de0   429 0001:00010e0d
   428 0001:00010e20   429 0001:00010e4d   431 0001:00012e30   433 0001:00012e4e
   434 0001:00012e51   436 0001:00012e60   438 0001:00012e7e   431 0001:00012e90
   433 0001:00012eae   434 0001:00012eb1   436 0001:00012ec0   438 0001:00012ede
    97 0001:00013120   100 0001:00013360   101 0001:00013383   102 0001:0001338b
   135 0001:000133a0   136 0001:000133c3   137 0001:000133c9   173 0001:000133d0
   174 0001:000133f3   176 0001:000133fb   177 0001:00013418   178 0001:0001341a
   179 0001:00013432   181 0001:0001343b   182 0001:00013445   183 0001:0001344f
   194 0001:00013470   196 0001:00013493   198 0001:000134a4   200 0001:000134b0
   201 0001:000134bb

Line numbers for C:/BUILD_~1/jdk6_21/control/build/WINDOW~2/tmp/deploy/jqs/jqs_plugin/jqsiestartdetectorimpl.obj(c:\build_area\jdk6_21\deploy\src\jqs\windows\ie\jqsiestartdetectorimpl.cpp) segment .text

    21 0001:0000e950    22 0001:0000e98b    23 0001:0000e992    25 0001:0000e998
    26 0001:0000e99d    27 0001:0000e9a7    29 0001:0000e9a9    32 0001:0000e9b7
    37 0001:0000e9ce    38 0001:0000e9db

Line numbers for C:/BUILD_~1/jdk6_21/control/build/WINDOW~2/tmp/deploy/jqs/jqs_plugin/jqsiestartdetectorimpl.obj(c:\program files\microsoft visual studio .net 2003\vc7\atlmfc\include\statreg.h) segment .text

   276 0001:0000adf0    88 0001:0000ae80    89 0001:0000aebf    90 0001:0000aec7
   126 0001:0000af00   127 0001:0000af23   129 0001:0000af42   130 0001:0000af65
   131 0001:0000af88   132 0001:0000af8a   133 0001:0000af92   134 0001:0000af94
   260 0001:0000afb0   262 0001:0000afce   263 0001:0000afd3   266 0001:0000afe0
   268 0001:0000affe   269 0001:0000b003   271 0001:0000b010   273 0001:0000b02e
   274 0001:0000b030   324 0001:0000b0a0   325 0001:0000b0d3   326 0001:0000b0df
   327 0001:0000b0e9   328 0001:0000b0f4   330 0001:0000b10b   333 0001:0000b1b7
   334 0001:0000b1bd   337 0001:0000b1de   338 0001:0000b1f4   339 0001:0000b1ff
   340 0001:0000b229    93 0001:0000b370    95 0001:0000b3ac    96 0001:0000b3b8
    98 0001:0000b3bf   100 0001:0000b3c6   101 0001:0000b3df   103 0001:0000b3e6
   105 0001:0000b425   106 0001:0000b438   107 0001:0000b43f   109 0001:0000b480
   110 0001:0000b48c   111 0001:0000b493   113 0001:0000b495   114 0001:0000b4a9
   115 0001:0000b4bd   116 0001:0000b4d1   118 0001:0000b4d8   120 0001:0000b4de
   121 0001:0000b4f6   123 0001:0000b50e   124 0001:0000b517   428 0001:0000b580
   429 0001:0000b5b3   431 0001:0000b5ca   433 0001:0000b676   435 0001:0000b67c
   439 0001:0000b69d   440 0001:0000b6cf   344 0001:0000b730   345 0001:0000b774
   348 0001:0000b78b   354 0001:0000b797   356 0001:0000b7a6   358 0001:0000b858
   360 0001:0000b861   364 0001:0000b894   366 0001:0000b8b1   369 0001:0000b8b7
   370 0001:0000b8bf   373 0001:0000b8c4   375 0001:0000b8e5   381 0001:0000b8ee
   382 0001:0000b8f6   385 0001:0000b8fb   387 0001:0000b91b   390 0001:0000b924
   391 0001:0000b92c   394 0001:0000b931   395 0001:0000b951   398 0001:0000b95d
   399 0001:0000b987   401 0001:0000b996   402 0001:0000b99d   412 0001:0000b99f
   416 0001:0000b9c1   418 0001:0000b9d6   422 0001:0000b9f1   423 0001:0000b9f7
   424 0001:0000ba0a   425 0001:0000ba37   460 0001:0000bac0   461 0001:0000baf3
   463 0001:0000bb0a   465 0001:0000bbb6   467 0001:0000bbbc   470 0001:0000bbdd
   471 0001:0000bc0f   510 0001:0000bc70   511 0001:0000bc8e   512 0001:0000bc99
   513 0001:0000bca7   514 0001:0000bcb2   515 0001:0000bcb5   737 0001:0000bcd0
   738 0001:0000bcf3   739 0001:0000bcfc   740 0001:0000bd05  1092 0001:0000bd20
  1094 0001:0000bd4f  1096 0001:0000bd59  1097 0001:0000bd63  1098 0001:0000bd7c
  1099 0001:0000bd85  1104 0001:0000bd90  1108 0001:0000bd9b  1110 0001:0000bdab
  1111 0001:0000bdc9  1113 0001:0000bdce  1116 0001:0000bdec  1117 0001:0000bdff
  1120 0001:0000be04  1121 0001:0000be22  1123 0001:0000be27  1126 0001:0000be33
  1127 0001:0000be46  1129 0001:0000be4b  1131 0001:0000be51  1132 0001:0000be5c
  1133 0001:0000be7e  1136 0001:0000be87  1137 0001:0000be92  1138 0001:0000beac
  1141 0001:0000beae  1143 0001:0000beb0  1144 0001:0000bedb  1147 0001:0000bedd
  1148 0001:0000bee5  1149 0001:0000beea  1150 0001:0000bf00  1151 0001:0000bf06
   161 0001:0000bf70   686 0001:0000bfb0   709 0001:0000bfce   711 0001:0000bfe6
   712 0001:0000c008   713 0001:0000c014   714 0001:0000c016   715 0001:0000c018
   757 0001:0000c030   758 0001:0000c053   759 0001:0000c067   760 0001:0000c083
   743 0001:0000c0a0   744 0001:0000c0c3   750 0001:0000c0f9   753 0001:0000c100
   754 0001:0000c102   763 0001:0000c130   764 0001:0000c153   767 0001:0000c15b
   768 0001:0000c167   770 0001:0000c179   772 0001:0000c17f   774 0001:0000c190
   776 0001:0000c1aa   778 0001:0000c1ca   779 0001:0000c1d7   781 0001:0000c1f1
   782 0001:0000c1f9   784 0001:0000c213   785 0001:0000c226   786 0001:0000c238
   787 0001:0000c260   788 0001:0000c26f   790 0001:0000c274   793 0001:0000c280
   796 0001:0000c292   797 0001:0000c298   800 0001:0000c2b2   803 0001:0000c2b7
   805 0001:0000c2df   806 0001:0000c2e7   807 0001:0000c301   808 0001:0000c314
   809 0001:0000c323   810 0001:0000c34b   811 0001:0000c35a   813 0001:0000c35f
   815 0001:0000c365   816 0001:0000c367   165 0001:0000c380  1014 0001:0000c400
  1018 0001:0000c440  1019 0001:0000c44c  1021 0001:0000c456  1022 0001:0000c45f
  1023 0001:0000c477  1024 0001:0000c48a  1025 0001:0000c490  1026 0001:0000c4b4
  1027 0001:0000c4bc  1029 0001:0000c4c3  1031 0001:0000c4d3  1033 0001:0000c4e4
  1034 0001:0000c4fe  1036 0001:0000c50b  1038 0001:0000c51d  1039 0001:0000c524
  1042 0001:0000c529  1044 0001:0000c52e  1045 0001:0000c541  1048 0001:0000c547
  1049 0001:0000c557  1051 0001:0000c55c  1053 0001:0000c569  1054 0001:0000c570
  1056 0001:0000c575  1058 0001:0000c580  1059 0001:0000c5a3  1060 0001:0000c5bb
  1062 0001:0000c5c4  1063 0001:0000c5d4  1065 0001:0000c5d6  1067 0001:0000c5e9
  1068 0001:0000c5f0  1071 0001:0000c5f2  1072 0001:0000c5fc  1075 0001:0000c618
  1077 0001:0000c61a  1079 0001:0000c62c  1080 0001:0000c633  1084 0001:0000c635
  1085 0001:0000c64f  1086 0001:0000c654  1087 0001:0000c65a  1088 0001:0000c667
  1089 0001:0000c685   182 0001:0000c6f0   184 0001:0000c713   185 0001:0000c719
   186 0001:0000c720   187 0001:0000c729   188 0001:0000c732   189 0001:0000c74e
   190 0001:0000c757   191 0001:0000c760   193 0001:0000c780   194 0001:0000c7a3
   195 0001:0000c7b9   215 0001:0000c7d0   217 0001:0000c7f3   221 0001:0000c80c
   223 0001:0000c81c   197 0001:0000c840   199 0001:0000c863   201 0001:0000c877
   202 0001:0000c88b   203 0001:0000c89b   204 0001:0000c8bb   205 0001:0000c8c1
   206 0001:0000c8c5   208 0001:0000c8ce   209 0001:0000c8ea   210 0001:0000c8f7
   211 0001:0000c906   212 0001:0000c90b   225 0001:0000c930   226 0001:0000c968
   227 0001:0000c96e   228 0001:0000c975   229 0001:0000c98c   234 0001:0000ca38
   235 0001:0000ca73   237 0001:0000cad0   238 0001:0000caf3   239 0001:0000cafc
   240 0001:0000cb06   241 0001:0000cb19   242 0001:0000cb1c   519 0001:0000cb30
   520 0001:0000cb53   521 0001:0000cb5e   524 0001:0000cb70   525 0001:0000cb7b
   526 0001:0000cb7e   718 0001:0000cba0   719 0001:0000cbbe   721 0001:0000cbc5
   722 0001:0000cbcb   724 0001:0000cbcf   726 0001:0000cbd9   728 0001:0000cbe7
   729 0001:0000cbed   731 0001:0000cbef   732 0001:0000cc05   733 0001:0000cc07
   734 0001:0000cc0a  1154 0001:0000cc20  1155 0001:0000cc60  1158 0001:0000cc6f
  1159 0001:0000cc79  1160 0001:0000cc82  1163 0001:0000cc8c  1164 0001:0000cca7
  1167 0001:0000cccd  1169 0001:0000ccdc  1170 0001:0000cce6  1172 0001:0000cd0a
  1174 0001:0000cd34  1175 0001:0000cd4f  1177 0001:0000cd54  1179 0001:0000cd5e
  1181 0001:0000cd6d  1182 0001:0000cd7f  1184 0001:0000cdbb  1186 0001:0000cdcb
  1188 0001:0000cdda  1189 0001:0000cde9  1191 0001:0000cdf4  1193 0001:0000cdfd
  1194 0001:0000ce18  1195 0001:0000ce2c  1196 0001:0000ce47  1389 0001:0000ce5b
  1197 0001:0000ce6a  1199 0001:0000ce6f  1203 0001:0000ce7e  1205 0001:0000ce9b
  1206 0001:0000cea5  1207 0001:0000cec0  1210 0001:0000cec5  1214 0001:0000cee6
  1215 0001:0000cf04  1216 0001:0000cf09  1217 0001:0000cf24  1220 0001:0000cf29
  1221 0001:0000cf34  1223 0001:0000cf61  1225 0001:0000cf6b  1227 0001:0000cf7a
  1228 0001:0000cf89  1229 0001:0000cfa9  1231 0001:0000cfb4  1232 0001:0000cfbd
  1389 0001:0000cff2  1234 0001:0000d001  1238 0001:0000d006  1242 0001:0000d01d
  1243 0001:0000d028  1244 0001:0000d041  1246 0001:0000d047  1247 0001:0000d05c
  1250 0001:0000d068  1251 0001:0000d07a  1254 0001:0000d08a  1256 0001:0000d08c
  1257 0001:0000d09e  1259 0001:0000d0ae  1260 0001:0000d0b9  1261 0001:0000d0d4
  1262 0001:0000d0d9  1266 0001:0000d0de  1267 0001:0000d0f0  1269 0001:0000d11d
  1271 0001:0000d127  1272 0001:0000d13f  1275 0001:0000d145  1276 0001:0000d15d
  1280 0001:0000d163  1281 0001:0000d183  1282 0001:0000d189  1286 0001:0000d1b5
  1287 0001:0000d1d0  1290 0001:0000d1d5  1292 0001:0000d1e0  1293 0001:0000d201
  1296 0001:0000d206  1298 0001:0000d20b  1299 0001:0000d211  1300 0001:0000d229
  1301 0001:0000d22b  1305 0001:0000d232  1306 0001:0000d238  1317 0001:0000d23f
  1319 0001:0000d25e  1320 0001:0000d279  1321 0001:0000d27e  1322 0001:0000d299
  1324 0001:0000d29e  1326 0001:0000d2a9  1328 0001:0000d2c7  1329 0001:0000d2d6
  1331 0001:0000d2db  1332 0001:0000d2f6  1339 0001:0000d2fb  1341 0001:0000d304
  1343 0001:0000d30a  1345 0001:0000d30f  1348 0001:0000d315  1349 0001:0000d31b
  1352 0001:0000d320  1353 0001:0000d332  1358 0001:0000d337  1361 0001:0000d352
  1365 0001:0000d36e  1367 0001:0000d37d  1370 0001:0000d382  1371 0001:0000d38d
  1372 0001:0000d393  1374 0001:0000d3bf  1377 0001:0000d3c8  1378 0001:0000d3d3
  1379 0001:0000d3e2  1380 0001:0000d3f7  1381 0001:0000d402  1383 0001:0000d408
  1384 0001:0000d41a  1386 0001:0000d427  1391 0001:0000d432  1393 0001:0000d438
  1395 0001:0000d45b  1396 0001:0000d480  1397 0001:0000d482  1398 0001:0000d49d
  1401 0001:0000d49f  1403 0001:0000d4a4  1404 0001:0000d4c5   819 0001:0000db80
   823 0001:0000dbc8   824 0001:0000dbd1   825 0001:0000dbdb   827 0001:0000dbe5
   828 0001:0000dbfd   829 0001:0000dc05   832 0001:0000dc1f   835 0001:0000dc31
   836 0001:0000dc39   837 0001:0000dc51   839 0001:0000dc59   843 0001:0000dca8
   845 0001:0000dcc3   850 0001:0000dcc8   851 0001:0000dce7   852 0001:0000dcf9
   853 0001:0000dd20   855 0001:0000dd33   856 0001:0000dd44   857 0001:0000dd50
   858 0001:0000dd5a   860 0001:0000dd6b   861 0001:0000dd87   863 0001:0000dda3
   864 0001:0000ddbb   866 0001:0000ddd7   868 0001:0000ddd9   870 0001:0000dde9
   872 0001:0000de05   873 0001:0000de14   874 0001:0000de23   877 0001:0000de33
   878 0001:0000de42   880 0001:0000de51   881 0001:0000de60   882 0001:0000de65
   883 0001:0000de6e   885 0001:0000de8c   887 0001:0000de8e   889 0001:0000de98
   890 0001:0000deaa   894 0001:0000deaf   896 0001:0000decc   898 0001:0000dfae
   899 0001:0000dfb7   901 0001:0000dfde   903 0001:0000dfff   905 0001:0000e018
   909 0001:0000e02f   910 0001:0000e04b   913 0001:0000e056   915 0001:0000e060
   916 0001:0000e071   917 0001:0000e083   918 0001:0000e0aa   919 0001:0000e0b9
   920 0001:0000e0e0   921 0001:0000e0fd   922 0001:0000e126   923 0001:0000e18e
   924 0001:0000e1c7   928 0001:0000e1d9   930 0001:0000e1e2   931 0001:0000e1ec
   934 0001:0000e1fd   935 0001:0000e212   937 0001:0000e217   938 0001:0000e219
   618 0001:0000e460   628 0001:0000e47e   629 0001:0000e4a8   630 0001:0000e4bb
   631 0001:0000e4ce   636 0001:0000e4e1   638 0001:0000e4f9   640 0001:0000e51b
   641 0001:0000e52c   643 0001:0000e533   645 0001:0000e535   647 0001:0000e537
   650 0001:0000e550   651 0001:0000e56e   663 0001:0000e5a4   670 0001:0000e5ad
   677 0001:0000e5b6   681 0001:0000e5bf   683 0001:0000e5c1   941 0001:0000e610
   942 0001:0000e633   943 0001:0000e64b   944 0001:0000e66d   946 0001:0000e671
   947 0001:0000e678   950 0001:0000e690   951 0001:0000e6b3   955 0001:0000e6ba
   959 0001:0000e6e9   962 0001:0000e6ed   963 0001:0000e6f6   994 0001:0000e740
   998 0001:0000e76f  1000 0001:0000e77a  1001 0001:0000e78f  1003 0001:0000e794
  1004 0001:0000e79c  1005 0001:0000e7b4  1006 0001:0000e7b9  1007 0001:0000e7ce
  1010 0001:0000e7d3  1011 0001:0000e7d5    70 0001:0000f810    71 0001:0000f82e
    72 0001:0000f849    73 0001:0000f84d    74 0001:0000f84f

Line numbers for C:/BUILD_~1/jdk6_21/control/build/WINDOW~2/tmp/deploy/jqs/jqs_plugin/jqsiestartdetectorimpl.obj(c:\program files\microsoft visual studio .net 2003\vc7\atlmfc\include\atlcore.h) segment .text

   206 0001:0000acc0   207 0001:0000ace3   208 0001:0000ace9   175 0001:0000b310
   176 0001:0000b340   164 0001:000107b0   165 0001:000107d3   166 0001:000107db
   147 0001:000107f0   148 0001:00010813   149 0001:00010826   150 0001:00010828
   157 0001:00010940   159 0001:0001096b   160 0001:00010976   161 0001:0001097c
   162 0001:00010985   114 0001:00010a40   116 0001:00010a63   117 0001:00010a73
   129 0001:00010a90   130 0001:00010ad0   131 0001:00010ad7   133 0001:00010ade
   136 0001:00010afa   138 0001:00010b10   139 0001:00010b1c   140 0001:00010b23
   141 0001:00010b25   143 0001:00010b33   144 0001:00010b36   119 0001:00012c90
   120 0001:00012cb3   121 0001:00012cc6   122 0001:00012cc8   124 0001:00012f70
   125 0001:00012f93   126 0001:00012fa6   127 0001:00012fa8

Line numbers for C:/BUILD_~1/jdk6_21/control/build/WINDOW~2/tmp/deploy/jqs/jqs_plugin/jqsiestartdetectorimpl.obj(c:\program files\microsoft visual studio .net 2003\vc7\atlmfc\include\atlalloc.h) segment .text

   331 0001:0000aa50   332 0001:0000aa8b   334 0001:0000aa8f   336 0001:0000aa96
   341 0001:0000aac1   343 0001:0000aae2   344 0001:0000aae6   346 0001:0000aafc
   347 0001:0000aaff   373 0001:0000ea00   375 0001:0000ea40   376 0001:0000ea63
   377 0001:0000ea75   378 0001:0000ea7b   381 0001:0000ea7f   382 0001:0000ea89
   384 0001:0000ea91   385 0001:0000ea99    30 0001:0000eab0    31 0001:0000eace
    32 0001:0000eae4   387 0001:0000eb00   389 0001:0000eb23   391 0001:0000eb2b
   392 0001:0000eb33   393 0001:0000eb3f   394 0001:0000eb4b   395 0001:0000eb4d
    35 0001:0000eb70    36 0001:0000eb8e    37 0001:0000eba4   216 0001:0000efb0
   217 0001:0000efdc   225 0001:0000eff0   226 0001:0000f013   228 0001:0000f020
   230 0001:0000f028   233 0001:0000f040   234 0001:0000f063   235 0001:0000f068
   243 0001:0000f070   244 0001:0000f093   245 0001:0000f09f   216 0001:0000f0c0
   217 0001:0000f0ec   225 0001:0000f100   226 0001:0000f123   228 0001:0000f130
   230 0001:0000f138   233 0001:0000f150   234 0001:0000f173   235 0001:0000f178
   243 0001:0000f180   244 0001:0000f1a3   245 0001:0000f1af   216 0001:0000f1d0
   217 0001:0000f1fc   225 0001:0000f210   226 0001:0000f233   228 0001:0000f240
   230 0001:0000f248   233 0001:0000f260   234 0001:0000f283   235 0001:0000f288
   243 0001:0000f290   244 0001:0000f2b3   245 0001:0000f2bf   276 0001:0000f990
   278 0001:0000f9b3   280 0001:0000f9bc   282 0001:0000f9c8   284 0001:0000f9ca
   287 0001:0000f9d5   288 0001:0000f9da   312 0001:0000f9f0   313 0001:0000fa13
   314 0001:0000fa21   276 0001:0000fa40   278 0001:0000fa63   280 0001:0000fa6c
   282 0001:0000fa78   284 0001:0000fa7a   287 0001:0000fa85   288 0001:0000fa8a
   312 0001:0000faa0   313 0001:0000fac3   314 0001:0000fad1   276 0001:0000faf0
   278 0001:0000fb13   280 0001:0000fb1c   282 0001:0000fb28   284 0001:0000fb2a
   287 0001:0000fb35   288 0001:0000fb3a   312 0001:0000fb50   313 0001:0000fb73
   314 0001:0000fb81   365 0001:0000fba0   366 0001:0000fbc3   367 0001:0000fbc9
   292 0001:00010ba0   293 0001:00010bc3   294 0001:00010bd2   296 0001:00010bd8
   298 0001:00010be2   299 0001:00010bea   292 0001:00010c00   293 0001:00010c23
   294 0001:00010c32   296 0001:00010c38   298 0001:00010c42   299 0001:00010c4a
   292 0001:00010c60   293 0001:00010c83   294 0001:00010c92   296 0001:00010c98
   298 0001:00010ca2   299 0001:00010caa

Line numbers for C:/BUILD_~1/jdk6_21/control/build/WINDOW~2/tmp/deploy/jqs/jqs_plugin/jqsiestartdetectorimpl.obj(c:\program files\microsoft visual studio .net 2003\vc7\atlmfc\include\atlbase.h) segment .text

  5506 0001:0000a5b0  5507 0001:0000a5d6  5509 0001:0000a5de  5511 0001:0000a5e4
  5514 0001:0000a5ec  5515 0001:0000a602  5516 0001:0000a60b  5519 0001:0000a60d
  5520 0001:0000a628  5521 0001:0000a62e  5523 0001:0000a64a  5525 0001:0000a65a
  5526 0001:0000a66a  5527 0001:0000a692  5528 0001:0000a69b  5529 0001:0000a6c1
  5530 0001:0000a6cd  5533 0001:0000a6f2  5535 0001:0000a7ad  5536 0001:0000a7b6
  5540 0001:0000a7db  5543 0001:0000a7f1  5549 0001:0000a813  5550 0001:0000a81c
  5551 0001:0000a832  5552 0001:0000a847  5553 0001:0000a857  5555 0001:0000a867
  5557 0001:0000a882  5559 0001:0000a884  5562 0001:0000a89f  5563 0001:0000a8a8
  5565 0001:0000a8cf  5566 0001:0000a8ea  5567 0001:0000a8f3  5569 0001:0000a917
  5571 0001:0000a921  5572 0001:0000a974  5573 0001:0000a993  2765 0001:0000ad70
  2766 0001:0000ad8e  2768 0001:0000ad98  2769 0001:0000adad  2770 0001:0000adb8
  2771 0001:0000adcd  2772 0001:0000add6  2773 0001:0000add8  2774 0001:0000ade0
  4788 0001:0000d600  4789 0001:0000d62c  4803 0001:0000d640  4814 0001:0000d680
  4817 0001:0000d6b0  4818 0001:0000d6d3  4819 0001:0000d6db  4820 0001:0000d6e4
  4821 0001:0000d6e7  4824 0001:0000d6f0  4826 0001:0000d713  4827 0001:0000d71b
  4830 0001:0000d730  4832 0001:0000d753  4833 0001:0000d76c  4836 0001:0000d790
  4838 0001:0000d7b3  4839 0001:0000d7cc  4842 0001:0000d7f0  4843 0001:0000d813
  4844 0001:0000d81a  4846 0001:0000d822  4847 0001:0000d83a  4849 0001:0000d843
  4850 0001:0000d846  4883 0001:0000d860  4886 0001:0000d883  4888 0001:0000d88a
  4889 0001:0000d8be  4890 0001:0000d8c4  4891 0001:0000d8cc  4893 0001:0000d8d2
  4894 0001:0000d8dd  4896 0001:0000d8e5  4897 0001:0000d8e8  4900 0001:0000d940
  4902 0001:0000d963  4903 0001:0000d96a  4904 0001:0000d98e  4906 0001:0000d994
  4908 0001:0000d99f  4910 0001:0000d9a7  4911 0001:0000d9aa  5246 0001:0000d9f0
  5247 0001:0000da1b  5248 0001:0000da23  5249 0001:0000da3d  5255 0001:0000da43
  5258 0001:0000da5f  5261 0001:0000da66  5263 0001:0000da94  5264 0001:0000daa6
  5265 0001:0000daac  5266 0001:0000dac5  5267 0001:0000dacc  5268 0001:0000dace
  5269 0001:0000dad6  5270 0001:0000daf6  5167 0001:0000e2e0  5169 0001:0000e303
  5170 0001:0000e326  5179 0001:0000e340  5184 0001:0000e363  5185 0001:0000e39d
  5188 0001:0000e3c0  5199 0001:0000e3e3  5200 0001:0000e3ea  5203 0001:0000e3f0
  5204 0001:0000e409  5205 0001:0000e412  5206 0001:0000e41b  5209 0001:0000e421
  5210 0001:0000e446   727 0001:0000fcb0   736 0001:0000fcce   738 0001:0000fd13
   357 0001:000103e0   358 0001:000104b0   347 0001:00010d00   348 0001:00010d90
  2677 0001:000118a0  2678 0001:000118c3  2679 0001:000118f5   288 0001:00012b70
   289 0001:00012ba2   293 0001:00012baa   294 0001:00012bb5   296 0001:00012bbb
   299 0001:00012bc4   303 0001:00012be0   304 0001:00012c03   306 0001:00012c0e
   308 0001:00012c16   312 0001:00012c30   316 0001:00012c53   317 0001:00012c60
   319 0001:00012c66   321 0001:00012c6b   323 0001:00012c72   324 0001:00012c74
   328 0001:00012f20   330 0001:00012f43   331 0001:00012f4d   332 0001:00012f54
  2573 0001:00012ff0  2575 0001:0001301b  2576 0001:00013024  2577 0001:00013030
  2578 0001:00013036  2579 0001:0001303d  2582 0001:00013170  2583 0001:000131af
  2584 0001:000131b7  2587 0001:000131f0  2588 0001:00013213  2589 0001:00013227
  6215 0001:00013290  6216 0001:000132ae  6217 0001:000132b4  6218 0001:000132be
  6219 0001:000132c6  6220 0001:000132ca  6221 0001:000132d2  6223 0001:000132d9
  6224 0001:000132fb  6225 0001:00013323  6226 0001:0001332e  6227 0001:00013339
  6228 0001:00013342  6229 0001:00013344  2602 0001:00018670

Line numbers for C:/BUILD_~1/jdk6_21/control/build/WINDOW~2/tmp/deploy/jqs/jqs_plugin/jqsiestartdetectorimpl.obj(c:\build_area\jdk6_21\deploy\src\jqs\windows\ie\jqsiestartdetectorimpl.h) segment .text

    32 0001:0000a560    44 0001:00010350    44 0001:00010420    47 0001:000104f0
    48 0001:00010513    49 0001:00010515    28 0001:00010ed0    30 0001:00010f11
    36 0001:000128b0    36 0001:00012900    40 0001:0001291e    52 0001:00012a10
    53 0001:00012a33

Line numbers for C:/BUILD_~1/jdk6_21/control/build/WINDOW~2/tmp/deploy/jqs/jqs_plugin/jqsiestartdetectorimpl.obj(c:\program files\microsoft visual studio .net 2003\vc7\atlmfc\include\atlcomcli.h) segment .text

   628 0001:0000a510   629 0001:0000a533   630 0001:0000a548    26 0001:0000acf0
    27 0001:0000ad0e    28 0001:0000ad20    29 0001:0000ad52    32 0001:0000d5a0
    33 0001:0000d5be    34 0001:0000d5f0   291 0001:0000f6a0   292 0001:0000f6c3
   293 0001:0000f6d0    45 0001:0000f6f0    46 0001:0000f70e    47 0001:0000f714
    49 0001:0000f718    50 0001:0000f71e    51 0001:0000f733    52 0001:0000f73b
    53 0001:0000f754    54 0001:0000f75c    55 0001:0000f75f   248 0001:00011110
   250 0001:0001113b   545 0001:00011e80   547 0001:00011ea3   548 0001:00011eac
   640 0001:00011ec0   641 0001:00011ee3   642 0001:00011ee8   644 0001:00011ef0
   645 0001:00011f13   646 0001:00011f16   680 0001:00011f20   681 0001:00011f43
   683 0001:00011f4d   684 0001:00011f62   686 0001:00011f6a   688 0001:00011f80
   689 0001:00011fa3   690 0001:00011fab   691 0001:00011fb4   692 0001:00011fb7
   248 0001:00012060   250 0001:0001208b   273 0001:000120b0   274 0001:000120e1
   126 0001:00012100   127 0001:00012123   128 0001:0001212b   129 0001:00012144
   142 0001:00012160   144 0001:00012183   145 0001:00012186   147 0001:00012190
   149 0001:000121b3   150 0001:000121b8   198 0001:000121c0   199 0001:000121e3
   200 0001:000121eb   201 0001:000121f4   202 0001:000121f7   248 0001:00012200
   250 0001:0001222b   126 0001:00012250   127 0001:00012273   128 0001:0001227b
   129 0001:00012294   142 0001:000122b0   144 0001:000122d3   145 0001:000122d6
   107 0001:000125f0   109 0001:00012613   110 0001:0001261c   131 0001:00012630
   132 0001:00012653   133 0001:00012658   147 0001:00012660   149 0001:00012683
   150 0001:00012688   107 0001:00012690   109 0001:000126b3   110 0001:000126bc
   117 0001:000126d0   119 0001:000126f3   120 0001:000126fb   121 0001:00012703
   122 0001:0001271c   107 0001:00012740   109 0001:00012763   110 0001:0001276c
   126 0001:00012b10   127 0001:00012b33   128 0001:00012b3b   129 0001:00012b54
   295 0001:00012d40   297 0001:00012d63   298 0001:00012d7a    58 0001:00012d90
    59 0001:00012dae    60 0001:00012db4    62 0001:00012db8    63 0001:00012dc0
    64 0001:00012dc9    65 0001:00012dcf    66 0001:00012deb    67 0001:00012df1
    68 0001:00012e06    69 0001:00012e0b   131 0001:00012ef0   132 0001:00012f13
   133 0001:00012f18

Line numbers for C:/BUILD_~1/jdk6_21/control/build/WINDOW~2/tmp/deploy/jqs/jqs_plugin/jqsiestartdetectorimpl.obj(c:\program files\microsoft visual studio .net 2003\vc7\atlmfc\include\atlcom.h) segment .text

  2155 0001:0000a3d0  2157 0001:0000a400  3412 0001:0000f2e0  3763 0001:0000f310
  3765 0001:0000f32e  3766 0001:0000f334  3767 0001:0000f343  3768 0001:0000f345
  1751 0001:0000f360  1753 0001:0000f397  1754 0001:0000f39d  1755 0001:0000f3a7
  1757 0001:0000f3b0  1758 0001:0000f3b7  1759 0001:0000f3be  1760 0001:0000f445
  1762 0001:0000f44f  1763 0001:0000f45b  1764 0001:0000f466  1765 0001:0000f474
  1766 0001:0000f47a  1767 0001:0000f488  1768 0001:0000f493  1769 0001:0000f499
  1770 0001:0000f4b8  1771 0001:0000f4be  1773 0001:0000f50a  1774 0001:0000f50d
  2133 0001:0000f530  2134 0001:0000f553  2135 0001:0000f555  2138 0001:0000f560
  2139 0001:0000f583  2140 0001:0000f585  2193 0001:0000f590  2195 0001:0000f5c0
  2197 0001:0000f5e3  3195 0001:0000f5f0  3196 0001:0000f613  3197 0001:0000f61c
  1827 0001:0000f630  1832 0001:0000f64e  1833 0001:0000f688  2642 0001:0000fbd0
  3166 0001:0000fc20  3168 0001:0000fc3e  3169 0001:0000fc45  3171 0001:0000fc4b
  3174 0001:0000fc54  3177 0001:0000fc67  3179 0001:0000fc6e  3180 0001:0000fc70
  3182 0001:0000fc8e  3183 0001:0000fc91  3186 0001:0000fd20  3187 0001:0000fd3e
  3188 0001:0000fd44  3189 0001:0000fd5d  3190 0001:0000fd5f  3191 0001:0000fd78
  3192 0001:0000fd7a  2656 0001:0000fd90  2658 0001:0000fdd0  2659 0001:0000fdee
  2660 0001:0000fdfc  2661 0001:0000fe02  2662 0001:0000fe4e  2663 0001:0000fe51
  2666 0001:0000fe70  3156 0001:0000fec0  2160 0001:0000ff10  2171 0001:0000ff2e
  2175 0001:0000ff46  2176 0001:0000ff49  3156 0001:00010140  3158 0001:0001015e
  1751 0001:00010170  1753 0001:000101a7  1754 0001:000101ad  1755 0001:000101b7
  1757 0001:000101c0  1758 0001:000101c7  1759 0001:000101ce  1760 0001:00010235
  1762 0001:0001023f  1763 0001:0001024e  1764 0001:00010256  1765 0001:00010261
  1766 0001:00010267  1767 0001:00010275  1768 0001:0001027d  1769 0001:00010283
  1770 0001:000102a2  1771 0001:000102a8  1773 0001:000102f4  1774 0001:000102f7
  2192 0001:00010320  2326 0001:000103a0  2328 0001:000103c3  2329 0001:000103cc
  2331 0001:00010470  2340 0001:00010493  2342 0001:0001049c  1813 0001:00010520
  1814 0001:0001053e  1815 0001:00010544  1816 0001:0001054b  1818 0001:00010554
  1819 0001:00010559  2646 0001:000105d0  2647 0001:00010618  2648 0001:00010622
  2652 0001:0001062d  2141 0001:00010660  3161 0001:00010690  3162 0001:000106bc
  2128 0001:00010b60  2130 0001:00010b83  2131 0001:00010b8c  2293 0001:00010cc0
  2295 0001:00010ce3  2296 0001:00010cec  2298 0001:00010d50  2307 0001:00010d73
  2309 0001:00010d7c  2489 0001:00010e60  2491 0001:00010e9e  2492 0001:00010eb7
  3770 0001:00011160  3772 0001:0001117e  3774 0001:00011184  3775 0001:0001118b
  3777 0001:00011191  3778 0001:000111a0  3779 0001:000111d6  3781 0001:000111d8
  3782 0001:000111e1  3785 0001:000111e8  3786 0001:000111eb  4391 0001:00011210
  4392 0001:0001122e  4393 0001:00011234  4394 0001:0001123b  4395 0001:00011244
  4396 0001:00011246  4398 0001:00011250  4399 0001:0001126e  4400 0001:00011284
  3544 0001:000112a0  3545 0001:000112c3  3546 0001:000112d3  3502 0001:000112f0
  3504 0001:00011313  3505 0001:00011319  3507 0001:00011320  3508 0001:00011327
  3509 0001:00011330  3510 0001:0001133f  3511 0001:0001134a  3513 0001:00011353
  3514 0001:0001136e  3516 0001:00011375  3517 0001:00011378  3632 0001:00011390
  3637 0001:000113d0  3638 0001:000113e2  3640 0001:000113e9  3641 0001:00011403
  3642 0001:0001140e  3646 0001:00011414  3648 0001:00011437  3649 0001:0001143e
  3651 0001:0001144b  3652 0001:00011452  3655 0001:00011494  3656 0001:000114c0
  3658 0001:000114dd  3659 0001:000114f7  3661 0001:000115d6  3662 0001:000115df
  3664 0001:00011612  3665 0001:0001162f  3667 0001:0001163e  3669 0001:00011640
  3720 0001:00011671  3722 0001:0001167b  3723 0001:0001168a  3724 0001:000116b4
  3726 0001:000116be  3727 0001:000116d4  3728 0001:000116e3  3729 0001:00011704
  3731 0001:00011716  3733 0001:00011727  3735 0001:0001173b  3736 0001:00011759
  3737 0001:0001176e  3739 0001:0001177d  3742 0001:0001177f  3745 0001:00011786
  3746 0001:00011798  3748 0001:000117a7  3749 0001:000117c5  3530 0001:00011ab0
  3532 0001:00011ace  3533 0001:00011ad4  3535 0001:00011ad6  3536 0001:00011adc
  3537 0001:00011ae5  3538 0001:00011b00  3539 0001:00011b0a  3540 0001:00011b4a
  3541 0001:00011b54  3591 0001:00011b70  3593 0001:00011bac  3594 0001:00011bc8
  3596 0001:00011bd2  3597 0001:00011bd9  3598 0001:00011be6  3599 0001:00011bf0
  3601 0001:00011bfd  3602 0001:00011cb9  3604 0001:00011cbf  3605 0001:00011cd8
  3608 0001:00011ce2  3611 0001:00011d03  3613 0001:00011d28  3614 0001:00011d37
  3616 0001:00011d65  3617 0001:00011d7c  3618 0001:00011da7  3620 0001:00011db9
  3621 0001:00011dd2  3622 0001:00011de1  3623 0001:00011de6  3624 0001:00011def
  3626 0001:00011e08  3627 0001:00011e0a  3477 0001:00011fc0  4403 0001:000122e0
  4404 0001:000122fe  4405 0001:0001231c  3549 0001:00012340  3550 0001:00012363
  3551 0001:00012372  3553 0001:0001237f  3557 0001:00012386  3559 0001:0001239d
  3560 0001:000123ae  3563 0001:000123cb  3565 0001:00012417  3566 0001:0001242c
  3567 0001:00012433  3569 0001:00012435  3573 0001:00012437  3575 0001:0001243d
  3578 0001:00012467  3579 0001:0001246a  3520 0001:00012480  3521 0001:000124a3
  3522 0001:000124aa  3523 0001:000124bc  3524 0001:000124cb  3525 0001:000124ce
  4409 0001:000124f0  4411 0001:0001250e  4412 0001:0001253d  3584 0001:00012560
  3585 0001:00012583  3586 0001:00012592  3587 0001:0001259b  3588 0001:000125d6
  3589 0001:000125d9  2506 0001:00012780  2508 0001:000127c0  2509 0001:000127de
  2510 0001:000127ec  2511 0001:000127f2  2512 0001:0001283e  2513 0001:00012841
  2516 0001:00012860  2496 0001:00012990  2497 0001:000129c6  2498 0001:000129d0
  2502 0001:000129d8  2503 0001:000129f1  3759 0001:00012a80  3760 0001:00012aa3

Line numbers for C:/BUILD_~1/jdk6_21/control/build/WINDOW~2/tmp/deploy/jqs/jqs_plugin/jqsiestartdetectorimpl.obj(c:\program files\microsoft visual studio .net 2003\vc7\atlmfc\include\atlconv.h) segment .text

   134 0001:0000a170   138 0001:0000a196   139 0001:0000a1a0   140 0001:0000a1b6
   143 0001:0000a1c8   145 0001:0000a1d2   147 0001:0000a1d4   149 0001:0000a1de
   151 0001:0000a1ef   152 0001:0000a1fe    91 0001:0000a250    92 0001:0000a26e
    93 0001:0000a285   101 0001:0000a2a0   102 0001:0000a2c6   104 0001:0000a2cd
   110 0001:0000a2df   112 0001:0000a301   113 0001:0000a307   115 0001:0000a311
   116 0001:0000a31a   117 0001:0000a333   120 0001:0000a335   121 0001:0000a33b
   123 0001:0000a34d   124 0001:0000a350   127 0001:0000a3a0   128 0001:0000a3be
   129 0001:0000a3c3   157 0001:0000ab40   158 0001:0000ab5e   159 0001:0000ab6d
   554 0001:0000ab90   557 0001:0000abae   558 0001:0000abba   562 0001:0000abbe
   563 0001:0000abc6   564 0001:0000abec   567 0001:0000abf2   569 0001:0000abf6
   570 0001:0000abf9   679 0001:0000ac10   682 0001:0000ac60   573 0001:0000b280
   576 0001:0000b29e   577 0001:0000b2aa   581 0001:0000b2ae   582 0001:0000b2b4
   583 0001:0000b2de   586 0001:0000b2e4   588 0001:0000b2e8   589 0001:0000b2eb

Line numbers for C:/BUILD_~1/jdk6_21/control/build/WINDOW~2/tmp/deploy/jqs/jqs_plugin/os_layer.obj(c:\build_area\jdk6_21\deploy\src\jqs\windows\os_layer.cpp) segment .text

    93 0001:00008f10    96 0001:00008f2e    98 0001:00008f3f    99 0001:00008f49
   101 0001:00008f5d   104 0001:00008f71   106 0001:00008f83   107 0001:00008f90
   110 0001:00008f9a   111 0001:00008fb3   112 0001:00008fbc   113 0001:00008fd9
   116 0001:00008fe3   117 0001:00008ffc   118 0001:00009005   119 0001:00009022
   122 0001:0000902c   123 0001:00009045   124 0001:0000904e   125 0001:0000906b
   128 0001:00009075   129 0001:0000908e   130 0001:00009097   133 0001:000090b4
   134 0001:000090cd   135 0001:000090d6   138 0001:000090f3   139 0001:0000910b
   140 0001:00009123   141 0001:0000913b   142 0001:00009153   143 0001:0000916b
   144 0001:00009183   145 0001:0000919b   146 0001:000091b3   147 0001:000091cb
   148 0001:000091e3   149 0001:000091fb   151 0001:00009213   152 0001:0000922b
   153 0001:00009243   154 0001:0000925b   155 0001:00009273   157 0001:0000928b
   158 0001:000092a3   160 0001:000092bb   161 0001:000092c4   162 0001:000092dc
   163 0001:000092f4   164 0001:0000930c   167 0001:00009324   168 0001:00009331
   169 0001:00009349   170 0001:00009361   171 0001:00009379   172 0001:00009391
   173 0001:000093a9   174 0001:000093c1   177 0001:000093d9   178 0001:000093ed
   183 0001:00009410   184 0001:0000942e   185 0001:00009438   186 0001:00009442
   187 0001:0000944c   188 0001:00009456   189 0001:00009460   190 0001:0000946a
   191 0001:00009474   192 0001:0000947e   193 0001:00009488   194 0001:00009492
   195 0001:0000949c   196 0001:000094a6   197 0001:000094b0   198 0001:000094ba
   200 0001:000094c4   201 0001:000094ce   202 0001:000094d8   203 0001:000094e2
   204 0001:000094ec   205 0001:000094f6   206 0001:00009500   207 0001:0000950a
   209 0001:00009514   210 0001:0000951e   211 0001:00009528   212 0001:00009532
   213 0001:0000953c   214 0001:00009546   215 0001:00009550   217 0001:0000955a
   218 0001:00009563   220 0001:00009578   221 0001:00009581   223 0001:00009596
   224 0001:0000959f   226 0001:000095b4   227 0001:000095bd   229 0001:000095d2
   230 0001:000095db   232 0001:000095f0    84 0001:00009610    85 0001:0000962e
    86 0001:0000964a    87 0001:00009663    84 0001:00009680    85 0001:0000969e
    86 0001:000096ba    87 0001:000096d3    84 0001:000096f0    85 0001:0000970e
    86 0001:0000972a    87 0001:00009743    84 0001:00009760    85 0001:0000977e
    86 0001:0000979a    87 0001:000097b3    84 0001:000097d0    85 0001:000097ee
    86 0001:0000980a    87 0001:00009823    84 0001:00009840    85 0001:0000985e
    86 0001:0000987a    87 0001:00009893    84 0001:000098b0    85 0001:000098ce
    86 0001:000098ea    87 0001:00009903    84 0001:00009920    85 0001:0000993e
    86 0001:0000995a    87 0001:00009973    84 0001:00009990    85 0001:000099ae
    86 0001:000099ca    87 0001:000099e3    84 0001:00009a00    85 0001:00009a1e
    86 0001:00009a3a    87 0001:00009a53    84 0001:00009a70    85 0001:00009a8e
    86 0001:00009aaa    87 0001:00009ac3    84 0001:00009ae0    85 0001:00009afe
    86 0001:00009b1a    87 0001:00009b33    84 0001:00009b50    85 0001:00009b6e
    86 0001:00009b8a    87 0001:00009ba3    84 0001:00009bc0    85 0001:00009bde
    86 0001:00009bfa    87 0001:00009c13    84 0001:00009c30    85 0001:00009c4e
    86 0001:00009c6a    87 0001:00009c83    84 0001:00009ca0    85 0001:00009cbe
    86 0001:00009cda    87 0001:00009cf3    84 0001:00009d10    85 0001:00009d2e
    86 0001:00009d4a    87 0001:00009d63    84 0001:00009d80    85 0001:00009d9e
    86 0001:00009dba    87 0001:00009dd3    84 0001:00009df0    85 0001:00009e0e
    86 0001:00009e2a    87 0001:00009e43    84 0001:00009e60    85 0001:00009e7e
    86 0001:00009e9a    87 0001:00009eb3    84 0001:00009ed0    85 0001:00009eee
    86 0001:00009f0a    87 0001:00009f23    84 0001:00009f40    85 0001:00009f5e
    86 0001:00009f7a    87 0001:00009f93    84 0001:00009fb0    85 0001:00009fce
    86 0001:00009fea    87 0001:0000a003    84 0001:0000a020    85 0001:0000a03e
    86 0001:0000a05a    87 0001:0000a073    84 0001:0000a090    85 0001:0000a0ae
    86 0001:0000a0ca    87 0001:0000a0e3    84 0001:0000a100    85 0001:0000a11e
    86 0001:0000a13a    87 0001:0000a153

Line numbers for C:/BUILD_~1/jdk6_21/control/build/WINDOW~2/tmp/deploy/jqs/jqs_plugin/os_utils.obj(c:\program files\microsoft visual studio .net 2003\vc7\include\xutility) segment .text

  1039 0001:00008be0  1040 0001:00008bfe  1041 0001:00008c2f  1134 0001:00008c50
  1135 0001:00008c6e  1136 0001:00008c81  1137 0001:00008c8d  1030 0001:00008eb0
  1031 0001:00008ece  1033 0001:00008ed7  1034 0001:00008ef8

Line numbers for C:/BUILD_~1/jdk6_21/control/build/WINDOW~2/tmp/deploy/jqs/jqs_plugin/os_utils.obj(c:\program files\microsoft visual studio .net 2003\vc7\include\string) segment .text

    21 0001:00008ad0    22 0001:00008b0d    23 0001:00008b6e    91 0001:00008b90
    92 0001:00008bae    93 0001:00008bbf

Line numbers for C:/BUILD_~1/jdk6_21/control/build/WINDOW~2/tmp/deploy/jqs/jqs_plugin/os_utils.obj(c:\program files\microsoft visual studio .net 2003\vc7\include\iosfwd) segment .text

   335 0001:00008580   336 0001:0000859e   337 0001:000085b1   346 0001:000085c0
   347 0001:000085de   348 0001:000085f2

Line numbers for C:/BUILD_~1/jdk6_21/control/build/WINDOW~2/tmp/deploy/jqs/jqs_plugin/os_utils.obj(c:\program files\microsoft visual studio .net 2003\vc7\include\vector) segment .text

   502 0001:000083d0   503 0001:000083f3   504 0001:00008401   743 0001:00008420
   744 0001:00008443   745 0001:0000844b   507 0001:00008610   508 0001:00008633
   509 0001:00008640   510 0001:0000866c   511 0001:0000867b   512 0001:000086c0
   731 0001:000086e0   732 0001:00008703   735 0001:00008716   736 0001:00008730
   737 0001:00008743   739 0001:0000874c   740 0001:00008757   809 0001:00008770
   810 0001:000087ac   811 0001:000087b4   813 0001:000087bf   815 0001:000087c5
   816 0001:000087e3   817 0001:000087eb   820 0001:00008804   821 0001:0000883b
   822 0001:0000884b   823 0001:00008859   824 0001:00008868   826 0001:0000886e
   828 0001:00008875   829 0001:0000889b   830 0001:000088be   832 0001:000088d7
   833 0001:000088e7   834 0001:000088f7   835 0001:00008900   837 0001:00008907
   838 0001:00008915   840 0001:0000891e   841 0001:00008934   843 0001:00008950
   844 0001:0000895c   845 0001:00008968   847 0001:00008971   850 0001:00008988
   852 0001:000089a2   854 0001:000089a9   856 0001:000089cd   857 0001:000089e6
   858 0001:000089ef   860 0001:000089f6   862 0001:00008a05   864 0001:00008a1f
   866 0001:00008a21   868 0001:00008a2a   870 0001:00008a4a   872 0001:00008a61
   874 0001:00008a78

Line numbers for C:/BUILD_~1/jdk6_21/control/build/WINDOW~2/tmp/deploy/jqs/jqs_plugin/os_utils.obj(c:\program files\microsoft visual studio .net 2003\vc7\include\xstring) segment .text

  1308 0001:00008380  1309 0001:000083a3  1310 0001:000083b5  1223 0001:00008460
  1224 0001:00008483  1225 0001:00008489  1226 0001:000084b6  1229 0001:000084c5
  1230 0001:000084fe  1232 0001:00008509  1233 0001:00008538  1234 0001:00008549
  1235 0001:00008556  1236 0001:00008558  1238 0001:0000855a  1239 0001:0000855f
   481 0001:00008ca0   482 0001:00008cc3   483 0001:00008ccf  1401 0001:00008cf0
  1402 0001:00008d13  1403 0001:00008d35   496 0001:00008d50   497 0001:00008d73
   498 0001:00008d83  1412 0001:00008da0  1413 0001:00008dc3  1414 0001:00008dce
  1415 0001:00008dd6  1416 0001:00008de4  1420 0001:00008df0  1422 0001:00008e4c
  1423 0001:00008e94

Line numbers for C:/BUILD_~1/jdk6_21/control/build/WINDOW~2/tmp/deploy/jqs/jqs_plugin/os_utils.obj(c:\build_area\jdk6_21\deploy\src\jqs\windows\os_utils.hpp) segment .text

    85 0001:00007f60    86 0001:00007fa0    87 0001:00007fc3    88 0001:00007fdc
    90 0001:00007ff9

Line numbers for C:/BUILD_~1/jdk6_21/control/build/WINDOW~2/tmp/deploy/jqs/jqs_plugin/os_utils.obj(c:\build_area\jdk6_21\deploy\src\jqs\windows\os_utils.cpp) segment .text

    28 0001:00006470    29 0001:0000648e    30 0001:000064bc    31 0001:000064c4
    36 0001:000064e0    37 0001:0000651b    38 0001:00006522    39 0001:0000652b
    41 0001:0000654a    44 0001:00006561    45 0001:00006574    51 0001:000065a0
    52 0001:000065db    53 0001:000065e2    54 0001:000065ef    55 0001:00006612
    56 0001:00006614    58 0001:0000663f    60 0001:0000664f    61 0001:00006654
    68 0001:00006680    69 0001:000066bd    71 0001:000066d1    72 0001:000066f8
    73 0001:00006715    76 0001:00006742    77 0001:00006773    82 0001:000067c0
    83 0001:000067fd    86 0001:00006811    87 0001:00006840    88 0001:0000684f
    89 0001:00006875    92 0001:000068a4    93 0001:000068b5    94 0001:000068e6
    95 0001:000068f9    96 0001:0000690b    97 0001:00006911    99 0001:0000692d
   102 0001:0000696c   103 0001:000069a9   108 0001:00006a30   109 0001:00006a58
   110 0001:00006a6b   111 0001:00006a76   113 0001:00006a96   114 0001:00006ac1
   121 0001:00006ae0   122 0001:00006b25   124 0001:00006b3c   125 0001:00006b4f
   126 0001:00006b5a   127 0001:00006b79   129 0001:00006ba5   131 0001:00006bba
   132 0001:00006bec   137 0001:00006c40   138 0001:00006c7d   139 0001:00006c8f
   140 0001:00006c95   141 0001:00006cbb   144 0001:00006cde   145 0001:00006cfa
   146 0001:00006d09   149 0001:00006d0b   150 0001:00006d1c   152 0001:00006d30
   153 0001:00006d5a   154 0001:00006d6d   155 0001:00006d8e   158 0001:00006da2
   159 0001:00006db8   161 0001:00006dea   163 0001:00006e99   165 0001:00006ead
   166 0001:00006ecb   172 0001:00006f30   173 0001:00006f6b   176 0001:00006f7f
   177 0001:00006fa9   178 0001:00006fb8   179 0001:00006fd9   182 0001:00006ffd
   183 0001:0000700f   184 0001:00007022   188 0001:00007046   196 0001:0000706d
   198 0001:00007092   199 0001:00007098   202 0001:000070b9   203 0001:000070d7
   222 0001:00007160   223 0001:0000718c   224 0001:000071a4   225 0001:000071b2
   226 0001:000071c2   227 0001:000071d0   228 0001:000071d2   230 0001:000071e0
   232 0001:00007203   234 0001:00007215   238 0001:00007217   239 0001:0000722f
   240 0001:0000723c   242 0001:00007256   244 0001:00007258   245 0001:00007260
   247 0001:00007275   252 0001:00007290   260 0001:000072c8   262 0001:00007307
   265 0001:0000730e   266 0001:00007328   267 0001:0000732e   268 0001:0000733f
   271 0001:00007346   273 0001:0000735a   277 0001:00007376   279 0001:000073ac
   281 0001:000073b7   282 0001:000073e7   283 0001:000073ed   284 0001:000073fe
   287 0001:0000741f   288 0001:0000744f   289 0001:00007455   290 0001:00007466
   296 0001:00007484   297 0001:000074ba   298 0001:000074bf   299 0001:000074db
   304 0001:00007540   305 0001:00007563   306 0001:0000757b   307 0001:0000758b
   310 0001:0000758d   311 0001:000075a5   312 0001:000075ab   313 0001:000075bc
   318 0001:000075c1   320 0001:000075dd   321 0001:00007605   322 0001:0000760f
   324 0001:0000763e   325 0001:0000764d   328 0001:0000764f   329 0001:0000765e
   333 0001:00007660   334 0001:0000766f   335 0001:00007686   336 0001:00007693
   338 0001:000076a3   341 0001:000076a5   344 0001:000076b6   345 0001:000076b8
   346 0001:000076c5   352 0001:000076d3   353 0001:00007719   354 0001:0000771e
   359 0001:00007770   360 0001:00007793   361 0001:000077be   362 0001:000077c8
   370 0001:000077e0   373 0001:000077fe   374 0001:0000781e   379 0001:00007840
   380 0001:0000785e   382 0001:0000788c   383 0001:00007895   385 0001:0000789f
   386 0001:000078a8   387 0001:000078b5   390 0001:000078b7   392 0001:000078dc
   394 0001:000078f9   399 0001:00007910   400 0001:0000792e   402 0001:0000795c
   403 0001:00007965   404 0001:00007972   407 0001:00007977   409 0001:00007980
   410 0001:0000798c   413 0001:0000799d   414 0001:000079ae   416 0001:000079bd
   419 0001:000079bf   422 0001:000079db   426 0001:00007a02   428 0001:00007a2c
   433 0001:00007a70   434 0001:00007aad   437 0001:00007ad8   439 0001:00007afc
   442 0001:00007b12   445 0001:00007b45   446 0001:00007b66   449 0001:00007b8e
   450 0001:00007bbf   455 0001:00007c10   459 0001:00007c4b   460 0001:00007c76
   461 0001:00007c8c   465 0001:00007c93   466 0001:00007cbc   469 0001:00007cc3
   472 0001:00007cd6   475 0001:00007ce7   477 0001:00007cee   479 0001:00007d1f
   482 0001:00007d21   483 0001:00007d35   485 0001:00007d62   486 0001:00007d6a
   487 0001:00007d76   489 0001:00007d7b   493 0001:00007d88   497 0001:00007da0
   499 0001:00007dd0   505 0001:00007dfd   506 0001:00007e01   507 0001:00007e29
   508 0001:00007e4e   509 0001:00007e52   511 0001:00007e54   514 0001:00007e56
   516 0001:00007e69   517 0001:00007e93   523 0001:00008010   524 0001:0000804b
   525 0001:0000805e   526 0001:00008069   529 0001:00008070   531 0001:000080c7
   532 0001:000080e5   533 0001:00008102   535 0001:00008120   537 0001:00008122
   538 0001:0000813e   554 0001:00008190   555 0001:000081ae   556 0001:000081bf
   561 0001:000081e0   562 0001:00008208   564 0001:0000820f   566 0001:00008221
   567 0001:0000823b   568 0001:0000824a   570 0001:00008271   571 0001:00008273
   572 0001:0000827e   573 0001:00008298   574 0001:000082a7   576 0001:000082ce
   577 0001:000082d0   578 0001:000082ef   583 0001:00008310   584 0001:0000832e
   585 0001:0000835c   586 0001:00008361

Line numbers for C:/BUILD_~1/jdk6_21/control/build/WINDOW~2/tmp/deploy/jqs/jqs_plugin/print.obj(c:\program files\microsoft visual studio .net 2003\vc7\include\xstring) segment .text

  1147 0001:00006430  1148 0001:00006453  1149 0001:00006461

Line numbers for C:/BUILD_~1/jdk6_21/control/build/WINDOW~2/tmp/deploy/jqs/jqs_plugin/print.obj(c:\build_area\jdk6_21\deploy\src\jqs\windows\os_utils.hpp) segment .text

   101 0001:00005a70   102 0001:00005ab0   103 0001:00005ad3   104 0001:00005aeb
   105 0001:00005af1   107 0001:00005b02

Line numbers for C:/BUILD_~1/jdk6_21/control/build/WINDOW~2/tmp/deploy/jqs/jqs_plugin/print.obj(c:\build_area\jdk6_21\deploy\src\jqs\windows\print.cpp) segment .text

    56 0001:00005820    63 0001:0000585b    68 0001:00005862    69 0001:00005892
    70 0001:00005898    71 0001:000058ad    74 0001:000058b2    78 0001:000058c5
    85 0001:000058d7    87 0001:0000590b    88 0001:00005911    89 0001:00005922
    95 0001:00005942   102 0001:00005949   104 0001:0000596e   105 0001:00005974
   106 0001:00005985   109 0001:000059a2   110 0001:000059a9   115 0001:00005b20
   122 0001:00005b53   124 0001:00005b7a   125 0001:00005b80   127 0001:00005b86
   129 0001:00005b9a   131 0001:00005b9c   133 0001:00005bb2   136 0001:00005bb7
   138 0001:00005bca   139 0001:00005be5   140 0001:00005beb   142 0001:00005bf1
   144 0001:00005c0a   146 0001:00005c0c   148 0001:00005c27   150 0001:00005c38
   218 0001:00005cb0   219 0001:00005cce   220 0001:00005ce7   221 0001:00005cf0
   222 0001:00005d08   224 0001:00005d12   225 0001:00005d21   226 0001:00005d46
   227 0001:00005d4f   228 0001:00005d63   231 0001:00005d90   282 0001:00005db0
   283 0001:00005de3   286 0001:00005df7   287 0001:00005dfd   288 0001:00005e2e
   290 0001:00005e35   291 0001:00005e4a   236 0001:00005ea0   237 0001:00005ec6
   238 0001:00005ecd   240 0001:00005ed1   242 0001:00005ef7   243 0001:00005efe
   244 0001:00005f02   247 0001:00005f04   248 0001:00005f0b   249 0001:00005f1a
   252 0001:00005f1c   256 0001:00005f23   257 0001:00005f30   258 0001:00005f47
   260 0001:00005f60   261 0001:00005f73   263 0001:00005f94   264 0001:00005fbd
   267 0001:00005fd5   268 0001:00005feb   269 0001:00005ff3   272 0001:00006003
   273 0001:00006005   274 0001:0000602e   276 0001:00006049   155 0001:000060a0
   158 0001:000060be   160 0001:000060e4   161 0001:000060ea   164 0001:000060ec
   165 0001:000060f2   168 0001:000060f4   172 0001:000060fa   173 0001:00006113
   174 0001:00006119   175 0001:00006120   176 0001:0000613d   179 0001:00006142
   189 0001:00006148   191 0001:00006177   192 0001:00006189   193 0001:00006190
   194 0001:00006199   195 0001:000061a6   196 0001:000061a8   200 0001:000061b9
   201 0001:000061d0   202 0001:000061d7   204 0001:000061f4   298 0001:00006240
   299 0001:00006273   302 0001:00006287   303 0001:0000628d   304 0001:000062be
   306 0001:000062c5   307 0001:000062da   314 0001:00006330   315 0001:00006363
   316 0001:0000636d   319 0001:0000636f   322 0001:00006383   323 0001:00006389
   324 0001:000063ba   326 0001:000063c1   327 0001:000063d6

Line numbers for C:/BUILD_~1/jdk6_21/control/build/WINDOW~2/tmp/deploy/jqs/jqs_plugin/sockets.obj(c:\program files\microsoft visual studio .net 2003\vc7\include\new) segment .text

    63 0001:000057f0    64 0001:0000580e    65 0001:00005811

Line numbers for C:/BUILD_~1/jdk6_21/control/build/WINDOW~2/tmp/deploy/jqs/jqs_plugin/sockets.obj(c:\program files\microsoft visual studio .net 2003\vc7\include\iterator) segment .text

   294 0001:00005050   295 0001:0000506e   296 0001:00005094   323 0001:00005310
   324 0001:0000532e   325 0001:0000533a

Line numbers for C:/BUILD_~1/jdk6_21/control/build/WINDOW~2/tmp/deploy/jqs/jqs_plugin/sockets.obj(c:\program files\microsoft visual studio .net 2003\vc7\include\memory) segment .text

   255 0001:00004930   257 0001:0000494e   258 0001:00004983   236 0001:00004de0
   237 0001:00004dfe   238 0001:00004e12   126 0001:00005230   128 0001:0000524e
   129 0001:00005283   126 0001:000052a0   128 0001:000052be   129 0001:000052f3
   105 0001:00005550   106 0001:0000556e   108 0001:00005577   109 0001:00005598
    77 0001:000055b0    78 0001:000055e7    80 0001:000055ed    81 0001:000055f4
    82 0001:00005624    84 0001:00005649    85 0001:0000565c    86 0001:0000566a
    87 0001:00005673    88 0001:0000567a    89 0001:0000567d

Line numbers for C:/BUILD_~1/jdk6_21/control/build/WINDOW~2/tmp/deploy/jqs/jqs_plugin/sockets.obj(c:\program files\microsoft visual studio .net 2003\vc7\include\xutility) segment .text

   258 0001:000048d0   260 0001:000048ee   261 0001:000048f1   201 0001:000049a0
   203 0001:000049be   204 0001:000049c1   497 0001:00004f30   498 0001:00004f4e
   499 0001:00004f78  1039 0001:000050b0  1040 0001:000050ce  1041 0001:000050ff
  1067 0001:00005120  1069 0001:0000513e  1070 0001:0000516f  1159 0001:00005190
  1160 0001:000051ae  1161 0001:000051c8  1162 0001:000051d4   478 0001:000051e0
   481 0001:000051fe   482 0001:00005214   211 0001:00005350   213 0001:0000536e
   214 0001:00005371  1020 0001:000053b0  1021 0001:000053ce  1022 0001:000053f4
  1023 0001:00005405  1024 0001:00005408  1058 0001:00005420  1059 0001:0000543e
  1061 0001:00005447  1062 0001:00005468

Line numbers for C:/BUILD_~1/jdk6_21/control/build/WINDOW~2/tmp/deploy/jqs/jqs_plugin/sockets.obj(c:\program files\microsoft visual studio .net 2003\vc7\include\xmemory) segment .text

   216 0001:00004860   217 0001:0000487e   218 0001:000048af   233 0001:00004db0
   234 0001:00004dce   146 0001:000056a0   147 0001:000056c3   148 0001:000056d3
   151 0001:000056f0   152 0001:00005713   153 0001:0000571f    54 0001:00005740
    55 0001:0000575e    41 0001:00005770    42 0001:0000578e    43 0001:000057d0

Line numbers for C:/BUILD_~1/jdk6_21/control/build/WINDOW~2/tmp/deploy/jqs/jqs_plugin/sockets.obj(c:\program files\microsoft visual studio .net 2003\vc7\include\xstring) segment .text

  1093 0001:000046b0  1094 0001:000046d3  1095 0001:000046db

Line numbers for C:/BUILD_~1/jdk6_21/control/build/WINDOW~2/tmp/deploy/jqs/jqs_plugin/sockets.obj(c:\program files\microsoft visual studio .net 2003\vc7\include\stdexcept) segment .text

    95 0001:000043c0    96 0001:000043f8    19 0001:00004420    20 0001:00004489
    26 0001:000044c0    27 0001:000044e3    28 0001:000044ee    23 0001:00004570
    99 0001:00004600

Line numbers for C:/BUILD_~1/jdk6_21/control/build/WINDOW~2/tmp/deploy/jqs/jqs_plugin/sockets.obj(c:\program files\microsoft visual studio .net 2003\vc7\include\vector) segment .text

   311 0001:00003a70   312 0001:00003aa3   313 0001:00003abd   387 0001:00003ae0
   388 0001:00003b03   389 0001:00003b0b   462 0001:00003b20   463 0001:00003b43
   464 0001:00003b55   472 0001:00003b70   473 0001:00003b93   474 0001:00003ba5
   515 0001:00003bc0   516 0001:00003be3   517 0001:00003c10   549 0001:00003c20
   550 0001:00003c43   551 0001:00003c6b   554 0001:00003c90   555 0001:00003cb3
   556 0001:00003cdb   261 0001:00003d00   262 0001:00003d23   263 0001:00003d2b
   264 0001:00003d41   374 0001:00003d90   375 0001:00003dcc   377 0001:00003ddf
   378 0001:00003de6   380 0001:00003e11   381 0001:00003e19   382 0001:00003e22
   384 0001:00003e29   467 0001:00003e50   468 0001:00003e73   469 0001:00003e85
   791 0001:00003ea0   792 0001:00003ec3   794 0001:00003ecc   795 0001:00003ee2
   797 0001:00003efe   798 0001:00003f1c    21 0001:00003f30    22 0001:00003f5f
   215 0001:00003f80   216 0001:00003faf   219 0001:00003fd0   220 0001:00003ff3
   221 0001:00003ffb   255 0001:00004010   256 0001:00004033   257 0001:00004040
   258 0001:00004043    79 0001:00004050    82 0001:00004073    83 0001:00004078
   123 0001:00004080   124 0001:000040a3   125 0001:000040ab   126 0001:000040c1
   770 0001:00004110   771 0001:00004133   772 0001:00004151   773 0001:00004157
   774 0001:0000415b   775 0001:00004168   776 0001:00004170   778 0001:00004172
   779 0001:00004184   780 0001:00004190   782 0001:0000419f   783 0001:000041a1
   786 0001:000041c0   787 0001:000041e3   788 0001:000041f7   877 0001:00004210
   878 0001:00004233   879 0001:0000424b   880 0001:00004251    73 0001:00004270
    75 0001:00004293    76 0001:0000429b   117 0001:000042b0   118 0001:000042d3
   119 0001:000042e0   120 0001:000042e3   520 0001:000042f0   521 0001:00004313
   522 0001:0000431b   883 0001:00004330   884 0001:00004368   885 0001:000043a2
   632 0001:000047f0   634 0001:00004813   635 0001:00004841   653 0001:00004a00
   656 0001:00004a3c   657 0001:00004a43   658 0001:00004a57   660 0001:00004a62
   662 0001:00004a68   663 0001:00004a86   664 0001:00004a8e   667 0001:00004aa7
   668 0001:00004ade   669 0001:00004aee   670 0001:00004afc   671 0001:00004b0b
   673 0001:00004b11   675 0001:00004b18   676 0001:00004b3e   677 0001:00004b61
   679 0001:00004b7a   680 0001:00004b8a   681 0001:00004b9a   682 0001:00004ba3
   684 0001:00004baa   685 0001:00004bb8   687 0001:00004bc1   688 0001:00004bd7
   690 0001:00004bf3   691 0001:00004bff   692 0001:00004c0b   694 0001:00004c14
   697 0001:00004c3c   698 0001:00004c56   699 0001:00004c5c   701 0001:00004c83
   702 0001:00004c8a   704 0001:00004ca3   705 0001:00004cbc   706 0001:00004cc5
   708 0001:00004ccc   709 0001:00004cdb   711 0001:00004cef   713 0001:00004cf1
   715 0001:00004cfa   717 0001:00004d1a   718 0001:00004d31   720 0001:00004d45
   457 0001:00004e30   458 0001:00004e53   459 0001:00004e80   278 0001:00004e90
   279 0001:00004eb3   280 0001:00004ecd   140 0001:00004ef0   143 0001:00004f13
   144 0001:00004f1d   801 0001:00004f90   804 0001:00004fb3   805 0001:00004fcb
   801 0001:00004ff0   804 0001:00005013   805 0001:0000502b   229 0001:00005480
   230 0001:000054a3   231 0001:000054b0   232 0001:000054b3   159 0001:000054c0
   160 0001:000054e3   161 0001:000054f7   152 0001:00005510   155 0001:00005533
   156 0001:00005542

Line numbers for C:/BUILD_~1/jdk6_21/control/build/WINDOW~2/tmp/deploy/jqs/jqs_plugin/sockets.obj(c:\build_area\jdk6_21\deploy\src\jqs\windows\sockets.hpp) segment .text

    53 0001:00001f70    68 0001:00002280    48 0001:000027f0   263 0001:00003640
   324 0001:00003a20

Line numbers for C:/BUILD_~1/jdk6_21/control/build/WINDOW~2/tmp/deploy/jqs/jqs_plugin/sockets.obj(c:\build_area\jdk6_21\deploy\src\jqs\windows\sockets.cpp) segment .text

    14 0001:00001de0    18 0001:00001e06    19 0001:00001e27    20 0001:00001e30
    22 0001:00001e44    28 0001:00001e90    29 0001:00001eae    30 0001:00001ebd
    39 0001:00001ee0    40 0001:00001f0c    41 0001:00001f21    42 0001:00001f2a
    44 0001:00001f4b    46 0001:000020d0    47 0001:000020fc    48 0001:00002112
    53 0001:00002130    54 0001:00002153    55 0001:00002159    63 0001:00002160
    65 0001:00002183    71 0001:000021aa    72 0001:000021cd    74 0001:000021ed
    76 0001:000021ef    78 0001:0000220b    81 0001:0000222c    82 0001:00002246
    84 0001:00002267    91 0001:00002360    92 0001:00002383    93 0001:0000239d
    95 0001:000023be   101 0001:000023e0   102 0001:00002403   103 0001:0000241d
   105 0001:0000243e   115 0001:00002460   116 0001:000024ba   117 0001:000024d5
   118 0001:000024de   120 0001:000024ff   121 0001:00002509   130 0001:000025a0
   131 0001:00002603   132 0001:0000260c   134 0001:0000262d   135 0001:00002637
   140 0001:00002670   141 0001:0000269c   142 0001:000026b2   149 0001:000026e0
   152 0001:00002703   153 0001:00002722   154 0001:00002728   155 0001:0000273e
   157 0001:0000275a   159 0001:0000277b   165 0001:000028d0   167 0001:000028f3
   168 0001:00002911   169 0001:00002917   171 0001:00002938   177 0001:00002950
   178 0001:00002990   179 0001:000029a1   182 0001:000029bd   185 0001:000029c4
   186 0001:000029e5   187 0001:000029eb   189 0001:00002a0c   190 0001:00002a25
   195 0001:00002a38   196 0001:00002a59   198 0001:00002a7a   199 0001:00002ad4
   205 0001:00002b40   208 0001:00002b63   209 0001:00002b82   210 0001:00002b88
   212 0001:00002b9e   214 0001:00002bba   216 0001:00002bdb   223 0001:00002ce0
   224 0001:00002d03   225 0001:00002d14   229 0001:00002d30   230 0001:00002d53
   231 0001:00002d59   233 0001:00002d7a   241 0001:00002d90   242 0001:00002db3
   243 0001:00002dc4   247 0001:00002de0   248 0001:00002e03   249 0001:00002e09
   251 0001:00002e2a   252 0001:00002e30   254 0001:00002e4c   255 0001:00002e4f
   261 0001:00002f50   262 0001:00002f73   263 0001:00002f7a   264 0001:00002f9b
   265 0001:00002fa1   267 0001:00002fc2   274 0001:00003010   275 0001:00003033
   276 0001:00003046   284 0001:00003060   286 0001:00003083   287 0001:00003091
   288 0001:000030a5   291 0001:000030ba   292 0001:000030c4   294 0001:00003143
   295 0001:0000315b   297 0001:00003173   298 0001:0000319e   299 0001:000031b9
   301 0001:000031da   302 0001:000031e6   309 0001:00003240   310 0001:00003263
   311 0001:0000328c   312 0001:00003292   314 0001:000032b3   321 0001:000032d0
   322 0001:000032f3   323 0001:000032fc   335 0001:00003310   336 0001:00003333
   337 0001:0000333e   338 0001:00003349   339 0001:0000335c   342 0001:0000336b
   343 0001:00003376   344 0001:0000337d   346 0001:00003399   352 0001:00003490
   353 0001:000034b3   354 0001:000034ba   355 0001:000034c5   363 0001:000034e0
   366 0001:00003538   367 0001:0000353e   368 0001:00003555   371 0001:0000356d
   374 0001:00003579   375 0001:00003583   383 0001:00003690   385 0001:000036e4
   386 0001:000036ee   393 0001:00003720   394 0001:00003743   395 0001:0000375f
   406 0001:00003780   407 0001:000037b8   408 0001:000037bf   409 0001:000037d3
   412 0001:000037e0   414 0001:000037f4   415 0001:00003844   423 0001:000038b0
   425 0001:00003908   426 0001:0000390e   427 0001:00003925   429 0001:0000393d
   430 0001:00003949   433 0001:00003951   434 0001:0000395b

Line numbers for C:/BUILD_~1/jdk6_21/control/build/WINDOW~2/tmp/deploy/jqs/jqs_plugin/thread.obj(c:\build_area\jdk6_21\deploy\src\jqs\windows\thread.cpp) segment .text

    37 0001:00001a80    40 0001:00001b20    41 0001:00001b4c    42 0001:00001b55
    43 0001:00001b6b    45 0001:00001b75    50 0001:00001b90    58 0001:00001bb3
    60 0001:00001bde    61 0001:00001be7    62 0001:00001c19    65 0001:00001c1d
    66 0001:00001c1f    19 0001:00001c70    20 0001:00001cab    21 0001:00001cb2
    22 0001:00001cb8    23 0001:00001ccb    25 0001:00001ce8    26 0001:00001cf8
    28 0001:00001d09    29 0001:00001d0b    71 0001:00001d60    72 0001:00001d83
    73 0001:00001d9e    74 0001:00001da4    76 0001:00001dc1

Line numbers for C:/BUILD_~1/jdk6_21/control/build/WINDOW~2/tmp/deploy/jqs/jqs_plugin/utils.obj(c:\program files\microsoft visual studio .net 2003\vc7\include\xlocale) segment .text

    66 0001:00001a40    67 0001:00001a6b

Line numbers for C:/BUILD_~1/jdk6_21/control/build/WINDOW~2/tmp/deploy/jqs/jqs_plugin/utils.obj(c:\program files\microsoft visual studio .net 2003\vc7\include\xlocnum) segment .text

   806 0001:000185f0   806 0001:00018630

Line numbers for C:/BUILD_~1/jdk6_21/control/build/WINDOW~2/tmp/deploy/jqs/jqs_plugin/utils.obj(c:\program files\microsoft visual studio .net 2003\vc7\include\xmemory) segment .text

   111 0001:00001170   113 0001:00001193   115 0001:000011a0   117 0001:000011c3
   131 0001:000011d0   132 0001:000011f3   133 0001:000011ff   136 0001:00001810
   137 0001:00001833   138 0001:00001841   156 0001:00001940   157 0001:00001963
   158 0001:0000196a   159 0001:0000198b    33 0001:000019a0    34 0001:000019be
    35 0001:000019ca

Line numbers for C:/BUILD_~1/jdk6_21/control/build/WINDOW~2/tmp/deploy/jqs/jqs_plugin/utils.obj(c:\program files\microsoft visual studio .net 2003\vc7\include\iosfwd) segment .text

   369 0001:00000690   370 0001:000006ae   371 0001:000006cc   351 0001:00000830
   352 0001:0000084e   353 0001:0000085a   357 0001:00000af0   358 0001:00000b0e
   359 0001:00000b22   363 0001:00000df0   364 0001:00000e0e   365 0001:00000e2f
   330 0001:00000f90   331 0001:00000fae   332 0001:00000fb8

Line numbers for C:/BUILD_~1/jdk6_21/control/build/WINDOW~2/tmp/deploy/jqs/jqs_plugin/utils.obj(c:\program files\microsoft visual studio .net 2003\vc7\include\xstring) segment .text

   323 0001:00000450   324 0001:00000487   325 0001:00000493   326 0001:000004a7
   360 0001:000004c0   361 0001:000004f3   362 0001:000004ff   363 0001:0000050b
   456 0001:00000530   457 0001:00000553   458 0001:0000055f   486 0001:00000580
   487 0001:000005a3   488 0001:000005af   792 0001:000005d0   793 0001:000005f3
   794 0001:000005fe   795 0001:00000606   796 0001:00000614   797 0001:00000620
   800 0001:00000626   801 0001:00000656   802 0001:00000662   804 0001:0000066e
   805 0001:00000671   822 0001:000006e0   823 0001:00000703   824 0001:00000736
  1078 0001:00000750  1079 0001:00000773  1080 0001:0000077e  1103 0001:000007a0
  1104 0001:000007c3  1105 0001:000007c9  1334 0001:000007d0  1335 0001:000007f3
  1336 0001:00000810  1364 0001:00000870  1365 0001:00000893  1366 0001:000008b0
  1374 0001:000008d0  1375 0001:000008fd  1376 0001:00000923   331 0001:00000940
   332 0001:00000973   333 0001:0000097f   334 0001:00000993   537 0001:000009b0
   538 0001:000009d3   539 0001:000009ec   590 0001:00000a10   591 0001:00000a33
   592 0001:00000a40   593 0001:00000a48   594 0001:00000a56   595 0001:00000a5e
   597 0001:00000a64   598 0001:00000a6c   599 0001:00000a8f   601 0001:00000aa6
   602 0001:00000ac7   604 0001:00000ad3   605 0001:00000ad6  1108 0001:00000b40
  1109 0001:00000b63  1110 0001:00000b69   621 0001:00000b70   622 0001:00000b93
   623 0001:00000bac   815 0001:00000bd0   816 0001:00000bf3   817 0001:00000c2c
   818 0001:00000c61   819 0001:00000c78  1024 0001:00000c90  1025 0001:00000cb3
  1026 0001:00000cc7  1034 0001:00000ce0  1035 0001:00000d03  1036 0001:00000d1d
  1321 0001:00000d40  1322 0001:00000d63  1324 0001:00000d6e  1325 0001:00000d7f
  1326 0001:00000da0  1327 0001:00000db8  1328 0001:00000dc9  1329 0001:00000dcb
  1330 0001:00000dd0  1351 0001:00000e50  1352 0001:00000e73  1354 0001:00000e7c
  1355 0001:00000ebd  1356 0001:00000ed5  1357 0001:00000ee6  1358 0001:00000ef3
  1359 0001:00000ef5  1360 0001:00000efc  1474 0001:00000f20  1475 0001:00000f43
  1476 0001:00000f6e  1509 0001:00000fc0  1510 0001:00000fe3  1512 0001:00000feb
  1514 0001:00000ff6  1515 0001:00000fff  1516 0001:00001005  1517 0001:0000101c
  1519 0001:00001032  1520 0001:0000103c  1521 0001:00001048  1531 0001:00001060
  1532 0001:00001083  1533 0001:000010ac  1536 0001:000010c0  1537 0001:000010e3
  1538 0001:0000110c    34 0001:00001120    35 0001:0000114f   521 0001:00001220
   522 0001:00001243   523 0001:00001256   524 0001:00001276   525 0001:00001287
   528 0001:0000128f   530 0001:000012b6   531 0001:000012d5   533 0001:000012e1
   534 0001:000012e4   608 0001:00001300   609 0001:00001323   610 0001:00001336
   612 0001:00001356   614 0001:0000136b   615 0001:00001384   617 0001:00001390
   618 0001:00001393  1480 0001:000013b0  1481 0001:000013d3  1482 0001:000013e0
  1483 0001:000013e8  1484 0001:000013f3  1485 0001:00001406  1487 0001:00001416
  1488 0001:00001449  1489 0001:00001451  1490 0001:0000145b  1491 0001:00001464
  1503 0001:00001480  1504 0001:0000149e  1505 0001:000014c8   227 0001:000014e0
   228 0001:0000150f   502 0001:00001530   503 0001:00001553   504 0001:00001560
   505 0001:00001568   506 0001:00001576   507 0001:0000157e   508 0001:00001584
   509 0001:00001595   511 0001:0000159d   514 0001:000015c4   515 0001:000015eb
   517 0001:000015f7   518 0001:000015fa  1113 0001:00001610  1114 0001:00001633
  1115 0001:0000163e  1116 0001:00001662  1444 0001:00001680  1445 0001:000016bc
  1446 0001:000016c5  1447 0001:000016d2  1448 0001:000016d8  1449 0001:000016da
  1450 0001:0000170c  1453 0001:0000171d  1454 0001:00001724  1455 0001:00001744
  1456 0001:00001747  1457 0001:0000174d  1458 0001:00001751  1460 0001:00001771
  1461 0001:0000177d  1462 0001:00001786  1463 0001:0000178d  1465 0001:0000179c
  1466 0001:000017a2  1467 0001:000017bb  1468 0001:000017c7  1469 0001:000017d0
  1470 0001:000017d9  1471 0001:000017e5  1494 0001:00001860  1495 0001:00001883
  1496 0001:000018a3  1498 0001:000018a7  1499 0001:000018a9    84 0001:000018c0
    86 0001:000018e3    87 0001:000018eb   151 0001:00001900   154 0001:00001923
   155 0001:0000192d   311 0001:000019e0   312 0001:00001a13   313 0001:00001a1f

Line numbers for C:/BUILD_~1/jdk6_21/control/build/WINDOW~2/tmp/deploy/jqs/jqs_plugin/utils.obj(c:\build_area\jdk6_21\deploy\src\jqs\share\utils.cpp) segment .text

    69 0001:00000000    70 0001:0000001e    71 0001:00000031    73 0001:00000040
    74 0001:0000005e    75 0001:0000008d    77 0001:000000b0    78 0001:000000ce
    79 0001:000000f0    84 0001:00000110    85 0001:00000138    86 0001:0000014a
    87 0001:00000155    89 0001:00000176    90 0001:0000018c    91 0001:000001bc
    92 0001:000001e5    97 0001:00000200    98 0001:00000245    99 0001:00000258
   100 0001:00000277   101 0001:000002a9   102 0001:000002ab   103 0001:000002d5
   109 0001:00000330   110 0001:00000356   113 0001:0000035d   116 0001:00000365
   117 0001:0000036c   118 0001:0000038e   119 0001:00000399   120 0001:000003a8
   121 0001:000003b6   123 0001:000003d0   124 0001:000003e8   126 0001:000003ec
   128 0001:000003f7   130 0001:000003fb   132 0001:000003fd   134 0001:00000401
   135 0001:00000406    29 0001:00018500    33 0001:00018550    37 0001:000185a0

Line numbers for C:\PROGRA~1\MICROS~1.NET\VC7\LIB\MSVCRT.lib(F:\VS70Builds\3077\vc\crtbld\crt\src\intel\chkstk.asm) segment .text

    69 0001:000165b0    65 0001:000165b0    70 0001:000165b5    72 0001:000165b7
    73 0001:000165b9    74 0001:000165bb    75 0001:000165be    76 0001:000165c0
    77 0001:000165c1    78 0001:000165c3    79 0001:000165c4    82 0001:000165c5
    83 0001:000165c6    88 0001:000165ca    89 0001:000165d0    91 0001:000165d5
    93 0001:000165d7    94 0001:000165dc    97 0001:000165de    98 0001:000165e0
   100 0001:000165e2   102 0001:000165e4   104 0001:000165e6   105 0001:000165e8
   107 0001:000165eb   109 0001:000165ec

Line numbers for C:\PROGRA~1\MICROS~1.NET\VC7\LIB\MSVCRT.lib(f:\vs70builds\3077\vc\crtbld\crt\src\atonexit.c) segment .text

    81 0001:000163c0    76 0001:000163c0    90 0001:000163e5    96 0001:000163e6
    95 0001:000163e6    97 0001:000163f7

Line numbers for C:\PROGRA~1\MICROS~1.NET\VC7\LIB\MSVCRT.lib(f:\vs70builds\3077\vc\crtbld\crt\src\crtdll.c) segment .text

   134 0001:0001667a   129 0001:0001667a   135 0001:00016682   136 0001:0001668a
   158 0001:00016690   163 0001:000166a3   168 0001:000166b8   170 0001:000166bc
   172 0001:000166bf   178 0001:000166c9   179 0001:000166ce   184 0001:000166d8
   189 0001:000166e9   192 0001:000166f0   219 0001:000166f6   220 0001:000166ff
   225 0001:00016701   226 0001:0001670d   234 0001:00016723   236 0001:0001672a
   234 0001:00016731   240 0001:00016732   241 0001:00016735   249 0001:00016738
   250 0001:00016744   252 0001:0001674a   257 0001:0001674f   258 0001:0001675c
   260 0001:00016762   262 0001:0001676b   263 0001:00016774   265 0001:00016780
   266 0001:00016789   268 0001:00016798   269 0001:0001679a   272 0001:0001679c
   275 0001:000167ac   283 0001:000167b5   286 0001:000167bf   288 0001:000167c8
   289 0001:000167d6   291 0001:000167d9   292 0001:000167e7   298 0001:000167f5
   294 0001:000167fa   295 0001:00016812   299 0001:00016814

Line numbers for C:\PROGRA~1\MICROS~1.NET\VC7\LIB\MSVCRT.lib(f:\vs70builds\3077\vc\crtbld\crt\src\ti_inst.cpp) segment .text

    17 0001:0001641c    18 0001:00016424    21 0001:00016472    23 0001:00016474

Line numbers for C:\PROGRA~1\MICROS~1.NET\VC7\LIB\MSVCRT.lib(F:\VS70Builds\3077\vc\crtbld\crt\src\intel\llmul.asm) segment .text

    62 0001:00016290    47 0001:00016290    63 0001:00016294    64 0001:00016298
    65 0001:0001629a    66 0001:0001629e    68 0001:000162a0    69 0001:000162a4
    71 0001:000162a6    74 0001:000162a9    81 0001:000162aa    82 0001:000162ac
    84 0001:000162ae    85 0001:000162b2    86 0001:000162b6    88 0001:000162b8
    89 0001:000162bc    90 0001:000162be    92 0001:000162c0    94 0001:000162c1

Line numbers for C:\PROGRA~1\MICROS~1.NET\VC7\LIB\MSVCRT.lib(f:\vs70builds\3077\vc\crtbld\crt\src\secchk.c) segment .text

   114 0001:00016344   116 0001:00016350   117 0001:00016354   119 0001:00016361
   123 0001:0001636c   100 0001:00016375   103 0001:00016375   104 0001:0001637b
   105 0001:0001637d   107 0001:0001637e

Line numbers for C:\PROGRA~1\MICROS~1.NET\VC7\LIB\MSVCRT.lib(f:\vs70builds\3077\vc\crtbld\crt\src\seccinit.c) segment .text

    49 0001:00016e27    58 0001:00016e2d    67 0001:00016e3e    70 0001:00016e48
    75 0001:00016e4e    76 0001:00016e56    77 0001:00016e5e    79 0001:00016e66
    93 0001:00016e70    94 0001:00016e8b

Line numbers for C:\PROGRA~1\MICROS~1.NET\VC7\LIB\MSVCRT.lib(F:\VS70Builds\3077\vc\crtbld\crt\src\intel\ulldiv.asm) segment .text

    46 0001:000162d0    44 0001:000162d0    47 0001:000162d1    81 0001:000162d2
    82 0001:000162d6    83 0001:000162d8    84 0001:000162da    85 0001:000162de
    86 0001:000162e2    87 0001:000162e4    88 0001:000162e6    89 0001:000162e8
    90 0001:000162ec    91 0001:000162ee    92 0001:000162f0    99 0001:000162f2
   100 0001:000162f4   101 0001:000162f8   102 0001:000162fc   104 0001:00016300
   105 0001:00016302   106 0001:00016304   107 0001:00016306   108 0001:00016308
   109 0001:0001630a   110 0001:0001630c   111 0001:0001630e   120 0001:00016310
   121 0001:00016314   122 0001:00016316   123 0001:0001631a   124 0001:0001631c
   125 0001:0001631e   133 0001:00016320   134 0001:00016324   135 0001:00016326
   136 0001:00016328   137 0001:0001632c   139 0001:0001632e   141 0001:0001632f
   142 0001:00016331   151 0001:00016333   152 0001:00016334   154 0001:00016335

Line numbers for C:\PROGRA~1\MICROS~1.NET\VC7\LIB\libcpmt.lib(f:\vs70builds\3077\vc\crtbld\crt\src\string.cpp) segment .text

    12 0001:0001779d    13 0001:000177aa     7 0001:000177f5     8 0001:00017802

Line numbers for C:\PROGRA~1\MICROS~1.NET\VC7\LIB\libcpmt.lib(f:\vs70builds\3077\vc\crtbld\crt\src\stdexcept) segment .text

   118 0001:0001775e   119 0001:00017770   122 0001:00017792

Line numbers for C:\PROGRA~1\MICROS~1.NET\VC7\ATLMFC\LIB\atls.lib(f:\vs70builds\3077\vc\mfcatl\ship\atlmfc\include\atlbase.h) segment .text

  2602 0001:0001876f

Line numbers for C:\PROGRA~1\MICROS~1.NET\VC7\ATLMFC\LIB\atls.lib(f:\vs70builds\3077\vc\mfcatl\ship\atlmfc\src\atl\atls\atlbase.cpp) segment .text

    67 0001:0001791e    68 0001:00017921    69 0001:0001792b    84 0001:00017934
    85 0001:0001793d    86 0001:00017941    92 0001:0001794b    94 0001:00017959
   100 0001:00017970   101 0001:0001797d    96 0001:00017981   103 0001:0001798d
   104 0001:00017995   105 0001:00017998   111 0001:000179a2   116 0001:000179b4
   118 0001:000179b8   121 0001:000179bd   113 0001:000179cc   122 0001:000179d7
    29 0001:00017a26    32 0001:00017a41    36 0001:00017a46    38 0001:00017a69
    39 0001:00017a7a    41 0001:00017a80    46 0001:00017a86    49 0001:00017a8e
    51 0001:00017a9c    58 0001:00017aa0    62 0001:00017aba    64 0001:00017ac1
    72 0001:00017ad1    73 0001:00017ada    74 0001:00017add    80 0001:00017ae7
    81 0001:00017b08   126 0001:00018759

Line numbers for C:\PROGRA~1\MICROS~1.NET\VC7\ATLMFC\LIB\atls.lib(f:\vs70builds\3077\vc\mfcatl\ship\atlmfc\include\atlsimpcoll.h) segment .text

    97 0001:00017835   136 0001:00017842   135 0001:00017842   137 0001:00017845
   162 0001:00017846   164 0001:00017846   167 0001:00017858   168 0001:0001785f
   169 0001:0001787b   170 0001:0001787e   165 0001:00017883   171 0001:00017886
   173 0001:00017889   174 0001:0001788c   178 0001:00017892   179 0001:00017898
   181 0001:0001789c   182 0001:000178a0   183 0001:000178a5   230 0001:000178a6
   231 0001:000178b0   233 0001:000178b3   235 0001:000178b3   236 0001:000178b7
   101 0001:000178b8   100 0001:000178b8   196 0001:000178bd   194 0001:000178bd
   200 0001:000178ca   201 0001:000178cf   247 0001:000178e4   246 0001:000178e4
   248 0001:000178f9   139 0001:000179db   140 0001:000179de   143 0001:000179e9
   144 0001:000179f5   145 0001:00017a02   147 0001:00017a08   148 0001:00017a0b
   150 0001:00017a0d   151 0001:00017a1b   152 0001:00017a1e   153 0001:00017a23

Line numbers for C:\PROGRA~1\MICROS~1.NET\VC7\ATLMFC\LIB\atls.lib(f:\vs70builds\3077\vc\mfcatl\ship\atlmfc\src\atl\atls\atlcommodule.cpp) segment .text

    20 0001:00018785

Line numbers for C:\PROGRA~1\MICROS~1.NET\VC7\ATLMFC\LIB\atls.lib(f:\vs70builds\3077\vc\mfcatl\ship\atlmfc\include\atlbase.h) segment .text

  2272 0001:00017b0c  2273 0001:00017b0f  2276 0001:00017b15  2278 0001:00017b1e
  2281 0001:00017b24  2282 0001:00017b2b  2283 0001:00017b31  2276 0001:00017b35
  2286 0001:00017b3e  2290 0001:00017b48  2291 0001:00017b4d  2248 0001:00017b5d
  2257 0001:00017b6b  2261 0001:00017b91  2263 0001:00017b99  2267 0001:00017b9d
  2266 0001:00017b9d  2602 0001:0001879b

 Exports

  ordinal    name

        1    _DllCanUnloadNow@0
               exported name: DllCanUnloadNow
        2    _DllGetClassObject@12
               exported name: DllGetClassObject
        3    _DllRegisterServer@0
               exported name: DllRegisterServer
        4    _DllUnregisterServer@0
               exported name: DllUnregisterServer
