 jvm

 Timestamp is 4cfaba45 (Sat Dec 04 14:01:41 2010)

 Preferred load address is 08000000

 Start         Length     Name                   Class
 0001:00000000 002046caH .text                   CODE
 0001:002046d0 00000f7dH .text$yc                CODE
 0001:00205650 00000274H .text$yd                CODE
 0002:00000000 000002d4H .idata$5                DATA
 0002:000002e0 00049618H .rdata                  DATA
 0002:000498f8 0000007cH .rdata$debug            DATA
 0002:00049974 000000a4H .rdata$r                DATA
 0002:00049a20 00000004H .rdata$sxdata           DATA
 0002:00049a24 00000004H .rtc$IAA                DATA
 0002:00049a28 00000004H .rtc$IZZ                DATA
 0002:00049a2c 00000004H .rtc$TAA                DATA
 0002:00049a30 00000004H .rtc$TZZ                DATA
 0002:00049a34 00000054H .xdata$x                DATA
 0002:00049a88 00000064H .idata$2                DATA
 0002:00049aec 00000014H .idata$3                DATA
 0002:00049b00 000002d4H .idata$4                DATA
 0002:00049dd4 00000ab8H .idata$6                DATA
 0002:0004a890 0000aab3H .edata                  DATA
 0003:00000000 00000004H .CRT$XCA                DATA
 0003:00000004 00000084H .CRT$XCU                DATA
 0003:00000088 00000004H .CRT$XCZ                DATA
 0003:0000008c 00000004H .CRT$XIA                DATA
 0003:00000090 00000004H .CRT$XIZ                DATA
 0003:000000a0 0000d61cH .data                   DATA
 0003:0000d6c0 00014680H .bss                    DATA
 0004:00000000 00000058H .rsrc$01                DATA
 0004:00000060 00000328H .rsrc$02                DATA

  Address         Publics by Value              Rva+Base     Lib:Object

 0000:00000000       __except_list              00000000     <absolute>
 0000:00000001       ___safe_se_handler_count   00000001     <absolute>
 0000:00009876       __ldused                   00009876     <absolute>
 0000:00009876       __fltused                  00009876     <absolute>
 0001:00000000       ?write_memory_serialize_page@os@@SAXPAVJavaThread@@@Z 08001000 f i abstractCompiler.obj
 0001:00000020       ?fence@OrderAccess@@SAXXZ  08001020 f i abstractCompiler.obj
 0001:00000030       ??0MutexLocker@@QAE@PAVMonitor@@PAVThread@@@Z 08001030 f i abstractCompiler.obj
 0001:00000050       ?serialize_memory@InterfaceSupport@@SAXPAVJavaThread@@@Z 08001050 f i abstractCompiler.obj
 0001:000000b0       ?transition_and_fence@ThreadStateTransition@@SAXPAVJavaThread@@W4JavaThreadState@@1@Z 080010b0 f i abstractCompiler.obj
 0001:00000110       ?transition_from_native@ThreadStateTransition@@SAXPAVJavaThread@@W4JavaThreadState@@@Z 08001110 f i abstractCompiler.obj
 0001:00000180       ??0ThreadInVMfromNative@@QAE@PAVJavaThread@@@Z 08001180 f i abstractCompiler.obj
 0001:000001a0       ??1ThreadInVMfromNative@@QAE@XZ 080011a0 f i abstractCompiler.obj
 0001:000001b0       ?initialize_runtimes@AbstractCompiler@@IAEXP6AXXZPCH@Z 080011b0 f   abstractCompiler.obj
 0001:00000280       ?atomic_set_bits@AccessFlags@@QAEXH@Z 08001280 f   accessFlags.obj
 0001:000002d0       ?atomic_clear_bits@AccessFlags@@QAEXH@Z 080012d0 f   accessFlags.obj
 0001:00000330       ?eden_decrement@AdaptiveSizePolicy@@MAEII@Z 08001330 f   adaptiveSizePolicy.obj
 0001:00000330       ?eden_decrement@PSAdaptiveSizePolicy@@EAEII@Z 08001330 f   psAdaptiveSizePolicy.obj
 0001:00000350       ?promo_decrement@AdaptiveSizePolicy@@MAEII@Z 08001350 f   adaptiveSizePolicy.obj
 0001:00000350       ?promo_decrement@PSAdaptiveSizePolicy@@EAEII@Z 08001350 f   psAdaptiveSizePolicy.obj
 0001:00000370       ?time_since_major_gc@AdaptiveSizePolicy@@MBENXZ 08001370 f   adaptiveSizePolicy.obj
 0001:000003a0       ??0AdaptiveSizePolicy@@QAE@IIINI@Z 080013a0 f   adaptiveSizePolicy.obj
 0001:00000660       ?major_gc_interval_average_for_decay@AdaptiveSizePolicy@@MBENXZ 08001660 f i adaptiveSizePolicy.obj
 0001:00000670       ?mutator_cost@AdaptiveSizePolicy@@MBENXZ 08001670 f i adaptiveSizePolicy.obj
 0001:00000680       ?minor_pause_old_estimator@AdaptiveSizePolicy@@UBEPAVLinearLeastSquareFit@@XZ 08001680 f i adaptiveSizePolicy.obj
 0001:00000680       ?first_waiter@ObjectMonitor@@QAEPAVObjectWaiter@@XZ 08001680 f i synchronizer.obj
 0001:00000690       ?minor_collection_begin@AdaptiveSizePolicy@@UAEXXZ 08001690 f   adaptiveSizePolicy.obj
 0001:000006d0       ?minor_collection_end@AdaptiveSizePolicy@@UAEXW4Cause@GCCause@@@Z 080016d0 f   adaptiveSizePolicy.obj
 0001:00000800       ?clear_generation_free_space_flags@AdaptiveSizePolicy@@MAEXXZ 08001800 f   adaptiveSizePolicy.obj
 0001:00000830       ?print_adaptive_size_policy_on@AdaptiveSizePolicy@@UBE_NPAVoutputStream@@@Z 08001830 f   adaptiveSizePolicy.obj
 0001:00000970       ?print_adaptive_size_policy_on@AdaptiveSizePolicy@@QBE_NPAVoutputStream@@H@Z 08001970 f   adaptiveSizePolicy.obj
 0001:000009e0       ?major_gc_cost@AdaptiveSizePolicy@@IBENXZ 080019e0 f i adaptiveSizePolicy.obj
 0001:00000a00       ?minor_gc_cost@AdaptiveSizePolicy@@IBENXZ 08001a00 f i adaptiveSizePolicy.obj
 0001:00000a20       ?gc_cost@AdaptiveSizePolicy@@MBENXZ 08001a20 f i adaptiveSizePolicy.obj
 0001:00000a80       ?decaying_major_gc_cost@AdaptiveSizePolicy@@IBENXZ 08001a80 f   adaptiveSizePolicy.obj
 0001:00000b30       ?decaying_gc_cost@AdaptiveSizePolicy@@IBENXZ 08001b30 f   adaptiveSizePolicy.obj
 0001:00000c00       ??0MutexLocker@@QAE@PAVMonitor@@@Z 08001c00 f i adjoiningGenerations.obj
 0001:00000c20       ??0AdjoiningGenerations@@QAE@VReservedSpace@@IIIIIII@Z 08001c20 f   adjoiningGenerations.obj
 0001:00000e50       ?request_old_gen_expansion@AdjoiningGenerations@@AAEXI@Z 08001e50 f   adjoiningGenerations.obj
 0001:00000eb0       ?request_young_gen_expansion@AdjoiningGenerations@@AAE_NI@Z 08001eb0 f   adjoiningGenerations.obj
 0001:00000f50       ?adjust_boundary_for_old_gen_needs@AdjoiningGenerations@@QAEXI@Z 08001f50 f   adjoiningGenerations.obj
 0001:00000fb0       ?adjust_boundary_for_young_gen_needs@AdjoiningGenerations@@QAEXII@Z 08001fb0 f   adjoiningGenerations.obj
 0001:00000ff0       ??0AdjoiningVirtualSpaces@@QAE@VReservedSpace@@III@Z 08001ff0 f   adjoiningVirtualSpaces.obj
 0001:00001040       ?adjust_boundary_up@AdjoiningVirtualSpaces@@QAE_NI@Z 08002040 f   adjoiningVirtualSpaces.obj
 0001:00001060       ?adjust_boundary_down@AdjoiningVirtualSpaces@@QAE_NI@Z 08002060 f   adjoiningVirtualSpaces.obj
 0001:00001080       ?initialize@AdjoiningVirtualSpaces@@QAEXIII@Z 08002080 f   adjoiningVirtualSpaces.obj
 0001:00001180       ?clear@ageTable@@QAEXXZ    08002180 f   ageTable.obj
 0001:000011a0       ?merge@ageTable@@QAEXPAV1@@Z 080021a0 f   ageTable.obj
 0001:000011e0       ?create_constant@PerfDataManager@@SAPAVPerfLongConstant@@W4CounterNS@@PBDW4Units@PerfData@@_JPAVThread@@@Z 080021e0 f i ageTable.obj
 0001:00001210       ?create_variable@PerfDataManager@@SAPAVPerfLongVariable@@W4CounterNS@@PBDW4Units@PerfData@@PAVThread@@@Z 08002210 f i ageTable.obj
 0001:00001240       ?merge_par@ageTable@@QAEXPAV1@@Z 08002240 f   ageTable.obj
 0001:000012a0       ?compute_tenuring_threshold@ageTable@@QAEHI@Z 080022a0 f   ageTable.obj
 0001:00001440       ??0ResourceMark@@QAE@XZ    08002440 f i ageTable.obj
 0001:00001480       ?reset_to_mark@ResourceMark@@QAEXXZ 08002480 f i ageTable.obj
 0001:00001480       ??1ResourceMark@@QAE@XZ    08002480 f i ageTable.obj
 0001:000014b0       ??0ageTable@@QAE@_N@Z      080024b0 f   ageTable.obj
 0001:00001650       ??3_ValueObj@@SAXPAX@Z     08002650 f   allocation.obj
 0001:00001670       ?AllocateHeap@@YAPADIPBD@Z 08002670 f i allocation.obj
 0001:000016b0       ??2CHeapObj@@SAPAXI@Z      080026b0 f   allocation.obj
 0001:000016f0       ?OSR_migration_end@SharedRuntime@@SAXPAH@Z 080026f0 f   sharedRuntime.obj
 0001:000016f0       ??3CHeapObj@@SAXPAX@Z      080026f0 f   allocation.obj
 0001:000016f0       ??3ResourceObj@@SAXPAX@Z   080026f0 f   allocation.obj
 0001:00001700       ??2ResourceObj@@SAPAXIW4allocation_type@0@@Z 08002700 f   allocation.obj
 0001:00001760       ?allocate@ChunkPool@@QAEPAXI@Z 08002760 f i allocation.obj
 0001:000017d0       ?free@ChunkPool@@QAEXPAVChunk@@@Z 080027d0 f i allocation.obj
 0001:00001810       ?initialize@ChunkPool@@SAXXZ 08002810 f i allocation.obj
 0001:000018a0       ?chunkpool_init@@YAXXZ     080028a0 f   allocation.obj
 0001:000018b0       ?task@ChunkPoolCleaner@@UAEXXZ 080028b0 f i allocation.obj
 0001:000018e0       ?free_all_but@ChunkPool@@QAEXI@Z 080028e0 f i allocation.obj
 0001:00001950       ??2Chunk@@SAPAXII@Z        08002950 f   allocation.obj
 0001:000019e0       ??3Chunk@@SAXPAX@Z         080029e0 f   allocation.obj
 0001:00001a80       ?next_chop@Chunk@@QAEXXZ   08002a80 f   allocation.obj
 0001:00001ab0       ?start_chunk_pool_cleaner_task@Chunk@@SAXXZ 08002ab0 f   allocation.obj
 0001:00001b00       ??0Arena@@QAE@XZ           08002b00 f   allocation.obj
 0001:00001b50       ?destruct_contents@Arena@@QAEXXZ 08002b50 f   allocation.obj
 0001:00001b90       ?grow@Arena@@IAEPAXI@Z     08002b90 f   allocation.obj
 0001:00001c30       ??1Arena@@QAE@XZ           08002c30 f   allocation.obj
 0001:00001c40       ?Arealloc@Arena@@QAEPAXPAXII@Z 08002c40 f   allocation.obj
 0001:00001ce0       ?engage@AllocationProfiler@@SAXXZ 08002ce0 f   aprofiler.obj
 0001:00001cf0       ?disengage@AllocationProfiler@@SAXXZ 08002cf0 f   aprofiler.obj
 0001:00001d00       ?compare_classes@AllocationProfiler@@CAHPAPAVklassOopDesc@@0@Z 08002d00 f   aprofiler.obj
 0001:00001d30       ?sort_and_print_array@AllocationProfiler@@CAXI@Z 08002d30 f   aprofiler.obj
 0001:00001e80       ?do_object@AllocProfClosure@@UAEXPAVoopDesc@@@Z 08002e80 f i aprofiler.obj
 0001:00001ec0       ?size@oopDesc@@QAEHXZ      08002ec0 f i aprofiler.obj
 0001:00001ed0       ?size_given_klass@oopDesc@@QAEHPAVKlass@@@Z 08002ed0 f i aprofiler.obj
 0001:00001f20       ?iterate_since_last_gc@AllocationProfiler@@CAXXZ 08002f20 f   aprofiler.obj
 0001:00001f60       ?add_class_to_array@AllocationProfiler@@CAXPAVklassOopDesc@@@Z 08002f60 f   aprofiler.obj
 0001:00001f90       ?add_classes_to_array@AllocationProfiler@@CAXPAVklassOopDesc@@@Z 08002f90 f   aprofiler.obj
 0001:00001fb0       ?print@AllocationProfiler@@SAXI@Z 08002fb0 f   aprofiler.obj
 0001:000020c0       ?output_stream@defaultStream@@SAPAU_iobuf@@XZ 080030c0 f i arguments.obj
 0001:000020e0       ?error_stream@defaultStream@@SAPAU_iobuf@@XZ 080030e0 f i arguments.obj
 0001:00002140       ?describe_range_error@Arguments@@CAXW4ArgsRange@1@@Z 08003140 f   arguments.obj
 0001:000021a0       ?build_resource_string@Arguments@@CAPBDPAPADH@Z 080031a0 f   arguments.obj
 0001:00002290       ?print_jvm_flags_on@Arguments@@SAXPAVoutputStream@@@Z 08003290 f   arguments.obj
 0001:000022e0       ?print_jvm_args_on@Arguments@@SAXPAVoutputStream@@@Z 080032e0 f   arguments.obj
 0001:00002370       ?set_parnew_gc_flags@Arguments@@CAXXZ 08003370 f   arguments.obj
 0001:00002450       ?should_auto_select_low_pause_collector@Arguments@@CA_NXZ 08003450 f   arguments.obj
 0001:000024a0       ?set_ergonomics_flags@Arguments@@CAXXZ 080034a0 f   arguments.obj
 0001:00002540       ?set_parallel_gc_flags@Arguments@@CAXXZ 08003540 f   arguments.obj
 0001:00002620       ?verify_percentage@Arguments@@CA_NIPBD@Z 08003620 f   arguments.obj
 0001:00002660       ?check_gc_consistency@Arguments@@SA_NXZ 08003660 f   arguments.obj
 0001:00002750       ?is_ccstr@Flag@@QBE_NXZ    08003750 f i arguments.obj
 0001:00002790       ?boolAtPut@CommandLineFlags@@SA_NPADPA_NW4FlagValueOrigin@@@Z 08003790 f i arguments.obj
 0001:000027c0       ?intxAtPut@CommandLineFlags@@SA_NPADPAHW4FlagValueOrigin@@@Z 080037c0 f i arguments.obj
 0001:000027f0       ?uintxAtPut@CommandLineFlags@@SA_NPADPAIW4FlagValueOrigin@@@Z 080037f0 f i arguments.obj
 0001:00002820       ?uint64_tAtPut@CommandLineFlags@@SA_NPADPA_KW4FlagValueOrigin@@@Z 08003820 f i arguments.obj
 0001:00002850       ?ccstrAtPut@CommandLineFlags@@SA_NPADPAPBDW4FlagValueOrigin@@@Z 08003850 f i arguments.obj
 0001:00002880       ?copy_expand_pid@Arguments@@SA_NPBDIPADI@Z 08003880 f   arguments.obj
 0001:00002920       ??$MIN2@_K@@YA_K_K0@Z      08003920 f i arguments.obj
 0001:00002950       ?ReallocateHeap@@YAPADPADIPBD@Z 08003950 f i arguments.obj
 0001:00002990       ?set_value@SystemProperty@@QAE_NPAD@Z 08003990 f i arguments.obj
 0001:00002a20       ?append_value@SystemProperty@@QAEXPBD@Z 08003a20 f i arguments.obj
 0001:00002b30       ??0SystemProperty@@QAE@PBD0_N@Z 08003b30 f i arguments.obj
 0001:00002c10       ??0AgentLibrary@@QAE@PBD0_NPAX@Z 08003c10 f i arguments.obj
 0001:00002ce0       ?add_init_library@Arguments@@CAXPBDPAD@Z 08003ce0 f i arguments.obj
 0001:00002d40       ?add_init_agent@Arguments@@CAXPBDPAD_N@Z 08003d40 f i arguments.obj
 0001:00002da0       ?process_sun_java_launcher_properties@Arguments@@SAXPAUJavaVMInitArgs@@@Z 08003da0 f   arguments.obj
 0001:00002e30       ?is_newly_obsolete@Arguments@@CA_NPBDPAVJDK_Version@@@Z 08003e30 f   arguments.obj
 0001:00002f00       ?reset_path@SysClassPath@@QAEXPBD@Z 08003f00 f i arguments.obj
 0001:00002f50       ?combined_path@SysClassPath@@QAEPADXZ 08003f50 f   arguments.obj
 0001:00003020       ?add_to_path@SysClassPath@@CAPADPBD0_N@Z 08004020 f   arguments.obj
 0001:00003180       ?add_jars_to_path@SysClassPath@@CAPADPADPBD@Z 08004180 f   arguments.obj
 0001:00003740       ?parse_argument@Arguments@@CA_NPBDW4FlagValueOrigin@@@Z 08004740 f   arguments.obj
 0001:000039c0       ?add_string@Arguments@@CAXPAPAPADPAHPBD@Z 080049c0 f   arguments.obj
 0001:00003a60       ?print_on@Arguments@@SAXPAVoutputStream@@@Z 08004a60 f   arguments.obj
 0001:00003ae0       ?process_argument@Arguments@@CA_NPBDEW4FlagValueOrigin@@@Z 08004ae0 f   arguments.obj
 0001:00003bc0       ?process_settings_file@Arguments@@SA_NPBD_NE@Z 08004bc0 f   arguments.obj
 0001:00003dc0       ?set_cms_and_parnew_gc_flags@Arguments@@CAXXZ 08004dc0 f   arguments.obj
 0001:00004150       ?set_g1_gc_flags@Arguments@@CAXXZ 08005150 f   arguments.obj
 0001:00004210       ?set_heap_size@Arguments@@CAXXZ 08005210 f   arguments.obj
 0001:00004410       ?check_vm_args_consistency@Arguments@@SA_NXZ 08005410 f   arguments.obj
 0001:00004990       ?is_bad_option@Arguments@@CA_NPBUJavaVMOption@@EPBD@Z 08005990 f   arguments.obj
 0001:000049f0       ?parse_uintx@Arguments@@CA_NPBDPAII@Z 080059f0 f   arguments.obj
 0001:00004a50       ?parse_memory_size@Arguments@@CA?AW4ArgsRange@1@PBDPA_K_K@Z 08005a50 f   arguments.obj
 0001:00004aa0       ?PropertyList_count@Arguments@@SAHPAVSystemProperty@@@Z 08005aa0 f   arguments.obj
 0001:00004ac0       ?PropertyList_get_value@Arguments@@SAPBDPAVSystemProperty@@PBD@Z 08005ac0 f   arguments.obj
 0001:00004b20       ?PropertyList_unique_add@Arguments@@SAXPAPAVSystemProperty@@PBDPADE@Z 08005b20 f   arguments.obj
 0001:00004bf0       ?is_bad_option@Arguments@@CA_NPBUJavaVMOption@@E@Z 08005bf0 f i arguments.obj
 0001:00004c40       ?init_system_properties@Arguments@@SAXXZ 08005c40 f   arguments.obj
 0001:000050d0       ??1SysClassPath@@QAE@XZ    080060d0 f   arguments.obj
 0001:00005100       ?add_property@Arguments@@CA_NPBD@Z 08006100 f   arguments.obj
 0001:00005300       ?set_mode_flags@Arguments@@CAXW4Mode@1@@Z 08006300 f   arguments.obj
 0001:000053d0       ?parse_each_vm_init_arg@Arguments@@CAHPBUJavaVMInitArgs@@PAVSysClassPath@@PA_NW4FlagValueOrigin@@@Z 080063d0 f   arguments.obj
 0001:00006bc0       ?parse_options_environment_variable@Arguments@@CAHPBDPAVSysClassPath@@PA_N@Z 08007bc0 f   arguments.obj
 0001:00006db0       ?expand_endorsed@SysClassPath@@QAEXXZ 08007db0 f   arguments.obj
 0001:00006ed0       ?finalize_vm_init_args@Arguments@@CAHPAVSysClassPath@@_N@Z 08007ed0 f   arguments.obj
 0001:00006f70       ?parse_vm_init_args@Arguments@@CAHPBUJavaVMInitArgs@@@Z 08007f70 f   arguments.obj
 0001:00007100       ?parse@Arguments@@SAHPBUJavaVMInitArgs@@@Z 08008100 f   arguments.obj
 0001:00007530       ?sort@ResourceArray@@IAEXIP6AHPBX0@Z@Z 08008530 f   array.obj
 0001:00007560       ?expand@ResourceArray@@IAEXIHAAH@Z 08008560 f   array.obj
 0001:000075c0       ?remove_at@ResourceArray@@IAEXIH@Z 080085c0 f   array.obj
 0001:00007600       ?multi_allocate@arrayKlass@@UAEPAVoopDesc@@HPAHPAVThread@@@Z 08008600 f   arrayKlass.obj
 0001:00007620       ?with_array_klasses_do@arrayKlass@@UAEXP6AXPAVklassOopDesc@@@Z@Z 08008620 f   arrayKlass.obj
 0001:00007630       ?compute_modifier_flags@arrayKlass@@UBEHPAVThread@@@Z 08008630 f   arrayKlass.obj
 0001:00007640       ?jvmti_class_status@arrayKlass@@UBEHXZ 08008640 f   arrayKlass.obj
 0001:00007640       ?type@VM_GC_HeapInspection@@UBE?AW4VMOp_Type@VM_Operation@@XZ 08008640 f   attachListener.obj
 0001:00007650       ?real_allocate_handle@HandleArea@@AAEPAPAVoopDesc@@PAV2@@Z 08008650 f i arrayKlass.obj
 0001:00007680       ??0ResourceMark@@QAE@PAVThread@@@Z 08008680 f i arrayKlass.obj
 0001:000076b0       ??0Handle@@QAE@PAVThread@@PAVoopDesc@@@Z 080086b0 f i arrayKlass.obj
 0001:00007710       ?object_size@arrayKlass@@QBEHH@Z 08008710 f   arrayKlass.obj
 0001:00007720       ?java_super@arrayKlass@@UBEPAVklassOopDesc@@XZ 08008720 f   arrayKlass.obj
 0001:00007730       ?uncached_lookup_method@arrayKlass@@UBEPAVmethodOopDesc@@PAVsymbolOopDesc@@0@Z 08008730 f   arrayKlass.obj
 0001:00007740       ?compute_secondary_supers@arrayKlass@@UAEPAVobjArrayOopDesc@@HPAVThread@@@Z 08008740 f   arrayKlass.obj
 0001:00007750       ?compute_is_subtype_of@arrayKlass@@UAE_NPAVklassOopDesc@@@Z 08008750 f   arrayKlass.obj
 0001:00007780       ?array_klasses_do@arrayKlass@@UAEXP6AXPAVklassOopDesc@@@Z@Z 08008780 f   arrayKlass.obj
 0001:000077b0       ?write_ref_field@BarrierSet@@QAEXPAXPAVoopDesc@@@Z 080087b0 f i arrayKlass.obj
 0001:000077d0       ?detect_low_memory_for_collected_pools@LowMemoryDetector@@SAXXZ 080087d0 f i arrayKlass.obj
 0001:00007850       ?common_mem_allocate_noinit@CollectedHeap@@KAPAVHeapWord@@I_NPAVThread@@@Z 08008850 f i arrayKlass.obj
 0001:00007960       ?complete_create_array_klass@arrayKlass@@SAXVarrayKlassHandle@@VKlassHandle@@PAVThread@@@Z 08008960 f   arrayKlass.obj
 0001:00007a20       ?vtable@arrayKlass@@UBEPAVklassVtable@@XZ 08008a20 f   arrayKlass.obj
 0001:00007aa0       ?oop_verify_on@arrayKlass@@UAEXPAVoopDesc@@PAVoutputStream@@@Z 08008aa0 f   arrayKlass.obj
 0001:00007b00       ?header_size@arrayOopDesc@@SAHW4BasicType@@@Z 08008b00 f i arrayKlass.obj
 0001:00007b20       ?max_array_length@arrayOopDesc@@SAHW4BasicType@@@Z 08008b20 f i arrayKlass.obj
 0001:00007b70       ??$oop_store@PAVoopDesc@@@@YAXPAPAVoopDesc@@PAV0@@Z 08008b70 f i arrayKlass.obj
 0001:00007bc0       ?set_component_mirror@arrayKlass@@QAEXPAVoopDesc@@@Z 08008bc0 f i arrayKlass.obj
 0001:00007c10       ?set_super@Klass@@QAEXPAVklassOopDesc@@@Z 08008c10 f i arrayKlass.obj
 0001:00007c40       ?set_higher_dimension@arrayKlass@@QAEXPAVklassOopDesc@@@Z 08008c40 f i arrayKlass.obj
 0001:00007c40       ?set_methods@instanceKlass@@QAEXPAVobjArrayOopDesc@@@Z 08008c40 f i classFileParser.obj
 0001:00007c70       ?base_create_array_klass@arrayKlass@@SA?AVarrayKlassHandle@@ABVKlass_vtbl@@HVKlassHandle@@PAVThread@@@Z 08008c70 f   arrayKlass.obj
 0001:00007de0       ?post_allocation_setup_common@CollectedHeap@@KAXVKlassHandle@@PAVHeapWord@@I@Z 08008de0 f i arrayKlass.obj
 0001:00007e40       ?post_allocation_setup_array@CollectedHeap@@KAXVKlassHandle@@PAVHeapWord@@IH@Z 08008e40 f i arrayKlass.obj
 0001:00007ea0       ?array_allocate@CollectedHeap@@SAPAVoopDesc@@VKlassHandle@@HHPAVThread@@@Z 08008ea0 f i arrayKlass.obj
 0001:00007f00       ?allocate_arrayArray@arrayKlass@@QAEPAVobjArrayOopDesc@@HHPAVThread@@@Z 08008f00 f   arrayKlass.obj
 0001:00008020       ?internal_name@arrayKlassKlass@@UBEPBDXZ 08009020 f   arrayKlassKlass.obj
 0001:00008030       ?at@BitMap@@QBE_NI@Z       08009030 f i arrayKlassKlass.obj
 0001:00008060       ?decode_pointer@markOopDesc@@QAEPAXXZ 08009060 f i arrayKlassKlass.obj
 0001:00008080       ?oop_is_parsable@arrayKlassKlass@@UBE_NPAVoopDesc@@@Z 08009080 f   arrayKlassKlass.obj
 0001:000080b0       ?oop_oop_iterate@arrayKlassKlass@@UAEHPAVoopDesc@@PAVOopClosure@@@Z 080090b0 f   arrayKlassKlass.obj
 0001:00008110       ?oop_oop_iterate_m@arrayKlassKlass@@UAEHPAVoopDesc@@PAVOopClosure@@VMemRegion@@@Z 08009110 f   arrayKlassKlass.obj
 0001:00008190       ?oop_print_value_on@arrayKlassKlass@@UAEXPAVoopDesc@@PAVoutputStream@@@Z 08009190 f   arrayKlassKlass.obj
 0001:000081d0       ?is_leaf_class@Klass@@UBE_NXZ 080091d0 f i arrayKlassKlass.obj
 0001:000081f0       ?oop_oop_iterate_nv@Klass@@UAEHPAVoopDesc@@PAVFilteringClosure@@@Z 080091f0 f i arrayKlassKlass.obj
 0001:000081f0       ?oop_oop_iterate_nv@Klass@@UAEHPAVoopDesc@@PAVPushOrMarkClosure@@@Z 080091f0 f i arrayKlassKlass.obj
 0001:000081f0       ?oop_oop_iterate_nv@Klass@@UAEHPAVoopDesc@@PAVFilterInHeapRegionAndIntoCSClosure@@@Z 080091f0 f i arrayKlassKlass.obj
 0001:000081f0       ?oop_oop_iterate_nv@Klass@@UAEHPAVoopDesc@@PAVPushAndMarkClosure@@@Z 080091f0 f i arrayKlassKlass.obj
 0001:000081f0       ?oop_oop_iterate_nv@Klass@@UAEHPAVoopDesc@@PAVScanClosure@@@Z 080091f0 f i arrayKlassKlass.obj
 0001:000081f0       ?oop_oop_iterate_nv@Klass@@UAEHPAVoopDesc@@PAVFilterIntoCSClosure@@@Z 080091f0 f i arrayKlassKlass.obj
 0001:000081f0       ?oop_oop_iterate_nv@Klass@@UAEHPAVoopDesc@@PAVCMSKeepAliveClosure@@@Z 080091f0 f i arrayKlassKlass.obj
 0001:000081f0       ?oop_oop_iterate_nv@Klass@@UAEHPAVoopDesc@@PAV?$G1ParCopyClosure@$0A@$01$0A@@@@Z 080091f0 f i arrayKlassKlass.obj
 0001:000081f0       ?oop_oop_iterate_nv@Klass@@UAEHPAVoopDesc@@PAVPar_MarkRefsIntoAndScanClosure@@@Z 080091f0 f i arrayKlassKlass.obj
 0001:000081f0       ?oop_oop_iterate_nv@Klass@@UAEHPAVoopDesc@@PAVMarkRefsIntoAndScanClosure@@@Z 080091f0 f i arrayKlassKlass.obj
 0001:000081f0       ?oop_oop_iterate_nv@Klass@@UAEHPAVoopDesc@@PAVG1ParPushHeapRSClosure@@@Z 080091f0 f i arrayKlassKlass.obj
 0001:000081f0       ?oop_oop_iterate_nv@Klass@@UAEHPAVoopDesc@@PAVParScanWithoutBarrierClosure@@@Z 080091f0 f i arrayKlassKlass.obj
 0001:000081f0       ?oop_oop_iterate_nv@Klass@@UAEHPAVoopDesc@@PAVFastScanClosure@@@Z 080091f0 f i arrayKlassKlass.obj
 0001:000081f0       ?oop_oop_iterate_nv@Klass@@UAEHPAVoopDesc@@PAVG1ParScanClosure@@@Z 080091f0 f i arrayKlassKlass.obj
 0001:000081f0       ?oop_oop_iterate_nv@Klass@@UAEHPAVoopDesc@@PAVPar_PushAndMarkClosure@@@Z 080091f0 f i arrayKlassKlass.obj
 0001:000081f0       ?oop_oop_iterate_v@Klass@@UAEHPAVoopDesc@@PAVOopClosure@@@Z 080091f0 f i arrayKlassKlass.obj
 0001:000081f0       ?oop_oop_iterate_nv@Klass@@UAEHPAVoopDesc@@PAVPar_PushOrMarkClosure@@@Z 080091f0 f i arrayKlassKlass.obj
 0001:000081f0       ?oop_oop_iterate_nv@Klass@@UAEHPAVoopDesc@@PAVCMSInnerParMarkAndPushClosure@@@Z 080091f0 f i arrayKlassKlass.obj
 0001:000081f0       ?oop_oop_iterate_nv@Klass@@UAEHPAVoopDesc@@PAVFilterAndMarkInHeapRegionAndIntoCSClosure@@@Z 080091f0 f i arrayKlassKlass.obj
 0001:000081f0       ?oop_oop_iterate_nv@Klass@@UAEHPAVoopDesc@@PAVParScanWithBarrierClosure@@@Z 080091f0 f i arrayKlassKlass.obj
 0001:000081f0       ?oop_oop_iterate_nv@Klass@@UAEHPAVoopDesc@@PAVFilterOutOfRegionClosure@@@Z 080091f0 f i arrayKlassKlass.obj
 0001:00008200       ?oop_oop_iterate_nv_m@Klass@@UAEHPAVoopDesc@@PAVMarkRefsIntoAndScanClosure@@VMemRegion@@@Z 08009200 f i arrayKlassKlass.obj
 0001:00008200       ?oop_oop_iterate_nv_m@Klass@@UAEHPAVoopDesc@@PAVFilterOutOfRegionClosure@@VMemRegion@@@Z 08009200 f i arrayKlassKlass.obj
 0001:00008200       ?oop_oop_iterate_nv_m@Klass@@UAEHPAVoopDesc@@PAVPar_MarkRefsIntoAndScanClosure@@VMemRegion@@@Z 08009200 f i arrayKlassKlass.obj
 0001:00008200       ?oop_oop_iterate_nv_m@Klass@@UAEHPAVoopDesc@@PAVG1ParPushHeapRSClosure@@VMemRegion@@@Z 08009200 f i arrayKlassKlass.obj
 0001:00008200       ?oop_oop_iterate_nv_m@Klass@@UAEHPAVoopDesc@@PAVParScanWithBarrierClosure@@VMemRegion@@@Z 08009200 f i arrayKlassKlass.obj
 0001:00008200       ?oop_oop_iterate_nv_m@Klass@@UAEHPAVoopDesc@@PAVParScanWithoutBarrierClosure@@VMemRegion@@@Z 08009200 f i arrayKlassKlass.obj
 0001:00008200       ?oop_oop_iterate_nv_m@Klass@@UAEHPAVoopDesc@@PAVFilterAndMarkInHeapRegionAndIntoCSClosure@@VMemRegion@@@Z 08009200 f i arrayKlassKlass.obj
 0001:00008200       ?oop_oop_iterate_v_m@Klass@@UAEHPAVoopDesc@@PAVOopClosure@@VMemRegion@@@Z 08009200 f i arrayKlassKlass.obj
 0001:00008200       ?oop_oop_iterate_nv_m@Klass@@UAEHPAVoopDesc@@PAVPar_PushAndMarkClosure@@VMemRegion@@@Z 08009200 f i arrayKlassKlass.obj
 0001:00008200       ?oop_oop_iterate_nv_m@Klass@@UAEHPAVoopDesc@@PAVCMSInnerParMarkAndPushClosure@@VMemRegion@@@Z 08009200 f i arrayKlassKlass.obj
 0001:00008200       ?oop_oop_iterate_nv_m@Klass@@UAEHPAVoopDesc@@PAVFilteringClosure@@VMemRegion@@@Z 08009200 f i arrayKlassKlass.obj
 0001:00008200       ?oop_oop_iterate_nv_m@Klass@@UAEHPAVoopDesc@@PAVG1ParScanClosure@@VMemRegion@@@Z 08009200 f i arrayKlassKlass.obj
 0001:00008200       ?oop_oop_iterate_nv_m@Klass@@UAEHPAVoopDesc@@PAVFilterIntoCSClosure@@VMemRegion@@@Z 08009200 f i arrayKlassKlass.obj
 0001:00008200       ?oop_oop_iterate_nv_m@Klass@@UAEHPAVoopDesc@@PAVFastScanClosure@@VMemRegion@@@Z 08009200 f i arrayKlassKlass.obj
 0001:00008200       ?oop_oop_iterate_nv_m@Klass@@UAEHPAVoopDesc@@PAVPushAndMarkClosure@@VMemRegion@@@Z 08009200 f i arrayKlassKlass.obj
 0001:00008200       ?oop_oop_iterate_nv_m@Klass@@UAEHPAVoopDesc@@PAV?$G1ParCopyClosure@$0A@$01$0A@@@VMemRegion@@@Z 08009200 f i arrayKlassKlass.obj
 0001:00008200       ?oop_oop_iterate_nv_m@Klass@@UAEHPAVoopDesc@@PAVCMSKeepAliveClosure@@VMemRegion@@@Z 08009200 f i arrayKlassKlass.obj
 0001:00008200       ?oop_oop_iterate_nv_m@Klass@@UAEHPAVoopDesc@@PAVFilterInHeapRegionAndIntoCSClosure@@VMemRegion@@@Z 08009200 f i arrayKlassKlass.obj
 0001:00008200       ?oop_oop_iterate_nv_m@Klass@@UAEHPAVoopDesc@@PAVScanClosure@@VMemRegion@@@Z 08009200 f i arrayKlassKlass.obj
 0001:00008200       ?oop_oop_iterate_nv_m@Klass@@UAEHPAVoopDesc@@PAVPar_PushOrMarkClosure@@VMemRegion@@@Z 08009200 f i arrayKlassKlass.obj
 0001:00008200       ?oop_oop_iterate_nv_m@Klass@@UAEHPAVoopDesc@@PAVPushOrMarkClosure@@VMemRegion@@@Z 08009200 f i arrayKlassKlass.obj
 0001:00008230       ?oop_oop_iterate_backwards_nv@Klass@@UAEHPAVoopDesc@@PAVFilterInHeapRegionAndIntoCSClosure@@@Z 08009230 f i arrayKlassKlass.obj
 0001:00008230       ?oop_oop_iterate_backwards_nv@Klass@@UAEHPAVoopDesc@@PAV?$G1ParCopyClosure@$0A@$01$0A@@@@Z 08009230 f i arrayKlassKlass.obj
 0001:00008230       ?oop_oop_iterate_backwards_nv@Klass@@UAEHPAVoopDesc@@PAVCMSInnerParMarkAndPushClosure@@@Z 08009230 f i arrayKlassKlass.obj
 0001:00008230       ?oop_oop_iterate_backwards_nv@Klass@@UAEHPAVoopDesc@@PAVFilteringClosure@@@Z 08009230 f i arrayKlassKlass.obj
 0001:00008230       ?oop_oop_iterate_backwards_nv@Klass@@UAEHPAVoopDesc@@PAVPar_PushAndMarkClosure@@@Z 08009230 f i arrayKlassKlass.obj
 0001:00008230       ?oop_oop_iterate_backwards_nv@Klass@@UAEHPAVoopDesc@@PAVMarkRefsIntoAndScanClosure@@@Z 08009230 f i arrayKlassKlass.obj
 0001:00008230       ?oop_oop_iterate_backwards_nv@Klass@@UAEHPAVoopDesc@@PAVParScanWithBarrierClosure@@@Z 08009230 f i arrayKlassKlass.obj
 0001:00008230       ?oop_oop_iterate_backwards_nv@Klass@@UAEHPAVoopDesc@@PAVFilterAndMarkInHeapRegionAndIntoCSClosure@@@Z 08009230 f i arrayKlassKlass.obj
 0001:00008230       ?oop_oop_iterate_backwards_nv@Klass@@UAEHPAVoopDesc@@PAVPar_MarkRefsIntoAndScanClosure@@@Z 08009230 f i arrayKlassKlass.obj
 0001:00008230       ?oop_oop_iterate_backwards_nv@Klass@@UAEHPAVoopDesc@@PAVParScanWithoutBarrierClosure@@@Z 08009230 f i arrayKlassKlass.obj
 0001:00008230       ?oop_oop_iterate_backwards_nv@Klass@@UAEHPAVoopDesc@@PAVPushOrMarkClosure@@@Z 08009230 f i arrayKlassKlass.obj
 0001:00008230       ?oop_oop_iterate_backwards_nv@Klass@@UAEHPAVoopDesc@@PAVFilterOutOfRegionClosure@@@Z 08009230 f i arrayKlassKlass.obj
 0001:00008230       ?oop_oop_iterate_backwards_nv@Klass@@UAEHPAVoopDesc@@PAVG1ParScanClosure@@@Z 08009230 f i arrayKlassKlass.obj
 0001:00008230       ?oop_oop_iterate_backwards_nv@Klass@@UAEHPAVoopDesc@@PAVPushAndMarkClosure@@@Z 08009230 f i arrayKlassKlass.obj
 0001:00008230       ?oop_oop_iterate_backwards_nv@Klass@@UAEHPAVoopDesc@@PAVPar_PushOrMarkClosure@@@Z 08009230 f i arrayKlassKlass.obj
 0001:00008230       ?oop_oop_iterate_backwards_nv@Klass@@UAEHPAVoopDesc@@PAVFilterIntoCSClosure@@@Z 08009230 f i arrayKlassKlass.obj
 0001:00008230       ?oop_oop_iterate_backwards_nv@Klass@@UAEHPAVoopDesc@@PAVScanClosure@@@Z 08009230 f i arrayKlassKlass.obj
 0001:00008230       ?oop_oop_iterate_backwards_nv@Klass@@UAEHPAVoopDesc@@PAVCMSKeepAliveClosure@@@Z 08009230 f i arrayKlassKlass.obj
 0001:00008230       ?oop_oop_iterate_backwards_nv@Klass@@UAEHPAVoopDesc@@PAVG1ParPushHeapRSClosure@@@Z 08009230 f i arrayKlassKlass.obj
 0001:00008230       ?oop_oop_iterate_backwards_nv@Klass@@UAEHPAVoopDesc@@PAVFastScanClosure@@@Z 08009230 f i arrayKlassKlass.obj
 0001:00008240       ?possible_gc_point@GeneratePairingInfo@@EAE_NPAVBytecodeStream@@@Z 08009240 f i ciMethod.obj
 0001:00008240       ?oop_partially_loaded@Klass@@UBE_NPAVoopDesc@@@Z 08009240 f i arrayKlassKlass.obj
 0001:00008240       ?equals@ConstantLongValue@@UBE_NPAVScopeValue@@@Z 08009240 f i debugInfo.obj
 0001:00008240       ?read_ref_needs_barrier@ModRefBarrierSet@@UAE_NPAX@Z 08009240 f i cardTableModRefBS.obj
 0001:00008240       ?equals@ConstantDoubleValue@@UBE_NPAVScopeValue@@@Z 08009240 f i debugInfo.obj
 0001:00008240       ?equals@ConstantOopWriteValue@@UBE_NPAVScopeValue@@@Z 08009240 f i c1_LinearScan.obj
 0001:00008240       ?equals@ConstantOopReadValue@@UBE_NPAVScopeValue@@@Z 08009240 f i debugInfo.obj
 0001:00008240       ?possible_gc_point@OopMapForCacheEntry@@EAE_NPAVBytecodeStream@@@Z 08009240 f i oopMapCache.obj
 0001:00008240       ?possible_gc_point@ResolveOopMapConflicts@@EAE_NPAVBytecodeStream@@@Z 08009240 f i rewriter.obj
 0001:00008240       ?is_equal@Instruction@@UBE_NPAV1@@Z 08009240 f i c1_Canonicalizer.obj
 0001:00008240       ?equals@ConstantIntValue@@UBE_NPAVScopeValue@@@Z 08009240 f i c1_LinearScan.obj
 0001:00008240       ?unknown_compiled_match@ProfilerNode@@UBE_NPBVCodeBlob@@@Z 08009240 f i fprofiler.obj
 0001:00008240       ?equals@ScopeValue@@UBE_NPAV1@@Z 08009240 f i c1_LinearScan.obj
 0001:00008240       ?interpreted_match@ProfilerNode@@UBE_NPAVmethodOopDesc@@@Z 08009240 f i fprofiler.obj
 0001:00008240       ?caller_must_gc_arguments@CodeBlob@@UBE_NPAVJavaThread@@@Z 08009240 f i codeBlob.obj
 0001:00008240       ?compiled_match@ProfilerNode@@UBE_NPAVmethodOopDesc@@@Z 08009240 f i fprofiler.obj
 0001:00008250       ??0HandleMark@@QAE@XZ      08009250 f i arrayKlassKlass.obj
 0001:00008270       ?create_klass@arrayKlassKlass@@SAPAVklassOopDesc@@PAVThread@@@Z 08009270 f   arrayKlassKlass.obj
 0001:00008310       ?oop_adjust_pointers@arrayKlassKlass@@UAEHPAVoopDesc@@@Z 08009310 f   arrayKlassKlass.obj
 0001:000083d0       ?oop_update_pointers@arrayKlassKlass@@UAEHPAVParCompactionManager@@PAVoopDesc@@@Z 080093d0 f   arrayKlassKlass.obj
 0001:00008480       ?oop_verify_on@arrayKlassKlass@@UAEXPAVoopDesc@@PAVoutputStream@@@Z 08009480 f   arrayKlassKlass.obj
 0001:00008520       ?mark_obj@PSParallelCompact@@SA_NPAVoopDesc@@@Z 08009520 f i arrayKlassKlass.obj
 0001:000085a0       ?allocate_permanent@klassKlass@@UBEPAXAAVKlassHandle@@HPAVThread@@@Z 080095a0 f i arrayKlassKlass.obj
 0001:00008610       ?allocate_permanent@arrayKlassKlass@@UBEPAXAAVKlassHandle@@HPAVThread@@@Z 08009610 f i arrayKlassKlass.obj
 0001:00008680       ?oop_update_pointers@arrayKlassKlass@@UAEHPAVParCompactionManager@@PAVoopDesc@@PAVHeapWord@@2@Z 08009680 f   arrayKlassKlass.obj
 0001:00008750       ??$mark_and_push@PAVoopDesc@@@PSParallelCompact@@SAXPAVParCompactionManager@@PAPAVoopDesc@@@Z 08009750 f i arrayKlassKlass.obj
 0001:000087a0       ?push_segment@?$Stack@PAVKlass@@@@IAEXXZ 080097a0 f i markSweep.obj
 0001:000087a0       ?push_segment@?$Stack@PAVDataLayout@@@@IAEXXZ 080097a0 f i markSweep.obj
 0001:000087a0       ?push_segment@?$Stack@I@@IAEXXZ 080097a0 f i taskqueue.obj
 0001:000087a0       ?push_segment@?$Stack@PAVmarkOopDesc@@@@IAEXXZ 080097a0 f i concurrentMarkSweepGeneration.obj
 0001:000087a0       ?push_segment@?$Stack@VStarTask@@@@IAEXXZ 080097a0 f i constantPoolKlass.obj
 0001:000087a0       ?push_segment@?$Stack@PAVoopDesc@@@@IAEXXZ 080097a0 f i arrayKlassKlass.obj
 0001:00008820       ?must_be_preserved_with_bias@markOopDesc@@QBE_NPAVoopDesc@@@Z 08009820 f i arrayKlassKlass.obj
 0001:00008870       ?mark_object@MarkSweep@@SAXPAVoopDesc@@@Z 08009870 f i arrayKlassKlass.obj
 0001:000088c0       ?oop_follow_contents@arrayKlassKlass@@UAEXPAVParCompactionManager@@PAVoopDesc@@@Z 080098c0 f   arrayKlassKlass.obj
 0001:000089f0       ??$mark_and_push@PAVoopDesc@@@MarkSweep@@SAXPAPAVoopDesc@@@Z 080099f0 f i arrayKlassKlass.obj
 0001:00008a40       ?oop_follow_contents@arrayKlassKlass@@UAEXPAVoopDesc@@@Z 08009a40 f   arrayKlassKlass.obj
 0001:00008ab0       ??0ASPSOldGen@@QAE@PAVPSVirtualSpace@@IIIPBDH@Z 08009ab0 f   asPSOldGen.obj
 0001:00008af0       ?gen_size_limit@ASPSOldGen@@UAEIXZ 08009af0 f i asPSOldGen.obj
 0001:00008b00       ?short_name@ASPSOldGen@@UBEPBDXZ 08009b00 f i asPSOldGen.obj
 0001:00008b10       ?name@PSOldGen@@UBEPBDXZ   08009b10 f i asPSOldGen.obj
 0001:00008b20       ?max_gen_size@ASPSOldGen@@UAEIXZ 08009b20 f i asPSOldGen.obj
 0001:00008b30       ?reset_after_change@ASPSOldGen@@UAEXXZ 08009b30 f   asPSOldGen.obj
 0001:00008b50       ?available_for_expansion@ASPSOldGen@@UAEIXZ 08009b50 f   asPSOldGen.obj
 0001:00008b80       ?available_for_contraction@ASPSOldGen@@UAEIXZ 08009b80 f   asPSOldGen.obj
 0001:00008c20       ?short_name@ASPSYoungGen@@UBEPBDXZ 08009c20 f i asPSYoungGen.obj
 0001:00008c30       ?initialize_virtual_space@ASPSYoungGen@@UAEXVReservedSpace@@I@Z 08009c30 f   asPSYoungGen.obj
 0001:00008ca0       ?initialize@ASPSYoungGen@@UAEXVReservedSpace@@I@Z 08009ca0 f   asPSYoungGen.obj
 0001:00008ca0       ?initialize@PSYoungGen@@UAEXVReservedSpace@@I@Z 08009ca0 f   psYoungGen.obj
 0001:00008ce0       ?name@PSYoungGen@@UBEPBDXZ 08009ce0 f i asPSYoungGen.obj
 0001:00008cf0       ??0ASPSYoungGen@@QAE@PAVPSVirtualSpace@@III@Z 08009cf0 f   asPSYoungGen.obj
 0001:00008d30       ?available_for_expansion@ASPSYoungGen@@UAEIXZ 08009d30 f   asPSYoungGen.obj
 0001:00008d60       ?resize_generation@ASPSYoungGen@@UAE_NII@Z 08009d60 f   asPSYoungGen.obj
 0001:00008e20       ?reset_after_change@ASPSYoungGen@@UAEXXZ 08009e20 f   asPSYoungGen.obj
 0001:00008eb0       ?available_for_contraction@ASPSYoungGen@@UAEIXZ 08009eb0 f   asPSYoungGen.obj
 0001:00008f30       ?available_to_live@ASPSYoungGen@@MAEIXZ 08009f30 f   asPSYoungGen.obj
 0001:00008f70       ?resize_spaces@ASPSYoungGen@@UAEXII@Z 08009f70 f   asPSYoungGen.obj
 0001:00009260       ?name@ASParNewGeneration@@UBEPBDXZ 0800a260 f   asParNewGeneration.obj
 0001:00009270       ?reset_survivors_after_shrink@ASParNewGeneration@@AAEXXZ 0800a270 f   asParNewGeneration.obj
 0001:000092c0       ?resize_spaces@ASParNewGeneration@@AAEXII@Z 0800a2c0 f   asParNewGeneration.obj
 0001:00009630       ?limit_gen_shrink@ASParNewGeneration@@AAEII@Z 0800a630 f   asParNewGeneration.obj
 0001:000096a0       ?resize_generation@ASParNewGeneration@@AAE_NII@Z 0800a6a0 f   asParNewGeneration.obj
 0001:00009790       ?compute_new_size@ASParNewGeneration@@UAEXXZ 0800a790 f   asParNewGeneration.obj
 0001:00009900       ?alloc@?$Stack@I@@MAEPAII@Z 0800a900 f i psCompactionManager.obj
 0001:00009900       ?alloc@?$Stack@PAVoopDesc@@@@MAEPAPAVoopDesc@@I@Z 0800a900 f i asParNewGeneration.obj
 0001:00009900       ?alloc@?$Stack@PAVDataLayout@@@@MAEPAPAVDataLayout@@I@Z 0800a900 f i markSweep.obj
 0001:00009900       ?alloc@?$Stack@PAVKlass@@@@MAEPAPAVKlass@@I@Z 0800a900 f i markSweep.obj
 0001:00009900       ?alloc@?$Stack@VStarTask@@@@MAEPAVStarTask@@I@Z 0800a900 f i psPromotionManager.obj
 0001:00009900       ?alloc@?$Stack@PAVmarkOopDesc@@@@MAEPAPAVmarkOopDesc@@I@Z 0800a900 f i asParNewGeneration.obj
 0001:00009940       ?short_name@ParNewGeneration@@UBEPBDXZ 0800a940 f i asParNewGeneration.obj
 0001:00009940       ?name@ParNewMemoryManager@@UAEPBDXZ 0800a940 f i memoryManager.obj
 0001:00009950       ?refs_discovery_is_mt@ParNewGeneration@@UBE_NXZ 0800a950 f i asParNewGeneration.obj
 0001:00009970       ?used_region@Generation@@UBE?AVMemRegion@@XZ 0800a970 f i asParNewGeneration.obj
 0001:00009990       ?save_used_region@Generation@@UAEXXZ 0800a990 f i asParNewGeneration.obj
 0001:000099c0       ?allocation_limit_reached@Generation@@UAEPAVHeapWord@@PAVSpace@@PAV2@I@Z 0800a9c0 f i asParNewGeneration.obj
 0001:000099d0       ?should_collect@Generation@@UAE_N_NI0@Z 0800a9d0 f i asParNewGeneration.obj
 0001:000099d0       ?should_collect@ConcurrentMarkSweepGeneration@@UAE_N_NI0@Z 0800a9d0 f i concurrentMarkSweepGeneration.obj
 0001:00009a00       ?time_of_last_gc@Generation@@UAE_J_J@Z 0800aa00 f i asParNewGeneration.obj
 0001:00009a10       ?update_time_of_last_gc@Generation@@UAEX_J@Z 0800aa10 f i asParNewGeneration.obj
 0001:00009a30       ?pre_adjust_pointers@Generation@@UAEXXZ 0800aa30 f i asParNewGeneration.obj
 0001:00009a50       ?post_compact@Generation@@UAEXXZ 0800aa50 f i asParNewGeneration.obj
 0001:00009a70       ?counters@Generation@@UAEPAVCollectorCounters@@XZ 0800aa70 f i asParNewGeneration.obj
 0001:00009a80       ?should_allocate@DefNewGeneration@@UAE_NI_N@Z 0800aa80 f i asParNewGeneration.obj
 0001:00009ad0       ??0ASParNewGeneration@@QAE@VReservedSpace@@IIH@Z 0800aad0 f   asParNewGeneration.obj
 0001:00009b20       ?short_name@ASParNewGeneration@@UBEPBDXZ 0800ab20 f i asParNewGeneration.obj
 0001:00009b30       ?generate_stack_overflow_check@AbstractAssembler@@QAEXH@Z 0800ab30 f   assembler.obj
 0001:00009b80       ?update_all@DelayedConstant@@SAXXZ 0800ab80 f   assembler.obj
 0001:00009bb0       ?update_delayed_values@AbstractAssembler@@SAXXZ 0800abb0 f   assembler.obj
 0001:00009bc0       ?needs_explicit_null_check@MacroAssembler@@SA_NH@Z 0800abc0 f   assembler.obj
 0001:00009bf0       ?cmpxchg_ptr@Atomic@@SAPAXPAXPCX0@Z 0800abf0 f i assembler.obj
 0001:00009c20       ?emit_byte@AbstractAssembler@@IAEXH@Z 0800ac20 f i assembler.obj
 0001:00009c70       ?emit_long@AbstractAssembler@@IAEXH@Z 0800ac70 f i assembler.obj
 0001:00009cd0       ??0AbstractAssembler@@QAE@PAVCodeBuffer@@@Z 0800acd0 f   assembler.obj
 0001:00009d40       ?start_a_stub@AbstractAssembler@@QAEPAEH@Z 0800ad40 f   assembler.obj
 0001:00009dd0       ?end_a_stub@AbstractAssembler@@QAEXXZ 0800add0 f   assembler.obj
 0001:00009dd0       ?end_a_const@AbstractAssembler@@QAEXXZ 0800add0 f   assembler.obj
 0001:00009e30       ?start_a_const@AbstractAssembler@@QAEPAEHH@Z 0800ae30 f   assembler.obj
 0001:00009f00       ?flush@AbstractAssembler@@QAEXXZ 0800af00 f   assembler.obj
 0001:00009f40       ?a_byte@AbstractAssembler@@QAEXH@Z 0800af40 f   assembler.obj
 0001:00009f50       ?a_long@AbstractAssembler@@QAEXH@Z 0800af50 f   assembler.obj
 0001:00009f60       ?patch_instructions@Label@@QAEXPAVMacroAssembler@@@Z 0800af60 f   assembler.obj
 0001:0000a040       ?add@DelayedConstant@@SAPAU1@W4BasicType@@P6AXXZ@Z 0800b040 f   assembler.obj
 0001:0000a0d0       ?delayed_value_addr@AbstractAssembler@@SAPAHP6AHXZ@Z 0800b0d0 f   assembler.obj
 0001:0000a0f0       ?bind@AbstractAssembler@@QAEXAAVLabel@@@Z 0800b0f0 f   assembler.obj
 0001:0000a160       ?add_patch_at@Label@@QAEXPAVCodeBuffer@@H@Z 0800b160 f   assembler.obj
 0001:0000a1c0       ??0Address@@QAE@PAVRegisterImpl@@H@Z 0800b1c0 f i assembler_windows_x86.obj
 0001:0000a200       ?int3@MacroAssembler@@QAEXXZ 0800b200 f   assembler_windows_x86.obj
 0001:0000a250       ?get_thread@MacroAssembler@@QAEXPAVRegisterImpl@@@Z 0800b250 f   assembler_windows_x86.obj
 0001:0000a2e0       ?code_fill_byte@AbstractAssembler@@SAHXZ 0800b2e0 f   assembler_x86.obj
 0001:0000a2f0       ?locate_operand@Assembler@@SAPAEPAEW4WhichOperand@1@@Z 0800b2f0 f   assembler_x86.obj
 0001:0000a760       ?locate_next_instruction@Assembler@@SAPAEPAE@Z 0800b760 f   assembler_x86.obj
 0001:0000a780       ?prefix@Assembler@@IAEXW4Prefix@1@@Z 0800b780 f   assembler_x86.obj
 0001:0000a790       ?call_VM_leaf@MacroAssembler@@QAEXPAEH@Z 0800b790 f   assembler_x86.obj
 0001:0000a7a0       ?negate_condition@MacroAssembler@@QAE?AW4Condition@Assembler@@W423@@Z 0800b7a0 f   assembler_x86.obj
 0001:0000a8a0       ??1SkipIfEqual@@QAE@XZ     0800b8a0 f   assembler_x86.obj
 0001:0000a8b0       ?value@CallRelocation@@UAEPAEXZ 0800b8b0 f i assembler_x86.obj
 0001:0000a8c0       ?set_value@CallRelocation@@UAEXPAE@Z 0800b8c0 f i assembler_x86.obj
 0001:0000a8d0       ?value@internal_word_Relocation@@UAEPAEXZ 0800b8d0 f i assembler_x86.obj
 0001:0000a8d0       ?value@external_word_Relocation@@UAEPAEXZ 0800b8d0 f i assembler_x86.obj
 0001:0000a8e0       ??0Address@@QAE@PAVRegisterImpl@@0W4ScaleFactor@0@H@Z 0800b8e0 f i assembler_x86.obj
 0001:0000a920       ?uses@Address@@QBE_NPAVRegisterImpl@@@Z 0800b920 f i assembler_x86.obj
 0001:0000a940       ??0ArrayAddress@@QAE@VAddressLiteral@@VAddress@@@Z 0800b940 f i assembler_x86.obj
 0001:0000a970       ?emit_word@AbstractAssembler@@IAEXH@Z 0800b970 f i assembler_x86.obj
 0001:0000a9d0       ?type_offset_in_bytes@java_dyn_MethodHandle@@SAHXZ 0800b9d0 f i assembler_x86.obj
 0001:0000a9e0       ?vmentry_offset_in_bytes@java_dyn_MethodHandle@@SAHXZ 0800b9e0 f i assembler_x86.obj
 0001:0000a9f0       ?vmslots_offset_in_bytes@java_dyn_MethodHandle@@SAHXZ 0800b9f0 f i assembler_x86.obj
 0001:0000aa00       ?form_offset_in_bytes@java_dyn_MethodType@@SAHXZ 0800ba00 f i assembler_x86.obj
 0001:0000aa10       ?vmslots_offset_in_bytes@java_dyn_MethodTypeForm@@SAHXZ 0800ba10 f i assembler_x86.obj
 0001:0000aa20       ?transition@ThreadStateTransition@@SAXPAVJavaThread@@W4JavaThreadState@@1@Z 0800ba20 f i assembler_x86.obj
 0001:0000aa90       ?make_array@Address@@SA?AV1@VArrayAddress@@@Z 0800ba90 f   assembler_x86.obj
 0001:0000ab00       ??0Address@@AAE@PAEVRelocationHolder@@@Z 0800bb00 f   assembler_x86.obj
 0001:0000ab60       ?emit_arith@Assembler@@AAEXHHPAVRegisterImpl@@H@Z 0800bb60 f   assembler_x86.obj
 0001:0000abe0       ?emit_operand@Assembler@@AAEXPAVRegisterImpl@@00W4ScaleFactor@Address@@HABVRelocationHolder@@H@Z 0800bbe0 f   assembler_x86.obj
 0001:0000af00       ?adcl@Assembler@@QAEXPAVRegisterImpl@@H@Z 0800bf00 f   assembler_x86.obj
 0001:0000af20       ?adcl@Assembler@@QAEXPAVRegisterImpl@@0@Z 0800bf20 f   assembler_x86.obj
 0001:0000af90       ?addl@Assembler@@QAEXPAVRegisterImpl@@0@Z 0800bf90 f   assembler_x86.obj
 0001:0000b000       ?addr_nop_4@Assembler@@QAEXXZ 0800c000 f   assembler_x86.obj
 0001:0000b0e0       ?addr_nop_5@Assembler@@QAEXXZ 0800c0e0 f   assembler_x86.obj
 0001:0000b200       ?addr_nop_7@Assembler@@QAEXXZ 0800c200 f   assembler_x86.obj
 0001:0000b2f0       ?addr_nop_8@Assembler@@QAEXXZ 0800c2f0 f   assembler_x86.obj
 0001:0000b410       ?addsd@Assembler@@QAEXPAVXMMRegisterImpl@@0@Z 0800c410 f   assembler_x86.obj
 0001:0000b4e0       ?addss@Assembler@@QAEXPAVXMMRegisterImpl@@0@Z 0800c4e0 f   assembler_x86.obj
 0001:0000b5b0       ?andl@Assembler@@QAEXPAVRegisterImpl@@0@Z 0800c5b0 f   assembler_x86.obj
 0001:0000b620       ?bswapl@Assembler@@QAEXPAVRegisterImpl@@@Z 0800c620 f   assembler_x86.obj
 0001:0000b680       ?call@Assembler@@QAEXPAVRegisterImpl@@@Z 0800c680 f   assembler_x86.obj
 0001:0000b6e0       ?cdql@Assembler@@QAEXXZ    0800c6e0 f   assembler_x86.obj
 0001:0000b730       ?cmovl@Assembler@@QAEXW4Condition@1@PAVRegisterImpl@@1@Z 0800c730 f   assembler_x86.obj
 0001:0000b7c0       ?cmovl@Assembler@@QAEXW4Condition@1@PAVRegisterImpl@@VAddress@@@Z 0800c7c0 f   assembler_x86.obj
 0001:0000b870       ?cmpl@Assembler@@QAEXPAVRegisterImpl@@H@Z 0800c870 f   assembler_x86.obj
 0001:0000b890       ?cmpl@Assembler@@QAEXPAVRegisterImpl@@0@Z 0800c890 f   assembler_x86.obj
 0001:0000b900       ?cvtsd2ss@Assembler@@QAEXPAVXMMRegisterImpl@@0@Z 0800c900 f   assembler_x86.obj
 0001:0000b9d0       ?cvtsi2sdl@Assembler@@QAEXPAVXMMRegisterImpl@@PAVRegisterImpl@@@Z 0800c9d0 f   assembler_x86.obj
 0001:0000baa0       ?cvtsi2ssl@Assembler@@QAEXPAVXMMRegisterImpl@@PAVRegisterImpl@@@Z 0800caa0 f   assembler_x86.obj
 0001:0000bb70       ?cvtss2sd@Assembler@@QAEXPAVXMMRegisterImpl@@0@Z 0800cb70 f   assembler_x86.obj
 0001:0000bc40       ?cvttsd2sil@Assembler@@QAEXPAVRegisterImpl@@PAVXMMRegisterImpl@@@Z 0800cc40 f   assembler_x86.obj
 0001:0000bd10       ?cvttss2sil@Assembler@@QAEXPAVRegisterImpl@@PAVXMMRegisterImpl@@@Z 0800cd10 f   assembler_x86.obj
 0001:0000bde0       ?divsd@Assembler@@QAEXPAVXMMRegisterImpl@@0@Z 0800cde0 f   assembler_x86.obj
 0001:0000beb0       ?divss@Assembler@@QAEXPAVXMMRegisterImpl@@0@Z 0800ceb0 f   assembler_x86.obj
 0001:0000bf80       ?emms@Assembler@@QAEXXZ    0800cf80 f   assembler_x86.obj
 0001:0000c000       ?hlt@Assembler@@QAEXXZ     0800d000 f   assembler_x86.obj
 0001:0000c050       ?idivl@Assembler@@QAEXPAVRegisterImpl@@@Z 0800d050 f   assembler_x86.obj
 0001:0000c0b0       ?imull@Assembler@@QAEXPAVRegisterImpl@@0@Z 0800d0b0 f   assembler_x86.obj
 0001:0000c140       ?jmp@Assembler@@QAEXPAVRegisterImpl@@@Z 0800d140 f   assembler_x86.obj
 0001:0000c1a0       ?lock@Assembler@@QAEXXZ    0800d1a0 f   assembler_x86.obj
 0001:0000c1c0       ?movapd@Assembler@@IAEXPAVXMMRegisterImpl@@0@Z 0800d1c0 f   assembler_x86.obj
 0001:0000c2e0       ?movaps@Assembler@@IAEXPAVXMMRegisterImpl@@0@Z 0800d2e0 f   assembler_x86.obj
 0001:0000c3b0       ?movdl@Assembler@@QAEXPAVRegisterImpl@@PAVXMMRegisterImpl@@@Z 0800d3b0 f   assembler_x86.obj
 0001:0000c480       ?movl@Assembler@@QAEXPAVRegisterImpl@@0@Z 0800d480 f   assembler_x86.obj
 0001:0000c4e0       ?movq@Assembler@@QAEXPAVMMXRegisterImpl@@VAddress@@@Z 0800d4e0 f   assembler_x86.obj
 0001:0000c590       ?movq@Assembler@@QAEXVAddress@@PAVMMXRegisterImpl@@@Z 0800d590 f   assembler_x86.obj
 0001:0000c640       ?movsbl@Assembler@@QAEXPAVRegisterImpl@@0@Z 0800d640 f   assembler_x86.obj
 0001:0000c6d0       ?movsd@Assembler@@IAEXPAVXMMRegisterImpl@@0@Z 0800d6d0 f   assembler_x86.obj
 0001:0000c7a0       ?movss@Assembler@@IAEXPAVXMMRegisterImpl@@0@Z 0800d7a0 f   assembler_x86.obj
 0001:0000c870       ?movswl@Assembler@@QAEXPAVRegisterImpl@@0@Z 0800d870 f   assembler_x86.obj
 0001:0000c900       ?mull@Assembler@@QAEXPAVRegisterImpl@@@Z 0800d900 f   assembler_x86.obj
 0001:0000c960       ?mulsd@Assembler@@QAEXPAVXMMRegisterImpl@@0@Z 0800d960 f   assembler_x86.obj
 0001:0000ca30       ?mulss@Assembler@@QAEXPAVXMMRegisterImpl@@0@Z 0800da30 f   assembler_x86.obj
 0001:0000cb00       ?negl@Assembler@@QAEXPAVRegisterImpl@@@Z 0800db00 f   assembler_x86.obj
 0001:0000cb60       ?nop@Assembler@@QAEXH@Z    0800db60 f   assembler_x86.obj
 0001:0000d140       ?notl@Assembler@@QAEXPAVRegisterImpl@@@Z 0800e140 f   assembler_x86.obj
 0001:0000d1a0       ?orl@Assembler@@QAEXPAVRegisterImpl@@H@Z 0800e1a0 f   assembler_x86.obj
 0001:0000d1c0       ?orl@Assembler@@QAEXPAVRegisterImpl@@0@Z 0800e1c0 f   assembler_x86.obj
 0001:0000d230       ?pop@Assembler@@QAEXPAVRegisterImpl@@@Z 0800e230 f   assembler_x86.obj
 0001:0000d250       ?popf@Assembler@@QAEXXZ    0800e250 f   assembler_x86.obj
 0001:0000d2a0       ?psrlq@Assembler@@QAEXPAVXMMRegisterImpl@@H@Z 0800e2a0 f   assembler_x86.obj
 0001:0000d380       ?push@Assembler@@QAEXH@Z   0800e380 f   assembler_x86.obj
 0001:0000d3d0       ?push@Assembler@@QAEXPAVRegisterImpl@@@Z 0800e3d0 f   assembler_x86.obj
 0001:0000d3f0       ?pushf@Assembler@@QAEXXZ   0800e3f0 f   assembler_x86.obj
 0001:0000d440       ?rep_mov@Assembler@@QAEXXZ 0800e440 f   assembler_x86.obj
 0001:0000d4c0       ?repne_scan@Assembler@@QAEXXZ 0800e4c0 f   assembler_x86.obj
 0001:0000d540       ?ret@Assembler@@QAEXH@Z    0800e540 f   assembler_x86.obj
 0001:0000d580       ?sahf@Assembler@@QAEXXZ    0800e580 f   assembler_x86.obj
 0001:0000d5d0       ?sarl@Assembler@@QAEXPAVRegisterImpl@@H@Z 0800e5d0 f   assembler_x86.obj
 0001:0000d630       ?sarl@Assembler@@QAEXPAVRegisterImpl@@@Z 0800e630 f   assembler_x86.obj
 0001:0000d690       ?sbbl@Assembler@@QAEXPAVRegisterImpl@@H@Z 0800e690 f   assembler_x86.obj
 0001:0000d6b0       ?sbbl@Assembler@@QAEXPAVRegisterImpl@@0@Z 0800e6b0 f   assembler_x86.obj
 0001:0000d720       ?setb@Assembler@@QAEXW4Condition@1@PAVRegisterImpl@@@Z 0800e720 f   assembler_x86.obj
 0001:0000d790       ?shll@Assembler@@QAEXPAVRegisterImpl@@H@Z 0800e790 f   assembler_x86.obj
 0001:0000d7f0       ?shll@Assembler@@QAEXPAVRegisterImpl@@@Z 0800e7f0 f   assembler_x86.obj
 0001:0000d850       ?shrl@Assembler@@QAEXPAVRegisterImpl@@H@Z 0800e850 f   assembler_x86.obj
 0001:0000d8b0       ?shrl@Assembler@@QAEXPAVRegisterImpl@@@Z 0800e8b0 f   assembler_x86.obj
 0001:0000d910       ?sqrtsd@Assembler@@QAEXPAVXMMRegisterImpl@@0@Z 0800e910 f   assembler_x86.obj
 0001:0000d9e0       ?subl@Assembler@@QAEXPAVRegisterImpl@@0@Z 0800e9e0 f   assembler_x86.obj
 0001:0000da50       ?subsd@Assembler@@QAEXPAVXMMRegisterImpl@@0@Z 0800ea50 f   assembler_x86.obj
 0001:0000db20       ?subss@Assembler@@QAEXPAVXMMRegisterImpl@@0@Z 0800eb20 f   assembler_x86.obj
 0001:0000dbf0       ?testb@Assembler@@QAEXPAVRegisterImpl@@H@Z 0800ebf0 f   assembler_x86.obj
 0001:0000dc60       ?testl@Assembler@@QAEXPAVRegisterImpl@@H@Z 0800ec60 f   assembler_x86.obj
 0001:0000dca0       ?testl@Assembler@@QAEXPAVRegisterImpl@@0@Z 0800eca0 f   assembler_x86.obj
 0001:0000dd10       ?ucomiss@Assembler@@QAEXPAVXMMRegisterImpl@@0@Z 0800ed10 f   assembler_x86.obj
 0001:0000dda0       ?xchgl@Assembler@@QAEXPAVRegisterImpl@@0@Z 0800eda0 f   assembler_x86.obj
 0001:0000de00       ?xorl@Assembler@@QAEXPAVRegisterImpl@@H@Z 0800ee00 f   assembler_x86.obj
 0001:0000de20       ?xorl@Assembler@@QAEXPAVRegisterImpl@@0@Z 0800ee20 f   assembler_x86.obj
 0001:0000de90       ?xorps@Assembler@@QAEXPAVXMMRegisterImpl@@0@Z 0800ee90 f   assembler_x86.obj
 0001:0000df20       ?decl@Assembler@@IAEXPAVRegisterImpl@@@Z 0800ef20 f   assembler_x86.obj
 0001:0000df40       ?fabs@Assembler@@QAEXXZ    0800ef40 f   assembler_x86.obj
 0001:0000dfc0       ?fadd@Assembler@@QAEXH@Z   0800efc0 f   assembler_x86.obj
 0001:0000e020       ?fadda@Assembler@@QAEXH@Z  0800f020 f   assembler_x86.obj
 0001:0000e080       ?faddp@Assembler@@QAEXH@Z  0800f080 f   assembler_x86.obj
 0001:0000e0e0       ?fchs@Assembler@@QAEXXZ    0800f0e0 f   assembler_x86.obj
 0001:0000e160       ?fcom@Assembler@@QAEXH@Z   0800f160 f   assembler_x86.obj
 0001:0000e1c0       ?fcomp@Assembler@@QAEXH@Z  0800f1c0 f   assembler_x86.obj
 0001:0000e220       ?fcompp@Assembler@@QAEXXZ  0800f220 f   assembler_x86.obj
 0001:0000e2a0       ?fcos@Assembler@@QAEXXZ    0800f2a0 f   assembler_x86.obj
 0001:0000e320       ?fdiv@Assembler@@QAEXH@Z   0800f320 f   assembler_x86.obj
 0001:0000e380       ?fdiva@Assembler@@QAEXH@Z  0800f380 f   assembler_x86.obj
 0001:0000e3e0       ?fdivp@Assembler@@QAEXH@Z  0800f3e0 f   assembler_x86.obj
 0001:0000e440       ?fdivr@Assembler@@QAEXH@Z  0800f440 f   assembler_x86.obj
 0001:0000e4a0       ?fdivra@Assembler@@QAEXH@Z 0800f4a0 f   assembler_x86.obj
 0001:0000e500       ?fdivrp@Assembler@@QAEXH@Z 0800f500 f   assembler_x86.obj
 0001:0000e560       ?ffree@Assembler@@QAEXH@Z  0800f560 f   assembler_x86.obj
 0001:0000e5c0       ?fincstp@Assembler@@QAEXXZ 0800f5c0 f   assembler_x86.obj
 0001:0000e640       ?fld1@Assembler@@QAEXXZ    0800f640 f   assembler_x86.obj
 0001:0000e6c0       ?fld_s@Assembler@@QAEXH@Z  0800f6c0 f   assembler_x86.obj
 0001:0000e720       ?fldlg2@Assembler@@QAEXXZ  0800f720 f   assembler_x86.obj
 0001:0000e7a0       ?fldln2@Assembler@@QAEXXZ  0800f7a0 f   assembler_x86.obj
 0001:0000e820       ?fldz@Assembler@@QAEXXZ    0800f820 f   assembler_x86.obj
 0001:0000e8a0       ?fmul@Assembler@@QAEXH@Z   0800f8a0 f   assembler_x86.obj
 0001:0000e900       ?fmula@Assembler@@QAEXH@Z  0800f900 f   assembler_x86.obj
 0001:0000e960       ?fmulp@Assembler@@QAEXH@Z  0800f960 f   assembler_x86.obj
 0001:0000e9c0       ?fnstsw_ax@Assembler@@QAEXXZ 0800f9c0 f   assembler_x86.obj
 0001:0000ea40       ?fprem@Assembler@@QAEXXZ   0800fa40 f   assembler_x86.obj
 0001:0000eac0       ?fsin@Assembler@@QAEXXZ    0800fac0 f   assembler_x86.obj
 0001:0000eb40       ?fsqrt@Assembler@@QAEXXZ   0800fb40 f   assembler_x86.obj
 0001:0000ebc0       ?fstp_d@Assembler@@QAEXH@Z 0800fbc0 f   assembler_x86.obj
 0001:0000ec20       ?fsub@Assembler@@QAEXH@Z   0800fc20 f   assembler_x86.obj
 0001:0000ec80       ?fsuba@Assembler@@QAEXH@Z  0800fc80 f   assembler_x86.obj
 0001:0000ece0       ?fsubp@Assembler@@QAEXH@Z  0800fce0 f   assembler_x86.obj
 0001:0000ed40       ?fsubr@Assembler@@QAEXH@Z  0800fd40 f   assembler_x86.obj
 0001:0000eda0       ?fsubra@Assembler@@QAEXH@Z 0800fda0 f   assembler_x86.obj
 0001:0000ee00       ?fsubrp@Assembler@@QAEXH@Z 0800fe00 f   assembler_x86.obj
 0001:0000ee60       ?ftan@Assembler@@QAEXXZ    0800fe60 f   assembler_x86.obj
 0001:0000ef40       ?ftst@Assembler@@QAEXXZ    0800ff40 f   assembler_x86.obj
 0001:0000efc0       ?fucomi@Assembler@@QAEXH@Z 0800ffc0 f   assembler_x86.obj
 0001:0000f040       ?fucomip@Assembler@@QAEXH@Z 08010040 f   assembler_x86.obj
 0001:0000f0c0       ?fwait@Assembler@@QAEXXZ   080100c0 f   assembler_x86.obj
 0001:0000f110       ?fxch@Assembler@@QAEXH@Z   08010110 f   assembler_x86.obj
 0001:0000f170       ?fyl2x@Assembler@@QAEXXZ   08010170 f   assembler_x86.obj
 0001:0000f1f0       ?incl@Assembler@@IAEXPAVRegisterImpl@@@Z 080101f0 f   assembler_x86.obj
 0001:0000f210       ?popa@Assembler@@QAEXXZ    08010210 f   assembler_x86.obj
 0001:0000f260       ?pusha@Assembler@@QAEXXZ   08010260 f   assembler_x86.obj
 0001:0000f2b0       ?shldl@Assembler@@QAEXPAVRegisterImpl@@0@Z 080102b0 f   assembler_x86.obj
 0001:0000f340       ?shrdl@Assembler@@QAEXPAVRegisterImpl@@0@Z 08010340 f   assembler_x86.obj
 0001:0000f3d0       ?as_Address@MacroAssembler@@IAE?AVAddress@@VAddressLiteral@@@Z 080103d0 f   assembler_x86.obj
 0001:0000f410       ?as_Address@MacroAssembler@@IAE?AVAddress@@VArrayAddress@@@Z 08010410 f   assembler_x86.obj
 0001:0000f440       ?extend_sign@MacroAssembler@@QAEXPAVRegisterImpl@@0@Z 08010440 f   assembler_x86.obj
 0001:0000f4b0       ?lneg@MacroAssembler@@QAEXPAVRegisterImpl@@0@Z 080104b0 f   assembler_x86.obj
 0001:0000f500       ?addptr@MacroAssembler@@QAEXPAVRegisterImpl@@H@Z 08010500 f   assembler_x86.obj
 0001:0000f500       ?addl@Assembler@@QAEXPAVRegisterImpl@@H@Z 08010500 f   assembler_x86.obj
 0001:0000f520       ?addptr@MacroAssembler@@QAEXPAVRegisterImpl@@0@Z 08010520 f   assembler_x86.obj
 0001:0000f530       ?align@MacroAssembler@@QAEXH@Z 08010530 f   assembler_x86.obj
 0001:0000f560       ?andl@Assembler@@QAEXPAVRegisterImpl@@H@Z 08010560 f   assembler_x86.obj
 0001:0000f560       ?andptr@MacroAssembler@@QAEXPAVRegisterImpl@@H@Z 08010560 f   assembler_x86.obj
 0001:0000f580       ?c2bool@MacroAssembler@@QAEXPAVRegisterImpl@@@Z 08010580 f   assembler_x86.obj
 0001:0000f5d0       ?call@MacroAssembler@@QAEXPAVRegisterImpl@@@Z 080105d0 f   assembler_x86.obj
 0001:0000f5e0       ?call_VM_leaf@MacroAssembler@@QAEXPAEPAVRegisterImpl@@@Z 080105e0 f   assembler_x86.obj
 0001:0000f610       ?call_VM_leaf@MacroAssembler@@QAEXPAEPAVRegisterImpl@@1@Z 08010610 f   assembler_x86.obj
 0001:0000f650       ?decrementl@MacroAssembler@@QAEXPAVRegisterImpl@@H@Z 08010650 f   assembler_x86.obj
 0001:0000f6c0       ?empty_FPU_stack@MacroAssembler@@QAEXXZ 080106c0 f   assembler_x86.obj
 0001:0000f760       ?fpop@MacroAssembler@@QAEXXZ 08010760 f   assembler_x86.obj
 0001:0000f7b0       ?incrementl@MacroAssembler@@QAEXPAVRegisterImpl@@H@Z 080107b0 f   assembler_x86.obj
 0001:0000f820       ?mov@Assembler@@QAEXPAVRegisterImpl@@0@Z 08010820 f   assembler_x86.obj
 0001:0000f820       ?movptr@MacroAssembler@@QAEXPAVRegisterImpl@@0@Z 08010820 f   assembler_x86.obj
 0001:0000f830       ?movptr@MacroAssembler@@QAEXPAVRegisterImpl@@H@Z 08010830 f   assembler_x86.obj
 0001:0000f830       ?movl@Assembler@@QAEXPAVRegisterImpl@@H@Z 08010830 f   assembler_x86.obj
 0001:0000f860       ?pop_IU_state@MacroAssembler@@QAEXXZ 08010860 f   assembler_x86.obj
 0001:0000f8e0       ?push_IU_state@MacroAssembler@@QAEXXZ 080108e0 f   assembler_x86.obj
 0001:0000f960       ?shlptr@MacroAssembler@@QAEXPAVRegisterImpl@@H@Z 08010960 f   assembler_x86.obj
 0001:0000f970       ?shrptr@MacroAssembler@@QAEXPAVRegisterImpl@@H@Z 08010970 f   assembler_x86.obj
 0001:0000f980       ?sign_extend_byte@MacroAssembler@@QAEXPAVRegisterImpl@@@Z 08010980 f   assembler_x86.obj
 0001:0000fa00       ?sign_extend_short@MacroAssembler@@QAEXPAVRegisterImpl@@@Z 08010a00 f   assembler_x86.obj
 0001:0000fa70       ?subl@Assembler@@QAEXPAVRegisterImpl@@H@Z 08010a70 f   assembler_x86.obj
 0001:0000fa70       ?subptr@MacroAssembler@@QAEXPAVRegisterImpl@@H@Z 08010a70 f   assembler_x86.obj
 0001:0000fa90       ?subptr@MacroAssembler@@QAEXPAVRegisterImpl@@0@Z 08010a90 f   assembler_x86.obj
 0001:0000faa0       ?testbool@MacroAssembler@@QAEXPAVRegisterImpl@@@Z 08010aa0 f   assembler_x86.obj
 0001:0000fac0       ?testptr@MacroAssembler@@QAEXPAVRegisterImpl@@0@Z 08010ac0 f   assembler_x86.obj
 0001:0000fad0       ?argument_address@MacroAssembler@@QAE?AVAddress@@VRegisterOrConstant@@H@Z 08010ad0 f   assembler_x86.obj
 0001:0000fb70       ?constant_value@InstanceConstant@@UBEPAVciObject@@XZ 08010b70 f i c1_ValueType.obj
 0001:0000fb70       ?constant_value@ClassConstant@@UBEPAVciObject@@XZ 08010b70 f i c1_ValueType.obj
 0001:0000fb70       ?offset@oop_Relocation@@UAEHXZ 08010b70 f i assembler_x86.obj
 0001:0000fb70       ?constant_value@ArrayConstant@@UBEPAVciObject@@XZ 08010b70 f i c1_ValueType.obj
 0001:0000fb70       ?saved_mark_word@Space@@UBEPAVHeapWord@@XZ 08010b70 f i compactibleFreeListSpace.obj
 0001:0000fb70       ?constant_value@ObjectConstant@@UBEPAVciObject@@XZ 08010b70 f i c1_ValueType.obj
 0001:0000fb70       ?name@ClassPathZipEntry@@UAEPBDXZ 08010b70 f i classLoader.obj
 0001:0000fb80       ?value@oop_Relocation@@UAEPAEXZ 08010b80 f i assembler_x86.obj
 0001:0000fb90       ?spec@opt_virtual_call_Relocation@@SA?AVRelocationHolder@@XZ 08010b90 f i assembler_x86.obj
 0001:0000fbc0       ?spec@static_call_Relocation@@SA?AVRelocationHolder@@XZ 08010bc0 f i assembler_x86.obj
 0001:0000fbf0       ?spec@runtime_call_Relocation@@SA?AVRelocationHolder@@XZ 08010bf0 f i assembler_x86.obj
 0001:0000fc20       ?spec@external_word_Relocation@@SA?AVRelocationHolder@@PAE@Z 08010c20 f i assembler_x86.obj
 0001:0000fc60       ?spec@internal_word_Relocation@@SA?AVRelocationHolder@@PAE@Z 08010c60 f i assembler_x86.obj
 0001:0000fca0       ??0AddressLiteral@@QAE@PAEW4relocType@relocInfo@@@Z 08010ca0 f   assembler_x86.obj
 0001:0000fdc0       ?emit_data@Assembler@@IAEXHW4relocType@relocInfo@@H@Z 08010dc0 f   assembler_x86.obj
 0001:0000fe30       ?emit_arith_operand@Assembler@@AAEXHPAVRegisterImpl@@VAddress@@H@Z 08010e30 f   assembler_x86.obj
 0001:0000fef0       ?addl@Assembler@@QAEXVAddress@@H@Z 08010ef0 f   assembler_x86.obj
 0001:0000ff40       ?addl@Assembler@@QAEXVAddress@@PAVRegisterImpl@@@Z 08010f40 f   assembler_x86.obj
 0001:0000ffd0       ?addl@Assembler@@QAEXPAVRegisterImpl@@VAddress@@@Z 08010fd0 f   assembler_x86.obj
 0001:00010060       ?addsd@Assembler@@QAEXPAVXMMRegisterImpl@@VAddress@@@Z 08011060 f   assembler_x86.obj
 0001:00010160       ?addss@Assembler@@QAEXPAVXMMRegisterImpl@@VAddress@@@Z 08011160 f   assembler_x86.obj
 0001:00010260       ?andl@Assembler@@QAEXPAVRegisterImpl@@VAddress@@@Z 08011260 f   assembler_x86.obj
 0001:000102f0       ?andpd@Assembler@@QAEXPAVXMMRegisterImpl@@VAddress@@@Z 080112f0 f   assembler_x86.obj
 0001:000103f0       ?call@Assembler@@QAEXAAVLabel@@W4relocType@relocInfo@@@Z 080113f0 f   assembler_x86.obj
 0001:000104a0       ?call_literal@Assembler@@IAEXPAEABVRelocationHolder@@@Z 080114a0 f   assembler_x86.obj
 0001:00010530       ?cmpb@Assembler@@QAEXVAddress@@H@Z 08011530 f   assembler_x86.obj
 0001:000105d0       ?cmpl@Assembler@@QAEXVAddress@@H@Z 080115d0 f   assembler_x86.obj
 0001:00010670       ?cmpl@Assembler@@QAEXPAVRegisterImpl@@VAddress@@@Z 08011670 f   assembler_x86.obj
 0001:00010700       ?comiss@Assembler@@QAEXPAVXMMRegisterImpl@@VAddress@@@Z 08011700 f   assembler_x86.obj
 0001:000107c0       ?decl@Assembler@@IAEXVAddress@@@Z 080117c0 f   assembler_x86.obj
 0001:00010850       ?divsd@Assembler@@QAEXPAVXMMRegisterImpl@@VAddress@@@Z 08011850 f   assembler_x86.obj
 0001:00010950       ?divss@Assembler@@QAEXPAVXMMRegisterImpl@@VAddress@@@Z 08011950 f   assembler_x86.obj
 0001:00010a50       ?incl@Assembler@@IAEXVAddress@@@Z 08011a50 f   assembler_x86.obj
 0001:00010ae0       ?jcc@Assembler@@QAEXW4Condition@1@AAVLabel@@W4relocType@relocInfo@@@Z 08011ae0 f   assembler_x86.obj
 0001:00010c10       ?jccb@Assembler@@QAEXW4Condition@1@AAVLabel@@@Z 08011c10 f   assembler_x86.obj
 0001:00010cb0       ?jmp@Assembler@@QAEXVAddress@@@Z 08011cb0 f   assembler_x86.obj
 0001:00010d40       ?jmp@Assembler@@QAEXAAVLabel@@W4relocType@relocInfo@@@Z 08011d40 f   assembler_x86.obj
 0001:00010e60       ?jmp_literal@Assembler@@IAEXPAEABVRelocationHolder@@@Z 08011e60 f   assembler_x86.obj
 0001:00010f10       ?jmpb@Assembler@@QAEXAAVLabel@@@Z 08011f10 f   assembler_x86.obj
 0001:00010fb0       ?ldmxcsr@Assembler@@QAEXVAddress@@@Z 08011fb0 f   assembler_x86.obj
 0001:00011070       ?leal@Assembler@@QAEXPAVRegisterImpl@@VAddress@@@Z 08012070 f   assembler_x86.obj
 0001:00011100       ?movb@Assembler@@QAEXPAVRegisterImpl@@VAddress@@@Z 08012100 f   assembler_x86.obj
 0001:00011190       ?movb@Assembler@@QAEXVAddress@@H@Z 08012190 f   assembler_x86.obj
 0001:00011230       ?movb@Assembler@@QAEXVAddress@@PAVRegisterImpl@@@Z 08012230 f   assembler_x86.obj
 0001:000112c0       ?movdqu@Assembler@@QAEXPAVXMMRegisterImpl@@VAddress@@@Z 080122c0 f   assembler_x86.obj
 0001:000113c0       ?movdqu@Assembler@@QAEXVAddress@@PAVXMMRegisterImpl@@@Z 080123c0 f   assembler_x86.obj
 0001:000114c0       ?movl@Assembler@@QAEXPAVRegisterImpl@@VAddress@@@Z 080124c0 f   assembler_x86.obj
 0001:00011550       ?movl@Assembler@@QAEXVAddress@@H@Z 08012550 f   assembler_x86.obj
 0001:000115f0       ?movl@Assembler@@QAEXVAddress@@PAVRegisterImpl@@@Z 080125f0 f   assembler_x86.obj
 0001:00011680       ?movlpd@Assembler@@IAEXPAVXMMRegisterImpl@@VAddress@@@Z 08012680 f   assembler_x86.obj
 0001:00011780       ?movq@Assembler@@QAEXPAVXMMRegisterImpl@@VAddress@@@Z 08012780 f   assembler_x86.obj
 0001:00011880       ?movq@Assembler@@QAEXVAddress@@PAVXMMRegisterImpl@@@Z 08012880 f   assembler_x86.obj
 0001:00011980       ?movsbl@Assembler@@QAEXPAVRegisterImpl@@VAddress@@@Z 08012980 f   assembler_x86.obj
 0001:00011a40       ?movsd@Assembler@@IAEXPAVXMMRegisterImpl@@VAddress@@@Z 08012a40 f   assembler_x86.obj
 0001:00011b40       ?movsd@Assembler@@IAEXVAddress@@PAVXMMRegisterImpl@@@Z 08012b40 f   assembler_x86.obj
 0001:00011c40       ?movss@Assembler@@IAEXPAVXMMRegisterImpl@@VAddress@@@Z 08012c40 f   assembler_x86.obj
 0001:00011d40       ?movss@Assembler@@IAEXVAddress@@PAVXMMRegisterImpl@@@Z 08012d40 f   assembler_x86.obj
 0001:00011e40       ?movswl@Assembler@@QAEXPAVRegisterImpl@@VAddress@@@Z 08012e40 f   assembler_x86.obj
 0001:00011f00       ?movw@Assembler@@QAEXVAddress@@H@Z 08012f00 f   assembler_x86.obj
 0001:00011fd0       ?movw@Assembler@@QAEXPAVRegisterImpl@@VAddress@@@Z 08012fd0 f   assembler_x86.obj
 0001:00012090       ?movw@Assembler@@QAEXVAddress@@PAVRegisterImpl@@@Z 08013090 f   assembler_x86.obj
 0001:00012150       ?movzbl@Assembler@@QAEXPAVRegisterImpl@@VAddress@@@Z 08013150 f   assembler_x86.obj
 0001:00012210       ?movzwl@Assembler@@QAEXPAVRegisterImpl@@VAddress@@@Z 08013210 f   assembler_x86.obj
 0001:000122d0       ?mull@Assembler@@QAEXVAddress@@@Z 080132d0 f   assembler_x86.obj
 0001:00012360       ?mulsd@Assembler@@QAEXPAVXMMRegisterImpl@@VAddress@@@Z 08013360 f   assembler_x86.obj
 0001:00012460       ?mulss@Assembler@@QAEXPAVXMMRegisterImpl@@VAddress@@@Z 08013460 f   assembler_x86.obj
 0001:00012560       ?orl@Assembler@@QAEXVAddress@@H@Z 08013560 f   assembler_x86.obj
 0001:00012600       ?orl@Assembler@@QAEXPAVRegisterImpl@@VAddress@@@Z 08013600 f   assembler_x86.obj
 0001:00012690       ?popl@Assembler@@QAEXVAddress@@@Z 08013690 f   assembler_x86.obj
 0001:00012720       ?prefetchnta@Assembler@@QAEXVAddress@@@Z 08013720 f   assembler_x86.obj
 0001:000127e0       ?prefetchr@Assembler@@QAEXVAddress@@@Z 080137e0 f   assembler_x86.obj
 0001:000128a0       ?prefetcht0@Assembler@@QAEXVAddress@@@Z 080138a0 f   assembler_x86.obj
 0001:00012960       ?prefetcht2@Assembler@@QAEXVAddress@@@Z 08013960 f   assembler_x86.obj
 0001:00012a20       ?prefetchw@Assembler@@QAEXVAddress@@@Z 08013a20 f   assembler_x86.obj
 0001:00012ae0       ?pushl@Assembler@@QAEXVAddress@@@Z 08013ae0 f   assembler_x86.obj
 0001:00012b70       ?sbbl@Assembler@@QAEXVAddress@@H@Z 08013b70 f   assembler_x86.obj
 0001:00012bc0       ?stmxcsr@Assembler@@QAEXVAddress@@@Z 08013bc0 f   assembler_x86.obj
 0001:00012c80       ?subl@Assembler@@QAEXVAddress@@H@Z 08013c80 f   assembler_x86.obj
 0001:00012d60       ?subl@Assembler@@QAEXVAddress@@PAVRegisterImpl@@@Z 08013d60 f   assembler_x86.obj
 0001:00012df0       ?subl@Assembler@@QAEXPAVRegisterImpl@@VAddress@@@Z 08013df0 f   assembler_x86.obj
 0001:00012e80       ?subsd@Assembler@@QAEXPAVXMMRegisterImpl@@VAddress@@@Z 08013e80 f   assembler_x86.obj
 0001:00012f80       ?subss@Assembler@@QAEXPAVXMMRegisterImpl@@VAddress@@@Z 08013f80 f   assembler_x86.obj
 0001:00013080       ?testl@Assembler@@QAEXPAVRegisterImpl@@VAddress@@@Z 08014080 f   assembler_x86.obj
 0001:00013110       ?ucomisd@Assembler@@QAEXPAVXMMRegisterImpl@@0@Z 08014110 f   assembler_x86.obj
 0001:00013160       ?ucomiss@Assembler@@QAEXPAVXMMRegisterImpl@@VAddress@@@Z 08014160 f   assembler_x86.obj
 0001:00013220       ?xchgl@Assembler@@QAEXPAVRegisterImpl@@VAddress@@@Z 08014220 f   assembler_x86.obj
 0001:000132b0       ?xorl@Assembler@@QAEXPAVRegisterImpl@@VAddress@@@Z 080142b0 f   assembler_x86.obj
 0001:00013340       ?xorpd@Assembler@@QAEXPAVXMMRegisterImpl@@0@Z 08014340 f   assembler_x86.obj
 0001:00013390       ?xorpd@Assembler@@QAEXPAVXMMRegisterImpl@@VAddress@@@Z 08014390 f   assembler_x86.obj
 0001:00013490       ?xorps@Assembler@@QAEXPAVXMMRegisterImpl@@VAddress@@@Z 08014490 f   assembler_x86.obj
 0001:00013550       ?cmp_literal32@Assembler@@IAEXPAVRegisterImpl@@HABVRelocationHolder@@@Z 08014550 f   assembler_x86.obj
 0001:000135e0       ?cmp_literal32@Assembler@@IAEXVAddress@@HABVRelocationHolder@@@Z 080145e0 f   assembler_x86.obj
 0001:000136a0       ?cmpxchg8@Assembler@@QAEXVAddress@@@Z 080146a0 f   assembler_x86.obj
 0001:00013760       ?fadd_d@Assembler@@QAEXVAddress@@@Z 08014760 f   assembler_x86.obj
 0001:000137f0       ?fadd_s@Assembler@@QAEXVAddress@@@Z 080147f0 f   assembler_x86.obj
 0001:00013880       ?fcomp_d@Assembler@@QAEXVAddress@@@Z 08014880 f   assembler_x86.obj
 0001:00013910       ?fdiv_d@Assembler@@QAEXVAddress@@@Z 08014910 f   assembler_x86.obj
 0001:000139a0       ?fdiv_s@Assembler@@QAEXVAddress@@@Z 080149a0 f   assembler_x86.obj
 0001:00013a30       ?fdivr_d@Assembler@@QAEXVAddress@@@Z 08014a30 f   assembler_x86.obj
 0001:00013ac0       ?fdivr_s@Assembler@@QAEXVAddress@@@Z 08014ac0 f   assembler_x86.obj
 0001:00013b50       ?fild_d@Assembler@@QAEXVAddress@@@Z 08014b50 f   assembler_x86.obj
 0001:00013be0       ?fild_s@Assembler@@QAEXVAddress@@@Z 08014be0 f   assembler_x86.obj
 0001:00013c70       ?fist_s@Assembler@@QAEXVAddress@@@Z 08014c70 f   assembler_x86.obj
 0001:00013d00       ?fistp_d@Assembler@@QAEXVAddress@@@Z 08014d00 f   assembler_x86.obj
 0001:00013d90       ?fld_d@Assembler@@QAEXVAddress@@@Z 08014d90 f   assembler_x86.obj
 0001:00013e20       ?fld_s@Assembler@@QAEXVAddress@@@Z 08014e20 f   assembler_x86.obj
 0001:00013eb0       ?fld_x@Assembler@@QAEXVAddress@@@Z 08014eb0 f   assembler_x86.obj
 0001:00013f40       ?fldcw@Assembler@@QAEXVAddress@@@Z 08014f40 f   assembler_x86.obj
 0001:00013fd0       ?flog@Assembler@@QAEXXZ    08014fd0 f   assembler_x86.obj
 0001:00014030       ?flog10@Assembler@@QAEXXZ  08015030 f   assembler_x86.obj
 0001:00014090       ?fmul_d@Assembler@@QAEXVAddress@@@Z 08015090 f   assembler_x86.obj
 0001:00014120       ?fmul_s@Assembler@@QAEXVAddress@@@Z 08015120 f   assembler_x86.obj
 0001:000141b0       ?fnsave@Assembler@@QAEXVAddress@@@Z 080151b0 f   assembler_x86.obj
 0001:00014240       ?fnstcw@Assembler@@QAEXVAddress@@@Z 08015240 f   assembler_x86.obj
 0001:00014300       ?frstor@Assembler@@QAEXVAddress@@@Z 08015300 f   assembler_x86.obj
 0001:00014390       ?fst_d@Assembler@@QAEXVAddress@@@Z 08015390 f   assembler_x86.obj
 0001:00014420       ?fst_s@Assembler@@QAEXVAddress@@@Z 08015420 f   assembler_x86.obj
 0001:000144b0       ?fstp_d@Assembler@@QAEXVAddress@@@Z 080154b0 f   assembler_x86.obj
 0001:00014540       ?fstp_s@Assembler@@QAEXVAddress@@@Z 08015540 f   assembler_x86.obj
 0001:000145d0       ?fsub_d@Assembler@@QAEXVAddress@@@Z 080155d0 f   assembler_x86.obj
 0001:00014660       ?fsub_s@Assembler@@QAEXVAddress@@@Z 08015660 f   assembler_x86.obj
 0001:000146f0       ?fsubr_d@Assembler@@QAEXVAddress@@@Z 080156f0 f   assembler_x86.obj
 0001:00014780       ?fsubr_s@Assembler@@QAEXVAddress@@@Z 08015780 f   assembler_x86.obj
 0001:00014810       ?mov_literal32@Assembler@@IAEXVAddress@@HABVRelocationHolder@@@Z 08015810 f   assembler_x86.obj
 0001:000148d0       ?mov_literal32@Assembler@@IAEXPAVRegisterImpl@@HABVRelocationHolder@@@Z 080158d0 f   assembler_x86.obj
 0001:00014930       ?push_literal32@Assembler@@IAEXHABVRelocationHolder@@@Z 08015930 f   assembler_x86.obj
 0001:000149b0       ?jump@MacroAssembler@@QAEXVArrayAddress@@@Z 080159b0 f   assembler_x86.obj
 0001:000149f0       ?lcmp2int@MacroAssembler@@QAEXPAVRegisterImpl@@000@Z 080159f0 f   assembler_x86.obj
 0001:00014b50       ?lea@MacroAssembler@@QAEXPAVRegisterImpl@@VAddressLiteral@@@Z 08015b50 f   assembler_x86.obj
 0001:00014b70       ?lea@MacroAssembler@@QAEXVAddress@@VAddressLiteral@@@Z 08015b70 f   assembler_x86.obj
 0001:00014ba0       ?leave@MacroAssembler@@QAEXXZ 08015ba0 f   assembler_x86.obj
 0001:00014bd0       ?lmul@MacroAssembler@@QAEXHH@Z 08015bd0 f   assembler_x86.obj
 0001:00014db0       ?lshl@MacroAssembler@@QAEXPAVRegisterImpl@@0@Z 08015db0 f   assembler_x86.obj
 0001:00014e80       ?lshr@MacroAssembler@@QAEXPAVRegisterImpl@@0_N@Z 08015e80 f   assembler_x86.obj
 0001:00014f90       ?movptr@MacroAssembler@@QAEXPAVRegisterImpl@@VAddressLiteral@@@Z 08015f90 f   assembler_x86.obj
 0001:00015020       ?movptr@MacroAssembler@@QAEXPAVRegisterImpl@@VArrayAddress@@@Z 08016020 f   assembler_x86.obj
 0001:00015070       ?movptr@MacroAssembler@@QAEXVAddress@@H@Z 08016070 f   assembler_x86.obj
 0001:000150a0       ?push_fTOS@MacroAssembler@@QAEXXZ 080160a0 f   assembler_x86.obj
 0001:00015120       ?pushptr@MacroAssembler@@QAEXVAddressLiteral@@@Z 08016120 f   assembler_x86.obj
 0001:000151b0       ?debug32@MacroAssembler@@SAXHHHHHHHHHPAD@Z 080161b0 f   assembler_x86.obj
 0001:00015330       ?call@MacroAssembler@@QAEXVAddressLiteral@@@Z 08016330 f   assembler_x86.obj
 0001:00015350       ?cmp32@MacroAssembler@@QAEXVAddressLiteral@@H@Z 08016350 f   assembler_x86.obj
 0001:000153c0       ?cmp32@MacroAssembler@@QAEXPAVRegisterImpl@@VAddressLiteral@@@Z 080163c0 f   assembler_x86.obj
 0001:00015430       ?cmpss2int@MacroAssembler@@QAEXPAVXMMRegisterImpl@@0PAVRegisterImpl@@_N@Z 08016430 f   assembler_x86.obj
 0001:00015680       ?cmp8@MacroAssembler@@QAEXVAddressLiteral@@H@Z 08016680 f   assembler_x86.obj
 0001:000156f0       ?cmpptr@MacroAssembler@@QAEXPAVRegisterImpl@@VAddressLiteral@@@Z 080166f0 f   assembler_x86.obj
 0001:00015780       ?cmpptr@MacroAssembler@@QAEXVAddress@@VAddressLiteral@@@Z 08016780 f   assembler_x86.obj
 0001:000157b0       ?corrected_idivl@MacroAssembler@@QAEHPAVRegisterImpl@@@Z 080167b0 f   assembler_x86.obj
 0001:000158d0       ?decrementl@MacroAssembler@@QAEXVAddress@@H@Z 080168d0 f   assembler_x86.obj
 0001:00015960       ?enter@MacroAssembler@@QAEXXZ 08016960 f   assembler_x86.obj
 0001:00015990       ?fld_x@MacroAssembler@@QAEXVAddressLiteral@@@Z 08016990 f   assembler_x86.obj
 0001:00015a00       ?fldcw@MacroAssembler@@QAEXVAddressLiteral@@@Z 08016a00 f   assembler_x86.obj
 0001:00015a70       ?incrementl@MacroAssembler@@QAEXVAddress@@H@Z 08016a70 f   assembler_x86.obj
 0001:00015b40       ?jump@MacroAssembler@@QAEXVAddressLiteral@@@Z 08016b40 f   assembler_x86.obj
 0001:00015b60       ?jump_cc@MacroAssembler@@QAEXW4Condition@Assembler@@VAddressLiteral@@@Z 08016b60 f   assembler_x86.obj
 0001:00015c30       ?ldmxcsr@MacroAssembler@@QAEXVAddressLiteral@@@Z 08016c30 f   assembler_x86.obj
 0001:00015ca0       ?load_unsigned_byte@MacroAssembler@@QAEHPAVRegisterImpl@@VAddress@@@Z 08016ca0 f   assembler_x86.obj
 0001:00015d30       ?load_unsigned_short@MacroAssembler@@QAEHPAVRegisterImpl@@VAddress@@@Z 08016d30 f   assembler_x86.obj
 0001:00015dc0       ?mov32@MacroAssembler@@QAEXPAVRegisterImpl@@VAddressLiteral@@@Z 08016dc0 f   assembler_x86.obj
 0001:00015e30       ?movbool@MacroAssembler@@QAEXPAVRegisterImpl@@VAddress@@@Z 08016e30 f   assembler_x86.obj
 0001:00015e60       ?movbool@MacroAssembler@@QAEXVAddress@@_N@Z 08016e60 f   assembler_x86.obj
 0001:00015e90       ?movptr@MacroAssembler@@QAEXPAVRegisterImpl@@VAddress@@@Z 08016e90 f   assembler_x86.obj
 0001:00015ec0       ?movptr@MacroAssembler@@QAEXVAddress@@PAVRegisterImpl@@@Z 08016ec0 f   assembler_x86.obj
 0001:00015ef0       ?pop_FPU_state@MacroAssembler@@QAEXXZ 08016ef0 f   assembler_x86.obj
 0001:00015f80       ?push_FPU_state@MacroAssembler@@QAEXXZ 08016f80 f   assembler_x86.obj
 0001:00016040       ?reset_last_Java_frame@MacroAssembler@@QAEXPAVRegisterImpl@@_N1@Z 08017040 f   assembler_x86.obj
 0001:00016140       ?g1_write_barrier_pre@MacroAssembler@@QAEXPAVRegisterImpl@@000_N@Z 08017140 f   assembler_x86.obj
 0001:00016420       ?test32@MacroAssembler@@QAEXPAVRegisterImpl@@VAddressLiteral@@@Z 08017420 f   assembler_x86.obj
 0001:00016490       ?load_klass@MacroAssembler@@QAEXPAVRegisterImpl@@0@Z 08017490 f   assembler_x86.obj
 0001:000164f0       ?store_klass@MacroAssembler@@QAEXPAVRegisterImpl@@0@Z 080174f0 f   assembler_x86.obj
 0001:00016550       ?set_value@DataRelocation@@UAEXPAE@Z 08017550 f i assembler_x86.obj
 0001:00016590       ?addr_in_const@RelocIterator@@QBE_NXZ 08017590 f i assembler_x86.obj
 0001:000165b0       ??0RuntimeAddress@@QAE@PAE@Z 080175b0 f i assembler_x86.obj
 0001:00016610       ??0ExternalAddress@@QAE@PAE@Z 08017610 f i assembler_x86.obj
 0001:00016670       ??0InternalAddress@@QAE@PAE@Z 08017670 f i assembler_x86.obj
 0001:000166d0       ?cmpptr@MacroAssembler@@QAEXPAVRegisterImpl@@VAddress@@@Z 080176d0 f i assembler_x86.obj
 0001:000166d0       ?cmp32@MacroAssembler@@QAEXPAVRegisterImpl@@VAddress@@@Z 080176d0 f i assembler_x86.obj
 0001:00016700       ?lea@MacroAssembler@@QAEXPAVRegisterImpl@@VAddress@@@Z 08017700 f i assembler_x86.obj
 0001:00016700       ?lea@Assembler@@QAEXPAVRegisterImpl@@VAddress@@@Z 08017700 f i assembler_x86.obj
 0001:00016730       ?fld_s@MacroAssembler@@QAEXVAddress@@@Z 08017730 f i assembler_x86.obj
 0001:00016760       ?fld_d@MacroAssembler@@QAEXVAddress@@@Z 08017760 f i assembler_x86.obj
 0001:00016790       ?ucomiss@MacroAssembler@@QAEXPAVXMMRegisterImpl@@VAddress@@@Z 08017790 f i assembler_x86.obj
 0001:000167c0       ?pushptr@MacroAssembler@@QAEXVAddress@@@Z 080177c0 f i assembler_x86.obj
 0001:000167f0       ?cmpxchgl@Assembler@@QAEXPAVRegisterImpl@@VAddress@@@Z 080177f0 f   assembler_x86.obj
 0001:00016900       ?comisd@Assembler@@QAEXPAVXMMRegisterImpl@@VAddress@@@Z 08017900 f   assembler_x86.obj
 0001:00016960       ?ucomisd@Assembler@@QAEXPAVXMMRegisterImpl@@VAddress@@@Z 08017960 f   assembler_x86.obj
 0001:000169c0       ?call_VM_leaf_base@MacroAssembler@@MAEXPAEH@Z 080179c0 f   assembler_x86.obj
 0001:00016a20       ?cmpoop@MacroAssembler@@QAEXVAddress@@PAV_jobject@@@Z 08017a20 f   assembler_x86.obj
 0001:00016a70       ?cmpoop@MacroAssembler@@QAEXPAVRegisterImpl@@PAV_jobject@@@Z 08017a70 f   assembler_x86.obj
 0001:00016ab0       ?movoop@MacroAssembler@@QAEXPAVRegisterImpl@@PAV_jobject@@@Z 08017ab0 f   assembler_x86.obj
 0001:00016af0       ?movoop@MacroAssembler@@QAEXVAddress@@PAV_jobject@@@Z 08017af0 f   assembler_x86.obj
 0001:00016b40       ?pop_fTOS@MacroAssembler@@QAEXXZ 08017b40 f   assembler_x86.obj
 0001:00016bd0       ?pushoop@MacroAssembler@@QAEXPAV_jobject@@@Z 08017bd0 f   assembler_x86.obj
 0001:00016c10       ?stop@MacroAssembler@@QAEXPBD@Z 08017c10 f   assembler_x86.obj
 0001:00016d50       ?andpd@MacroAssembler@@QAEXPAVXMMRegisterImpl@@VAddressLiteral@@@Z 08017d50 f   assembler_x86.obj
 0001:00016dc0       ?bang_stack_size@MacroAssembler@@QAEXPAVRegisterImpl@@0@Z 08017dc0 f   assembler_x86.obj
 0001:00016f00       ?biased_locking_exit@MacroAssembler@@QAEXPAVRegisterImpl@@0AAVLabel@@@Z 08017f00 f   assembler_x86.obj
 0001:00016fc0       ?call_VM_helper@MacroAssembler@@IAEXPAVRegisterImpl@@PAEH_N@Z 08017fc0 f   assembler_x86.obj
 0001:00017050       ?cmpsd2int@MacroAssembler@@QAEXPAVXMMRegisterImpl@@0PAVRegisterImpl@@_N@Z 08018050 f   assembler_x86.obj
 0001:000172d0       ?cmpxchgptr@MacroAssembler@@QAEXPAVRegisterImpl@@VAddress@@@Z 080182d0 f   assembler_x86.obj
 0001:00017300       ?comiss@MacroAssembler@@QAEXPAVXMMRegisterImpl@@VAddressLiteral@@@Z 08018300 f   assembler_x86.obj
 0001:00017370       ?fcmp@MacroAssembler@@QAEXPAVRegisterImpl@@H_N1@Z 08018370 f   assembler_x86.obj
 0001:00017460       ?fcmp2int@MacroAssembler@@QAEXPAVRegisterImpl@@_NH11@Z 08018460 f   assembler_x86.obj
 0001:000176c0       ?fld_d@MacroAssembler@@QAEXVAddressLiteral@@@Z 080186c0 f   assembler_x86.obj
 0001:00017730       ?fld_s@MacroAssembler@@QAEXVAddressLiteral@@@Z 08018730 f   assembler_x86.obj
 0001:000177a0       ?fremr@MacroAssembler@@QAEXPAVRegisterImpl@@@Z 080187a0 f   assembler_x86.obj
 0001:000178f0       ?incrementl@MacroAssembler@@QAEXVAddressLiteral@@@Z 080188f0 f   assembler_x86.obj
 0001:00017980       ?base_offset_in_bytes@arrayOopDesc@@SAHW4BasicType@@@Z 08018980 f i assembler_x86.obj
 0001:000179b0       ?load_signed_byte@MacroAssembler@@QAEHPAVRegisterImpl@@VAddress@@@Z 080189b0 f   assembler_x86.obj
 0001:00017a60       ?load_signed_short@MacroAssembler@@QAEHPAVRegisterImpl@@VAddress@@@Z 08018a60 f   assembler_x86.obj
 0001:00017b10       ?load_sized_value@MacroAssembler@@QAEXPAVRegisterImpl@@VAddress@@H_N@Z 08018b10 f   assembler_x86.obj
 0001:00017c50       ?movdbl@MacroAssembler@@QAEXPAVXMMRegisterImpl@@VAddressLiteral@@@Z 08018c50 f   assembler_x86.obj
 0001:00017d10       ?movflt@MacroAssembler@@QAEXPAVXMMRegisterImpl@@VAddressLiteral@@@Z 08018d10 f   assembler_x86.obj
 0001:00017d80       ?null_check@MacroAssembler@@QAEXPAVRegisterImpl@@H@Z 08018d80 f   assembler_x86.obj
 0001:00017df0       ?serialize_memory@MacroAssembler@@QAEXPAVRegisterImpl@@0@Z 08018df0 f   assembler_x86.obj
 0001:00017ec0       ?set_last_Java_frame@MacroAssembler@@QAEXPAVRegisterImpl@@00PAE@Z 08018ec0 f   assembler_x86.obj
 0001:00018000       ?g1_write_barrier_post@MacroAssembler@@QAEXPAVRegisterImpl@@0000@Z 08019000 f   assembler_x86.obj
 0001:000183c0       ?store_check_part_2@MacroAssembler@@QAEXPAVRegisterImpl@@@Z 080193c0 f   assembler_x86.obj
 0001:00018420       ?tlab_allocate@MacroAssembler@@QAEXPAVRegisterImpl@@0H00AAVLabel@@@Z 08019420 f   assembler_x86.obj
 0001:00018590       ?lookup_interface_method@MacroAssembler@@QAEXPAVRegisterImpl@@0VRegisterOrConstant@@00AAVLabel@@@Z 08019590 f   assembler_x86.obj
 0001:00018870       ?check_klass_subtype_fast_path@MacroAssembler@@QAEXPAVRegisterImpl@@00PAVLabel@@11VRegisterOrConstant@@@Z 08019870 f   assembler_x86.obj
 0001:00018a80       ?check_klass_subtype_slow_path@MacroAssembler@@QAEXPAVRegisterImpl@@000PAVLabel@@1_N@Z 08019a80 f   assembler_x86.obj
 0001:00018ca0       ?ucomiss@MacroAssembler@@QAEXPAVXMMRegisterImpl@@VAddressLiteral@@@Z 08019ca0 f   assembler_x86.obj
 0001:00018d10       ?xorpd@MacroAssembler@@QAEXPAVXMMRegisterImpl@@VAddressLiteral@@@Z 08019d10 f   assembler_x86.obj
 0001:00018d80       ?xorps@MacroAssembler@@QAEXPAVXMMRegisterImpl@@VAddressLiteral@@@Z 08019d80 f   assembler_x86.obj
 0001:00018df0       ?delayed_value_impl@MacroAssembler@@UAE?AVRegisterOrConstant@@PAHPAVRegisterImpl@@H@Z 08019df0 f   assembler_x86.obj
 0001:00018e80       ??0SkipIfEqual@@QAE@PAVMacroAssembler@@PB_N_N@Z 08019e80 f   assembler_x86.obj
 0001:00018ee0       ?unimplemented@MacroAssembler@@QAEXPBD@Z 08019ee0 f i assembler_x86.obj
 0001:00018f20       ?ucomisd@MacroAssembler@@QAEXPAVXMMRegisterImpl@@VAddress@@@Z 08019f20 f i assembler_x86.obj
 0001:00018f50       ?warn@MacroAssembler@@QAEXPBD@Z 08019f50 f   assembler_x86.obj
 0001:00019040       ?atomic_incl@MacroAssembler@@QAEXVAddressLiteral@@@Z 0801a040 f   assembler_x86.obj
 0001:00019110       ?call_VM@MacroAssembler@@QAEXPAVRegisterImpl@@PAE_N@Z 0801a110 f   assembler_x86.obj
 0001:00019190       ?call_VM@MacroAssembler@@QAEXPAVRegisterImpl@@PAE0_N@Z 0801a190 f   assembler_x86.obj
 0001:00019220       ?call_VM@MacroAssembler@@QAEXPAVRegisterImpl@@PAE00_N@Z 0801a220 f   assembler_x86.obj
 0001:000192c0       ?call_VM@MacroAssembler@@QAEXPAVRegisterImpl@@PAE000_N@Z 0801a2c0 f   assembler_x86.obj
 0001:00019360       ?call_VM_base@MacroAssembler@@MAEXPAVRegisterImpl@@00PAEH_N@Z 0801a360 f   assembler_x86.obj
 0001:00019510       ?locked_cmpxchgptr@MacroAssembler@@QAEXPAVRegisterImpl@@VAddressLiteral@@@Z 0801a510 f   assembler_x86.obj
 0001:000195b0       ?comisd@MacroAssembler@@QAEXPAVXMMRegisterImpl@@VAddressLiteral@@@Z 0801a5b0 f   assembler_x86.obj
 0001:00019620       ?cond_inc32@MacroAssembler@@QAEXW4Condition@Assembler@@VAddressLiteral@@@Z 0801a620 f   assembler_x86.obj
 0001:00019680       ?eden_allocate@MacroAssembler@@QAEXPAVRegisterImpl@@0H0AAVLabel@@@Z 0801a680 f   assembler_x86.obj
 0001:00019800       ?fcmp@MacroAssembler@@QAEXPAVRegisterImpl@@@Z 0801a800 f   assembler_x86.obj
 0001:000198b0       ?fcmp2int@MacroAssembler@@QAEXPAVRegisterImpl@@_N@Z 0801a8b0 f   assembler_x86.obj
 0001:000198d0       ?store_check@MacroAssembler@@QAEXPAVRegisterImpl@@@Z 0801a8d0 f   assembler_x86.obj
 0001:000198f0       ?tlab_refill@MacroAssembler@@QAEXAAVLabel@@00@Z 0801a8f0 f   assembler_x86.obj
 0001:00019ee0       ?trigfunc@MacroAssembler@@QAEXDH@Z 0801aee0 f   assembler_x86.obj
 0001:0001a530       ?check_klass_subtype@MacroAssembler@@QAEXPAVRegisterImpl@@00AAVLabel@@@Z 0801b530 f   assembler_x86.obj
 0001:0001a5a0       ?ucomisd@MacroAssembler@@QAEXPAVXMMRegisterImpl@@VAddressLiteral@@@Z 0801b5a0 f   assembler_x86.obj
 0001:0001a610       ?check_method_handle_type@MacroAssembler@@QAEXPAVRegisterImpl@@00AAVLabel@@@Z 0801b610 f   assembler_x86.obj
 0001:0001a690       ?load_method_handle_vmslots@MacroAssembler@@QAEXPAVRegisterImpl@@00@Z 0801b690 f   assembler_x86.obj
 0001:0001a810       ?jump_to_method_handle_entry@MacroAssembler@@QAEXPAVRegisterImpl@@0@Z 0801b810 f   assembler_x86.obj
 0001:0001a8c0       ?biased_locking_enter@MacroAssembler@@QAEHPAVRegisterImpl@@000_NAAVLabel@@PAV3@PAVBiasedLockingCounters@@@Z 0801b8c0 f   assembler_x86.obj
 0001:0001b070       ?cmpxchg@Atomic@@SACCPCCC@Z 0801c070 f   atomic.obj
 0001:0001b180       ??CinstanceKlassHandle@@QBEPAVinstanceKlass@@XZ 0801c180 f i attachListener.obj
 0001:0001b1a0       ?evaluate_at_safepoint@VM_Operation@@UBE_NXZ 0801c1a0 f i attachListener.obj
 0001:0001b1d0       ?evaluate_concurrently@VM_Operation@@UBE_NXZ 0801c1d0 f i attachListener.obj
 0001:0001b200       ?type@VM_PrintJNI@@UBE?AW4VMOp_Type@VM_Operation@@XZ 0801c200 f i attachListener.obj
 0001:0001b210       ??_EVM_FindDeadlocks@@UAEPAXI@Z 0801c210 f i attachListener.obj
 0001:0001b210       ??_GVM_FindDeadlocks@@UAEPAXI@Z 0801c210 f i attachListener.obj
 0001:0001b7e0       ?allocate_instance_handle@instanceKlass@@QAE?AVinstanceHandle@@PAVThread@@@Z 0801c7e0 f i attachListener.obj
 0001:0001b890       ?dump_heap@@YAHPAVAttachOperation@@PAVoutputStream@@@Z 0801c890 f   attachListener.obj
 0001:0001bb70       ?init@AttachListener@@SAXXZ 0801cb70 f   attachListener.obj
 0001:0001bf10       ?set_name@AttachOperation@@QAEXPAD@Z 0801cf10 f i attachListener_windows.obj
 0001:0001bf30       ?set_arg@AttachOperation@@QAEXHPAD@Z 0801cf30 f i attachListener_windows.obj
 0001:0001bf70       ?set_pipe@Win32AttachOperation@@AAEXPBD@Z 0801cf70 f i attachListener_windows.obj
 0001:0001bf90       ?init@Win32AttachListener@@SAHXZ 0801cf90 f   attachListener_windows.obj
 0001:0001c090       ?enqueue@Win32AttachListener@@SAHPAD0000@Z 0801d090 f   attachListener_windows.obj
 0001:0001c200       ?dequeue@Win32AttachListener@@SAPAVWin32AttachOperation@@XZ 0801d200 f   attachListener_windows.obj
 0001:0001c290       ?write_pipe@Win32AttachOperation@@CAHPAXPADH@Z 0801d290 f   attachListener_windows.obj
 0001:0001c2e0       ?pd_init@AttachListener@@SAHXZ 0801d2e0 f   attachListener_windows.obj
 0001:0001c2f0       ?pd_data_dump@AttachListener@@SAXXZ 0801d2f0 f   attachListener_windows.obj
 0001:0001c300       ?pd_set_flag@AttachListener@@SAHPAVAttachOperation@@PAVoutputStream@@@Z 0801d300 f   attachListener_windows.obj
 0001:0001c320       _JVM_EnqueueOperation@20   0801d320 f   attachListener_windows.obj
 0001:0001c350       ?init_at_startup@AttachListener@@SA_NXZ 0801d350 f   attachListener_windows.obj
 0001:0001c360       ?handle_special_suspend_equivalent_condition@JavaThread@@QAE_NXZ 0801d360 f i attachListener_windows.obj
 0001:0001c3a0       ?check_and_wait_while_suspended@JavaThread@@QAEXXZ 0801d3a0 f i attachListener_windows.obj
 0001:0001c3f0       ?complete@Win32AttachOperation@@UAEXHPAVbufferedStream@@@Z 0801d3f0 f   attachListener_windows.obj
 0001:0001c500       ?dequeue@AttachListener@@SAPAVAttachOperation@@XZ 0801d500 f   attachListener_windows.obj
 0001:0001c550       ?write_ref_array@BarrierSet@@QAEXPAVHeapWord@@I@Z 0801d550 f i barrierSet.obj
 0001:0001c590       ?static_write_ref_array_pre@BarrierSet@@SAXPAVHeapWord@@I@Z 0801d590 f   barrierSet.obj
 0001:0001c5b0       ?static_write_ref_array_post@BarrierSet@@SAXPAVHeapWord@@I@Z 0801d5b0 f   barrierSet.obj
 0001:0001c5f0       ?is_loaded@ciObject@@QBE_NXZ 0801d5f0 f i bcEscapeAnalyzer.obj
 0001:0001c610       ?is_initialized@ciInstanceKlass@@QAE_NXZ 0801d610 f i bcEscapeAnalyzer.obj
 0001:0001c650       ?is_final_method@ciMethod@@QBE_NXZ 0801d650 f i bcEscapeAnalyzer.obj
 0001:0001c680       ?reset_to_method@ciBytecodeStream@@QAEXPAVciMethod@@@Z 0801d680 f i bcEscapeAnalyzer.obj
 0001:0001c6f0       ?next@ciBytecodeStream@@QAE?AW4Code@Bytecodes@@XZ 0801d6f0 f i bcEscapeAnalyzer.obj
 0001:0001c750       ?default_offset@Bytecode_tableswitch@@QBEHXZ 0801d750 f i bcEscapeAnalyzer.obj
 0001:0001c750       ?default_offset@Bytecode_lookupswitch@@QBEHXZ 0801d750 f i bcEscapeAnalyzer.obj
 0001:0001c780       ?low_key@Bytecode_tableswitch@@QBEHXZ 0801d780 f i bcEscapeAnalyzer.obj
 0001:0001c780       ?number_of_pairs@Bytecode_lookupswitch@@QBEHXZ 0801d780 f i bcEscapeAnalyzer.obj
 0001:0001c7b0       ?length@Bytecode_tableswitch@@QAEHXZ 0801d7b0 f i bcEscapeAnalyzer.obj
 0001:0001c810       ?current@ciEnv@@SAPAV1@XZ  0801d810 f i bcEscapeAnalyzer.obj
 0001:0001c830       ?get_index@ciBytecodeStream@@QBEHXZ 0801d830 f i bcEscapeAnalyzer.obj
 0001:0001c860       ?get_dest@ciBytecodeStream@@QBEHXZ 0801d860 f i bcEscapeAnalyzer.obj
 0001:0001c890       ?get_far_dest@ciBytecodeStream@@QBEHXZ 0801d890 f i bcEscapeAnalyzer.obj
 0001:0001c8c0       ?enabled@BiasedLocking@@SA_NXZ 0801d8c0 f   biasedLocking.obj
 0001:0001c8d0       ?fast_path_entry_count_addr@BiasedLocking@@SAPAHXZ 0801d8d0 f   biasedLocking.obj
 0001:0001c8e0       ?slow_path_entry_count_addr@BiasedLocking@@SAPAHXZ 0801d8e0 f   biasedLocking.obj
 0001:0001c8f0       ?print_on@BiasedLockingCounters@@QAEXPAVoutputStream@@@Z 0801d8f0 f   biasedLocking.obj
 0001:0001c9b0       ?evaluation_mode@VM_EnableBiasedLocking@@UBE?AW4Mode@VM_Operation@@XZ 0801d9b0 f i biasedLocking.obj
 0001:0001c9c0       ?is_cheap_allocated@VM_EnableBiasedLocking@@UBE_NXZ 0801d9c0 f i biasedLocking.obj
 0001:0001c9d0       ?doit@VM_EnableBiasedLocking@@UAEXXZ 0801d9d0 f i biasedLocking.obj
 0001:0001ca20       ?init@BiasedLocking@@SAXXZ 0801da20 f   biasedLocking.obj
 0001:0001caa0       ?type@VM_RevokeBias@@UBE?AW4VMOp_Type@VM_Operation@@XZ 0801daa0 f i biasedLocking.obj
 0001:0001cab0       ?doit_prologue@VM_RevokeBias@@UAE_NXZ 0801dab0 f i biasedLocking.obj
 0001:0001cb00       ?type@VM_BulkRevokeBias@@UBE?AW4VMOp_Type@VM_Operation@@XZ 0801db00 f i biasedLocking.obj
 0001:0001cb10       ?task@EnableBiasedLockingTask@@UAEXXZ 0801db10 f i biasedLocking.obj
 0001:0001cc20       ?revoke@BiasedLocking@@SAXPAV?$GrowableArray@VHandle@@@@@Z 0801dc20 f   biasedLocking.obj
 0001:0001d2d0       ?doit@VM_BulkRevokeBias@@UAEXXZ 0801e2d0 f i biasedLocking.obj
 0001:0001d330       ?revoke_and_rebias@BiasedLocking@@SA?AW4Condition@1@VHandle@@_NPAVThread@@@Z 0801e330 f   biasedLocking.obj
 0001:0001d580       ?revoke_at_safepoint@BiasedLocking@@SAXVHandle@@@Z 0801e580 f   biasedLocking.obj
 0001:0001d600       ?revoke_at_safepoint@BiasedLocking@@SAXPAV?$GrowableArray@VHandle@@@@@Z 0801e600 f   biasedLocking.obj
 0001:0001d690       ?doit@VM_RevokeBias@@UAEXXZ 0801e690 f i biasedLocking.obj
 0001:0001d720       ?preserve_marks@BiasedLocking@@SAXXZ 0801e720 f   biasedLocking.obj
 0001:0001d950       ?restore_marks@BiasedLocking@@SAXXZ 0801e950 f   biasedLocking.obj
 0001:0001da30       ?inc_totalSize@BinaryTreeDictionary@@EAEXI@Z 0801ea30 f   binaryTreeDictionary.obj
 0001:0001da50       ?dec_totalSize@BinaryTreeDictionary@@EAEXI@Z 0801ea50 f   binaryTreeDictionary.obj
 0001:0001da70       ?reportStatistics@FreeBlockDictionary@@UBEXXZ 0801ea70 f i binaryTreeDictionary.obj
 0001:0001da90       ?verifyTreeChunkList@TreeChunk@@QBEXXZ 0801ea90 f   binaryTreeDictionary.obj
 0001:0001db10       ?largest_address@TreeList@@IAEPAVTreeChunk@@XZ 0801eb10 f   binaryTreeDictionary.obj
 0001:0001db60       ?reset@BinaryTreeDictionary@@UAEXXZ 0801eb60 f   binaryTreeDictionary.obj
 0001:0001db70       ?findList@BinaryTreeDictionary@@ABEPAVTreeList@@I@Z 0801eb70 f   binaryTreeDictionary.obj
 0001:0001dba0       ?verifyChunkInFreeLists@BinaryTreeDictionary@@UBE_NPAVFreeChunk@@@Z 0801eba0 f   binaryTreeDictionary.obj
 0001:0001dbf0       ?findLargestDict@BinaryTreeDictionary@@UBEPAVFreeChunk@@XZ 0801ebf0 f   binaryTreeDictionary.obj
 0001:0001dc20       ?maxChunkSize@BinaryTreeDictionary@@UBEIXZ 0801ec20 f   binaryTreeDictionary.obj
 0001:0001dc40       ?totalSizeInTree@BinaryTreeDictionary@@ABEIPAVTreeList@@@Z 0801ec40 f   binaryTreeDictionary.obj
 0001:0001dc90       ?sum_of_squared_block_sizes@BinaryTreeDictionary@@ABENQAVTreeList@@@Z 0801ec90 f   binaryTreeDictionary.obj
 0001:0001dd10       ?treeHeightHelper@BinaryTreeDictionary@@ABEIPAVTreeList@@@Z 0801ed10 f   binaryTreeDictionary.obj
 0001:0001dd50       ?dictCensusUpdate@BinaryTreeDictionary@@UAEXI_N0@Z 0801ed50 f   binaryTreeDictionary.obj
 0001:0001ddc0       ?coalDictOverPopulated@BinaryTreeDictionary@@UAE_NI@Z 0801edc0 f   binaryTreeDictionary.obj
 0001:0001de00       ?do_tree@AscendTreeCensusClosure@@UAEXPAVTreeList@@@Z 0801ee00 f i binaryTreeDictionary.obj
 0001:0001de40       ?do_tree@DescendTreeCensusClosure@@UAEXPAVTreeList@@@Z 0801ee40 f i binaryTreeDictionary.obj
 0001:0001de80       ?do_tree@DescendTreeSearchClosure@@UAE_NPAVTreeList@@@Z 0801ee80 f i binaryTreeDictionary.obj
 0001:0001ded0       ?do_list@setTreeSurplusClosure@@UAEXPAVFreeList@@@Z 0801eed0 f i binaryTreeDictionary.obj
 0001:0001def0       ?do_list@setTreeHintsClosure@@UAEXPAVFreeList@@@Z 0801eef0 f i binaryTreeDictionary.obj
 0001:0001df10       ?do_list@clearTreeCensusClosure@@EAEXPAVFreeList@@@Z 0801ef10 f i binaryTreeDictionary.obj
 0001:0001df30       ?reportStatistics@BinaryTreeDictionary@@UBEXXZ 0801ef30 f   binaryTreeDictionary.obj
 0001:0001e000       ?do_list@PrintTreeCensusClosure@@UAEXPAVFreeList@@@Z 0801f000 f i binaryTreeDictionary.obj
 0001:0001e0d0       ?printDictCensus@BinaryTreeDictionary@@UBEXXZ 0801f0d0 f   binaryTreeDictionary.obj
 0001:0001e1e0       ?do_list@PrintFreeListsClosure@@UAEXPAVFreeList@@@Z 0801f1e0 f i binaryTreeDictionary.obj
 0001:0001e270       ?print_free_lists@BinaryTreeDictionary@@UBEXPAVoutputStream@@@Z 0801f270 f   binaryTreeDictionary.obj
 0001:0001e2d0       ?verifyTreeHelper@BinaryTreeDictionary@@ABEXPAVTreeList@@@Z 0801f2d0 f   binaryTreeDictionary.obj
 0001:0001e490       ?removeChunkReplaceIfNeeded@TreeList@@IAEPAV1@PAVTreeChunk@@@Z 0801f490 f   binaryTreeDictionary.obj
 0001:0001e560       ?reset@BinaryTreeDictionary@@QAEXVMemRegion@@@Z 0801f560 f   binaryTreeDictionary.obj
 0001:0001e5c0       ?reset@BinaryTreeDictionary@@UAEXPAVHeapWord@@I@Z 0801f5c0 f   binaryTreeDictionary.obj
 0001:0001e5f0       ?do_list@BeginSweepClosure@@UAEXPAVFreeList@@@Z 0801f5f0 f i binaryTreeDictionary.obj
 0001:0001e640       ?compute_desired@AllocationStats@@QAEXIMMM@Z 0801f640 f i binaryTreeDictionary.obj
 0001:0001e720       ?do_list@EndTreeSearchClosure@@UAE_NPAVFreeList@@@Z 0801f720 f i binaryTreeDictionary.obj
 0001:0001e760       ?find_chunk_ends_at@BinaryTreeDictionary@@UBEPAVFreeChunk@@PAVHeapWord@@@Z 0801f760 f   binaryTreeDictionary.obj
 0001:0001e7c0       ?beginSweepDictCensus@BinaryTreeDictionary@@UAEXNMMM@Z 0801f7c0 f   binaryTreeDictionary.obj
 0001:0001e820       ?endSweepDictCensus@BinaryTreeDictionary@@UAEXN@Z 0801f820 f   binaryTreeDictionary.obj
 0001:0001e8e0       ?verifyTree@BinaryTreeDictionary@@QBEXXZ 0801f8e0 f   binaryTreeDictionary.obj
 0001:0001e950       ?verify@BinaryTreeDictionary@@UBEXXZ 0801f950 f   binaryTreeDictionary.obj
 0001:0001e9c0       ??0BinaryTreeDictionary@@QAE@VMemRegion@@_N@Z 0801f9c0 f   binaryTreeDictionary.obj
 0001:0001e9f0       ?as_gen@CompactingPermGen@@UBEPAVGeneration@@XZ 0801f9f0 f i permGen.obj
 0001:0001e9f0       ?initialize_threshold@CompactibleSpace@@UAEPAVHeapWord@@XZ 0801f9f0 f i compactibleFreeListSpace.obj
 0001:0001e9f0       ?name@ClassPathDirEntry@@UAEPBDXZ 0801f9f0 f i classLoader.obj
 0001:0001e9f0       ?type@LIR_Const@@UBE?AW4BasicType@@XZ 0801f9f0 f i c1_LIR.obj
 0001:0001e9f0       ?as_gen@CMSPermGen@@UBEPAVGeneration@@XZ 0801f9f0 f i cmsPermGen.obj
 0001:0001e9f0       ?name@LazyClassPathEntry@@UAEPBDXZ 0801f9f0 f i classLoader.obj
 0001:0001e9f0       ?totalChunkSize@BinaryTreeDictionary@@UBEIXZ 0801f9f0 f i binaryTreeDictionary.obj
 0001:0001ea00       ?sum_of_squared_block_sizes@BinaryTreeDictionary@@UBENXZ 0801fa00 f i binaryTreeDictionary.obj
 0001:0001ea10       ?removeTreeMinimum@BinaryTreeDictionary@@AAEPAVTreeList@@PAV2@@Z 0801fa10 f   binaryTreeDictionary.obj
 0001:0001ea60       ?insertChunkInTree@BinaryTreeDictionary@@AAEXPAVFreeChunk@@@Z 0801fa60 f   binaryTreeDictionary.obj
 0001:0001eb40       ?returnChunk@BinaryTreeDictionary@@UAEXPAVFreeChunk@@@Z 0801fb40 f i binaryTreeDictionary.obj
 0001:0001eb50       ?removeChunkFromTree@BinaryTreeDictionary@@AAEPAVTreeChunk@@PAV2@@Z 0801fb50 f   binaryTreeDictionary.obj
 0001:0001ec00       ?removeChunk@BinaryTreeDictionary@@UAEXPAVFreeChunk@@@Z 0801fc00 f i binaryTreeDictionary.obj
 0001:0001ec10       ?getChunkFromTree@BinaryTreeDictionary@@AAEPAVTreeChunk@@IW4Dither@FreeBlockDictionary@@_N@Z 0801fc10 f   binaryTreeDictionary.obj
 0001:0001ed30       ?getChunk@BinaryTreeDictionary@@UAEPAVFreeChunk@@IW4Dither@FreeBlockDictionary@@@Z 0801fd30 f i binaryTreeDictionary.obj
 0001:0001ed60       ??0BitMap@@QAE@PAII@Z      0801fd60 f   bitMap.obj
 0001:0001ed80       ??0BitMap2D@@QAE@PAIII@Z   0801fd80 f   bitMap.obj
 0001:0001eda0       ?par_set_bit@BitMap@@QAE_NI@Z 0801fda0 f i bitMap.obj
 0001:0001ee30       ?par_clear_bit@BitMap@@QAE_NI@Z 0801fe30 f i bitMap.obj
 0001:0001eec0       ?par_put_range_within_word@BitMap@@IAEXII_N@Z 0801fec0 f   bitMap.obj
 0001:0001ef70       ?set_range@BitMap@@QAEXII@Z 0801ff70 f   bitMap.obj
 0001:0001f0c0       ?clear_range@BitMap@@QAEXII@Z 080200c0 f   bitMap.obj
 0001:0001f200       ?clear_large_range@BitMap@@QAEXII@Z 08020200 f   bitMap.obj
 0001:0001f2c0       ?mostly_disjoint_range_union@BitMap@@QAEXPAV1@III@Z 080202c0 f   bitMap.obj
 0001:0001f3f0       ?at_put@BitMap@@QAEXI_N@Z  080203f0 f   bitMap.obj
 0001:0001f440       ?par_at_put@BitMap@@QAE_NI_N@Z 08020440 f   bitMap.obj
 0001:0001f470       ?at_put_range@BitMap@@QAEXII_N@Z 08020470 f   bitMap.obj
 0001:0001f4a0       ?par_at_put_range@BitMap@@QAEXII_N@Z 080204a0 f   bitMap.obj
 0001:0001f560       ?set_union@BitMap@@QAEXV1@@Z 08020560 f   bitMap.obj
 0001:0001f5a0       ?set_difference@BitMap@@QAEXV1@@Z 080205a0 f   bitMap.obj
 0001:0001f5f0       ?set_intersection@BitMap@@QAEXV1@@Z 080205f0 f   bitMap.obj
 0001:0001f620       ?set_intersection_at_offset@BitMap@@QAEXV1@I@Z 08020620 f   bitMap.obj
 0001:0001f680       ?set_union_with_result@BitMap@@QAE_NV1@@Z 08020680 f   bitMap.obj
 0001:0001f6d0       ?set_intersection_with_result@BitMap@@QAE_NV1@@Z 080206d0 f   bitMap.obj
 0001:0001f710       ?set_from@BitMap@@QAEXV1@@Z 08020710 f   bitMap.obj
 0001:0001f740       ?is_same@BitMap@@QAE_NV1@@Z 08020740 f   bitMap.obj
 0001:0001f780       ?clear_large@BitMap@@QAEXXZ 08020780 f   bitMap.obj
 0001:0001f7b0       ?iterate@BitMap@@QAE_NPAVBitMapClosure@@II@Z 080207b0 f   bitMap.obj
 0001:0001f840       ?init_pop_count_table@BitMap@@KAXXZ 08020840 f   bitMap.obj
 0001:0001f910       ?count_one_bits@BitMap@@QBEIXZ 08020910 f   bitMap.obj
 0001:0001f960       ?resize@BitMap@@QAEXI_N@Z  08020960 f   bitMap.obj
 0001:0001fa30       ?at_put_grow@BitMap@@AAEXI_N@Z 08020a30 f   bitMap.obj
 0001:0001faa0       ??0BitMap@@QAE@I_N@Z       08020aa0 f   bitMap.obj
 0001:0001fad0       ??0BitMap2D@@QAE@II@Z      08020ad0 f   bitMap.obj
 0001:0001fb00       ?serialize@BlockOffsetArrayContigSpace@@QAEXPAVSerializeOopClosure@@@Z 08020b00 f   blockOffsetTable.obj
 0001:0001fb40       ?last_active_index@BlockOffsetArrayContigSpace@@UBEIXZ 08020b40 f   blockOffsetTable.obj
 0001:0001fb50       ?set_offset_array@BlockOffsetSharedArray@@IAEXIIE@Z 08020b50 f i blockOffsetTable.obj
 0001:0001fb90       ?resize@BlockOffsetSharedArray@@QAEXI@Z 08020b90 f   blockOffsetTable.obj
 0001:0001fc20       ?serialize@BlockOffsetSharedArray@@QAEXPAVSerializeOopClosure@@PAVHeapWord@@1@Z 08020c20 f   blockOffsetTable.obj
 0001:0001fc60       ?set_remainder_to_point_to_start_incl@G1BlockOffsetArray@@AAEXII@Z 08020c60 f   g1BlockOffsetTable.obj
 0001:0001fc60       ?set_remainder_to_point_to_start_incl@BlockOffsetArray@@IAEXII@Z 08020c60 f   blockOffsetTable.obj
 0001:0001fd20       ?check_all_cards@BlockOffsetArray@@QBEXII@Z 08020d20 f   blockOffsetTable.obj
 0001:0001fe70       ?verify@BlockOffsetArray@@QBEXXZ 08020e70 f   blockOffsetTable.obj
 0001:0001fed0       ?split_block@BlockOffsetArrayNonContigSpace@@QAEXPAVHeapWord@@II@Z 08020ed0 f   blockOffsetTable.obj
 0001:000200b0       ?block_start_unsafe@BlockOffsetArrayNonContigSpace@@UBEPAVHeapWord@@PBX@Z 080210b0 f   blockOffsetTable.obj
 0001:00020150       ?block_start_careful@BlockOffsetArrayNonContigSpace@@QBEPAVHeapWord@@PBX@Z 08021150 f   blockOffsetTable.obj
 0001:000201c0       ?last_active_index@BlockOffsetArrayNonContigSpace@@UBEIXZ 080211c0 f   blockOffsetTable.obj
 0001:000201e0       ?block_start_unsafe@BlockOffsetArrayContigSpace@@UBEPAVHeapWord@@PBX@Z 080211e0 f   blockOffsetTable.obj
 0001:000202a0       ?initialize_threshold@BlockOffsetArrayContigSpace@@QAEPAVHeapWord@@XZ 080212a0 f   blockOffsetTable.obj
 0001:000202c0       ??0BlockOffsetSharedArray@@QAE@VMemRegion@@I@Z 080212c0 f   blockOffsetTable.obj
 0001:00020370       ?set_remainder_to_point_to_start@G1BlockOffsetArray@@AAEXPAVHeapWord@@0@Z 08021370 f   g1BlockOffsetTable.obj
 0001:00020370       ?set_remainder_to_point_to_start@BlockOffsetArray@@IAEXPAVHeapWord@@0@Z 08021370 f   blockOffsetTable.obj
 0001:000203a0       ?do_block_internal@BlockOffsetArray@@IAEXPAVHeapWord@@0W4Action@1@@Z 080213a0 f   blockOffsetTable.obj
 0001:00020470       ?single_block@BlockOffsetArray@@QAEXPAVHeapWord@@0@Z 08021470 f   blockOffsetTable.obj
 0001:00020470       ?alloc_block@BlockOffsetArray@@UAEXPAVHeapWord@@0@Z 08021470 f   blockOffsetTable.obj
 0001:00020490       ?alloc_block@BlockOffsetArrayNonContigSpace@@UAEXPAVHeapWord@@0@Z 08021490 f   blockOffsetTable.obj
 0001:000204d0       ?mark_block@BlockOffsetArrayNonContigSpace@@QAEXPAVHeapWord@@0@Z 080214d0 f   blockOffsetTable.obj
 0001:00020560       ?alloc_block_work@BlockOffsetArrayContigSpace@@AAEXPAVHeapWord@@0@Z 08021560 f   blockOffsetTable.obj
 0001:000205e0       ??0BlockOffsetArray@@QAE@PAVBlockOffsetSharedArray@@VMemRegion@@_N@Z 080215e0 f   blockOffsetTable.obj
 0001:00020640       ?resize@BlockOffsetArray@@UAEXI@Z 08021640 f i blockOffsetTable.obj
 0001:00020690       ?do_bool@SignatureInfo@@MAEXXZ 08021690 f i bytecode.obj
 0001:000206a0       ?do_char@SignatureInfo@@MAEXXZ 080216a0 f i bytecode.obj
 0001:000206b0       ?do_float@SignatureInfo@@MAEXXZ 080216b0 f i bytecode.obj
 0001:000206c0       ?do_double@SignatureInfo@@MAEXXZ 080216c0 f i bytecode.obj
 0001:000206d0       ?do_byte@SignatureInfo@@MAEXXZ 080216d0 f i bytecode.obj
 0001:000206e0       ?do_short@SignatureInfo@@MAEXXZ 080216e0 f i bytecode.obj
 0001:000206f0       ?do_int@SignatureInfo@@MAEXXZ 080216f0 f i bytecode.obj
 0001:00020700       ?do_long@SignatureInfo@@MAEXXZ 08021700 f i bytecode.obj
 0001:00020710       ?do_void@SignatureInfo@@MAEXXZ 08021710 f i bytecode.obj
 0001:00020720       ?do_object@SignatureInfo@@MAEXHH@Z 08021720 f i bytecode.obj
 0001:00020730       ?do_array@SignatureInfo@@MAEXHH@Z 08021730 f i bytecode.obj
 0001:00020740       ??0ResultTypeFinder@@QAE@VsymbolHandle@@@Z 08021740 f i bytecode.obj
 0001:00020770       ?set@ResultTypeFinder@@EAEXHW4BasicType@@@Z 08021770 f i bytecode.obj
 0001:00020780       ?is_invokedynamic@Bytecode_invoke@@QBE_NXZ 08021780 f i bytecode.obj
 0001:000207d0       ?set_code@Bytecode@@QAEXW4Code@Bytecodes@@@Z 080217d0 f   bytecode.obj
 0001:000207e0       ?dest_offset_at@Bytecode_tableswitch@@QBEHH@Z 080217e0 f   bytecode.obj
 0001:00020820       ?index@Bytecode_field@@QBEHXZ 08021820 f   bytecode.obj
 0001:00020830       ?index@Bytecode_loadconstant@@QBEHXZ 08021830 f   bytecode.obj
 0001:00020870       ?index@Bytecode_invoke@@QBEHXZ 08021870 f   bytecode.obj
 0001:000208f0       ?signature@Bytecode_invoke@@QBEPAVsymbolOopDesc@@XZ 080218f0 f   bytecode.obj
 0001:00020910       ?name@Bytecode_invoke@@QBEPAVsymbolOopDesc@@XZ 08021910 f   bytecode.obj
 0001:00020930       ?result_type@Bytecode_invoke@@QBE?AW4BasicType@@PAVThread@@@Z 08021930 f   bytecode.obj
 0001:000209c0       ?static_target@Bytecode_invoke@@QAE?AVmethodHandle@@PAVThread@@@Z 080219c0 f   bytecode.obj
 0001:00020b00       ?raw_next_special@RawBytecodeStream@@QAE?AW4Code@Bytecodes@@W423@@Z 08021b00 f   bytecodeStream.obj
 0001:00020b80       ?non_breakpoint_code_at@Bytecodes@@SA?AW4Code@1@PAEPAVmethodOopDesc@@@Z 08021b80 f   bytecodes.obj
 0001:00020bb0       ?def@Bytecodes@@CAXW4Code@1@PBD11W4BasicType@@H_N0@Z 08021bb0 f   bytecodes.obj
 0001:00020c30       ?wide_length_for@Bytecodes@@SAHW4Code@1@@Z 08021c30 f i bytecodes.obj
 0001:00020c70       ?initialize@Bytecodes@@SAXXZ 08021c70 f   bytecodes.obj
 0001:000228c0       ?bytecodes_init@@YAXXZ     080238c0 f   bytecodes.obj
 0001:000228d0       ?special_length_at@Bytecodes@@SAHPAE0@Z 080238d0 f   bytecodes.obj
 0001:00022aa0       ?raw_special_length_at@Bytecodes@@SAHPAE0@Z 08023aa0 f   bytecodes.obj
 0001:00022ad0       ??0Instruction@@QAE@PAVValueType@@_N1@Z 08023ad0 f i c1_Canonicalizer.obj
 0001:00022b20       ??0Constant@@QAE@PAVValueType@@@Z 08023b20 f i c1_Canonicalizer.obj
 0001:00022b80       ?name@Constant@@UBEPBDXZ   08023b80 f i c1_Canonicalizer.obj
 0001:00022b90       ?visit@Constant@@UAEXPAVInstructionVisitor@@@Z 08023b90 f i c1_Canonicalizer.obj
 0001:00022bb0       ?can_trap@Constant@@UBE_NXZ 08023bb0 f i c1_Canonicalizer.obj
 0001:00022bc0       ??0AccessArray@@QAE@PAVValueType@@PAVInstruction@@PAVValueStack@@@Z 08023bc0 f i c1_Canonicalizer.obj
 0001:00022c30       ?declared_type@CheckCast@@UBEPAVciType@@XZ 08023c30 f i c1_Instruction.obj
 0001:00022c30       ?lock_stack@AccessArray@@UBEPAVValueStack@@XZ 08023c30 f i c1_Canonicalizer.obj
 0001:00022c30       ?exact_type@NewInstance@@UBEPAVciType@@XZ 08023c30 f i c1_Instruction.obj
 0001:00022c30       ?lock_stack@NullCheck@@UBEPAVValueStack@@XZ 08023c30 f i c1_GraphBuilder.obj
 0001:00022c40       ?set_lock_stack@NullCheck@@UAEXPAVValueStack@@@Z 08023c40 f i c1_GraphBuilder.obj
 0001:00022c40       ?set_lock_stack@AccessArray@@UAEXPAVValueStack@@@Z 08023c40 f i c1_Canonicalizer.obj
 0001:00022c50       ?can_trap@AccessArray@@UBE_NXZ 08023c50 f i c1_Canonicalizer.obj
 0001:00022c60       ?input_values_do@AccessIndexed@@UAEXP6AXPAPAVInstruction@@@Z@Z 08023c60 f i c1_Canonicalizer.obj
 0001:00022c90       ?g_isnan@@YAHM@Z           08023c90 f i c1_Canonicalizer.obj
 0001:00022cb0       ?g_isnan@@YAHN@Z           08023cb0 f i c1_Canonicalizer.obj
 0001:00022cd0       ??0BlockEnd@@QAE@PAVValueType@@PAVValueStack@@_N@Z 08023cd0 f i c1_Canonicalizer.obj
 0001:00022d90       ?do_IfOp@Canonicalizer@@UAEXPAVIfOp@@@Z 08023d90 f   c1_Canonicalizer.obj
 0001:00022eb0       ?constant_value@ciField@@QAE?AVciConstant@@XZ 08023eb0 f i c1_Canonicalizer.obj
 0001:00022ee0       ??2CompilationResourceObj@@SAPAXI@Z 08023ee0 f i c1_Canonicalizer.obj
 0001:00022f20       ?base@IntType@@UBEPAVValueType@@XZ 08023f20 f i c1_Canonicalizer.obj
 0001:00022f30       ?tchar@IntType@@UBE?BDXZ   08023f30 f i c1_Canonicalizer.obj
 0001:00022f40       ?name@IntType@@UBEPBDXZ    08023f40 f i c1_Canonicalizer.obj
 0001:00022f50       ??0IntConstant@@QAE@H@Z    08023f50 f i c1_Canonicalizer.obj
 0001:00022f80       ?base@LongType@@UBEPAVValueType@@XZ 08023f80 f i c1_Canonicalizer.obj
 0001:00022f90       ?tchar@LongType@@UBE?BDXZ  08023f90 f i c1_Canonicalizer.obj
 0001:00022fa0       ?name@LongType@@UBEPBDXZ   08023fa0 f i c1_Canonicalizer.obj
 0001:00022fb0       ??0LongConstant@@QAE@_J@Z  08023fb0 f i c1_Canonicalizer.obj
 0001:00022fe0       ?base@FloatType@@UBEPAVValueType@@XZ 08023fe0 f i c1_Canonicalizer.obj
 0001:00022ff0       ?tchar@FloatType@@UBE?BDXZ 08023ff0 f i c1_Canonicalizer.obj
 0001:00023000       ?name@FloatType@@UBEPBDXZ  08024000 f i c1_Canonicalizer.obj
 0001:00023010       ??0FloatConstant@@QAE@M@Z  08024010 f i c1_Canonicalizer.obj
 0001:00023040       ?base@DoubleType@@UBEPAVValueType@@XZ 08024040 f i c1_Canonicalizer.obj
 0001:00023050       ?tchar@DoubleType@@UBE?BDXZ 08024050 f i c1_Canonicalizer.obj
 0001:00023060       ?name@DoubleType@@UBEPBDXZ 08024060 f i c1_Canonicalizer.obj
 0001:00023070       ??0DoubleConstant@@QAE@N@Z 08024070 f i c1_Canonicalizer.obj
 0001:000230a0       ??0AccessField@@QAE@PAVInstruction@@HPAVciField@@_NPAVValueStack@@322@Z 080240a0 f i c1_Canonicalizer.obj
 0001:00023190       ?can_trap@AccessField@@UBE_NXZ 08024190 f i c1_Canonicalizer.obj
 0001:000231b0       ??0StoreField@@QAE@PAVInstruction@@HPAVciField@@0_NPAVValueStack@@322@Z 080241b0 f i c1_Canonicalizer.obj
 0001:00023240       ?name@StoreField@@UBEPBDXZ 08024240 f i c1_Canonicalizer.obj
 0001:00023250       ?visit@StoreField@@UAEXPAVInstructionVisitor@@@Z 08024250 f i c1_Canonicalizer.obj
 0001:00023270       ?input_values_do@StoreField@@UAEXP6AXPAPAVInstruction@@@Z@Z 08024270 f i c1_Canonicalizer.obj
 0001:00023290       ??0StoreIndexed@@QAE@PAVInstruction@@00W4BasicType@@0PAVValueStack@@@Z 08024290 f i c1_Canonicalizer.obj
 0001:00023340       ?name@StoreIndexed@@UBEPBDXZ 08024340 f i c1_Canonicalizer.obj
 0001:00023350       ?visit@StoreIndexed@@UAEXPAVInstructionVisitor@@@Z 08024350 f i c1_Canonicalizer.obj
 0001:00023370       ?input_values_do@StoreIndexed@@UAEXP6AXPAPAVInstruction@@@Z@Z 08024370 f i c1_Canonicalizer.obj
 0001:000233b0       ?default_sux@BlockEnd@@QBEPAVBlockBegin@@XZ 080243b0 f i c1_Canonicalizer.obj
 0001:000233d0       ?set_constant@Canonicalizer@@AAEXH@Z 080243d0 f i c1_Canonicalizer.obj
 0001:00023470       ?set_constant@Canonicalizer@@AAEX_J@Z 08024470 f i c1_Canonicalizer.obj
 0001:00023510       ?set_constant@Canonicalizer@@AAEXM@Z 08024510 f i c1_Canonicalizer.obj
 0001:000235b0       ?set_constant@Canonicalizer@@AAEXN@Z 080245b0 f i c1_Canonicalizer.obj
 0001:00023650       ?do_Op2@Canonicalizer@@AAEXPAVOp2@@@Z 08024650 f   c1_Canonicalizer.obj
 0001:00023b70       ?do_StoreField@Canonicalizer@@UAEXPAVStoreField@@@Z 08024b70 f   c1_Canonicalizer.obj
 0001:00023c80       ?do_ArrayLength@Canonicalizer@@UAEXPAVArrayLength@@@Z 08024c80 f   c1_Canonicalizer.obj
 0001:00023d20       ?do_StoreIndexed@Canonicalizer@@UAEXPAVStoreIndexed@@@Z 08024d20 f   c1_Canonicalizer.obj
 0001:00023df0       ?do_NegateOp@Canonicalizer@@UAEXPAVNegateOp@@@Z 08024df0 f   c1_Canonicalizer.obj
 0001:00023ed0       ?do_ArithmeticOp@Canonicalizer@@UAEXPAVArithmeticOp@@@Z 08024ed0 f   c1_Canonicalizer.obj
 0001:00023ed0       ?do_LogicOp@Canonicalizer@@UAEXPAVLogicOp@@@Z 08024ed0 f   c1_Canonicalizer.obj
 0001:00023ee0       ?do_ShiftOp@Canonicalizer@@UAEXPAVShiftOp@@@Z 08024ee0 f   c1_Canonicalizer.obj
 0001:00024190       ?do_CompareOp@Canonicalizer@@UAEXPAVCompareOp@@@Z 08025190 f   c1_Canonicalizer.obj
 0001:00024440       ?do_Intrinsic@Canonicalizer@@UAEXPAVIntrinsic@@@Z 08025440 f   c1_Canonicalizer.obj
 0001:00024540       ?do_Convert@Canonicalizer@@UAEXPAVConvert@@@Z 08025540 f   c1_Canonicalizer.obj
 0001:000248d0       ?do_NullCheck@Canonicalizer@@UAEXPAVNullCheck@@@Z 080258d0 f   c1_Canonicalizer.obj
 0001:00024960       ?do_CheckCast@Canonicalizer@@UAEXPAVCheckCast@@@Z 08025960 f   c1_Canonicalizer.obj
 0001:00024a00       ?do_InstanceOf@Canonicalizer@@UAEXPAVInstanceOf@@@Z 08025a00 f   c1_Canonicalizer.obj
 0001:00024cf0       ?do_UnsafeRawOp@Canonicalizer@@AAEXPAVUnsafeRawOp@@@Z 08025cf0 f   c1_Canonicalizer.obj
 0001:00024d40       ?do_UnsafePutRaw@Canonicalizer@@UAEXPAVUnsafePutRaw@@@Z 08025d40 f   c1_Canonicalizer.obj
 0001:00024d40       ?do_UnsafeGetRaw@Canonicalizer@@UAEXPAVUnsafeGetRaw@@@Z 08025d40 f   c1_Canonicalizer.obj
 0001:00024d50       ??0BlockList@@QAE@H@Z      08025d50 f i c1_Canonicalizer.obj
 0001:00024d90       ??0Goto@@QAE@PAVBlockBegin@@PAVValueStack@@_N@Z 08025d90 f i c1_Canonicalizer.obj
 0001:00024e20       ?name@Goto@@UBEPBDXZ       08025e20 f i c1_Canonicalizer.obj
 0001:00024e30       ?visit@Goto@@UAEXPAVInstructionVisitor@@@Z 08025e30 f i c1_Canonicalizer.obj
 0001:00024e50       ??0If@@QAE@PAVInstruction@@W4Condition@1@_N0PAVBlockBegin@@3PAVValueStack@@2@Z 08025e50 f i c1_Canonicalizer.obj
 0001:00024f30       ?name@If@@UBEPBDXZ         08025f30 f i c1_Canonicalizer.obj
 0001:00024f40       ?visit@If@@UAEXPAVInstructionVisitor@@@Z 08025f40 f i c1_Canonicalizer.obj
 0001:00024f60       ?input_values_do@If@@UAEXP6AXPAPAVInstruction@@@Z@Z 08025f60 f i c1_Canonicalizer.obj
 0001:00024f80       ?name@IfInstanceOf@@UBEPBDXZ 08025f80 f i c1_Canonicalizer.obj
 0001:00024f90       ?visit@IfInstanceOf@@UAEXPAVInstructionVisitor@@@Z 08025f90 f i c1_Canonicalizer.obj
 0001:00024fb0       ?input_values_do@IfInstanceOf@@UAEXP6AXPAPAVInstruction@@@Z@Z 08025fb0 f i c1_Canonicalizer.obj
 0001:00024fd0       ?do_If@Canonicalizer@@UAEXPAVIf@@@Z 08025fd0 f   c1_Canonicalizer.obj
 0001:000253a0       ?do_TableSwitch@Canonicalizer@@UAEXPAVTableSwitch@@@Z 080263a0 f   c1_Canonicalizer.obj
 0001:00025460       ?do_LookupSwitch@Canonicalizer@@UAEXPAVLookupSwitch@@@Z 08026460 f   c1_Canonicalizer.obj
 0001:00025530       ?align_patch_site@PatchingStub@@AAEXPAVMacroAssembler@@@Z 08026530 f   c1_CodeStubs_x86.obj
 0001:00025550       ??_H@YGXPAXIHP6EPAX0@Z@Z   08026550 f i c1_CodeStubs_x86.obj
 0001:00025580       ?entry_for@Runtime1@@SAPAEW4StubID@1@@Z 08026580 f i c1_CodeStubs_x86.obj
 0001:000255a0       ?emit_code@ConversionStub@@UAEXPAVLIR_Assembler@@@Z 080265a0 f   c1_CodeStubs_x86.obj
 0001:00025720       ??0RangeCheckStub@@QAE@PAVCodeEmitInfo@@PAVLIR_OprDesc@@_N@Z 08026720 f   c1_CodeStubs_x86.obj
 0001:000257a0       ?emit_code@RangeCheckStub@@UAEXPAVLIR_Assembler@@@Z 080267a0 f   c1_CodeStubs_x86.obj
 0001:00025850       ?emit_code@DivByZeroStub@@UAEXPAVLIR_Assembler@@@Z 08026850 f   c1_CodeStubs_x86.obj
 0001:000258e0       ??0NewInstanceStub@@QAE@PAVLIR_OprDesc@@0PAVciInstanceKlass@@PAVCodeEmitInfo@@W4StubID@Runtime1@@@Z 080268e0 f   c1_CodeStubs_x86.obj
 0001:00025970       ?emit_code@NewInstanceStub@@UAEXPAVLIR_Assembler@@@Z 08026970 f   c1_CodeStubs_x86.obj
 0001:00025a10       ??0NewTypeArrayStub@@QAE@PAVLIR_OprDesc@@00PAVCodeEmitInfo@@@Z 08026a10 f   c1_CodeStubs_x86.obj
 0001:00025a90       ?emit_code@NewTypeArrayStub@@UAEXPAVLIR_Assembler@@@Z 08026a90 f   c1_CodeStubs_x86.obj
 0001:00025b20       ??0NewObjectArrayStub@@QAE@PAVLIR_OprDesc@@00PAVCodeEmitInfo@@@Z 08026b20 f   c1_CodeStubs_x86.obj
 0001:00025ba0       ?emit_code@NewObjectArrayStub@@UAEXPAVLIR_Assembler@@@Z 08026ba0 f   c1_CodeStubs_x86.obj
 0001:00025c30       ??0MonitorEnterStub@@QAE@PAVLIR_OprDesc@@0PAVCodeEmitInfo@@@Z 08026c30 f   c1_CodeStubs_x86.obj
 0001:00025cb0       ?emit_code@MonitorEnterStub@@UAEXPAVLIR_Assembler@@@Z 08026cb0 f   c1_CodeStubs_x86.obj
 0001:00025d70       ?emit_code@MonitorExitStub@@UAEXPAVLIR_Assembler@@@Z 08026d70 f   c1_CodeStubs_x86.obj
 0001:00025e10       ?emit_code@PatchingStub@@UAEXPAVLIR_Assembler@@@Z 08026e10 f   c1_CodeStubs_x86.obj
 0001:00026080       ?emit_code@ImplicitNullCheckStub@@UAEXPAVLIR_Assembler@@@Z 08027080 f   c1_CodeStubs_x86.obj
 0001:00026110       ?emit_code@SimpleExceptionStub@@UAEXPAVLIR_Assembler@@@Z 08027110 f   c1_CodeStubs_x86.obj
 0001:000261a0       ??0ArrayStoreExceptionStub@@QAE@PAVCodeEmitInfo@@@Z 080271a0 f   c1_CodeStubs_x86.obj
 0001:000261d0       ?visit@DivByZeroStub@@UAEXPAVLIR_OpVisitState@@@Z 080271d0 f i c1_LIRAssembler.obj
 0001:000261d0       ?visit@ArrayStoreExceptionStub@@UAEXPAVLIR_OpVisitState@@@Z 080271d0 f i c1_CodeStubs_x86.obj
 0001:000261d0       ?visit@ImplicitNullCheckStub@@UAEXPAVLIR_OpVisitState@@@Z 080271d0 f i c1_LIRAssembler.obj
 0001:00026200       ?emit_code@ArrayStoreExceptionStub@@UAEXPAVLIR_Assembler@@@Z 08027200 f   c1_CodeStubs_x86.obj
 0001:00026270       ?emit_code@ArrayCopyStub@@UAEXPAVLIR_Assembler@@@Z 08027270 f   c1_CodeStubs_x86.obj
 0001:00026410       ?emit_code@G1PreBarrierStub@@UAEXPAVLIR_Assembler@@@Z 08027410 f   c1_CodeStubs_x86.obj
 0001:000264e0       ?emit_code@G1PostBarrierStub@@UAEXPAVLIR_Assembler@@@Z 080274e0 f   c1_CodeStubs_x86.obj
 0001:00026580       ?visit@RangeCheckStub@@UAEXPAVLIR_OpVisitState@@@Z 08027580 f i c1_CodeStubs_x86.obj
 0001:000265c0       ?append@LIR_OpVisitState@@AAEXAAPAVLIR_OprDesc@@W4OprMode@1@@Z 080275c0 f i c1_CodeStubs_x86.obj
 0001:00026650       ?visit@NewInstanceStub@@UAEXPAVLIR_OpVisitState@@@Z 08027650 f i c1_CodeStubs_x86.obj
 0001:000266a0       ?visit@NewObjectArrayStub@@UAEXPAVLIR_OpVisitState@@@Z 080276a0 f i c1_CodeStubs_x86.obj
 0001:000266a0       ?visit@NewTypeArrayStub@@UAEXPAVLIR_OpVisitState@@@Z 080276a0 f i c1_CodeStubs_x86.obj
 0001:00026700       ?visit@MonitorEnterStub@@UAEXPAVLIR_OpVisitState@@@Z 08027700 f i c1_CodeStubs_x86.obj
 0001:00026750       ??0PhaseTraceTime@@QAE@W4TimerName@@@Z 08027750 f i c1_Compilation.obj
 0001:00026790       ??1Compilation@@QAE@XZ     08027790 f   c1_Compilation.obj
 0001:000267b0       ?notice_inlined_method@Compilation@@QAEXPAVciMethod@@@Z 080277b0 f   c1_Compilation.obj
 0001:000267c0       ?print_timers@Compilation@@SAXXZ 080277c0 f   c1_Compilation.obj
 0001:00026a80       ?bang_stack_with_offset@MacroAssembler@@UAEXH@Z 08027a80 f i c1_Compilation.obj
 0001:00026ad0       ?debug_info_recorder@Compilation@@QBEPAVDebugInformationRecorder@@XZ 08027ad0 f   c1_Compilation.obj
 0001:00026ae0       ?dependency_recorder@Compilation@@QBEPAVDependencies@@XZ 08027ae0 f   c1_Compilation.obj
 0001:00026af0       ?initialize@Compilation@@AAEXXZ 08027af0 f   c1_Compilation.obj
 0001:00026b90       ?emit_code_epilog@Compilation@@AAEXPAVLIR_Assembler@@@Z 08027b90 f   c1_Compilation.obj
 0001:00026c10       ?install_code@Compilation@@AAEXH@Z 08027c10 f   c1_Compilation.obj
 0001:00026ca0       ?add_exception_handlers_for_pco@Compilation@@QAEXHPAVXHandlers@@@Z 08027ca0 f   c1_Compilation.obj
 0001:00026d10       ?bailout@Compilation@@QAEXPBD@Z 08027d10 f   c1_Compilation.obj
 0001:00026d30       ?build_hir@Compilation@@AAEXXZ 08027d30 f   c1_Compilation.obj
 0001:00026e10       ?generate_exception_handler_table@Compilation@@AAEXXZ 08027e10 f   c1_Compilation.obj
 0001:00027000       ??0LIRGenerator@@QAE@PAVCompilation@@PAVciMethod@@@Z 08028000 f i c1_Compilation.obj
 0001:000270c0       ?emit_code_body@Compilation@@AAEHXZ 080280c0 f   c1_Compilation.obj
 0001:00027180       ?emit_lir@Compilation@@AAEXXZ 08028180 f   c1_Compilation.obj
 0001:000272c0       ?compile_java_method@Compilation@@AAEHXZ 080282c0 f   c1_Compilation.obj
 0001:000273d0       ?compile_method@Compilation@@AAEXXZ 080283d0 f   c1_Compilation.obj
 0001:00027470       ??0Compilation@@QAE@PAVAbstractCompiler@@PAVciEnv@@PAVciMethod@@H@Z 08028470 f   c1_Compilation.obj
 0001:000275b0       ?compile_method@AbstractCompiler@@UAEXPAVciEnv@@PAVciMethod@@H@Z 080285b0 f i c1_Compiler.obj
 0001:000275d0       ?print_timers@AbstractCompiler@@UAEXXZ 080285d0 f i c1_Compiler.obj
 0001:000275f0       ??0Compiler@@QAE@XZ        080285f0 f   c1_Compiler.obj
 0001:00027600       ?name@Compiler@@UAEPBDXZ   08028600 f i c1_Compiler.obj
 0001:00027610       ?initialize@Compiler@@UAEXXZ 08028610 f   c1_Compiler.obj
 0001:00027640       ?print_timers@Compiler@@UAEXXZ 08028640 f   c1_Compiler.obj
 0001:00027650       ?compile_method@Compiler@@UAEXPAVciEnv@@PAVciMethod@@H@Z 08028650 f   c1_Compiler.obj
 0001:000276e0       ??0FpuStackSim@@QAE@PAVCompilation@@@Z 080286e0 f   c1_FpuStackSim_x86.obj
 0001:00027710       ?pop@FpuStackSim@@QAEXXZ   08028710 f   c1_FpuStackSim_x86.obj
 0001:00027720       ?pop@FpuStackSim@@QAEXH@Z  08028720 f   c1_FpuStackSim_x86.obj
 0001:00027740       ?push@FpuStackSim@@QAEXH@Z 08028740 f   c1_FpuStackSim_x86.obj
 0001:00027760       ?swap@FpuStackSim@@QAEXH@Z 08028760 f   c1_FpuStackSim_x86.obj
 0001:00027790       ?offset_from_tos@FpuStackSim@@QBEHH@Z 08028790 f   c1_FpuStackSim_x86.obj
 0001:000277d0       ?get_slot@FpuStackSim@@QBEHH@Z 080287d0 f   c1_FpuStackSim_x86.obj
 0001:000277f0       ?set_slot@FpuStackSim@@QAEXHH@Z 080287f0 f   c1_FpuStackSim_x86.obj
 0001:00027810       ?rename@FpuStackSim@@QAEXHH@Z 08028810 f   c1_FpuStackSim_x86.obj
 0001:00027850       ?contains@FpuStackSim@@QAE_NH@Z 08028850 f   c1_FpuStackSim_x86.obj
 0001:00027880       ?is_empty@FpuStackSim@@QAE_NXZ 08028880 f   c1_FpuStackSim_x86.obj
 0001:00027890       ?clear@FpuStackSim@@QAEXXZ 08028890 f   c1_FpuStackSim_x86.obj
 0001:000278c0       ?read_state@FpuStackSim@@QAEXPAVintArray@@@Z 080288c0 f   c1_FpuStackSim_x86.obj
 0001:00027920       ?write_state@FpuStackSim@@QAEPAVintArray@@XZ 08028920 f   c1_FpuStackSim_x86.obj
 0001:000279a0       ?as_BasicType@@YA?AW4BasicType@@W4OprType@LIR_OprDesc@@@Z 080289a0 f i c1_FrameMap.obj
 0001:00027a40       ?stack@LIR_OprFact@@SAPAVLIR_OprDesc@@HW4BasicType@@@Z 08028a40 f i c1_FrameMap.obj
 0001:00027ad0       ?sp_offset2vmreg@FrameMap@@IBEPAVVMRegImpl@@H@Z 08028ad0 f   c1_FrameMap.obj
 0001:00027af0       ?sp_offset_for_monitor_lock@FrameMap@@IBEHH@Z 08028af0 f   c1_FrameMap.obj
 0001:00027af0       ?sp_offset_for_monitor_base@FrameMap@@IBEHH@Z 08028af0 f   c1_FrameMap.obj
 0001:00027b10       ?sp_offset_for_monitor_object@FrameMap@@IBEHH@Z 08028b10 f   c1_FrameMap.obj
 0001:00027b40       ?type@LIR_OprDesc@@QBE?AW4BasicType@@XZ 08028b40 f i c1_FrameMap.obj
 0001:00027b70       ?is_address@LIR_OprDesc@@QBE_NXZ 08028b70 f i c1_FrameMap.obj
 0001:00027b90       ?signature_type_array_for@FrameMap@@SAPAVBasicTypeArray@@PBVciMethod@@@Z 08028b90 f   c1_FrameMap.obj
 0001:00027c90       ?java_calling_convention@FrameMap@@QAEPAVCallingConvention@@PBVBasicTypeArray@@_N@Z 08028c90 f   c1_FrameMap.obj
 0001:00027e50       ?c_calling_convention@FrameMap@@QAEPAVCallingConvention@@PBVBasicTypeArray@@@Z 08028e50 f   c1_FrameMap.obj
 0001:00028000       ??0FrameMap@@QAE@PAVciMethod@@HH@Z 08029000 f   c1_FrameMap.obj
 0001:00028170       ?finalize_frame@FrameMap@@QAE_NH@Z 08029170 f   c1_FrameMap.obj
 0001:00028230       ?location_for_sp_offset@FrameMap@@QBE_NHW4Type@Location@@PAV3@@Z 08029230 f   c1_FrameMap.obj
 0001:00028260       ?sp_offset_for_slot@FrameMap@@IBEHH@Z 08029260 f   c1_FrameMap.obj
 0001:00028290       ?regname@FrameMap@@QBEPAVVMRegImpl@@PAVLIR_OprDesc@@@Z 08029290 f   c1_FrameMap.obj
 0001:00028340       ?locations_for_slot@FrameMap@@QBE_NHW4Type@Location@@PAV3@1@Z 08029340 f   c1_FrameMap.obj
 0001:000283c0       ?nr2xmmreg@FrameMap@@SAPAVXMMRegisterImpl@@H@Z 080293c0 f   c1_FrameMap_x86.obj
 0001:000283d0       ?make_new_address@FrameMap@@IBE?AVAddress@@H@Z 080293d0 f   c1_FrameMap_x86.obj
 0001:00028410       ?fpu_regname@FrameMap@@SAPAVVMRegImpl@@H@Z 08029410 f   c1_FrameMap_x86.obj
 0001:00028430       ?type@LIR_Address@@UBE?AW4BasicType@@XZ 08029430 f i c1_FrameMap_x86.obj
 0001:00028440       ?map_to_opr@FrameMap@@KAPAVLIR_OprDesc@@W4BasicType@@PAVVMRegPair@@_N@Z 08029440 f   c1_FrameMap_x86.obj
 0001:000285d0       ?init@FrameMap@@SAXXZ      080295d0 f   c1_FrameMap_x86.obj
 0001:00028940       ?subst@Instruction@@QAEPAV1@XZ 08029940 f i c1_GraphBuilder.obj
 0001:00028950       ??0Local@@QAE@PAVValueType@@H@Z 08029950 f i c1_GraphBuilder.obj
 0001:000289b0       ?name@Local@@UBEPBDXZ      080299b0 f i c1_GraphBuilder.obj
 0001:000289c0       ?oops_do@SensorInfo@@QAEXPAVOopClosure@@@Z 080299c0 f i lowMemoryDetector.obj
 0001:000289c0       ?visit@Local@@UAEXPAVInstructionVisitor@@@Z 080299c0 f i c1_GraphBuilder.obj
 0001:000289e0       ??0Constant@@QAE@PAVValueType@@PAVValueStack@@@Z 080299e0 f i c1_GraphBuilder.obj
 0001:00028a40       ??0ArrayLength@@QAE@PAVInstruction@@PAVValueStack@@@Z 08029a40 f i c1_GraphBuilder.obj
 0001:00028a70       ?name@ArrayLength@@UBEPBDXZ 08029a70 f i c1_GraphBuilder.obj
 0001:00028a80       ?visit@ArrayLength@@UAEXPAVInstructionVisitor@@@Z 08029a80 f i c1_GraphBuilder.obj
 0001:00028aa0       ?hash@NullCheck@@UBEHXZ    08029aa0 f i c1_GraphBuilder.obj
 0001:00028aa0       ?hash@ArrayLength@@UBEHXZ  08029aa0 f i c1_GraphBuilder.obj
 0001:00028ad0       ?is_equal@ArrayLength@@UBE_NPAVInstruction@@@Z 08029ad0 f i c1_GraphBuilder.obj
 0001:00028b20       ?name@LoadIndexed@@UBEPBDXZ 08029b20 f i c1_GraphBuilder.obj
 0001:00028b30       ?visit@LoadIndexed@@UAEXPAVInstructionVisitor@@@Z 08029b30 f i c1_GraphBuilder.obj
 0001:00028b50       ?hash@LoadIndexed@@UBEHXZ  08029b50 f i c1_GraphBuilder.obj
 0001:00028b90       ?is_equal@LoadIndexed@@UBE_NPAVInstruction@@@Z 08029b90 f i c1_GraphBuilder.obj
 0001:00028c00       ??0NegateOp@@QAE@PAVInstruction@@@Z 08029c00 f i c1_GraphBuilder.obj
 0001:00028c60       ?name@NegateOp@@UBEPBDXZ   08029c60 f i c1_GraphBuilder.obj
 0001:00028c70       ?visit@NegateOp@@UAEXPAVInstructionVisitor@@@Z 08029c70 f i c1_GraphBuilder.obj
 0001:00028c90       ?input_values_do@ProfileCounter@@UAEXP6AXPAPAVInstruction@@@Z@Z 08029c90 f i c1_GraphBuilder.obj
 0001:00028c90       ?input_values_do@NegateOp@@UAEXP6AXPAPAVInstruction@@@Z@Z 08029c90 f i c1_GraphBuilder.obj
 0001:00028c90       ?input_values_do@NullCheck@@UAEXP6AXPAPAVInstruction@@@Z@Z 08029c90 f i c1_GraphBuilder.obj
 0001:00028c90       ?input_values_do@RoundFP@@UAEXP6AXPAPAVInstruction@@@Z@Z 08029c90 f i c1_GraphBuilder.obj
 0001:00028c90       ?input_values_do@AccessField@@UAEXP6AXPAPAVInstruction@@@Z@Z 08029c90 f i c1_Canonicalizer.obj
 0001:00028c90       ?input_values_do@AccessArray@@UAEXP6AXPAPAVInstruction@@@Z@Z 08029c90 f i c1_Canonicalizer.obj
 0001:00028cb0       ??0Op2@@QAE@PAVValueType@@W4Code@Bytecodes@@PAVInstruction@@2@Z 08029cb0 f i c1_GraphBuilder.obj
 0001:00028d10       ??0ArithmeticOp@@QAE@W4Code@Bytecodes@@PAVInstruction@@1_NPAVValueStack@@@Z 08029d10 f i c1_GraphBuilder.obj
 0001:00028d80       ?name@ArithmeticOp@@UBEPBDXZ 08029d80 f i c1_GraphBuilder.obj
 0001:00028d90       ?visit@ArithmeticOp@@UAEXPAVInstructionVisitor@@@Z 08029d90 f i c1_GraphBuilder.obj
 0001:00028db0       ?set_lock_stack@ArithmeticOp@@UAEXPAVValueStack@@@Z 08029db0 f i c1_GraphBuilder.obj
 0001:00028dc0       ?is_equal@CompareOp@@UBE_NPAVInstruction@@@Z 08029dc0 f i c1_GraphBuilder.obj
 0001:00028dc0       ?is_equal@ArithmeticOp@@UBE_NPAVInstruction@@@Z 08029dc0 f i c1_GraphBuilder.obj
 0001:00028dc0       ?is_equal@ShiftOp@@UBE_NPAVInstruction@@@Z 08029dc0 f i c1_GraphBuilder.obj
 0001:00028dc0       ?is_equal@LogicOp@@UBE_NPAVInstruction@@@Z 08029dc0 f i c1_GraphBuilder.obj
 0001:00028e40       ?name@ShiftOp@@UBEPBDXZ    08029e40 f i c1_GraphBuilder.obj
 0001:00028e50       ?visit@ShiftOp@@UAEXPAVInstructionVisitor@@@Z 08029e50 f i c1_GraphBuilder.obj
 0001:00028e70       ?hash@ArithmeticOp@@UBEHXZ 08029e70 f i c1_GraphBuilder.obj
 0001:00028e70       ?hash@CompareOp@@UBEHXZ    08029e70 f i c1_GraphBuilder.obj
 0001:00028e70       ?hash@LogicOp@@UBEHXZ      08029e70 f i c1_GraphBuilder.obj
 0001:00028e70       ?hash@ShiftOp@@UBEHXZ      08029e70 f i c1_GraphBuilder.obj
 0001:00028ed0       ??0LogicOp@@QAE@W4Code@Bytecodes@@PAVInstruction@@1@Z 08029ed0 f i c1_GraphBuilder.obj
 0001:00028f10       ?name@LogicOp@@UBEPBDXZ    08029f10 f i c1_GraphBuilder.obj
 0001:00028f20       ?visit@LogicOp@@UAEXPAVInstructionVisitor@@@Z 08029f20 f i c1_GraphBuilder.obj
 0001:00028f40       ?name@CompareOp@@UBEPBDXZ  08029f40 f i c1_GraphBuilder.obj
 0001:00028f50       ?visit@CompareOp@@UAEXPAVInstructionVisitor@@@Z 08029f50 f i c1_GraphBuilder.obj
 0001:00028f70       ??0Convert@@QAE@W4Code@Bytecodes@@PAVInstruction@@PAVValueType@@@Z 08029f70 f i c1_GraphBuilder.obj
 0001:00028fd0       ?name@Convert@@UBEPBDXZ    08029fd0 f i c1_GraphBuilder.obj
 0001:00028fe0       ?visit@Convert@@UAEXPAVInstructionVisitor@@@Z 08029fe0 f i c1_GraphBuilder.obj
 0001:00029000       ?input_values_do@Convert@@UAEXP6AXPAPAVInstruction@@@Z@Z 0802a000 f i c1_GraphBuilder.obj
 0001:00029000       ?input_values_do@NewArray@@UAEXP6AXPAPAVInstruction@@@Z@Z 0802a000 f i c1_GraphBuilder.obj
 0001:00029000       ?input_values_do@AccessMonitor@@UAEXP6AXPAPAVInstruction@@@Z@Z 0802a000 f i c1_GraphBuilder.obj
 0001:00029020       ?hash@Convert@@UBEHXZ      0802a020 f i c1_GraphBuilder.obj
 0001:00029060       ?is_equal@Convert@@UBE_NPAVInstruction@@@Z 0802a060 f i c1_GraphBuilder.obj
 0001:000290b0       ??0NewInstance@@QAE@PAVciInstanceKlass@@@Z 0802a0b0 f i c1_GraphBuilder.obj
 0001:00029120       ?name@NewInstance@@UBEPBDXZ 0802a120 f i c1_GraphBuilder.obj
 0001:00029130       ?visit@NewInstance@@UAEXPAVInstructionVisitor@@@Z 0802a130 f i c1_GraphBuilder.obj
 0001:00029150       ??0NewArray@@QAE@PAVInstruction@@PAVValueStack@@@Z 0802a150 f i c1_GraphBuilder.obj
 0001:000291c0       ?name@NewTypeArray@@UBEPBDXZ 0802a1c0 f i c1_GraphBuilder.obj
 0001:000291d0       ?visit@NewTypeArray@@UAEXPAVInstructionVisitor@@@Z 0802a1d0 f i c1_GraphBuilder.obj
 0001:000291f0       ?name@NewObjectArray@@UBEPBDXZ 0802a1f0 f i c1_GraphBuilder.obj
 0001:00029200       ?visit@NewObjectArray@@UAEXPAVInstructionVisitor@@@Z 0802a200 f i c1_GraphBuilder.obj
 0001:00029220       ?name@NewMultiArray@@UBEPBDXZ 0802a220 f i c1_GraphBuilder.obj
 0001:00029230       ?visit@NewMultiArray@@UAEXPAVInstructionVisitor@@@Z 0802a230 f i c1_GraphBuilder.obj
 0001:00029250       ?set_direct_compare@TypeCheck@@QAEX_N@Z 0802a250 f i c1_GraphBuilder.obj
 0001:00029280       ??0AccessMonitor@@QAE@PAVInstruction@@H@Z 0802a280 f i c1_GraphBuilder.obj
 0001:000292f0       ?name@MonitorEnter@@UBEPBDXZ 0802a2f0 f i c1_GraphBuilder.obj
 0001:00029300       ?visit@MonitorEnter@@UAEXPAVInstructionVisitor@@@Z 0802a300 f i c1_GraphBuilder.obj
 0001:00029320       ?name@MonitorExit@@UBEPBDXZ 0802a320 f i c1_GraphBuilder.obj
 0001:00029330       ?visit@MonitorExit@@UAEXPAVInstructionVisitor@@@Z 0802a330 f i c1_GraphBuilder.obj
 0001:00029350       ?can_trap@NullCheck@@UBE_NXZ 0802a350 f i c1_GraphBuilder.obj
 0001:00029350       ?can_trap@Intrinsic@@UBE_NXZ 0802a350 f i c1_GraphBuilder.obj
 0001:00029360       ?input_values_do@Throw@@UAEXP6AXPAPAVInstruction@@@Z@Z 0802a360 f i c1_GraphBuilder.obj
 0001:00029360       ?input_values_do@Switch@@UAEXP6AXPAPAVInstruction@@@Z@Z 0802a360 f i c1_GraphBuilder.obj
 0001:00029380       ?name@TableSwitch@@UBEPBDXZ 0802a380 f i c1_GraphBuilder.obj
 0001:00029390       ?visit@TableSwitch@@UAEXPAVInstructionVisitor@@@Z 0802a390 f i c1_GraphBuilder.obj
 0001:000293b0       ?name@LookupSwitch@@UBEPBDXZ 0802a3b0 f i c1_GraphBuilder.obj
 0001:000293c0       ?visit@LookupSwitch@@UAEXPAVInstructionVisitor@@@Z 0802a3c0 f i c1_GraphBuilder.obj
 0001:000293e0       ??0Return@@QAE@PAVInstruction@@@Z 0802a3e0 f i c1_GraphBuilder.obj
 0001:00029470       ?name@Return@@UBEPBDXZ     0802a470 f i c1_GraphBuilder.obj
 0001:00029480       ?visit@Return@@UAEXPAVInstructionVisitor@@@Z 0802a480 f i c1_GraphBuilder.obj
 0001:000294a0       ?input_values_do@Return@@UAEXP6AXPAPAVInstruction@@@Z@Z 0802a4a0 f i c1_GraphBuilder.obj
 0001:000294c0       ??0Throw@@QAE@PAVInstruction@@PAVValueStack@@@Z 0802a4c0 f i c1_GraphBuilder.obj
 0001:00029540       ?name@Throw@@UBEPBDXZ      0802a540 f i c1_GraphBuilder.obj
 0001:00029550       ?visit@Throw@@UAEXPAVInstructionVisitor@@@Z 0802a550 f i c1_GraphBuilder.obj
 0001:00029570       ??0OsrEntry@@QAE@XZ        0802a570 f i c1_GraphBuilder.obj
 0001:000295d0       ?name@OsrEntry@@UBEPBDXZ   0802a5d0 f i c1_GraphBuilder.obj
 0001:000295e0       ?visit@OsrEntry@@UAEXPAVInstructionVisitor@@@Z 0802a5e0 f i c1_GraphBuilder.obj
 0001:00029600       ??0ExceptionObject@@QAE@XZ 0802a600 f i c1_GraphBuilder.obj
 0001:00029660       ?name@ExceptionObject@@UBEPBDXZ 0802a660 f i c1_GraphBuilder.obj
 0001:00029670       ?visit@ExceptionObject@@UAEXPAVInstructionVisitor@@@Z 0802a670 f i c1_GraphBuilder.obj
 0001:00029690       ??0RoundFP@@QAE@PAVInstruction@@@Z 0802a690 f i c1_GraphBuilder.obj
 0001:000296f0       ?name@RoundFP@@UBEPBDXZ    0802a6f0 f i c1_GraphBuilder.obj
 0001:00029700       ?visit@RoundFP@@UAEXPAVInstructionVisitor@@@Z 0802a700 f i c1_GraphBuilder.obj
 0001:00029720       ?input_values_do@UnsafeRawOp@@UAEXP6AXPAPAVInstruction@@@Z@Z 0802a720 f i c1_GraphBuilder.obj
 0001:00029750       ??0UnsafeGetRaw@@QAE@W4BasicType@@PAVInstruction@@_N@Z 0802a750 f i c1_GraphBuilder.obj
 0001:000297d0       ?name@UnsafeGetRaw@@UBEPBDXZ 0802a7d0 f i c1_GraphBuilder.obj
 0001:000297e0       ?visit@UnsafeGetRaw@@UAEXPAVInstructionVisitor@@@Z 0802a7e0 f i c1_GraphBuilder.obj
 0001:00029800       ??0UnsafeGetRaw@@QAE@W4BasicType@@PAVInstruction@@1H_N@Z 0802a800 f i c1_GraphBuilder.obj
 0001:00029890       ??0UnsafePutRaw@@QAE@W4BasicType@@PAVInstruction@@1@Z 0802a890 f i c1_GraphBuilder.obj
 0001:00029900       ?name@UnsafePutRaw@@UBEPBDXZ 0802a900 f i c1_GraphBuilder.obj
 0001:00029910       ?visit@UnsafePutRaw@@UAEXPAVInstructionVisitor@@@Z 0802a910 f i c1_GraphBuilder.obj
 0001:00029930       ?input_values_do@UnsafePutRaw@@UAEXP6AXPAPAVInstruction@@@Z@Z 0802a930 f i c1_GraphBuilder.obj
 0001:00029970       ?input_values_do@UnsafeObjectOp@@UAEXP6AXPAPAVInstruction@@@Z@Z 0802a970 f i c1_GraphBuilder.obj
 0001:00029970       ?input_values_do@Op2@@UAEXP6AXPAPAVInstruction@@@Z@Z 0802a970 f i c1_GraphBuilder.obj
 0001:00029990       ??0UnsafeGetObject@@QAE@W4BasicType@@PAVInstruction@@1_N@Z 0802a990 f i c1_GraphBuilder.obj
 0001:00029a10       ?name@UnsafeGetObject@@UBEPBDXZ 0802aa10 f i c1_GraphBuilder.obj
 0001:00029a20       ?visit@UnsafeGetObject@@UAEXPAVInstructionVisitor@@@Z 0802aa20 f i c1_GraphBuilder.obj
 0001:00029a40       ??0UnsafePutObject@@QAE@W4BasicType@@PAVInstruction@@11_N@Z 0802aa40 f i c1_GraphBuilder.obj
 0001:00029ac0       ?name@UnsafePutObject@@UBEPBDXZ 0802aac0 f i c1_GraphBuilder.obj
 0001:00029ad0       ?visit@UnsafePutObject@@UAEXPAVInstructionVisitor@@@Z 0802aad0 f i c1_GraphBuilder.obj
 0001:00029af0       ?input_values_do@UnsafePutObject@@UAEXP6AXPAPAVInstruction@@@Z@Z 0802aaf0 f i c1_GraphBuilder.obj
 0001:00029b20       ??0UnsafePrefetch@@QAE@PAVInstruction@@0@Z 0802ab20 f i c1_GraphBuilder.obj
 0001:00029ba0       ?name@UnsafePrefetchRead@@UBEPBDXZ 0802aba0 f i c1_GraphBuilder.obj
 0001:00029bb0       ?visit@UnsafePrefetchRead@@UAEXPAVInstructionVisitor@@@Z 0802abb0 f i c1_GraphBuilder.obj
 0001:00029bd0       ?name@UnsafePrefetchWrite@@UBEPBDXZ 0802abd0 f i c1_GraphBuilder.obj
 0001:00029be0       ?visit@UnsafePrefetchWrite@@UAEXPAVInstructionVisitor@@@Z 0802abe0 f i c1_GraphBuilder.obj
 0001:00029c00       ??0ProfileCall@@QAE@PAVciMethod@@HPAVInstruction@@PAVciKlass@@@Z 0802ac00 f i c1_GraphBuilder.obj
 0001:00029c70       ?name@ProfileCall@@UBEPBDXZ 0802ac70 f i c1_GraphBuilder.obj
 0001:00029c80       ?visit@ProfileCall@@UAEXPAVInstructionVisitor@@@Z 0802ac80 f i c1_GraphBuilder.obj
 0001:00029ca0       ?input_values_do@ProfileCall@@UAEXP6AXPAPAVInstruction@@@Z@Z 0802aca0 f i c1_GraphBuilder.obj
 0001:00029cc0       ??0ProfileCounter@@QAE@PAVInstruction@@HH@Z 0802acc0 f i c1_GraphBuilder.obj
 0001:00029d30       ?name@ProfileCounter@@UBEPBDXZ 0802ad30 f i c1_GraphBuilder.obj
 0001:00029d40       ?visit@ProfileCounter@@UAEXPAVInstructionVisitor@@@Z 0802ad40 f i c1_GraphBuilder.obj
 0001:00029d60       ?do_StoreField@ValueNumberingVisitor@@MAEXPAVStoreField@@@Z 0802ad60 f i c1_GraphBuilder.obj
 0001:00029d90       ?do_StoreIndexed@ValueNumberingVisitor@@MAEXPAVStoreIndexed@@@Z 0802ad90 f i c1_GraphBuilder.obj
 0001:00029db0       ?do_Invoke@ValueNumberingVisitor@@MAEXPAVInvoke@@@Z 0802adb0 f i c1_GraphBuilder.obj
 0001:00029db0       ?do_UnsafePutObject@ValueNumberingVisitor@@MAEXPAVUnsafePutObject@@@Z 0802adb0 f i c1_GraphBuilder.obj
 0001:00029db0       ?do_UnsafePutRaw@ValueNumberingVisitor@@MAEXPAVUnsafePutRaw@@@Z 0802adb0 f i c1_GraphBuilder.obj
 0001:00029db0       ?do_MonitorExit@ValueNumberingVisitor@@MAEXPAVMonitorExit@@@Z 0802adb0 f i c1_GraphBuilder.obj
 0001:00029db0       ?do_MonitorEnter@ValueNumberingVisitor@@MAEXPAVMonitorEnter@@@Z 0802adb0 f i c1_GraphBuilder.obj
 0001:00029dc0       ?do_Intrinsic@ValueNumberingVisitor@@MAEXPAVIntrinsic@@@Z 0802adc0 f i c1_GraphBuilder.obj
 0001:00029de0       ?do_LoadField@ValueNumberingVisitor@@MAEXPAVLoadField@@@Z 0802ade0 f i c1_GraphBuilder.obj
 0001:00029e00       ??0ScopeData@GraphBuilder@@QAE@PAV01@@Z 0802ae00 f   c1_GraphBuilder.obj
 0001:00029e70       ?num_returns@ScopeData@GraphBuilder@@QAEHXZ 0802ae70 f   c1_GraphBuilder.obj
 0001:00029e90       ?incr_num_returns@ScopeData@GraphBuilder@@QAEXXZ 0802ae90 f   c1_GraphBuilder.obj
 0001:00029eb0       ?initialize@GraphBuilder@@SAXXZ 0802aeb0 f   c1_GraphBuilder.obj
 0001:0002a050       ?recursive_inline_level@GraphBuilder@@ABEHPAVciMethod@@@Z 0802b050 f   c1_GraphBuilder.obj
 0001:0002a080       ?pop_scope@GraphBuilder@@AAEXXZ 0802b080 f   c1_GraphBuilder.obj
 0001:0002a0a0       ?find@?$GrowableArray@PAVInstruction@@@@QBEHABQAVInstruction@@@Z 0802b0a0 f i c1_GraphBuilder.obj
 0001:0002a0d0       ?has_subklass@ciInstanceKlass@@QAE_NXZ 0802b0d0 f i c1_GraphBuilder.obj
 0001:0002a100       ?base@ObjectType@@UBEPAVValueType@@XZ 0802b100 f i c1_GraphBuilder.obj
 0001:0002a110       ?tchar@ObjectType@@UBE?BDXZ 0802b110 f i c1_GraphBuilder.obj
 0001:0002a120       ?name@ObjectType@@UBEPBDXZ 0802b120 f i c1_GraphBuilder.obj
 0001:0002a130       ?constant_value@ObjectType@@UBEPAVciObject@@XZ 0802b130 f i c1_GraphBuilder.obj
 0001:0002a150       ??0ObjectConstant@@QAE@PAVciObject@@@Z 0802b150 f i c1_GraphBuilder.obj
 0001:0002a180       ?base@AddressType@@UBEPAVValueType@@XZ 0802b180 f i c1_GraphBuilder.obj
 0001:0002a190       ?tchar@AddressType@@UBE?BDXZ 0802b190 f i c1_GraphBuilder.obj
 0001:0002a1a0       ?name@AddressType@@UBEPBDXZ 0802b1a0 f i c1_GraphBuilder.obj
 0001:0002a1b0       ?as_ValueType@@YAPAVValueType@@PAVciType@@@Z 0802b1b0 f i c1_GraphBuilder.obj
 0001:0002a1d0       ?contains@BlockBeginArray@@QBE_NQAVBlockBegin@@@Z 0802b1d0 f i c1_GraphBuilder.obj
 0001:0002a1d0       ?contains@NodeArray@@QBE_NQAVResolveNode@@@Z 0802b1d0 f i c1_LIRGenerator.obj
 0001:0002a200       ?initialize@ValueSetList@@QAEXHQAVValueSet@@@Z 0802b200 f i c1_Optimizer.obj
 0001:0002a200       ?initialize@_BlockList@@QAEXHQAVBlockBegin@@@Z 0802b200 f i c1_GraphBuilder.obj
 0001:0002a200       ?initialize@Values@@QAEXHQAVInstruction@@@Z 0802b200 f i c1_GraphBuilder.obj
 0001:0002a200       ?initialize@LIRItemList@@QAEXHQAVLIRItem@@@Z 0802b200 f i c1_LIRGenerator_x86.obj
 0001:0002a250       ?push_all@_BlockList@@QAEXPBV1@@Z 0802b250 f i c1_GraphBuilder.obj
 0001:0002a250       ?push_all@Values@@QAEXPBV1@@Z 0802b250 f i c1_ValueStack.obj
 0001:0002a2b0       ??0LoadField@@QAE@PAVInstruction@@HPAVciField@@_NPAVValueStack@@322@Z 0802b2b0 f i c1_GraphBuilder.obj
 0001:0002a2f0       ?name@LoadField@@UBEPBDXZ  0802b2f0 f i c1_GraphBuilder.obj
 0001:0002a300       ?visit@LoadField@@UAEXPAVInstructionVisitor@@@Z 0802b300 f i c1_GraphBuilder.obj
 0001:0002a320       ?hash@LoadField@@UBEHXZ    0802b320 f i c1_GraphBuilder.obj
 0001:0002a370       ?is_equal@LoadField@@UBE_NPAVInstruction@@@Z 0802b370 f i c1_GraphBuilder.obj
 0001:0002a3f0       ??0NullCheck@@QAE@PAVInstruction@@PAVValueStack@@@Z 0802b3f0 f i c1_GraphBuilder.obj
 0001:0002a460       ?name@NullCheck@@UBEPBDXZ  0802b460 f i c1_GraphBuilder.obj
 0001:0002a470       ?visit@NullCheck@@UAEXPAVInstructionVisitor@@@Z 0802b470 f i c1_GraphBuilder.obj
 0001:0002a490       ?is_equal@NullCheck@@UBE_NPAVInstruction@@@Z 0802b490 f i c1_GraphBuilder.obj
 0001:0002a4e0       ?input_values_do@NewMultiArray@@UAEXP6AXPAPAVInstruction@@@Z@Z 0802b4e0 f i c1_GraphBuilder.obj
 0001:0002a520       ??0TypeCheck@@QAE@PAVciKlass@@PAVInstruction@@PAVValueType@@PAVValueStack@@@Z 0802b520 f i c1_GraphBuilder.obj
 0001:0002a590       ?input_values_do@TypeCheck@@UAEXP6AXPAPAVInstruction@@@Z@Z 0802b590 f i c1_GraphBuilder.obj
 0001:0002a5b0       ??0CheckCast@@QAE@PAVciKlass@@PAVInstruction@@PAVValueStack@@@Z 0802b5b0 f i c1_GraphBuilder.obj
 0001:0002a5f0       ?name@CheckCast@@UBEPBDXZ  0802b5f0 f i c1_GraphBuilder.obj
 0001:0002a600       ?visit@CheckCast@@UAEXPAVInstructionVisitor@@@Z 0802b600 f i c1_GraphBuilder.obj
 0001:0002a620       ?name@InstanceOf@@UBEPBDXZ 0802b620 f i c1_GraphBuilder.obj
 0001:0002a630       ?visit@InstanceOf@@UAEXPAVInstructionVisitor@@@Z 0802b630 f i c1_GraphBuilder.obj
 0001:0002a650       ??0Intrinsic@@QAE@PAVValueType@@W4ID@vmIntrinsics@@PAVValues@@_NPAVValueStack@@33@Z 0802b650 f i c1_GraphBuilder.obj
 0001:0002a710       ?name@Intrinsic@@UBEPBDXZ  0802b710 f i c1_GraphBuilder.obj
 0001:0002a720       ?visit@Intrinsic@@UAEXPAVInstructionVisitor@@@Z 0802b720 f i c1_GraphBuilder.obj
 0001:0002a740       ?input_values_do@Intrinsic@@UAEXP6AXPAPAVInstruction@@@Z@Z 0802b740 f i c1_GraphBuilder.obj
 0001:0002a780       ?kill_memory@ValueNumberingEffects@@UAEXXZ 0802b780 f i c1_GraphBuilder.obj
 0001:0002a780       ?kill_memory@GlobalValueNumbering@@UAEXXZ 0802b780 f i c1_ValueMap.obj
 0001:0002a790       ?kill_field@GlobalValueNumbering@@UAEXPAVciField@@@Z 0802b790 f i c1_ValueMap.obj
 0001:0002a790       ?kill_field@ValueNumberingEffects@@UAEXPAVciField@@@Z 0802b790 f i c1_GraphBuilder.obj
 0001:0002a7a0       ?kill_array@ValueNumberingEffects@@UAEXPAVValueType@@@Z 0802b7a0 f i c1_GraphBuilder.obj
 0001:0002a7a0       ?kill_array@GlobalValueNumbering@@UAEXPAVValueType@@@Z 0802b7a0 f i c1_ValueMap.obj
 0001:0002a7b0       ?invalidate_local@ValueStack@@QAEXH@Z 0802b7b0 f i c1_GraphBuilder.obj
 0001:0002a800       ?store_local@ValueStack@@QAEXHPAVInstruction@@@Z 0802b800 f i c1_GraphBuilder.obj
 0001:0002a8a0       ?ipush@ValueStack@@QAEXPAVInstruction@@@Z 0802b8a0 f i c1_GraphBuilder.obj
 0001:0002a8a0       ?raw_push@ValueStack@@QAEXPAVInstruction@@@Z 0802b8a0 f i c1_GraphBuilder.obj
 0001:0002a8a0       ?fpush@ValueStack@@QAEXPAVInstruction@@@Z 0802b8a0 f i c1_GraphBuilder.obj
 0001:0002a8a0       ?apush@ValueStack@@QAEXPAVInstruction@@@Z 0802b8a0 f i c1_GraphBuilder.obj
 0001:0002a8a0       ?rpush@ValueStack@@QAEXPAVInstruction@@@Z 0802b8a0 f i c1_GraphBuilder.obj
 0001:0002a8e0       ?lpush@ValueStack@@QAEXPAVInstruction@@@Z 0802b8e0 f i c1_GraphBuilder.obj
 0001:0002a8e0       ?dpush@ValueStack@@QAEXPAVInstruction@@@Z 0802b8e0 f i c1_GraphBuilder.obj
 0001:0002a930       ?push@ValueStack@@QAEXPAVValueType@@PAVInstruction@@@Z 0802b930 f i c1_GraphBuilder.obj
 0001:0002a9d0       ?pop@ValueStack@@QAEPAVInstruction@@PAVValueType@@@Z 0802b9d0 f i c1_GraphBuilder.obj
 0001:0002aa40       ?fpush@GraphBuilder@@ABEXPAVInstruction@@@Z 0802ba40 f i c1_GraphBuilder.obj
 0001:0002aa40       ?ipush@GraphBuilder@@ABEXPAVInstruction@@@Z 0802ba40 f i c1_GraphBuilder.obj
 0001:0002aa40       ?apush@GraphBuilder@@ABEXPAVInstruction@@@Z 0802ba40 f i c1_GraphBuilder.obj
 0001:0002aa80       ?num_returns@GraphBuilder@@ABEHXZ 0802ba80 f i c1_GraphBuilder.obj
 0001:0002aaa0       ?profile_calls@GraphBuilder@@AAE_NXZ 0802baa0 f i c1_GraphBuilder.obj
 0001:0002aad0       ?profile_inlined_calls@GraphBuilder@@AAE_NXZ 0802bad0 f i c1_GraphBuilder.obj
 0001:0002ab10       ?store_two@BlockListBuilder@@AAEXPAVBlockBegin@@H@Z 0802bb10 f i c1_GraphBuilder.obj
 0001:0002ab60       ?handle_exceptions@BlockListBuilder@@AAEXPAVBlockBegin@@H@Z 0802bb60 f   c1_GraphBuilder.obj
 0001:0002ac00       ?make_loop_header@BlockListBuilder@@AAEXPAVBlockBegin@@@Z 0802bc00 f   c1_GraphBuilder.obj
 0001:0002ac50       ?mark_loops@BlockListBuilder@@AAEHPAVBlockBegin@@_N@Z 0802bc50 f   c1_GraphBuilder.obj
 0001:0002ad70       ?at@FieldBuffer@@QAEPAVInstruction@@PAVciField@@@Z 0802bd70 f i c1_GraphBuilder.obj
 0001:0002ad90       ?is_default_value@MemoryBuffer@@QAE_NPAVInstruction@@@Z 0802bd90 f i c1_GraphBuilder.obj
 0001:0002ae80       ?sort_top_into_worklist@GraphBuilder@@SAXPAVBlockList@@PAVBlockBegin@@@Z 0802be80 f   c1_GraphBuilder.obj
 0001:0002aec0       ?load_local@GraphBuilder@@AAEXPAVValueType@@H@Z 0802bec0 f   c1_GraphBuilder.obj
 0001:0002aef0       ?stack_op@GraphBuilder@@AAEXW4Code@Bytecodes@@@Z 0802bef0 f   c1_GraphBuilder.obj
 0001:0002b170       ?direct_compare@GraphBuilder@@AAE_NPAVciKlass@@@Z 0802c170 f   c1_GraphBuilder.obj
 0001:0002b1f0       ?simplify@PhiSimplifier@@AAEPAVInstruction@@PAV2@@Z 0802c1f0 f   c1_GraphBuilder.obj
 0001:0002b300       ?block_do@PhiSimplifier@@UAEXPAVBlockBegin@@@Z 0802c300 f   c1_GraphBuilder.obj
 0001:0002b3b0       ?eliminate_redundant_phis@GraphBuilder@@AAEXPAVBlockBegin@@@Z 0802c3b0 f   c1_GraphBuilder.obj
 0001:0002b3f0       ?state_at_entry@GraphBuilder@@AAEPAVValueStack@@XZ 0802c3f0 f   c1_GraphBuilder.obj
 0001:0002b5b0       ?push_root_scope@GraphBuilder@@AAEXPAVIRScope@@PAVBlockList@@PAVBlockBegin@@@Z 0802c5b0 f   c1_GraphBuilder.obj
 0001:0002b660       ??0ArrayConstant@@QAE@PAVciArray@@@Z 0802c660 f i c1_GraphBuilder.obj
 0001:0002b690       ??0InstanceConstant@@QAE@PAVciInstance@@@Z 0802c690 f i c1_GraphBuilder.obj
 0001:0002b6c0       ??0ClassConstant@@QAE@PAVciInstanceKlass@@@Z 0802c6c0 f i c1_GraphBuilder.obj
 0001:0002b6f0       ??0BlockBegin@@QAE@H@Z     0802c6f0 f i c1_GraphBuilder.obj
 0001:0002b850       ?name@BlockBegin@@UBEPBDXZ 0802c850 f i c1_GraphBuilder.obj
 0001:0002b860       ?visit@BlockBegin@@UAEXPAVInstructionVisitor@@@Z 0802c860 f i c1_GraphBuilder.obj
 0001:0002b880       ??0Goto@@QAE@PAVBlockBegin@@_N@Z 0802c880 f i c1_GraphBuilder.obj
 0001:0002b910       ??0Base@@QAE@PAVBlockBegin@@0@Z 0802c910 f i c1_GraphBuilder.obj
 0001:0002ba00       ?name@Base@@UBEPBDXZ       0802ca00 f i c1_GraphBuilder.obj
 0001:0002ba10       ?visit@Base@@UAEXPAVInstructionVisitor@@@Z 0802ca10 f i c1_GraphBuilder.obj
 0001:0002ba30       ?make_block_at@BlockListBuilder@@AAEPAVBlockBegin@@HPAV2@@Z 0802ca30 f   c1_GraphBuilder.obj
 0001:0002bb50       ?handle_jsr@BlockListBuilder@@AAEXPAVBlockBegin@@HH@Z 0802cb50 f   c1_GraphBuilder.obj
 0001:0002bb90       ?set_leaders@BlockListBuilder@@AAEXXZ 0802cb90 f   c1_GraphBuilder.obj
 0001:0002c020       ?mark_loops@BlockListBuilder@@AAEXXZ 0802d020 f   c1_GraphBuilder.obj
 0001:0002c120       ?load@MemoryBuffer@@QAEPAVInstruction@@PAVLoadField@@@Z 0802d120 f i c1_GraphBuilder.obj
 0001:0002c1d0       ?store_value@MemoryBuffer@@QAEXPAVInstruction@@@Z 0802d1d0 f i c1_GraphBuilder.obj
 0001:0002c280       ?block_at@ScopeData@GraphBuilder@@QAEPAVBlockBegin@@H@Z 0802d280 f   c1_GraphBuilder.obj
 0001:0002c340       ?add_to_work_list@ScopeData@GraphBuilder@@QAEXPAVBlockBegin@@@Z 0802d340 f   c1_GraphBuilder.obj
 0001:0002c3e0       ?setup_jsr_xhandlers@ScopeData@GraphBuilder@@QAEXXZ 0802d3e0 f   c1_GraphBuilder.obj
 0001:0002c470       ?handle_exception@GraphBuilder@@AAEPAVXHandlers@@H@Z 0802d470 f   c1_GraphBuilder.obj
 0001:0002c700       ?header_block@GraphBuilder@@AAEPAVBlockBegin@@PAV2@W4Flag@2@PAVValueStack@@@Z 0802d700 f   c1_GraphBuilder.obj
 0001:0002c8c0       ?setup_start_block@GraphBuilder@@AAEPAVBlockBegin@@HPAV2@0PAVValueStack@@@Z 0802d8c0 f   c1_GraphBuilder.obj
 0001:0002c9f0       ?push_scope_for_jsr@GraphBuilder@@AAEXPAVBlockBegin@@H@Z 0802d9f0 f   c1_GraphBuilder.obj
 0001:0002cb00       ?set_entries@BlockListBuilder@@AAEXH@Z 0802db00 f   c1_GraphBuilder.obj
 0001:0002cb80       ?store@MemoryBuffer@@QAEPAVStoreField@@PAV2@@Z 0802db80 f i c1_GraphBuilder.obj
 0001:0002cc90       ?new_instance@MemoryBuffer@@QAEXPAVNewInstance@@@Z 0802dc90 f i c1_GraphBuilder.obj
 0001:0002cd30       ?append_with_bci@GraphBuilder@@AAEPAVInstruction@@PAV2@H@Z 0802dd30 f   c1_GraphBuilder.obj
 0001:0002ce70       ?append@GraphBuilder@@AAEPAVInstruction@@PAV2@@Z 0802de70 f   c1_GraphBuilder.obj
 0001:0002ce70       ?append_split@GraphBuilder@@AAEPAVInstruction@@PAVStateSplit@@@Z 0802de70 f   c1_GraphBuilder.obj
 0001:0002ce90       ?null_check@GraphBuilder@@AAEXPAVInstruction@@@Z 0802de90 f   c1_GraphBuilder.obj
 0001:0002cf50       ?setup_osr_entry_block@GraphBuilder@@AAEXXZ 0802df50 f   c1_GraphBuilder.obj
 0001:0002d2e0       ?try_inline_jsr@GraphBuilder@@AAE_NH@Z 0802e2e0 f   c1_GraphBuilder.obj
 0001:0002d3f0       ?append_unsafe_get_obj@GraphBuilder@@AAE_NPAVciMethod@@W4BasicType@@_N@Z 0802e3f0 f   c1_GraphBuilder.obj
 0001:0002d500       ?append_unsafe_put_obj@GraphBuilder@@AAE_NPAVciMethod@@W4BasicType@@_N@Z 0802e500 f   c1_GraphBuilder.obj
 0001:0002d620       ?append_unsafe_get_raw@GraphBuilder@@AAE_NPAVciMethod@@W4BasicType@@@Z 0802e620 f   c1_GraphBuilder.obj
 0001:0002d6d0       ?append_unsafe_put_raw@GraphBuilder@@AAE_NPAVciMethod@@W4BasicType@@@Z 0802e6d0 f   c1_GraphBuilder.obj
 0001:0002d770       ?append_unsafe_prefetch@GraphBuilder@@AAE_NPAVciMethod@@_N1@Z 0802e770 f   c1_GraphBuilder.obj
 0001:0002d8d0       ?append_unsafe_CAS@GraphBuilder@@AAEXPAVciMethod@@@Z 0802e8d0 f   c1_GraphBuilder.obj
 0001:0002db10       ?profile_call@GraphBuilder@@AAEXPAVInstruction@@PAVciKlass@@@Z 0802eb10 f   c1_GraphBuilder.obj
 0001:0002db80       ?profile_invocation@GraphBuilder@@AAEXPAVciMethod@@@Z 0802eb80 f   c1_GraphBuilder.obj
 0001:0002dca0       ?profile_bci@GraphBuilder@@AAEXH@Z 0802eca0 f   c1_GraphBuilder.obj
 0001:0002ddf0       ??0BlockListBuilder@@QAE@PAVCompilation@@PAVIRScope@@H@Z 0802edf0 f   c1_GraphBuilder.obj
 0001:0002de90       ??0MemoryBuffer@@QAE@XZ    0802ee90 f i c1_GraphBuilder.obj
 0001:0002df50       ?load_constant@GraphBuilder@@AAEXXZ 0802ef50 f   c1_GraphBuilder.obj
 0001:0002e230       ?load_indexed@GraphBuilder@@AAEXW4BasicType@@@Z 0802f230 f   c1_GraphBuilder.obj
 0001:0002e3c0       ?store_indexed@GraphBuilder@@AAEXW4BasicType@@@Z 0802f3c0 f   c1_GraphBuilder.obj
 0001:0002e540       ?negate_op@GraphBuilder@@AAEXPAVValueType@@@Z 0802f540 f   c1_GraphBuilder.obj
 0001:0002e5b0       ?shift_op@GraphBuilder@@AAEXPAVValueType@@W4Code@Bytecodes@@@Z 0802f5b0 f   c1_GraphBuilder.obj
 0001:0002e760       ?logic_op@GraphBuilder@@AAEXPAVValueType@@W4Code@Bytecodes@@@Z 0802f760 f   c1_GraphBuilder.obj
 0001:0002e800       ?compare_op@GraphBuilder@@AAEXPAVValueType@@W4Code@Bytecodes@@@Z 0802f800 f   c1_GraphBuilder.obj
 0001:0002e8d0       ?convert@GraphBuilder@@AAEXW4Code@Bytecodes@@W4BasicType@@1@Z 0802f8d0 f   c1_GraphBuilder.obj
 0001:0002e970       ?_goto@GraphBuilder@@AAEXHH@Z 0802f970 f   c1_GraphBuilder.obj
 0001:0002e9e0       ?if_node@GraphBuilder@@AAEXPAVInstruction@@W4Condition@2@0PAVValueStack@@@Z 0802f9e0 f   c1_GraphBuilder.obj
 0001:0002eb30       ?if_zero@GraphBuilder@@AAEXPAVValueType@@W4Condition@Instruction@@@Z 0802fb30 f   c1_GraphBuilder.obj
 0001:0002ebb0       ?if_null@GraphBuilder@@AAEXPAVValueType@@W4Condition@Instruction@@@Z 0802fbb0 f   c1_GraphBuilder.obj
 0001:0002ec30       ?if_same@GraphBuilder@@AAEXPAVValueType@@W4Condition@Instruction@@@Z 0802fc30 f   c1_GraphBuilder.obj
 0001:0002ec80       ?jsr@GraphBuilder@@AAEXH@Z 0802fc80 f   c1_GraphBuilder.obj
 0001:0002edb0       ?ret@GraphBuilder@@AAEXH@Z 0802fdb0 f   c1_GraphBuilder.obj
 0001:0002ee40       ?table_switch@GraphBuilder@@AAEXXZ 0802fe40 f   c1_GraphBuilder.obj
 0001:0002f1f0       ?lookup_switch@GraphBuilder@@AAEXXZ 080301f0 f   c1_GraphBuilder.obj
 0001:0002f600       ?call_register_finalizer@GraphBuilder@@AAEXXZ 08030600 f   c1_GraphBuilder.obj
 0001:0002f7c0       ?access_field@GraphBuilder@@AAEXW4Code@Bytecodes@@@Z 080307c0 f   c1_GraphBuilder.obj
 0001:0002fc70       ?new_instance@GraphBuilder@@AAEXH@Z 08030c70 f   c1_GraphBuilder.obj
 0001:0002fd10       ?new_type_array@GraphBuilder@@AAEXXZ 08030d10 f   c1_GraphBuilder.obj
 0001:0002fde0       ?new_object_array@GraphBuilder@@AAEXXZ 08030de0 f   c1_GraphBuilder.obj
 0001:0002fec0       ?check_cast@GraphBuilder@@AAEXH@Z 08030ec0 f   c1_GraphBuilder.obj
 0001:00030020       ?instance_of@GraphBuilder@@AAEXH@Z 08031020 f   c1_GraphBuilder.obj
 0001:00030140       ?monitorenter@GraphBuilder@@AAEXPAVInstruction@@H@Z 08031140 f   c1_GraphBuilder.obj
 0001:000301d0       ?monitorexit@GraphBuilder@@AAEXPAVInstruction@@H@Z 080311d0 f   c1_GraphBuilder.obj
 0001:00030270       ?new_multi_array@GraphBuilder@@AAEXH@Z 08031270 f   c1_GraphBuilder.obj
 0001:00030390       ?throw_op@GraphBuilder@@AAEXH@Z 08031390 f   c1_GraphBuilder.obj
 0001:00030410       ?round_fp@GraphBuilder@@AAEPAVInstruction@@PAV2@@Z 08031410 f   c1_GraphBuilder.obj
 0001:00030490       ?try_inline_intrinsics@GraphBuilder@@AAE_NPAVciMethod@@@Z 08031490 f   c1_GraphBuilder.obj
 0001:00030bd0       ?inline_sync_entry@GraphBuilder@@AAEXPAVInstruction@@PAVBlockBegin@@@Z 08031bd0 f   c1_GraphBuilder.obj
 0001:00030cd0       ?fill_sync_handler@GraphBuilder@@AAEXPAVInstruction@@PAVBlockBegin@@_N@Z 08031cd0 f   c1_GraphBuilder.obj
 0001:00030e40       ?push_scope@GraphBuilder@@AAEXPAVciMethod@@PAVBlockBegin@@@Z 08031e40 f   c1_GraphBuilder.obj
 0001:00030f80       ?store_local@GraphBuilder@@AAEXPAVValueStack@@PAVInstruction@@PAVValueType@@H@Z 08031f80 f   c1_GraphBuilder.obj
 0001:00031010       ?arithmetic_op@GraphBuilder@@AAEXPAVValueType@@W4Code@Bytecodes@@PAVValueStack@@@Z 08032010 f   c1_GraphBuilder.obj
 0001:000310c0       ?method_return@GraphBuilder@@AAEXPAVInstruction@@@Z 080320c0 f   c1_GraphBuilder.obj
 0001:00031340       ?try_inline@GraphBuilder@@AAE_NPAVciMethod@@_N@Z 08032340 f   c1_GraphBuilder.obj
 0001:000313f0       ?store_local@GraphBuilder@@AAEXPAVValueType@@H@Z 080323f0 f   c1_GraphBuilder.obj
 0001:00031420       ?increment@GraphBuilder@@AAEXXZ 08032420 f   c1_GraphBuilder.obj
 0001:000315a0       ?invoke@GraphBuilder@@AAEXW4Code@Bytecodes@@@Z 080325a0 f   c1_GraphBuilder.obj
 0001:00031be0       ?iterate_bytecodes_for_block@GraphBuilder@@AAEPAVBlockEnd@@H@Z 08032be0 f   c1_GraphBuilder.obj
 0001:000334d0       ?iterate_all_blocks@GraphBuilder@@AAEX_N@Z 080344d0 f   c1_GraphBuilder.obj
 0001:00033590       ??0GraphBuilder@@QAE@PAVCompilation@@PAVIRScope@@@Z 08034590 f   c1_GraphBuilder.obj
 0001:000339b0       ?try_inline_full@GraphBuilder@@AAE_NPAVciMethod@@_N@Z 080349b0 f   c1_GraphBuilder.obj
 0001:00033ec0       ??0CodeEmitInfo@@QAE@HPAVValueStack@@PAVXHandlers@@@Z 08034ec0 f   c1_IR.obj
 0001:00033f00       ?optimize@IR@@QAEXXZ       08034f00 f   c1_IR.obj
 0001:00033f60       ?iterate_preorder@IR@@QAEXPAVBlockClosure@@@Z 08034f60 f   c1_IR.obj
 0001:00033f70       ?iterate_linear_scan_order@IR@@QAEXPAVBlockClosure@@@Z 08034f70 f   c1_IR.obj
 0001:00033f80       ?substitute@SubstitutionResolver@@CAXPAPAVInstruction@@@Z 08034f80 f   c1_IR.obj
 0001:00033fb0       ?block_do@SubstitutionResolver@@UAEXPAVBlockBegin@@@Z 08034fb0 f   c1_IR.obj
 0001:00034020       ?next@ciExceptionHandlerStream@@QAEXXZ 08035020 f i c1_IR.obj
 0001:000340e0       ?could_catch@XHandlers@@QBE_NPAVciInstanceKlass@@_N@Z 080350e0 f   c1_IR.obj
 0001:00034180       ?max_stack@IRScope@@QBEHXZ 08035180 f   c1_IR.obj
 0001:000341d0       ?compute_lock_stack_size@IRScope@@QAEXXZ 080351d0 f   c1_IR.obj
 0001:00034200       ?add_register_oop@CodeEmitInfo@@QAEXPAVLIR_OprDesc@@@Z 08035200 f   c1_IR.obj
 0001:00034230       ?block_do@CriticalEdgeFinder@@UAEXPAVBlockBegin@@@Z 08035230 f i c1_IR.obj
 0001:000342c0       ?split_edges@CriticalEdgeFinder@@QAEXXZ 080352c0 f i c1_IR.obj
 0001:00034330       ?split_critical_edges@IR@@QAEXXZ 08035330 f   c1_IR.obj
 0001:00034370       ?update_use_count@UseCountComputer@@CAXPAPAVInstruction@@@Z 08035370 f i c1_IR.obj
 0001:000343d0       ?uses_do@UseCountComputer@@CAXPAPAVInstruction@@@Z 080353d0 f i c1_IR.obj
 0001:00034460       ?basic_compute_use_count@UseCountComputer@@CAXPAVBlockBegin@@@Z 08035460 f i c1_IR.obj
 0001:000344e0       ?count_edges@ComputeLinearScanOrder@@AAEXPAVBlockBegin@@0@Z 080354e0 f   c1_IR.obj
 0001:00034620       ?assign_loop_depth@ComputeLinearScanOrder@@AAEXPAVBlockBegin@@@Z 08035620 f   c1_IR.obj
 0001:000347c0       ?common_dominator@ComputeLinearScanOrder@@AAEPAVBlockBegin@@PAV2@0@Z 080357c0 f   c1_IR.obj
 0001:00034840       ?compute_dominator@ComputeLinearScanOrder@@AAEXPAVBlockBegin@@0@Z 08035840 f   c1_IR.obj
 0001:00034890       ?compute_weight@ComputeLinearScanOrder@@AAEHPAVBlockBegin@@@Z 08035890 f   c1_IR.obj
 0001:00034950       ?sort_into_work_list@ComputeLinearScanOrder@@AAEXPAVBlockBegin@@@Z 08035950 f   c1_IR.obj
 0001:000349d0       ?compute_dominators_iter@ComputeLinearScanOrder@@AAE_NXZ 080359d0 f   c1_IR.obj
 0001:00034a50       ?compute_use_counts@IR@@QAEXXZ 08035a50 f   c1_IR.obj
 0001:00034ac0       ?java_code_at@Bytecodes@@SA?AW4Code@1@PAEPAVmethodOopDesc@@@Z 08035ac0 f i c1_IR.obj
 0001:00034af0       ?java_code_at_bci@ciMethod@@QAE?AW4Code@Bytecodes@@H@Z 08035af0 f i c1_IR.obj
 0001:00034b40       ??0XHandlers@@QAE@PAVciMethod@@@Z 08035b40 f   c1_IR.obj
 0001:00034c20       ??0XHandlers@@QAE@PAV0@@Z  08035c20 f   c1_IR.obj
 0001:00034d00       ??0IRScope@@QAE@PAVCompilation@@PAV0@HPAVciMethod@@H_N@Z 08035d00 f   c1_IR.obj
 0001:00034e20       ??0CodeEmitInfo@@QAE@PAV0@_N@Z 08035e20 f   c1_IR.obj
 0001:00034ec0       ??0IR@@QAE@PAVCompilation@@PAVciMethod@@H@Z 08035ec0 f   c1_IR.obj
 0001:00034f50       ?mark_loops@ComputeLinearScanOrder@@AAEXXZ 08035f50 f   c1_IR.obj
 0001:000350d0       ?clear_non_natural_loops@ComputeLinearScanOrder@@AAEXPAVBlockBegin@@@Z 080360d0 f   c1_IR.obj
 0001:00035150       ?compute_order@ComputeLinearScanOrder@@AAEXPAVBlockBegin@@@Z 08036150 f   c1_IR.obj
 0001:00035430       ?record_debug_info@IRScopeDebugInfo@@QAEXPAVDebugInformationRecorder@@H_N@Z 08036430 f i c1_IR.obj
 0001:000354d0       ?record_debug_info@CodeEmitInfo@@QAEXPAVDebugInformationRecorder@@H@Z 080364d0 f   c1_IR.obj
 0001:00035510       ??0ComputeLinearScanOrder@@QAE@PAVBlockBegin@@@Z 08036510 f   c1_IR.obj
 0001:00035620       ?compute_code@IR@@QAEXXZ   08036620 f   c1_IR.obj
 0001:00035650       ?mirror@Instruction@@SA?AW4Condition@1@W421@@Z 08036650 f   c1_Instruction.obj
 0001:000356c0       ?prev@Instruction@@QAEPAV1@PAVBlockBegin@@@Z 080366c0 f   c1_Instruction.obj
 0001:000356e0       ?declared_type@LoadIndexed@@UBEPAVciType@@XZ 080366e0 f   c1_Instruction.obj
 0001:00035700       ?exact_type@NewTypeArray@@UBEPAVciType@@XZ 08036700 f   c1_Instruction.obj
 0001:00035710       ?exact_type@NewObjectArray@@UBEPAVciType@@XZ 08036710 f   c1_Instruction.obj
 0001:00035720       ?other_values_do@NullCheck@@UAEXP6AXPAPAVInstruction@@@Z@Z 08036720 f   c1_Instruction.obj
 0001:00035740       ?other_values_do@AccessArray@@UAEXP6AXPAPAVInstruction@@@Z@Z 08036740 f   c1_Instruction.obj
 0001:00035740       ?other_values_do@ArithmeticOp@@UAEXP6AXPAPAVInstruction@@@Z@Z 08036740 f   c1_Instruction.obj
 0001:00035770       ?other_values_do@AccessField@@UAEXP6AXPAPAVInstruction@@@Z@Z 08036770 f   c1_Instruction.obj
 0001:000357b0       ?is_commutative@ArithmeticOp@@UBE_NXZ 080367b0 f   c1_Instruction.obj
 0001:000357f0       ?can_trap@ArithmeticOp@@UBE_NXZ 080367f0 f   c1_Instruction.obj
 0001:00035820       ?is_commutative@IfOp@@UBE_NXZ 08036820 f   c1_Instruction.obj
 0001:00035840       ?scope@StateSplit@@QBEPAVIRScope@@XZ 08036840 f   c1_Instruction.obj
 0001:00035850       ?state_values_do@MonitorEnter@@UAEXP6AXPAPAVInstruction@@@Z@Z 08036850 f   c1_Instruction.obj
 0001:00035880       ?state_values_do@Intrinsic@@UAEXP6AXPAPAVInstruction@@@Z@Z 08036880 f   c1_Instruction.obj
 0001:000358c0       ?other_values_do@NewArray@@UAEXP6AXPAPAVInstruction@@@Z@Z 080368c0 f   c1_Instruction.obj
 0001:000358e0       ?other_values_do@TypeCheck@@UAEXP6AXPAPAVInstruction@@@Z@Z 080368e0 f   c1_Instruction.obj
 0001:000358e0       ?other_values_do@CompareOp@@UAEXP6AXPAPAVInstruction@@@Z@Z 080368e0 f   c1_Instruction.obj
 0001:000358e0       ?other_values_do@BlockEnd@@UAEXP6AXPAPAVInstruction@@@Z@Z 080368e0 f   c1_Instruction.obj
 0001:00035900       ?operand_at@Phi@@QBEPAVInstruction@@H@Z 08036900 f   c1_Instruction.obj
 0001:00035960       ?other_values_do@Constant@@UAEXP6AXPAPAVInstruction@@@Z@Z 08036960 f   c1_Instruction.obj
 0001:00035960       ?state_values_do@Throw@@UAEXP6AXPAPAVInstruction@@@Z@Z 08036960 f   c1_Instruction.obj
 0001:00035960       ?state_values_do@StateSplit@@UAEXP6AXPAPAVInstruction@@@Z@Z 08036960 f   c1_Instruction.obj
 0001:00035980       ?compute_needs_range_check@AccessIndexed@@QAE_NXZ 08036980 f   c1_Instruction.obj
 0001:000359e0       ?exact_type@LoadIndexed@@UBEPAVciType@@XZ 080369e0 f   c1_Instruction.obj
 0001:00035a40       ?declared_type@LoadField@@UBEPAVciType@@XZ 08036a40 f   c1_Instruction.obj
 0001:00035a50       ?exact_type@LoadField@@UBEPAVciType@@XZ 08036a50 f   c1_Instruction.obj
 0001:00035aa0       ?exact_type@CheckCast@@UBEPAVciType@@XZ 08036aa0 f   c1_Instruction.obj
 0001:00035ae0       ?substitute@StateSplit@@KAXAAVBlockList@@PAVBlockBegin@@1@Z 08036ae0 f   c1_Instruction.obj
 0001:00035b20       ?state_values_do@BlockBegin@@UAEXP6AXPAPAVInstruction@@@Z@Z 08036b20 f   c1_Instruction.obj
 0001:00035b70       ?hash@Constant@@UBEHXZ     08036b70 f   c1_Instruction.obj
 0001:00035c80       ?is_equal@Constant@@UBE_NPAVInstruction@@@Z 08036c80 f   c1_Instruction.obj
 0001:00035df0       ?compare@Constant@@UAEPAVBlockBegin@@W4Condition@Instruction@@PAV4@PAV2@2@Z 08036df0 f   c1_Instruction.obj
 0001:00036050       ?disconnect_edge@BlockBegin@@SAXPAV1@0@Z 08037050 f   c1_Instruction.obj
 0001:000360b0       ?remove_successor@BlockBegin@@QAEXPAV1@@Z 080370b0 f   c1_Instruction.obj
 0001:000360f0       ?add_predecessor@BlockBegin@@QAEXPAV1@@Z 080370f0 f   c1_Instruction.obj
 0001:00036130       ?remove_predecessor@BlockBegin@@QAEXPAV1@@Z 08037130 f   c1_Instruction.obj
 0001:00036170       ?add_exception_handler@BlockBegin@@QAEXPAV1@@Z 08037170 f   c1_Instruction.obj
 0001:000361c0       ?iterate_preorder@BlockBegin@@AAEXAAVboolArray@@PAVBlockClosure@@@Z 080371c0 f   c1_Instruction.obj
 0001:00036240       ?try_merge@BlockBegin@@QAE_NPAVValueStack@@@Z 08037240 f   c1_Instruction.obj
 0001:00036580       ?iterate_forward@BlockList@@QAEXPAVBlockClosure@@@Z 08037580 f   c1_Instruction.obj
 0001:000365c0       ?blocks_do@BlockList@@QAEXP6AXPAVBlockBegin@@@Z@Z 080375c0 f   c1_Instruction.obj
 0001:000365f0       ?operand_count@Phi@@QBEHXZ 080375f0 f   c1_Instruction.obj
 0001:00036610       ??0Invoke@@QAE@W4Code@Bytecodes@@PAVValueType@@PAVInstruction@@PAVValues@@HPAVciMethod@@@Z 08037610 f   c1_Instruction.obj
 0001:000367f0       ?as_CheckCast@CheckCast@@UAEPAV1@XZ 080377f0 f i c1_GraphBuilder.obj
 0001:000367f0       ?as_NewArray@NewArray@@UAEPAV1@XZ 080377f0 f i c1_GraphBuilder.obj
 0001:000367f0       ?as_Constant@Constant@@UAEPAV1@XZ 080377f0 f i c1_Canonicalizer.obj
 0001:000367f0       ?as_ShiftOp@ShiftOp@@UAEPAV1@XZ 080377f0 f i c1_GraphBuilder.obj
 0001:000367f0       ?as_AccessField@AccessField@@UAEPAV1@XZ 080377f0 f i c1_Canonicalizer.obj
 0001:000367f0       ?as_concurrent_mark_sweep_policy@ConcurrentMarkSweepPolicy@@UAEPAV1@XZ 080377f0 f i cmsCollectorPolicy.obj
 0001:000367f0       ?as_ClassConstant@ClassConstant@@UAEPAV1@XZ 080377f0 f i c1_GraphBuilder.obj
 0001:000367f0       ?as_VoidType@VoidType@@UAEPAV1@XZ 080377f0 f i c1_ValueType.obj
 0001:000367f0       ?as_ArrayLength@ArrayLength@@UAEPAV1@XZ 080377f0 f i c1_GraphBuilder.obj
 0001:000367f0       ?as_generation_policy@GenCollectorPolicy@@UAEPAV1@XZ 080377f0 f i cmsCollectorPolicy.obj
 0001:000367f0       ?as_Instruction@Instruction@@UAEPAV1@XZ 080377f0 f i c1_Canonicalizer.obj
 0001:000367f0       ?as_UnsafePrefetchRead@UnsafePrefetchRead@@UAEPAV1@XZ 080377f0 f i c1_GraphBuilder.obj
 0001:000367f0       ?as_Op2@Op2@@UAEPAV1@XZ    080377f0 f i c1_GraphBuilder.obj
 0001:000367f0       ?as_OpCall@LIR_OpCall@@UAEPAV1@XZ 080377f0 f i c1_LIRGenerator.obj
 0001:000367f0       ?as_StoreField@StoreField@@UAEPAV1@XZ 080377f0 f i c1_Canonicalizer.obj
 0001:000367f0       ?as_RoundFP@RoundFP@@UAEPAV1@XZ 080377f0 f i c1_GraphBuilder.obj
 0001:000367f0       ?as_ObjectConstant@ObjectConstant@@UAEPAV1@XZ 080377f0 f i c1_GraphBuilder.obj
 0001:000367f0       ?as_OpLabel@LIR_OpLabel@@UAEPAV1@XZ 080377f0 f i c1_LIRGenerator.obj
 0001:000367f0       ?as_UnsafePutObject@UnsafePutObject@@UAEPAV1@XZ 080377f0 f i c1_GraphBuilder.obj
 0001:000367f0       ?as_UnsafeOp@UnsafeOp@@UAEPAV1@XZ 080377f0 f i c1_GraphBuilder.obj
 0001:000367f0       ?as_AddressType@AddressType@@UAEPAV1@XZ 080377f0 f i c1_GraphBuilder.obj
 0001:000367f0       ?as_HRInto_G1RemSet@HRInto_G1RemSet@@UAEPAV1@XZ 080377f0 f i g1RemSet.obj
 0001:000367f0       ?as_FloatConstant@FloatConstant@@UAEPAV1@XZ 080377f0 f i c1_Canonicalizer.obj
 0001:000367f0       ?as_Op2@LIR_Op2@@UAEPAV1@XZ 080377f0 f i c1_LIR.obj
 0001:000367f0       ?as_UnsafePutRaw@UnsafePutRaw@@UAEPAV1@XZ 080377f0 f i c1_GraphBuilder.obj
 0001:000367f0       ?as_mark_sweep_policy@MarkSweepPolicy@@UAEPAV1@XZ 080377f0 f i collectorPolicy.obj
 0001:000367f0       ?as_DoubleType@DoubleType@@UAEPAV1@XZ 080377f0 f i c1_Canonicalizer.obj
 0001:000367f0       ?as_LongConstant@LongConstant@@UAEPAV1@XZ 080377f0 f i c1_Canonicalizer.obj
 0001:000367f0       ?as_Op0@LIR_Op0@@UAEPAV1@XZ 080377f0 f i c1_LIRGenerator.obj
 0001:000367f0       ?as_StoreIndexed@StoreIndexed@@UAEPAV1@XZ 080377f0 f i c1_Canonicalizer.obj
 0001:000367f0       ?as_Local@Local@@UAEPAV1@XZ 080377f0 f i c1_GraphBuilder.obj
 0001:000367f0       ?as_Throw@Throw@@UAEPAV1@XZ 080377f0 f i c1_GraphBuilder.obj
 0001:000367f0       ?as_AccessIndexed@AccessIndexed@@UAEPAV1@XZ 080377f0 f i c1_Canonicalizer.obj
 0001:000367f0       ?toContiguousSpace@ContiguousSpace@@UAEPAV1@XZ 080377f0 f i compactingPermGenGen.obj
 0001:000367f0       ?as_Convert@Convert@@UAEPAV1@XZ 080377f0 f i c1_GraphBuilder.obj
 0001:000367f0       ?as_OsrEntry@OsrEntry@@UAEPAV1@XZ 080377f0 f i c1_GraphBuilder.obj
 0001:000367f0       ?as_address@LIR_Address@@UAEPAV1@XZ 080377f0 f i c1_FrameMap_x86.obj
 0001:000367f0       ?as_AddressConstant@AddressConstant@@UAEPAV1@XZ 080377f0 f i c1_GraphBuilder.obj
 0001:000367f0       ?as_Goto@Goto@@UAEPAV1@XZ  080377f0 f i c1_Canonicalizer.obj
 0001:000367f0       ?as_IfInstanceOf@IfInstanceOf@@UAEPAV1@XZ 080377f0 f i c1_Canonicalizer.obj
 0001:000367f0       ?as_NewTypeArray@NewTypeArray@@UAEPAV1@XZ 080377f0 f i c1_GraphBuilder.obj
 0001:000367f0       ?as_NegateOp@NegateOp@@UAEPAV1@XZ 080377f0 f i c1_GraphBuilder.obj
 0001:000367f0       ?as_LoadIndexed@LoadIndexed@@UAEPAV1@XZ 080377f0 f i c1_GraphBuilder.obj
 0001:000367f0       ?as_ClassType@ClassType@@UAEPAV1@XZ 080377f0 f i c1_GraphBuilder.obj
 0001:000367f0       ?as_OpTypeCheck@LIR_OpTypeCheck@@UAEPAV1@XZ 080377f0 f i c1_LIR.obj
 0001:000367f0       ?as_LoadField@LoadField@@UAEPAV1@XZ 080377f0 f i c1_GraphBuilder.obj
 0001:000367f0       ?as_Intrinsic@Intrinsic@@UAEPAV1@XZ 080377f0 f i c1_GraphBuilder.obj
 0001:000367f0       ?as_MonitorEnter@MonitorEnter@@UAEPAV1@XZ 080377f0 f i c1_GraphBuilder.obj
 0001:000367f0       ?as_UnsafeRawOp@UnsafeRawOp@@UAEPAV1@XZ 080377f0 f i c1_GraphBuilder.obj
 0001:000367f0       ?as_IllegalType@IllegalType@@UAEPAV1@XZ 080377f0 f i c1_ValueType.obj
 0001:000367f0       ?as_OpAllocObj@LIR_OpAllocObj@@UAEPAV1@XZ 080377f0 f i c1_LIR.obj
 0001:000367f0       ?as_LookupSwitch@LookupSwitch@@UAEPAV1@XZ 080377f0 f i c1_GraphBuilder.obj
 0001:000367f0       ?as_Invoke@Invoke@@UAEPAV1@XZ 080377f0 f i c1_Instruction.obj
 0001:000367f0       ?as_InstanceOf@InstanceOf@@UAEPAV1@XZ 080377f0 f i c1_GraphBuilder.obj
 0001:000367f0       ?as_OpCompareAndSwap@LIR_OpCompareAndSwap@@UAEPAV1@XZ 080377f0 f i c1_LIR.obj
 0001:000367f0       ?as_IntType@IntType@@UAEPAV1@XZ 080377f0 f i c1_Canonicalizer.obj
 0001:000367f0       ?as_ArrayConstant@ArrayConstant@@UAEPAV1@XZ 080377f0 f i c1_GraphBuilder.obj
 0001:000367f0       ?as_UnsafePrefetchWrite@UnsafePrefetchWrite@@UAEPAV1@XZ 080377f0 f i c1_GraphBuilder.obj
 0001:000367f0       ?as_BlockEnd@BlockEnd@@UAEPAV1@XZ 080377f0 f i c1_Canonicalizer.obj
 0001:000367f0       ?as_CompareOp@CompareOp@@UAEPAV1@XZ 080377f0 f i c1_GraphBuilder.obj
 0001:000367f0       ?as_If@If@@UAEPAV1@XZ      080377f0 f i c1_Canonicalizer.obj
 0001:000367f0       ?as_Switch@Switch@@UAEPAV1@XZ 080377f0 f i c1_GraphBuilder.obj
 0001:000367f0       ?as_Phi@Phi@@UAEPAV1@XZ    080377f0 f i c1_ValueStack.obj
 0001:000367f0       ?as_ArrayType@ArrayType@@UAEPAV1@XZ 080377f0 f i c1_GraphBuilder.obj
 0001:000367f0       ?as_AccessMonitor@AccessMonitor@@UAEPAV1@XZ 080377f0 f i c1_GraphBuilder.obj
 0001:000367f0       ?as_OpJavaCall@LIR_OpJavaCall@@UAEPAV1@XZ 080377f0 f i c1_LIRGenerator.obj
 0001:000367f0       ?as_Return@Return@@UAEPAV1@XZ 080377f0 f i c1_GraphBuilder.obj
 0001:000367f0       ?as_InstanceType@InstanceType@@UAEPAV1@XZ 080377f0 f i c1_GraphBuilder.obj
 0001:000367f0       ?as_UnsafeObjectOp@UnsafeObjectOp@@UAEPAV1@XZ 080377f0 f i c1_GraphBuilder.obj
 0001:000367f0       ?as_IntConstant@IntConstant@@UAEPAV1@XZ 080377f0 f i c1_Canonicalizer.obj
 0001:000367f0       ?as_OpLock@LIR_OpLock@@UAEPAV1@XZ 080377f0 f i c1_LIR.obj
 0001:000367f0       ?as_IfOp@IfOp@@UAEPAV1@XZ  080377f0 f i c1_Optimizer.obj
 0001:000367f0       ?as_StateSplit@StateSplit@@UAEPAV1@XZ 080377f0 f i c1_Canonicalizer.obj
 0001:000367f0       ?as_OpRTCall@LIR_OpRTCall@@UAEPAV1@XZ 080377f0 f i c1_LIRGenerator.obj
 0001:000367f0       ?as_UnsafeGetObject@UnsafeGetObject@@UAEPAV1@XZ 080377f0 f i c1_GraphBuilder.obj
 0001:000367f0       ?as_DoubleConstant@DoubleConstant@@UAEPAV1@XZ 080377f0 f i c1_Canonicalizer.obj
 0001:000367f0       ?as_ProfileCounter@ProfileCounter@@UAEPAV1@XZ 080377f0 f i c1_GraphBuilder.obj
 0001:000367f0       ?as_Op3@LIR_Op3@@UAEPAV1@XZ 080377f0 f i c1_LIR.obj
 0001:000367f0       ?as_OpProfileCall@LIR_OpProfileCall@@UAEPAV1@XZ 080377f0 f i c1_LIRGenerator.obj
 0001:000367f0       ?as_OpArrayCopy@LIR_OpArrayCopy@@UAEPAV1@XZ 080377f0 f i c1_LIR.obj
 0001:000367f0       ?as_AccessArray@AccessArray@@UAEPAV1@XZ 080377f0 f i c1_Canonicalizer.obj
 0001:000367f0       ?as_ObjectType@ObjectType@@UAEPAV1@XZ 080377f0 f i c1_GraphBuilder.obj
 0001:000367f0       ?as_NewObjectArray@NewObjectArray@@UAEPAV1@XZ 080377f0 f i c1_GraphBuilder.obj
 0001:000367f0       ?as_OpRoundFP@LIR_OpRoundFP@@UAEPAV1@XZ 080377f0 f i c1_LIRGenerator.obj
 0001:000367f0       ?as_UnsafeGetRaw@UnsafeGetRaw@@UAEPAV1@XZ 080377f0 f i c1_GraphBuilder.obj
 0001:000367f0       ?as_TypeCheck@TypeCheck@@UAEPAV1@XZ 080377f0 f i c1_GraphBuilder.obj
 0001:000367f0       ?as_UnsafePrefetch@UnsafePrefetch@@UAEPAV1@XZ 080377f0 f i c1_GraphBuilder.obj
 0001:000367f0       ?as_OpAllocArray@LIR_OpAllocArray@@UAEPAV1@XZ 080377f0 f i c1_LIR.obj
 0001:000367f0       ?as_NullCheck@NullCheck@@UAEPAV1@XZ 080377f0 f i c1_GraphBuilder.obj
 0001:000367f0       ?as_Op1@LIR_Op1@@UAEPAV1@XZ 080377f0 f i c1_LIR.obj
 0001:000367f0       ?as_NewMultiArray@NewMultiArray@@UAEPAV1@XZ 080377f0 f i c1_GraphBuilder.obj
 0001:000367f0       ?as_MonitorExit@MonitorExit@@UAEPAV1@XZ 080377f0 f i c1_GraphBuilder.obj
 0001:000367f0       ?as_OpBranch@LIR_OpBranch@@UAEPAV1@XZ 080377f0 f i c1_LIR.obj
 0001:000367f0       ?as_constant@LIR_Const@@UAEPAV1@XZ 080377f0 f i c1_LIR.obj
 0001:000367f0       ?as_OpConvert@LIR_OpConvert@@UAEPAV1@XZ 080377f0 f i c1_LIRGenerator.obj
 0001:000367f0       ?as_Base@Base@@UAEPAV1@XZ  080377f0 f i c1_GraphBuilder.obj
 0001:000367f0       ?as_LongType@LongType@@UAEPAV1@XZ 080377f0 f i c1_Canonicalizer.obj
 0001:000367f0       ?as_ArithmeticOp@ArithmeticOp@@UAEPAV1@XZ 080377f0 f i c1_GraphBuilder.obj
 0001:000367f0       ?as_TableSwitch@TableSwitch@@UAEPAV1@XZ 080377f0 f i c1_GraphBuilder.obj
 0001:000367f0       ?as_BlockBegin@BlockBegin@@UAEPAV1@XZ 080377f0 f i c1_GraphBuilder.obj
 0001:000367f0       ?as_LogicOp@LogicOp@@UAEPAV1@XZ 080377f0 f i c1_GraphBuilder.obj
 0001:000367f0       ?as_g1_policy@G1CollectorPolicy@@UAEPAV1@XZ 080377f0 f i g1CollectorPolicy.obj
 0001:000367f0       ?as_DefNewGeneration@Generation@@QAEPAVDefNewGeneration@@XZ 080377f0 f i generation.obj
 0001:000367f0       ?as_ExceptionObject@ExceptionObject@@UAEPAV1@XZ 080377f0 f i c1_GraphBuilder.obj
 0001:000367f0       ?as_FloatType@FloatType@@UAEPAV1@XZ 080377f0 f i c1_Canonicalizer.obj
 0001:000367f0       ?as_InstanceConstant@InstanceConstant@@UAEPAV1@XZ 080377f0 f i c1_GraphBuilder.obj
 0001:000367f0       ?as_CardTableRS@CardTableRS@@UAEPAV1@XZ 080377f0 f i cardTableRS.obj
 0001:000367f0       ?as_NewInstance@NewInstance@@UAEPAV1@XZ 080377f0 f i c1_GraphBuilder.obj
 0001:000367f0       ?as_two_generation_policy@TwoGenerationCollectorPolicy@@UAEPAV1@XZ 080377f0 f i cmsCollectorPolicy.obj
 0001:000367f0       ?as_ProfileCall@ProfileCall@@UAEPAV1@XZ 080377f0 f i c1_GraphBuilder.obj
 0001:00036800       ?name@Invoke@@UBEPBDXZ     08037800 f i c1_Instruction.obj
 0001:00036810       ?visit@Invoke@@UAEXPAVInstructionVisitor@@@Z 08037810 f i c1_Instruction.obj
 0001:00036830       ?input_values_do@Invoke@@UAEXP6AXPAPAVInstruction@@@Z@Z 08037830 f i c1_Instruction.obj
 0001:00036880       ?disconnect_from_graph@BlockBegin@@QAEXXZ 08037880 f   c1_Instruction.obj
 0001:000368f0       ?substitute_sux@BlockBegin@@QAEXPAV1@0@Z 080378f0 f   c1_Instruction.obj
 0001:000369a0       ?add_exception_state@BlockBegin@@QAEHPAVValueStack@@@Z 080379a0 f   c1_Instruction.obj
 0001:00036a30       ?iterate_preorder@BlockBegin@@QAEXPAVBlockClosure@@@Z 08037a30 f   c1_Instruction.obj
 0001:00036a90       ?set_begin@BlockEnd@@QAEXPAVBlockBegin@@@Z 08037a90 f   c1_Instruction.obj
 0001:00036b60       ?set_end@BlockBegin@@QAEXPAVBlockEnd@@@Z 08037b60 f   c1_Instruction.obj
 0001:00036c50       ?insert_block_between@BlockBegin@@QAEPAV1@PAV1@@Z 08037c50 f   c1_Instruction.obj
 0001:00036dd0       ?scale@LIR_Address@@SA?AW4Scale@1@W4BasicType@@@Z 08037dd0 f   c1_LIR.obj
 0001:00036e40       ?change_block@LIR_OpBranch@@QAEXPAVBlockBegin@@@Z 08037e40 f   c1_LIR.obj
 0001:00036e60       ?change_ublock@LIR_OpBranch@@QAEXPAVBlockBegin@@@Z 08037e60 f   c1_LIR.obj
 0001:00036e70       ?negate_cond@LIR_OpBranch@@QAEXXZ 08037e70 f   c1_LIR.obj
 0001:00036ee0       ?do_stub@LIR_OpVisitState@@QAEXPAVCodeStub@@@Z 08037ee0 f   c1_LIR.obj
 0001:00036f00       ?emit_code@LIR_OpJavaCall@@UAEXPAVLIR_Assembler@@@Z 08037f00 f   c1_LIR.obj
 0001:00036f10       ?emit_code@LIR_OpRTCall@@UAEXPAVLIR_Assembler@@@Z 08037f10 f   c1_LIR.obj
 0001:00036f20       ?emit_code@LIR_OpLabel@@UAEXPAVLIR_Assembler@@@Z 08037f20 f   c1_LIR.obj
 0001:00036f30       ?emit_code@LIR_Op0@@UAEXPAVLIR_Assembler@@@Z 08037f30 f   c1_LIR.obj
 0001:00036f40       ?emit_code@LIR_Op1@@UAEXPAVLIR_Assembler@@@Z 08037f40 f   c1_LIR.obj
 0001:00036f50       ?emit_code@LIR_Op2@@UAEXPAVLIR_Assembler@@@Z 08037f50 f   c1_LIR.obj
 0001:00036f60       ?emit_code@LIR_OpCompareAndSwap@@UAEXPAVLIR_Assembler@@@Z 08037f60 f   c1_LIR.obj
 0001:00036f70       ?emit_code@LIR_Op3@@UAEXPAVLIR_Assembler@@@Z 08037f70 f   c1_LIR.obj
 0001:00036f80       ?emit_code@LIR_OpProfileCall@@UAEXPAVLIR_Assembler@@@Z 08037f80 f   c1_LIR.obj
 0001:00036f90       ?append@intStack@@QAEHH@Z  08037f90 f i c1_LIR.obj
 0001:00036f90       ?push@BlockPairList@@QAEHQAVBlockPair@@@Z 08037f90 f i c1_IR.obj
 0001:00036f90       ?append@NodeList@@QAEHQAVResolveNode@@@Z 08037f90 f i c1_LIRGenerator.obj
 0001:00036fd0       ??0LIR_OpAllocObj@@QAE@PAVLIR_OprDesc@@00000HH_NPAVCodeStub@@@Z 08037fd0 f i c1_LIR.obj
 0001:00037050       ??0LIR_Op2@@QAE@W4LIR_Code@@W4LIR_Condition@@PAVLIR_OprDesc@@2PAVCodeEmitInfo@@@Z 08038050 f i c1_LIR.obj
 0001:000370b0       ??0LIR_OpAllocArray@@QAE@PAVLIR_OprDesc@@000000W4BasicType@@PAVCodeStub@@@Z 080380b0 f i c1_LIR.obj
 0001:00037120       ?do_info@LIR_OpVisitState@@QAEXPAVCodeEmitInfo@@@Z 08038120 f i c1_LIR.obj
 0001:00037140       ?info@ArrayCopyStub@@UBEPAVCodeEmitInfo@@XZ 08038140 f i c1_LIR.obj
 0001:00037150       ?visit@ArrayCopyStub@@UAEXPAVLIR_OpVisitState@@@Z 08038150 f i c1_LIR.obj
 0001:00037170       ?as_register@LIR_OprDesc@@QBEPAVRegisterImpl@@XZ 08038170 f   c1_LIR.obj
 0001:00037180       ?as_register_lo@LIR_OprDesc@@QBEPAVRegisterImpl@@XZ 08038180 f   c1_LIR.obj
 0001:000371a0       ?as_register_hi@LIR_OprDesc@@QBEPAVRegisterImpl@@XZ 080381a0 f   c1_LIR.obj
 0001:000371c0       ?as_xmm_float_reg@LIR_OprDesc@@QBEPAVXMMRegisterImpl@@XZ 080381c0 f   c1_LIR.obj
 0001:000371d0       ?as_xmm_double_reg@LIR_OprDesc@@QBEPAVXMMRegisterImpl@@XZ 080381d0 f   c1_LIR.obj
 0001:000371f0       ??0LIR_OpBranch@@QAE@W4LIR_Condition@@W4BasicType@@PAVBlockBegin@@@Z 080381f0 f   c1_LIR.obj
 0001:00037250       ??0LIR_OpBranch@@QAE@W4LIR_Condition@@W4BasicType@@PAVCodeStub@@@Z 08038250 f   c1_LIR.obj
 0001:000372b0       ??0LIR_OpBranch@@QAE@W4LIR_Condition@@W4BasicType@@PAVBlockBegin@@2@Z 080382b0 f   c1_LIR.obj
 0001:00037310       ??0LIR_OpTypeCheck@@QAE@W4LIR_Code@@PAVLIR_OprDesc@@1111PAVCodeEmitInfo@@PAVciMethod@@H@Z 08038310 f   c1_LIR.obj
 0001:000373f0       ??0LIR_OpArrayCopy@@QAE@PAVLIR_OprDesc@@00000PAVciArrayKlass@@HPAVCodeEmitInfo@@@Z 080383f0 f   c1_LIR.obj
 0001:000374b0       ?all_xhandler@LIR_OpVisitState@@QAEPAVXHandlers@@XZ 080384b0 f   c1_LIR.obj
 0001:00037530       ?emit_code@LIR_OpArrayCopy@@UAEXPAVLIR_Assembler@@@Z 08038530 f   c1_LIR.obj
 0001:00037560       ?emit_code@LIR_OpAllocObj@@UAEXPAVLIR_Assembler@@@Z 08038560 f   c1_LIR.obj
 0001:00037590       ?emit_code@LIR_OpBranch@@UAEXPAVLIR_Assembler@@@Z 08038590 f   c1_LIR.obj
 0001:000375c0       ?emit_code@LIR_OpConvert@@UAEXPAVLIR_Assembler@@@Z 080385c0 f   c1_LIR.obj
 0001:000375f0       ?emit_code@LIR_OpAllocArray@@UAEXPAVLIR_Assembler@@@Z 080385f0 f   c1_LIR.obj
 0001:00037620       ?emit_code@LIR_OpTypeCheck@@UAEXPAVLIR_Assembler@@@Z 08038620 f   c1_LIR.obj
 0001:00037650       ?emit_code@LIR_OpLock@@UAEXPAVLIR_Assembler@@@Z 08038650 f   c1_LIR.obj
 0001:00037680       ?load@LIR_List@@QAEXPAVLIR_Address@@PAVLIR_OprDesc@@PAVCodeEmitInfo@@W4LIR_PatchCode@@@Z 08038680 f   c1_LIR.obj
 0001:00037730       ?prefetch@LIR_List@@QAEXPAVLIR_Address@@_N@Z 08038730 f   c1_LIR.obj
 0001:000377e0       ?store@LIR_List@@QAEXPAVLIR_OprDesc@@PAVLIR_Address@@PAVCodeEmitInfo@@W4LIR_PatchCode@@@Z 080387e0 f   c1_LIR.obj
 0001:00037890       ?idiv@LIR_List@@QAEXPAVLIR_OprDesc@@000PAVCodeEmitInfo@@@Z 08038890 f   c1_LIR.obj
 0001:00037940       ?irem@LIR_List@@QAEXPAVLIR_OprDesc@@000PAVCodeEmitInfo@@@Z 08038940 f   c1_LIR.obj
 0001:000379f0       ?allocate_object@LIR_List@@QAEXPAVLIR_OprDesc@@0000HH0_NPAVCodeStub@@@Z 080389f0 f   c1_LIR.obj
 0001:00037a90       ?allocate_array@LIR_List@@QAEXPAVLIR_OprDesc@@00000W4BasicType@@0PAVCodeStub@@@Z 08038a90 f   c1_LIR.obj
 0001:00037b30       ?shift_left@LIR_List@@QAEXPAVLIR_OprDesc@@000@Z 08038b30 f   c1_LIR.obj
 0001:00037be0       ?shift_right@LIR_List@@QAEXPAVLIR_OprDesc@@000@Z 08038be0 f   c1_LIR.obj
 0001:00037c90       ?unsigned_shift_right@LIR_List@@QAEXPAVLIR_OprDesc@@000@Z 08038c90 f   c1_LIR.obj
 0001:00037d40       ?fcmp2int@LIR_List@@QAEXPAVLIR_OprDesc@@00_N@Z 08038d40 f   c1_LIR.obj
 0001:00037e00       ?lock_object@LIR_List@@QAEXPAVLIR_OprDesc@@000PAVCodeStub@@PAVCodeEmitInfo@@@Z 08038e00 f   c1_LIR.obj
 0001:00037ec0       ?unlock_object@LIR_List@@QAEXPAVLIR_OprDesc@@00PAVCodeStub@@@Z 08038ec0 f   c1_LIR.obj
 0001:00037f70       ?checkcast@LIR_List@@QAEXPAVLIR_OprDesc@@0PAVciKlass@@000_NPAVCodeEmitInfo@@3PAVCodeStub@@PAVciMethod@@H@Z 08038f70 f   c1_LIR.obj
 0001:00038050       ?instanceof@LIR_List@@QAEXPAVLIR_OprDesc@@0PAVciKlass@@000_NPAVCodeEmitInfo@@@Z 08039050 f   c1_LIR.obj
 0001:00038120       ?store_check@LIR_List@@QAEXPAVLIR_OprDesc@@0000PAVCodeEmitInfo@@@Z 08039120 f   c1_LIR.obj
 0001:000381b0       ?cas_long@LIR_List@@QAEXPAVLIR_OprDesc@@0000@Z 080391b0 f   c1_LIR.obj
 0001:00038270       ?cas_obj@LIR_List@@QAEXPAVLIR_OprDesc@@0000@Z 08039270 f   c1_LIR.obj
 0001:00038330       ?cas_int@LIR_List@@QAEXPAVLIR_OprDesc@@0000@Z 08039330 f   c1_LIR.obj
 0001:000383f0       ?append@LIR_InsertionBuffer@@QAEXHPAVLIR_Op@@@Z 080393f0 f   c1_LIR.obj
 0001:00038490       ?grow@LIR_OpList@@IAEXHQAVLIR_Op@@@Z 08039490 f i c1_LIR.obj
 0001:00038490       ?grow@IntervalList@@IAEXHQAVInterval@@@Z 08039490 f i c1_LinearScan.obj
 0001:00038490       ?grow@NodeList@@IAEXHQAVResolveNode@@@Z 08039490 f i c1_LIRGenerator.obj
 0001:00038490       ?grow@Values@@IAEXHQAVInstruction@@@Z 08039490 f i c1_LIRGenerator.obj
 0001:000384d0       ?is_register@LIR_OprDesc@@QBE_NXZ 080394d0 f i c1_LIR.obj
 0001:000384f0       ?intptrConst@LIR_OprFact@@SAPAVLIR_OprDesc@@H@Z 080394f0 f i c1_LIRGenerator.obj
 0001:000384f0       ?intConst@LIR_OprFact@@SAPAVLIR_OprDesc@@H@Z 080394f0 f i c1_LIR.obj
 0001:00038540       ?longConst@LIR_OprFact@@SAPAVLIR_OprDesc@@_J@Z 08039540 f i c1_LIR.obj
 0001:00038590       ?floatConst@LIR_OprFact@@SAPAVLIR_OprDesc@@M@Z 08039590 f i c1_LIR.obj
 0001:000385e0       ?doubleConst@LIR_OprFact@@SAPAVLIR_OprDesc@@N@Z 080395e0 f i c1_LIR.obj
 0001:00038630       ?oopConst@LIR_OprFact@@SAPAVLIR_OprDesc@@PAV_jobject@@@Z 08039630 f i c1_LIR.obj
 0001:00038680       ?value_type@LIR_OprFact@@SAPAVLIR_OprDesc@@PAVValueType@@@Z 08039680 f   c1_LIR.obj
 0001:000387d0       ?is_oop@LIR_OprDesc@@QBE_NXZ 080397d0 f   c1_LIR.obj
 0001:00038810       ?visit@LIR_OpVisitState@@QAEXPAVLIR_Op@@@Z 08039810 f   c1_LIR.obj
 0001:00039100       ??0LIR_List@@QAE@PAVCompilation@@PAVBlockBegin@@@Z 0803a100 f   c1_LIR.obj
 0001:00039140       ?append@LIR_List@@QAEXPAVLIR_InsertionBuffer@@@Z 0803a140 f   c1_LIR.obj
 0001:00039210       ?oop2reg_patch@LIR_List@@QAEXPAV_jobject@@PAVLIR_OprDesc@@PAVCodeEmitInfo@@@Z 0803a210 f   c1_LIR.obj
 0001:000392d0       ?cmp_mem_int@LIR_List@@QAEXW4LIR_Condition@@PAVLIR_OprDesc@@HHPAVCodeEmitInfo@@@Z 0803a2d0 f   c1_LIR.obj
 0001:00039430       ?build_frame@LIR_Assembler@@QAEXXZ 0803a430 f   c1_LIRAssembler.obj
 0001:00039450       ?append@CodeStubList@@QAEXPAVCodeStub@@@Z 0803a450 f i c1_LIRAssembler.obj
 0001:000394a0       ?lock_stack@AccessField@@UBEPAVValueStack@@XZ 0803a4a0 f i c1_Canonicalizer.obj
 0001:000394a0       ?info@DivByZeroStub@@UBEPAVCodeEmitInfo@@XZ 0803a4a0 f i c1_LIRAssembler.obj
 0001:000394a0       ?info@RangeCheckStub@@UBEPAVCodeEmitInfo@@XZ 0803a4a0 f i c1_CodeStubs_x86.obj
 0001:000394a0       ?info@ImplicitNullCheckStub@@UBEPAVCodeEmitInfo@@XZ 0803a4a0 f i c1_LIRAssembler.obj
 0001:000394a0       ?info@ArrayStoreExceptionStub@@UBEPAVCodeEmitInfo@@XZ 0803a4a0 f i c1_CodeStubs_x86.obj
 0001:000394b0       ?install@PatchingStub@@QAEXPAVMacroAssembler@@W4LIR_PatchCode@@PAVRegisterImpl@@PAVCodeEmitInfo@@@Z 0803a4b0 f i c1_LIRAssembler.obj
 0001:00039560       ??0LIR_Assembler@@QAE@PAVCompilation@@@Z 0803a560 f   c1_LIRAssembler.obj
 0001:000395c0       ?emit_code_stub@LIR_Assembler@@QAEXPAVCodeStub@@@Z 0803a5c0 f   c1_LIRAssembler.obj
 0001:000395d0       ?emit_stubs@LIR_Assembler@@AAEXPAVCodeStubList@@@Z 0803a5d0 f   c1_LIRAssembler.obj
 0001:00039630       ?emit_slow_case_stubs@LIR_Assembler@@QAEXXZ 0803a630 f   c1_LIRAssembler.obj
 0001:00039640       ?code_offset@LIR_Assembler@@QBEHXZ 0803a640 f   c1_LIRAssembler.obj
 0001:00039650       ?pc@LIR_Assembler@@QBEPAEXZ 0803a650 f   c1_LIRAssembler.obj
 0001:00039660       ?record_non_safepoint_debug_info@LIR_Assembler@@AAEXXZ 0803a660 f   c1_LIRAssembler.obj
 0001:00039720       ?add_debug_info_for_null_check@LIR_Assembler@@AAEXHPAVCodeEmitInfo@@@Z 0803a720 f   c1_LIRAssembler.obj
 0001:000397a0       ?add_debug_info_for_div0@LIR_Assembler@@AAEXHPAVCodeEmitInfo@@@Z 0803a7a0 f   c1_LIRAssembler.obj
 0001:00039820       ?emit_rtcall@LIR_Assembler@@QAEXPAVLIR_OpRTCall@@@Z 0803a820 f   c1_LIRAssembler.obj
 0001:00039850       ?emit_call@LIR_Assembler@@QAEXPAVLIR_OpJavaCall@@@Z 0803a850 f   c1_LIRAssembler.obj
 0001:00039910       ?emit_opLabel@LIR_Assembler@@QAEXPAVLIR_OpLabel@@@Z 0803a910 f   c1_LIRAssembler.obj
 0001:00039930       ?emit_op0@LIR_Assembler@@QAEXPAVLIR_Op0@@@Z 0803a930 f   c1_LIRAssembler.obj
 0001:00039b10       ?last_pc_offset@DebugInformationRecorder@@QAEHXZ 0803ab10 f i c1_LIRAssembler.obj
 0001:00039b50       ?is_constant@LIR_OprDesc@@QBE_NXZ 0803ab50 f i c1_LIRAssembler.obj
 0001:00039b70       ?patching_epilog@LIR_Assembler@@AAEXPAVPatchingStub@@W4LIR_PatchCode@@PAVRegisterImpl@@PAVCodeEmitInfo@@@Z 0803ab70 f   c1_LIRAssembler.obj
 0001:00039bc0       ?add_debug_info_for_branch@LIR_Assembler@@AAEXPAVCodeEmitInfo@@@Z 0803abc0 f   c1_LIRAssembler.obj
 0001:00039c40       ?add_call_info@LIR_Assembler@@AAEXHPAVCodeEmitInfo@@@Z 0803ac40 f   c1_LIRAssembler.obj
 0001:00039c90       ?process_debug_info@LIR_Assembler@@AAEXPAVLIR_Op@@@Z 0803ac90 f   c1_LIRAssembler.obj
 0001:00039d40       ?add_debug_info_for_null_check_here@LIR_Assembler@@AAEXPAVCodeEmitInfo@@@Z 0803ad40 f   c1_LIRAssembler.obj
 0001:00039d60       ?emit_op2@LIR_Assembler@@QAEXPAVLIR_Op2@@@Z 0803ad60 f   c1_LIRAssembler.obj
 0001:00039f30       ?roundfp_op@LIR_Assembler@@QAEXPAVLIR_OprDesc@@00_N@Z 0803af30 f   c1_LIRAssembler.obj
 0001:00039f80       ?move_op@LIR_Assembler@@QAEXPAVLIR_OprDesc@@0W4BasicType@@W4LIR_PatchCode@@PAVCodeEmitInfo@@_N4@Z 0803af80 f   c1_LIRAssembler.obj
 0001:0003a170       ?emit_lir_list@LIR_Assembler@@QAEXPAVLIR_List@@@Z 0803b170 f   c1_LIRAssembler.obj
 0001:0003a200       ?emit_op1@LIR_Assembler@@QAEXPAVLIR_Op1@@@Z 0803b200 f   c1_LIRAssembler.obj
 0001:0003a490       ?emit_exception_entries@LIR_Assembler@@QAEXPAVExceptionInfoList@@@Z 0803b490 f   c1_LIRAssembler.obj
 0001:0003a520       ?emit_code@LIR_Assembler@@QAEXPAVBlockList@@@Z 0803b520 f   c1_LIRAssembler.obj
 0001:0003a5c0       ?receiverOpr@LIR_Assembler@@SAPAVLIR_OprDesc@@XZ 0803b5c0 f   c1_LIRAssembler_x86.obj
 0001:0003a5d0       ?fpop@LIR_Assembler@@AAEXXZ 0803b5d0 f   c1_LIRAssembler_x86.obj
 0001:0003a5e0       ?fxch@LIR_Assembler@@AAEXH@Z 0803b5e0 f   c1_LIRAssembler_x86.obj
 0001:0003a5f0       ?ffree@LIR_Assembler@@AAEXH@Z 0803b5f0 f   c1_LIRAssembler_x86.obj
 0001:0003a600       ?breakpoint@LIR_Assembler@@AAEXXZ 0803b600 f   c1_LIRAssembler_x86.obj
 0001:0003a610       ?move_regs@LIR_Assembler@@QAEXPAVRegisterImpl@@0@Z 0803b610 f   c1_LIRAssembler_x86.obj
 0001:0003a630       ?array_element_size@LIR_Assembler@@ABE?AW4ScaleFactor@Address@@W4BasicType@@@Z 0803b630 f   c1_LIRAssembler_x86.obj
 0001:0003a6b0       ?arith_fpu_implementation@LIR_Assembler@@AAEXW4LIR_Code@@HHH_N@Z 0803b6b0 f   c1_LIRAssembler_x86.obj
 0001:0003a840       ?call@LIR_Assembler@@QAEXPAEW4relocType@relocInfo@@PAVCodeEmitInfo@@@Z 0803b840 f   c1_LIRAssembler_x86.obj
 0001:0003a890       ?vtable_call@LIR_Assembler@@QAEXHPAVCodeEmitInfo@@@Z 0803b890 f   c1_LIRAssembler_x86.obj
 0001:0003a8b0       ?align_backward_branch_target@LIR_Assembler@@QAEXXZ 0803b8b0 f   c1_LIRAssembler_x86.obj
 0001:0003a8c0       ?get_thread@LIR_Assembler@@QAEXPAVLIR_OprDesc@@@Z 0803b8c0 f   c1_LIRAssembler_x86.obj
 0001:0003a8e0       ?compute_Object_vtable@ClassLoader@@SAHXZ 0803b8e0 f i classLoader.obj
 0001:0003a8e0       ?kind@CMSMemoryManager@@UAE?AW4Name@MemoryManager@@XZ 0803b8e0 f i memoryManager.obj
 0001:0003a8e0       ?type@static_stub_Relocation@@EAE?AW4relocType@relocInfo@@XZ 0803b8e0 f i c1_LIRAssembler_x86.obj
 0001:0003a8e0       ?kind@ConcurrentMarkSweepGeneration@@UAE?AW4Name@Generation@@XZ 0803b8e0 f i cmsPermGen.obj
 0001:0003a8e0       ?type@VM_ForceSafepoint@@UBE?AW4VMOp_Type@VM_Operation@@XZ 0803b8e0 f i icBuffer.obj
 0001:0003a8f0       ??0Address@@QAE@XZ         0803b8f0 f i c1_LIRAssembler_x86.obj
 0001:0003a920       ?membar@Assembler@@QAEXW4Membar_mask_bits@1@@Z 0803b920 f i c1_LIRAssembler_x86.obj
 0001:0003a990       ?cmovptr@MacroAssembler@@QAEXW4Condition@Assembler@@PAVRegisterImpl@@VAddress@@@Z 0803b990 f i c1_LIRAssembler_x86.obj
 0001:0003a9c0       ?as_jint_lo_bits@LIR_Const@@QBEHXZ 0803b9c0 f i c1_LIRAssembler_x86.obj
 0001:0003a9f0       ?as_jint_hi_bits@LIR_Const@@QBEHXZ 0803b9f0 f i c1_LIRAssembler_x86.obj
 0001:0003aa30       ?is_zero_float@LIR_Const@@QAE_NXZ 0803ba30 f i c1_LIRAssembler_x86.obj
 0001:0003aa60       ?is_one_float@LIR_Const@@QAE_NXZ 0803ba60 f i c1_LIRAssembler_x86.obj
 0001:0003aac0       ?is_zero_double@LIR_Const@@QAE_NXZ 0803bac0 f i c1_LIRAssembler_x86.obj
 0001:0003ab00       ?is_one_double@LIR_Const@@QAE_NXZ 0803bb00 f i c1_LIRAssembler_x86.obj
 0001:0003ab60       ?address_for_slot@FrameMap@@QBE?AVAddress@@HH@Z 0803bb60 f i c1_LIRAssembler_x86.obj
 0001:0003ab90       ??0PatchingStub@@QAE@PAVMacroAssembler@@W4PatchID@0@H@Z 0803bb90 f i c1_LIRAssembler_x86.obj
 0001:0003ac20       ?free_regions@G1CollectedHeap@@QAEIXZ 0803bc20 f i g1CollectedHeap.obj
 0001:0003ac20       ?info@PatchingStub@@UBEPAVCodeEmitInfo@@XZ 0803bc20 f i c1_LIRAssembler_x86.obj
 0001:0003ac30       ?visit@PatchingStub@@UAEXPAVLIR_OpVisitState@@@Z 0803bc30 f i c1_LIRAssembler_x86.obj
 0001:0003ac60       ?push_addr@C1_MacroAssembler@@QAEXVAddress@@@Z 0803bc60 f i c1_LIRAssembler_x86.obj
 0001:0003ac90       ?float_constant@LIR_Assembler@@AAEPAEM@Z 0803bc90 f   c1_LIRAssembler_x86.obj
 0001:0003acf0       ?double_constant@LIR_Assembler@@AAEPAEN@Z 0803bcf0 f   c1_LIRAssembler_x86.obj
 0001:0003ad50       ?set_24bit_FPU@LIR_Assembler@@AAEXXZ 0803bd50 f   c1_LIRAssembler_x86.obj
 0001:0003ad90       ?reset_FPU@LIR_Assembler@@AAEXXZ 0803bd90 f   c1_LIRAssembler_x86.obj
 0001:0003add0       ?fld@LIR_Assembler@@AAEXH@Z 0803bdd0 f   c1_LIRAssembler_x86.obj
 0001:0003ade0       ?pop@LIR_Assembler@@AAEXPAVLIR_OprDesc@@@Z 0803bde0 f   c1_LIRAssembler_x86.obj
 0001:0003ae30       ?is_literal_address@LIR_Assembler@@AAE_NPAVLIR_Address@@@Z 0803be30 f   c1_LIRAssembler_x86.obj
 0001:0003ae60       ?check_icache@LIR_Assembler@@AAEHXZ 0803be60 f   c1_LIRAssembler_x86.obj
 0001:0003aed0       ?jobject2reg_with_patching@LIR_Assembler@@AAEXPAVRegisterImpl@@PAVCodeEmitInfo@@@Z 0803bed0 f   c1_LIRAssembler_x86.obj
 0001:0003af40       ?monitorexit@LIR_Assembler@@AAEXPAVLIR_OprDesc@@0PAVRegisterImpl@@H1@Z 0803bf40 f   c1_LIRAssembler_x86.obj
 0001:0003b0d0       ?initial_frame_size_in_bytes@LIR_Assembler@@QAEHXZ 0803c0d0 f   c1_LIRAssembler_x86.obj
 0001:0003b0f0       ?emit_exception_handler@LIR_Assembler@@QAEHXZ 0803c0f0 f   c1_LIRAssembler_x86.obj
 0001:0003b1f0       ?emit_deopt_handler@LIR_Assembler@@QAEHXZ 0803c1f0 f   c1_LIRAssembler_x86.obj
 0001:0003b2b0       ?safepoint_poll@LIR_Assembler@@QAEHPAVLIR_OprDesc@@PAVCodeEmitInfo@@@Z 0803c2b0 f   c1_LIRAssembler_x86.obj
 0001:0003b340       ?const2reg@LIR_Assembler@@QAEXPAVLIR_OprDesc@@0W4LIR_PatchCode@@PAVCodeEmitInfo@@@Z 0803c340 f   c1_LIRAssembler_x86.obj
 0001:0003b610       ?const2stack@LIR_Assembler@@QAEXPAVLIR_OprDesc@@0@Z 0803c610 f   c1_LIRAssembler_x86.obj
 0001:0003b7a0       ?stack2stack@LIR_Assembler@@QAEXPAVLIR_OprDesc@@0W4BasicType@@@Z 0803c7a0 f   c1_LIRAssembler_x86.obj
 0001:0003b930       ?emit_opBranch@LIR_Assembler@@QAEXPAVLIR_OpBranch@@@Z 0803c930 f   c1_LIRAssembler_x86.obj
 0001:0003ba60       ?emit_opConvert@LIR_Assembler@@QAEXPAVLIR_OpConvert@@@Z 0803ca60 f   c1_LIRAssembler_x86.obj
 0001:0003bf00       ?emit_alloc_obj@LIR_Assembler@@QAEXPAVLIR_OpAllocObj@@@Z 0803cf00 f   c1_LIRAssembler_x86.obj
 0001:0003bff0       ?emit_opTypeCheck@LIR_Assembler@@QAEXPAVLIR_OpTypeCheck@@@Z 0803cff0 f   c1_LIRAssembler_x86.obj
 0001:0003c970       ?emit_compare_and_swap@LIR_Assembler@@QAEXPAVLIR_OpCompareAndSwap@@@Z 0803d970 f   c1_LIRAssembler_x86.obj
 0001:0003cae0       ?comp_fl2i@LIR_Assembler@@QAEXW4LIR_Code@@PAVLIR_OprDesc@@11PAVLIR_Op2@@@Z 0803dae0 f   c1_LIRAssembler_x86.obj
 0001:0003cc00       ?align_call@LIR_Assembler@@QAEXW4LIR_Code@@@Z 0803dc00 f   c1_LIRAssembler_x86.obj
 0001:0003cc80       ?throw_op@LIR_Assembler@@QAEXPAVLIR_OprDesc@@0PAVCodeEmitInfo@@_N@Z 0803dc80 f   c1_LIRAssembler_x86.obj
 0001:0003cd40       ?shift_op@LIR_Assembler@@QAEXW4LIR_Code@@PAVLIR_OprDesc@@111@Z 0803dd40 f   c1_LIRAssembler_x86.obj
 0001:0003ce40       ?shift_op@LIR_Assembler@@QAEXW4LIR_Code@@PAVLIR_OprDesc@@H1@Z 0803de40 f   c1_LIRAssembler_x86.obj
 0001:0003cf10       ?store_parameter@LIR_Assembler@@QAEXPAVRegisterImpl@@H@Z 0803df10 f   c1_LIRAssembler_x86.obj
 0001:0003cf70       ?store_parameter@LIR_Assembler@@QAEXHH@Z 0803df70 f   c1_LIRAssembler_x86.obj
 0001:0003cfd0       ?emit_lock@LIR_Assembler@@QAEXPAVLIR_OpLock@@@Z 0803dfd0 f   c1_LIRAssembler_x86.obj
 0001:0003d090       ?monitor_address@LIR_Assembler@@QAEXHPAVLIR_OprDesc@@@Z 0803e090 f   c1_LIRAssembler_x86.obj
 0001:0003d0f0       ?rt_call@LIR_Assembler@@QAEXPAVLIR_OprDesc@@PAEPBVLIR_OprList@@0PAVCodeEmitInfo@@@Z 0803e0f0 f   c1_LIRAssembler_x86.obj
 0001:0003d140       ?membar@LIR_Assembler@@QAEXXZ 0803e140 f   c1_LIRAssembler_x86.obj
 0001:0003d1a0       ?movflt@MacroAssembler@@QAEXPAVXMMRegisterImpl@@0@Z 0803e1a0 f i c1_LIRAssembler_x86.obj
 0001:0003d1c0       ?movflt@MacroAssembler@@QAEXPAVXMMRegisterImpl@@VAddress@@@Z 0803e1c0 f i c1_LIRAssembler_x86.obj
 0001:0003d1f0       ?movflt@MacroAssembler@@QAEXVAddress@@PAVXMMRegisterImpl@@@Z 0803e1f0 f i c1_LIRAssembler_x86.obj
 0001:0003d220       ?movdbl@MacroAssembler@@QAEXPAVXMMRegisterImpl@@0@Z 0803e220 f i c1_LIRAssembler_x86.obj
 0001:0003d240       ?movdbl@MacroAssembler@@QAEXPAVXMMRegisterImpl@@VAddress@@@Z 0803e240 f i c1_LIRAssembler_x86.obj
 0001:0003d290       ?movdbl@MacroAssembler@@QAEXVAddress@@PAVXMMRegisterImpl@@@Z 0803e290 f i c1_LIRAssembler_x86.obj
 0001:0003d2c0       ?visit@MonitorExitStub@@UAEXPAVLIR_OpVisitState@@@Z 0803e2c0 f i c1_LIRAssembler_x86.obj
 0001:0003d2f0       ?osrBufferPointer@LIR_Assembler@@SAPAVLIR_OprDesc@@XZ 0803e2f0 f   c1_LIRAssembler_x86.obj
 0001:0003d310       ?push@LIR_Assembler@@AAEXPAVLIR_OprDesc@@@Z 0803e310 f   c1_LIRAssembler_x86.obj
 0001:0003d470       ?as_Address@LIR_Assembler@@AAE?AVAddress@@PAVLIR_Address@@PAVRegisterImpl@@@Z 0803e470 f   c1_LIRAssembler_x86.obj
 0001:0003d5a0       ?osr_entry@LIR_Assembler@@QAEXXZ 0803e5a0 f   c1_LIRAssembler_x86.obj
 0001:0003d790       ?return_op@LIR_Assembler@@QAEXPAVLIR_OprDesc@@@Z 0803e790 f   c1_LIRAssembler_x86.obj
 0001:0003d820       ?reg2reg@LIR_Assembler@@QAEXPAVLIR_OprDesc@@0@Z 0803e820 f   c1_LIRAssembler_x86.obj
 0001:0003dba0       ?reg2stack@LIR_Assembler@@QAEXPAVLIR_OprDesc@@0W4BasicType@@_N@Z 0803eba0 f   c1_LIRAssembler_x86.obj
 0001:0003de30       ?stack2reg@LIR_Assembler@@QAEXPAVLIR_OprDesc@@0W4BasicType@@@Z 0803ee30 f   c1_LIRAssembler_x86.obj
 0001:0003e0c0       ?emit_alloc_array@LIR_Assembler@@QAEXPAVLIR_OpAllocArray@@@Z 0803f0c0 f   c1_LIRAssembler_x86.obj
 0001:0003e190       ?cmove@LIR_Assembler@@QAEXW4LIR_Condition@@PAVLIR_OprDesc@@11@Z 0803f190 f   c1_LIRAssembler_x86.obj
 0001:0003e560       ?intrinsic_op@LIR_Assembler@@QAEXW4LIR_Code@@PAVLIR_OprDesc@@11PAVLIR_Op@@@Z 0803f560 f   c1_LIRAssembler_x86.obj
 0001:0003e760       ?logic_op@LIR_Assembler@@QAEXW4LIR_Code@@PAVLIR_OprDesc@@11@Z 0803f760 f   c1_LIRAssembler_x86.obj
 0001:0003eb20       ?arithmetic_idiv@LIR_Assembler@@QAEXW4LIR_Code@@PAVLIR_OprDesc@@111PAVCodeEmitInfo@@@Z 0803fb20 f   c1_LIRAssembler_x86.obj
 0001:0003ecd0       ?emit_static_call_stub@LIR_Assembler@@QAEXXZ 0803fcd0 f   c1_LIRAssembler_x86.obj
 0001:0003edc0       ?emit_profile_call@LIR_Assembler@@QAEXPAVLIR_OpProfileCall@@@Z 0803fdc0 f   c1_LIRAssembler_x86.obj
 0001:0003f2d0       ?negate@LIR_Assembler@@QAEXPAVLIR_OprDesc@@0@Z 080402d0 f   c1_LIRAssembler_x86.obj
 0001:0003f500       ?as_Address_hi@LIR_Assembler@@AAE?AVAddress@@PAVLIR_Address@@@Z 08040500 f   c1_LIRAssembler_x86.obj
 0001:0003f550       ?as_Address@LIR_Assembler@@AAE?AVAddress@@PAVLIR_Address@@@Z 08040550 f   c1_LIRAssembler_x86.obj
 0001:0003f550       ?as_Address_lo@LIR_Assembler@@AAE?AVAddress@@PAVLIR_Address@@@Z 08040550 f   c1_LIRAssembler_x86.obj
 0001:0003f570       ?const2mem@LIR_Assembler@@QAEXPAVLIR_OprDesc@@0W4BasicType@@PAVCodeEmitInfo@@@Z 08040570 f   c1_LIRAssembler_x86.obj
 0001:0003f7b0       ?reg2mem@LIR_Assembler@@QAEXPAVLIR_OprDesc@@0W4BasicType@@W4LIR_PatchCode@@PAVCodeEmitInfo@@_N4@Z 080407b0 f   c1_LIRAssembler_x86.obj
 0001:0003fc50       ?mem2reg@LIR_Assembler@@QAEXPAVLIR_OprDesc@@0W4BasicType@@W4LIR_PatchCode@@PAVCodeEmitInfo@@_N@Z 08040c50 f   c1_LIRAssembler_x86.obj
 0001:00040210       ?prefetchr@LIR_Assembler@@QAEXPAVLIR_OprDesc@@@Z 08041210 f   c1_LIRAssembler_x86.obj
 0001:00040300       ?prefetchw@LIR_Assembler@@QAEXPAVLIR_OprDesc@@@Z 08041300 f   c1_LIRAssembler_x86.obj
 0001:00040400       ?emit_op3@LIR_Assembler@@QAEXPAVLIR_Op3@@@Z 08041400 f   c1_LIRAssembler_x86.obj
 0001:00040450       ?arith_op@LIR_Assembler@@QAEXW4LIR_Code@@PAVLIR_OprDesc@@11PAVCodeEmitInfo@@_N@Z 08041450 f   c1_LIRAssembler_x86.obj
 0001:00041190       ?comp_op@LIR_Assembler@@AAEXW4LIR_Condition@@PAVLIR_OprDesc@@1PAVLIR_Op2@@@Z 08042190 f   c1_LIRAssembler_x86.obj
 0001:00041840       ?ic_call@LIR_Assembler@@QAEXPAEPAVCodeEmitInfo@@@Z 08042840 f   c1_LIRAssembler_x86.obj
 0001:000418c0       ?emit_arraycopy@LIR_Assembler@@QAEXPAVLIR_OpArrayCopy@@@Z 080428c0 f   c1_LIRAssembler_x86.obj
 0001:00041fb0       ?leal@LIR_Assembler@@QAEXPAVLIR_OprDesc@@0@Z 08042fb0 f   c1_LIRAssembler_x86.obj
 0001:00042010       ?volatile_move_op@LIR_Assembler@@QAEXPAVLIR_OprDesc@@0W4BasicType@@PAVCodeEmitInfo@@@Z 08043010 f   c1_LIRAssembler_x86.obj
 0001:00042340       ?is_power_of_2@@YA_NH@Z    08043340 f i c1_LIRGenerator.obj
 0001:00042360       ?log2_intptr@@YAHH@Z       08043360 f i assembler_x86.obj
 0001:00042360       ?exact_log2@@YAHH@Z        08043360 f i c1_LIRGenerator.obj
 0001:00042380       ?lir_cond@LIRGenerator@@CA?AW4LIR_Condition@@W4Condition@Instruction@@@Z 08043380 f i c1_LIRGenerator.obj
 0001:000423e0       ?get_jobject_constant@LIRGenerator@@AAEPAVciObject@@PAVInstruction@@@Z 080433e0 f   c1_LIRGenerator.obj
 0001:00042410       ?do_Phi@LIRGenerator@@UAEXPAVPhi@@@Z 08043410 f   c1_LIRGenerator.obj
 0001:00042430       ?do_IfInstanceOf@LIRGenerator@@UAEXPAVIfInstanceOf@@@Z 08043430 f   c1_LIRGenerator.obj
 0001:00042450       ?virtual_register@LIR_OprFact@@SAPAVLIR_OprDesc@@HW4BasicType@@@Z 08043450 f i c1_LIRGenerator.obj
 0001:000424e0       ?call_opt_virtual@LIR_List@@QAEXPAVciMethod@@PAVLIR_OprDesc@@1PAEPAVLIR_OprList@@PAVCodeEmitInfo@@@Z 080434e0 f i c1_LIRGenerator.obj
 0001:00042590       ?call_static@LIR_List@@QAEXPAVciMethod@@PAVLIR_OprDesc@@PAEPAVLIR_OprList@@PAVCodeEmitInfo@@@Z 08043590 f i c1_LIRGenerator.obj
 0001:00042640       ?call_icvirtual@LIR_List@@QAEXPAVciMethod@@PAVLIR_OprDesc@@1PAEPAVLIR_OprList@@PAVCodeEmitInfo@@@Z 08043640 f i c1_LIRGenerator.obj
 0001:000426f0       ?call_virtual@LIR_List@@QAEXPAVciMethod@@PAVLIR_OprDesc@@1HPAVLIR_OprList@@PAVCodeEmitInfo@@@Z 080436f0 f i c1_LIRGenerator.obj
 0001:000427a0       ?membar@LIR_List@@QAEXXZ   080437a0 f i c1_LIRGenerator.obj
 0001:00042830       ?membar_acquire@LIR_List@@QAEXXZ 08043830 f i c1_LIRGenerator.obj
 0001:000428c0       ?membar_release@LIR_List@@QAEXXZ 080438c0 f i c1_LIRGenerator.obj
 0001:00042950       ?std_entry@LIR_List@@QAEXPAVLIR_OprDesc@@@Z 08043950 f i c1_LIRGenerator.obj
 0001:000429f0       ?osr_entry@LIR_List@@QAEXPAVLIR_OprDesc@@@Z 080439f0 f i c1_LIRGenerator.obj
 0001:00042a90       ?branch_destination@LIR_List@@QAEXPAVLabel@@@Z 08043a90 f i c1_LIRGenerator.obj
 0001:00042b30       ?leal@LIR_List@@QAEXPAVLIR_OprDesc@@0@Z 08043b30 f i c1_LIRGenerator.obj
 0001:00042be0       ?roundfp@LIR_List@@QAEXPAVLIR_OprDesc@@00@Z 08043be0 f i c1_LIRGenerator.obj
 0001:00042c90       ?move@LIR_List@@QAEXPAVLIR_Address@@PAVLIR_OprDesc@@PAVCodeEmitInfo@@@Z 08043c90 f i c1_LIRGenerator.obj
 0001:00042d40       ?move@LIR_List@@QAEXPAVLIR_OprDesc@@PAVLIR_Address@@PAVCodeEmitInfo@@@Z 08043d40 f i c1_LIRGenerator.obj
 0001:00042df0       ?return_op@LIR_List@@QAEXPAVLIR_OprDesc@@@Z 08043df0 f i c1_LIRGenerator.obj
 0001:00042ea0       ?safepoint@LIR_List@@QAEXPAVLIR_OprDesc@@PAVCodeEmitInfo@@@Z 08043ea0 f i c1_LIRGenerator.obj
 0001:00042f50       ?convert@LIR_List@@QAEXW4Code@Bytecodes@@PAVLIR_OprDesc@@1PAVConversionStub@@@Z 08043f50 f i c1_LIRGenerator.obj
 0001:00043000       ?logical_and@LIR_List@@QAEXPAVLIR_OprDesc@@00@Z 08044000 f i c1_LIRGenerator.obj
 0001:000430c0       ?logical_or@LIR_List@@QAEXPAVLIR_OprDesc@@00@Z 080440c0 f i c1_LIRGenerator.obj
 0001:00043180       ?logical_xor@LIR_List@@QAEXPAVLIR_OprDesc@@00@Z 08044180 f i c1_LIRGenerator.obj
 0001:00043240       ?null_check@LIR_List@@QAEXPAVLIR_OprDesc@@PAVCodeEmitInfo@@@Z 08044240 f i c1_LIRGenerator.obj
 0001:000432f0       ?throw_exception@LIR_List@@QAEXPAVLIR_OprDesc@@0PAVCodeEmitInfo@@@Z 080442f0 f i c1_LIRGenerator.obj
 0001:000433b0       ?unwind_exception@LIR_List@@QAEXPAVLIR_OprDesc@@0PAVCodeEmitInfo@@@Z 080443b0 f i c1_LIRGenerator.obj
 0001:00043470       ?cmp_reg_mem@LIR_List@@QAEXW4LIR_Condition@@PAVLIR_OprDesc@@PAVLIR_Address@@PAVCodeEmitInfo@@@Z 08044470 f i c1_LIR.obj
 0001:00043470       ?cmp@LIR_List@@QAEXW4LIR_Condition@@PAVLIR_OprDesc@@1PAVCodeEmitInfo@@@Z 08044470 f i c1_LIRGenerator.obj
 0001:00043500       ?cmove@LIR_List@@QAEXW4LIR_Condition@@PAVLIR_OprDesc@@11@Z 08044500 f i c1_LIRGenerator.obj
 0001:000435c0       ?add@LIR_List@@QAEXPAVLIR_OprDesc@@00@Z 080445c0 f i c1_LIRGenerator.obj
 0001:00043680       ?sub@LIR_List@@QAEXPAVLIR_OprDesc@@00PAVCodeEmitInfo@@@Z 08044680 f i c1_LIRGenerator.obj
 0001:00043740       ?mul@LIR_List@@QAEXPAVLIR_OprDesc@@00@Z 08044740 f i c1_LIRGenerator.obj
 0001:00043800       ?mul_strictfp@LIR_List@@QAEXPAVLIR_OprDesc@@000@Z 08044800 f i c1_LIRGenerator.obj
 0001:000438b0       ?div@LIR_List@@QAEXPAVLIR_OprDesc@@00PAVCodeEmitInfo@@@Z 080448b0 f i c1_LIRGenerator.obj
 0001:00043970       ?div_strictfp@LIR_List@@QAEXPAVLIR_OprDesc@@000@Z 08044970 f i c1_LIRGenerator.obj
 0001:00043a20       ?rem@LIR_List@@QAEXPAVLIR_OprDesc@@00PAVCodeEmitInfo@@@Z 08044a20 f i c1_LIRGenerator.obj
 0001:00043ae0       ?jump@LIR_List@@QAEXPAVBlockBegin@@@Z 08044ae0 f i c1_LIRGenerator.obj
 0001:00043b60       ?branch@LIR_List@@QAEXW4LIR_Condition@@PAVLabel@@@Z 08044b60 f i c1_LIRGenerator.obj
 0001:00043c10       ?branch@LIR_List@@QAEXW4LIR_Condition@@W4BasicType@@PAVBlockBegin@@@Z 08044c10 f i c1_LIRGenerator.obj
 0001:00043c90       ?branch@LIR_List@@QAEXW4LIR_Condition@@W4BasicType@@PAVCodeStub@@@Z 08044c90 f i c1_LIRGenerator.obj
 0001:00043d10       ?call_runtime_leaf@LIR_List@@QAEXPAEPAVLIR_OprDesc@@1PAVLIR_OprList@@@Z 08044d10 f i c1_LIRGenerator.obj
 0001:00043dc0       ?call_runtime@LIR_List@@QAEXPAEPAVLIR_OprDesc@@1PAVLIR_OprList@@PAVCodeEmitInfo@@@Z 08044dc0 f i c1_LIRGenerator.obj
 0001:00043e70       ?profile_call@LIR_List@@QAEXPAVciMethod@@HPAVLIR_OprDesc@@11PAVciKlass@@@Z 08044e70 f i c1_LIRGenerator.obj
 0001:00043f30       ?info@G1PreBarrierStub@@UBEPAVCodeEmitInfo@@XZ 08044f30 f i c1_LIRGenerator.obj
 0001:00043f30       ?info@NewObjectArrayStub@@UBEPAVCodeEmitInfo@@XZ 08044f30 f i c1_CodeStubs_x86.obj
 0001:00043f30       ?info@NewInstanceStub@@UBEPAVCodeEmitInfo@@XZ 08044f30 f i c1_CodeStubs_x86.obj
 0001:00043f30       ?info@NewTypeArrayStub@@UBEPAVCodeEmitInfo@@XZ 08044f30 f i c1_CodeStubs_x86.obj
 0001:00043f40       ?reset@PhiResolverState@@QAEXH@Z 08044f40 f   c1_LIRGenerator.obj
 0001:00043fc0       ?get_jint_constant@LIRItem@@QBEHXZ 08044fc0 f   c1_LIRGenerator.obj
 0001:00043fd0       ?get_jlong_constant@LIRItem@@QBE_JXZ 08044fd0 f   c1_LIRGenerator.obj
 0001:00043ff0       ?init@LIRGenerator@@AAEXXZ 08044ff0 f   c1_LIRGenerator.obj
 0001:00044000       ?block_do_prolog@LIRGenerator@@AAEXPAVBlockBegin@@@Z 08045000 f   c1_LIRGenerator.obj
 0001:00044060       ?walk@LIRGenerator@@AAEXPAVInstruction@@@Z 08045060 f   c1_LIRGenerator.obj
 0001:000440e0       ?state_for@LIRGenerator@@AAEPAVCodeEmitInfo@@PAVInstruction@@PAVValueStack@@_N@Z 080450e0 f   c1_LIRGenerator.obj
 0001:000442d0       ?state_for@LIRGenerator@@AAEPAVCodeEmitInfo@@PAVInstruction@@@Z 080452d0 f   c1_LIRGenerator.obj
 0001:00044300       ?arraycopy_helper@LIRGenerator@@AAEXPAVIntrinsic@@PAHPAPAVciArrayKlass@@@Z 08045300 f   c1_LIRGenerator.obj
 0001:000445c0       ?new_register@LIRGenerator@@AAEPAVLIR_OprDesc@@W4BasicType@@@Z 080455c0 f   c1_LIRGenerator.obj
 0001:00044620       ?set_vreg_flag@LIRGenerator@@QAEXHW4VregFlag@1@@Z 08045620 f   c1_LIRGenerator.obj
 0001:00044690       ?is_vreg_flag_set@LIRGenerator@@QAE_NHW4VregFlag@1@@Z 08045690 f   c1_LIRGenerator.obj
 0001:000446e0       ?create_lookup_ranges@LIRGenerator@@AAEPAVSwitchRangeArray@@PAVTableSwitch@@@Z 080456e0 f   c1_LIRGenerator.obj
 0001:00044860       ?create_lookup_ranges@LIRGenerator@@AAEPAVSwitchRangeArray@@PAVLookupSwitch@@@Z 08045860 f   c1_LIRGenerator.obj
 0001:00044a10       ?unaligned_move@LIR_List@@QAEXPAVLIR_Address@@PAVLIR_OprDesc@@@Z 08045a10 f i c1_LIRGenerator.obj
 0001:00044af0       ?unaligned_move@LIR_List@@QAEXPAVLIR_OprDesc@@PAVLIR_Address@@@Z 08045af0 f i c1_LIRGenerator.obj
 0001:00044bd0       ?move@LIR_List@@QAEXPAVLIR_OprDesc@@0PAVCodeEmitInfo@@@Z 08045bd0 f i c1_LIRGenerator.obj
 0001:00044cb0       ?oop2reg@LIR_List@@QAEXPAV_jobject@@PAVLIR_OprDesc@@@Z 08045cb0 f i c1_LIRGenerator.obj
 0001:00044d60       ?cmp@LIR_List@@QAEXW4LIR_Condition@@PAVLIR_OprDesc@@HPAVCodeEmitInfo@@@Z 08045d60 f i c1_LIRGenerator.obj
 0001:00044dd0       ?shift_left@LIR_List@@QAEXPAVLIR_OprDesc@@H0@Z 08045dd0 f i c1_LIRGenerator.obj
 0001:00044e40       ?unsigned_shift_right@LIR_List@@QAEXPAVLIR_OprDesc@@H0@Z 08045e40 f i c1_LIRGenerator.obj
 0001:00044eb0       ?load_stack_address_monitor@LIR_List@@QAEXHPAVLIR_OprDesc@@@Z 08045eb0 f i c1_LIRGenerator.obj
 0001:00044f60       ?visit@G1PreBarrierStub@@UAEXPAVLIR_OpVisitState@@@Z 08045f60 f i c1_LIRGenerator.obj
 0001:00044fb0       ?visit@G1PostBarrierStub@@UAEXPAVLIR_OpVisitState@@@Z 08045fb0 f i c1_LIRGenerator.obj
 0001:00044ff0       ?set_result@LIRGenerator@@AAEXPAVInstruction@@PAVLIR_OprDesc@@@Z 08045ff0 f i c1_LIRGenerator.obj
 0001:00045040       ?new_pointer_register@LIRGenerator@@AAEPAVLIR_OprDesc@@XZ 08046040 f i c1_LIRGenerator.obj
 0001:00045090       ?set_instruction@LIRItem@@QAEXPAVInstruction@@@Z 08046090 f i c1_LIRGenerator.obj
 0001:000450e0       ?result@LIRItem@@QAEPAVLIR_OprDesc@@XZ 080460e0 f i c1_LIRGenerator.obj
 0001:00045140       ?move_to_temp@PhiResolver@@AAEXPAVLIR_OprDesc@@@Z 08046140 f   c1_LIRGenerator.obj
 0001:000451a0       ?move@PhiResolver@@AAEXPAVResolveNode@@0@Z 080461a0 f   c1_LIRGenerator.obj
 0001:00045230       ??1PhiResolver@@QAE@XZ     08046230 f   c1_LIRGenerator.obj
 0001:00045320       ?create_node@PhiResolver@@AAEPAVResolveNode@@PAVLIR_OprDesc@@_N@Z 08046320 f   c1_LIRGenerator.obj
 0001:00045460       ?set_result@LIRItem@@QAEXPAVLIR_OprDesc@@@Z 08046460 f   c1_LIRGenerator.obj
 0001:000454d0       ?load_item@LIRItem@@QAEXXZ 080464d0 f   c1_LIRGenerator.obj
 0001:00045560       ?load_for_store@LIRItem@@QAEXW4BasicType@@@Z 08046560 f   c1_LIRGenerator.obj
 0001:000455d0       ?block_do@LIRGenerator@@UAEXPAVBlockBegin@@@Z 080465d0 f   c1_LIRGenerator.obj
 0001:00045680       ?jobject2reg_with_patching@LIRGenerator@@AAEXPAVLIR_OprDesc@@PAVciObject@@PAVCodeEmitInfo@@@Z 08046680 f   c1_LIRGenerator.obj
 0001:000456d0       ?array_range_check@LIRGenerator@@AAEXPAVLIR_OprDesc@@0PAVCodeEmitInfo@@1@Z 080466d0 f   c1_LIRGenerator.obj
 0001:00045780       ?arithmetic_op@LIRGenerator@@AAEXW4Code@Bytecodes@@PAVLIR_OprDesc@@11_N1PAVCodeEmitInfo@@@Z 08046780 f   c1_LIRGenerator.obj
 0001:00045930       ?arithmetic_op_int@LIRGenerator@@AAEXW4Code@Bytecodes@@PAVLIR_OprDesc@@111@Z 08046930 f   c1_LIRGenerator.obj
 0001:00045960       ?arithmetic_op_long@LIRGenerator@@AAEXW4Code@Bytecodes@@PAVLIR_OprDesc@@11PAVCodeEmitInfo@@@Z 08046960 f   c1_LIRGenerator.obj
 0001:00045990       ?arithmetic_op_fpu@LIRGenerator@@AAEXW4Code@Bytecodes@@PAVLIR_OprDesc@@11_N1@Z 08046990 f   c1_LIRGenerator.obj
 0001:000459c0       ?shift_op@LIRGenerator@@AAEXW4Code@Bytecodes@@PAVLIR_OprDesc@@111@Z 080469c0 f   c1_LIRGenerator.obj
 0001:00045a70       ?logic_op@LIRGenerator@@AAEXW4Code@Bytecodes@@PAVLIR_OprDesc@@11@Z 08046a70 f   c1_LIRGenerator.obj
 0001:00045b10       ?monitor_enter@LIRGenerator@@AAEXPAVLIR_OprDesc@@000HPAVCodeEmitInfo@@1@Z 08046b10 f   c1_LIRGenerator.obj
 0001:00045b90       ?monitor_exit@LIRGenerator@@AAEXPAVLIR_OprDesc@@00H@Z 08046b90 f   c1_LIRGenerator.obj
 0001:00045c30       ?new_instance@LIRGenerator@@AAEXPAVLIR_OprDesc@@PAVciInstanceKlass@@00000PAVCodeEmitInfo@@@Z 08046c30 f   c1_LIRGenerator.obj
 0001:00045d80       ?round_item@LIRGenerator@@AAEPAVLIR_OprDesc@@PAV2@@Z 08046d80 f   c1_LIRGenerator.obj
 0001:00045e10       ?force_to_spill@LIRGenerator@@AAEPAVLIR_OprDesc@@PAV2@W4BasicType@@@Z 08046e10 f   c1_LIRGenerator.obj
 0001:00045ea0       ?profile_branch@LIRGenerator@@AAEXPAVIf@@W4Condition@Instruction@@@Z 08046ea0 f   c1_LIRGenerator.obj
 0001:000460e0       ?rlock@LIRGenerator@@AAEPAVLIR_OprDesc@@PAVInstruction@@@Z 080470e0 f   c1_LIRGenerator.obj
 0001:00046110       ?rlock_result@LIRGenerator@@AAEPAVLIR_OprDesc@@PAVInstruction@@@Z 08047110 f   c1_LIRGenerator.obj
 0001:00046180       ?rlock_result@LIRGenerator@@AAEPAVLIR_OprDesc@@PAVInstruction@@W4BasicType@@@Z 08047180 f   c1_LIRGenerator.obj
 0001:00046200       ?do_currentThread@LIRGenerator@@AAEXPAVIntrinsic@@@Z 08047200 f   c1_LIRGenerator.obj
 0001:00046280       ?operand_for_instruction@LIRGenerator@@AAEPAVLIR_OprDesc@@PAVInstruction@@@Z 08047280 f   c1_LIRGenerator.obj
 0001:00046300       ?load_constant@LIRGenerator@@AAEPAVLIR_OprDesc@@PAVLIR_Const@@@Z 08047300 f   c1_LIRGenerator.obj
 0001:00046510       ?G1SATBCardTableModRef_pre_barrier@LIRGenerator@@AAEXPAVLIR_OprDesc@@_NPAVCodeEmitInfo@@@Z 08047510 f   c1_LIRGenerator.obj
 0001:00046740       ?G1SATBCardTableModRef_post_barrier@LIRGenerator@@AAEXPAVLIR_OprDesc@@0@Z 08047740 f   c1_LIRGenerator.obj
 0001:00046930       ?CardTableModRef_post_barrier@LIRGenerator@@AAEXPAVLIR_OprDesc@@0@Z 08047930 f   c1_LIRGenerator.obj
 0001:00046b50       ?do_SwitchRanges@LIRGenerator@@AAEXPAVSwitchRangeArray@@PAVLIR_OprDesc@@PAVBlockBegin@@@Z 08047b50 f   c1_LIRGenerator.obj
 0001:00046cf0       ?do_OsrEntry@LIRGenerator@@UAEXPAVOsrEntry@@@Z 08047cf0 f   c1_LIRGenerator.obj
 0001:00046d30       ?call_runtime@LIRGenerator@@AAEPAVLIR_OprDesc@@PAVBasicTypeArray@@PAVLIR_OprList@@PAEPAVValueType@@PAVCodeEmitInfo@@@Z 08047d30 f   c1_LIRGenerator.obj
 0001:00046e70       ??0LIRItem@@QAE@PAVInstruction@@PAVLIRGenerator@@@Z 08047e70 f i c1_LIRGenerator.obj
 0001:00046ec0       ?move@PhiResolver@@QAEXPAVLIR_OprDesc@@0@Z 08047ec0 f   c1_LIRGenerator.obj
 0001:00046f10       ?load_item_force@LIRItem@@QAEXPAVLIR_OprDesc@@@Z 08047f10 f   c1_LIRGenerator.obj
 0001:00047000       ?move_to_phi@LIRGenerator@@AAEXPAVPhiResolver@@PAVInstruction@@1@Z 08048000 f   c1_LIRGenerator.obj
 0001:00047060       ?move_to_phi@LIRGenerator@@AAEXPAVValueStack@@@Z 08048060 f   c1_LIRGenerator.obj
 0001:000471d0       ?do_ExceptionObject@LIRGenerator@@UAEXPAVExceptionObject@@@Z 080481d0 f   c1_LIRGenerator.obj
 0001:000474e0       ?do_Local@LIRGenerator@@UAEXPAVLocal@@@Z 080484e0 f   c1_LIRGenerator.obj
 0001:000474f0       ?do_Return@LIRGenerator@@UAEXPAVReturn@@@Z 080484f0 f   c1_LIRGenerator.obj
 0001:000476b0       ?do_getClass@LIRGenerator@@AAEXPAVIntrinsic@@@Z 080486b0 f   c1_LIRGenerator.obj
 0001:00047800       ?do_RegisterFinalizer@LIRGenerator@@AAEXPAVIntrinsic@@@Z 08048800 f   c1_LIRGenerator.obj
 0001:00047910       ?load_constant@LIRGenerator@@AAEPAVLIR_OprDesc@@PAVConstant@@@Z 08048910 f   c1_LIRGenerator.obj
 0001:00047960       ?pre_barrier@LIRGenerator@@AAEXPAVLIR_OprDesc@@_NPAVCodeEmitInfo@@@Z 08048960 f   c1_LIRGenerator.obj
 0001:000479b0       ?post_barrier@LIRGenerator@@AAEXPAVLIR_OprDesc@@0@Z 080489b0 f   c1_LIRGenerator.obj
 0001:00047a00       ?do_StoreField@LIRGenerator@@UAEXPAVStoreField@@@Z 08048a00 f   c1_LIRGenerator.obj
 0001:00047d10       ?do_LoadField@LIRGenerator@@UAEXPAVLoadField@@@Z 08048d10 f   c1_LIRGenerator.obj
 0001:00047f10       ?do_NIOCheckIndex@LIRGenerator@@AAEXPAVIntrinsic@@@Z 08048f10 f   c1_LIRGenerator.obj
 0001:00048090       ?do_ArrayLength@LIRGenerator@@UAEXPAVArrayLength@@@Z 08049090 f   c1_LIRGenerator.obj
 0001:00048180       ?do_LoadIndexed@LIRGenerator@@UAEXPAVLoadIndexed@@@Z 08049180 f   c1_LIRGenerator.obj
 0001:00048380       ?do_NullCheck@LIRGenerator@@UAEXPAVNullCheck@@@Z 08049380 f   c1_LIRGenerator.obj
 0001:000483e0       ?do_Throw@LIRGenerator@@UAEXPAVThrow@@@Z 080493e0 f   c1_LIRGenerator.obj
 0001:000486c0       ?do_RoundFP@LIRGenerator@@UAEXPAVRoundFP@@@Z 080496c0 f   c1_LIRGenerator.obj
 0001:000487b0       ?do_UnsafeGetRaw@LIRGenerator@@UAEXPAVUnsafeGetRaw@@@Z 080497b0 f   c1_LIRGenerator.obj
 0001:000489f0       ?do_UnsafePutRaw@LIRGenerator@@UAEXPAVUnsafePutRaw@@@Z 080499f0 f   c1_LIRGenerator.obj
 0001:00048c00       ?do_UnsafeGetObject@LIRGenerator@@UAEXPAVUnsafeGetObject@@@Z 08049c00 f   c1_LIRGenerator.obj
 0001:00048cf0       ?do_UnsafePutObject@LIRGenerator@@UAEXPAVUnsafePutObject@@@Z 08049cf0 f   c1_LIRGenerator.obj
 0001:00048e10       ?do_UnsafePrefetch@LIRGenerator@@AAEXPAVUnsafePrefetch@@_N@Z 08049e10 f   c1_LIRGenerator.obj
 0001:00048ee0       ?do_UnsafePrefetchRead@LIRGenerator@@UAEXPAVUnsafePrefetchRead@@@Z 08049ee0 f   c1_LIRGenerator.obj
 0001:00048f00       ?do_UnsafePrefetchWrite@LIRGenerator@@UAEXPAVUnsafePrefetchWrite@@@Z 08049f00 f   c1_LIRGenerator.obj
 0001:00048f20       ?do_TableSwitch@LIRGenerator@@UAEXPAVTableSwitch@@@Z 08049f20 f   c1_LIRGenerator.obj
 0001:00048ff0       ?do_LookupSwitch@LIRGenerator@@UAEXPAVLookupSwitch@@@Z 08049ff0 f   c1_LIRGenerator.obj
 0001:000490b0       ?do_Goto@LIRGenerator@@UAEXPAVGoto@@@Z 0804a0b0 f   c1_LIRGenerator.obj
 0001:000491d0       ?do_Base@LIRGenerator@@UAEXPAVBase@@@Z 0804a1d0 f   c1_LIRGenerator.obj
 0001:000496e0       ?invoke_load_arguments@LIRGenerator@@AAEXPAVInvoke@@PAVLIRItemList@@PBVLIR_OprList@@@Z 0804a6e0 f   c1_LIRGenerator.obj
 0001:00049850       ?invoke_visit_arguments@LIRGenerator@@AAEPAVLIRItemList@@PAVInvoke@@@Z 0804a850 f   c1_LIRGenerator.obj
 0001:000499a0       ?do_Invoke@LIRGenerator@@UAEXPAVInvoke@@@Z 0804a9a0 f   c1_LIRGenerator.obj
 0001:00049bb0       ?do_FPIntrinsics@LIRGenerator@@AAEXPAVIntrinsic@@@Z 0804abb0 f   c1_LIRGenerator.obj
 0001:00049c40       ?do_IfOp@LIRGenerator@@UAEXPAVIfOp@@@Z 0804ac40 f   c1_LIRGenerator.obj
 0001:00049d90       ?do_Intrinsic@LIRGenerator@@UAEXPAVIntrinsic@@@Z 0804ad90 f   c1_LIRGenerator.obj
 0001:0004a020       ?do_ProfileCall@LIRGenerator@@UAEXPAVProfileCall@@@Z 0804b020 f   c1_LIRGenerator.obj
 0001:0004a160       ?do_ProfileCounter@LIRGenerator@@UAEXPAVProfileCounter@@@Z 0804b160 f   c1_LIRGenerator.obj
 0001:0004a220       ?do_Constant@LIRGenerator@@UAEXPAVConstant@@@Z 0804b220 f   c1_LIRGenerator.obj
 0001:0004a310       ?exceptionOopOpr@LIRGenerator@@SAPAVLIR_OprDesc@@XZ 0804b310 f   c1_LIRGenerator_x86.obj
 0001:0004a320       ?exceptionPcOpr@LIRGenerator@@SAPAVLIR_OprDesc@@XZ 0804b320 f   c1_LIRGenerator_x86.obj
 0001:0004a330       ?syncTempOpr@LIRGenerator@@QAEPAVLIR_OprDesc@@XZ 0804b330 f   c1_LIRGenerator_x86.obj
 0001:0004a340       ?can_store_as_constant@LIRGenerator@@ABE_NPAVInstruction@@W4BasicType@@@Z 0804b340 f   c1_LIRGenerator_x86.obj
 0001:0004a370       ?getThreadTemp@LIRGenerator@@QAEPAVLIR_OprDesc@@XZ 0804b370 f   c1_LIRGenerator_x86.obj
 0001:0004a370       ?safepoint_poll_register@LIRGenerator@@AAEPAVLIR_OprDesc@@XZ 0804b370 f   c1_LIRGenerator_x86.obj
 0001:0004a380       ?cmp_mem_int@LIRGenerator@@AAEXW4LIR_Condition@@PAVLIR_OprDesc@@HHPAVCodeEmitInfo@@@Z 0804b380 f   c1_LIRGenerator_x86.obj
 0001:0004a390       ?fixed_register_for@@YAPAVLIR_OprDesc@@W4BasicType@@@Z 0804b390 f   c1_LIRGenerator_x86.obj
 0001:0004a400       ?get_thread@LIR_List@@QAEXPAVLIR_OprDesc@@@Z 0804b400 f i c1_LIRGenerator_x86.obj
 0001:0004a4a0       ?negate@LIR_List@@QAEXPAVLIR_OprDesc@@0@Z 0804b4a0 f i c1_LIRGenerator_x86.obj
 0001:0004a550       ?volatile_move@LIR_List@@QAEXPAVLIR_OprDesc@@0W4BasicType@@PAVCodeEmitInfo@@W4LIR_PatchCode@@@Z 0804b550 f i c1_LIRGenerator_x86.obj
 0001:0004a600       ?abs@LIR_List@@QAEXPAVLIR_OprDesc@@00@Z 0804b600 f i c1_LIRGenerator_x86.obj
 0001:0004a6c0       ?sqrt@LIR_List@@QAEXPAVLIR_OprDesc@@00@Z 0804b6c0 f i c1_LIRGenerator_x86.obj
 0001:0004a780       ?log@LIR_List@@QAEXPAVLIR_OprDesc@@00@Z 0804b780 f i c1_LIRGenerator_x86.obj
 0001:0004a840       ?log10@LIR_List@@QAEXPAVLIR_OprDesc@@00@Z 0804b840 f i c1_LIRGenerator_x86.obj
 0001:0004a900       ?sin@LIR_List@@QAEXPAVLIR_OprDesc@@000@Z 0804b900 f i c1_LIRGenerator_x86.obj
 0001:0004a9b0       ?cos@LIR_List@@QAEXPAVLIR_OprDesc@@000@Z 0804b9b0 f i c1_LIRGenerator_x86.obj
 0001:0004aa60       ?tan@LIR_List@@QAEXPAVLIR_OprDesc@@000@Z 0804ba60 f i c1_LIRGenerator_x86.obj
 0001:0004ab10       ?branch@LIR_List@@QAEXW4LIR_Condition@@W4BasicType@@PAVBlockBegin@@2@Z 0804bb10 f i c1_LIRGenerator_x86.obj
 0001:0004aba0       ?lcmp2int@LIR_List@@QAEXPAVLIR_OprDesc@@00@Z 0804bba0 f i c1_LIRGenerator_x86.obj
 0001:0004ac60       ?arraycopy@LIR_List@@QAEXPAVLIR_OprDesc@@00000PAVciArrayKlass@@HPAVCodeEmitInfo@@@Z 0804bc60 f i c1_LIRGenerator_x86.obj
 0001:0004ad00       ?info@MonitorEnterStub@@UBEPAVCodeEmitInfo@@XZ 0804bd00 f i c1_CodeStubs_x86.obj
 0001:0004ad00       ?info@SimpleExceptionStub@@UBEPAVCodeEmitInfo@@XZ 0804bd00 f i c1_LIRGenerator_x86.obj
 0001:0004ad10       ?result_register_for@LIRGenerator@@CAPAVLIR_OprDesc@@PAVValueType@@_N@Z 0804bd10 f   c1_LIRGenerator_x86.obj
 0001:0004ada0       ?rlock_byte@LIRGenerator@@AAEPAVLIR_OprDesc@@W4BasicType@@@Z 0804bda0 f   c1_LIRGenerator_x86.obj
 0001:0004add0       ?can_inline_as_constant@LIRGenerator@@ABE_NPAVInstruction@@@Z 0804bdd0 f   c1_LIRGenerator_x86.obj
 0001:0004ae30       ?can_inline_as_constant@LIRGenerator@@ABE_NPAVLIR_Const@@@Z 0804be30 f   c1_LIRGenerator_x86.obj
 0001:0004ae70       ?do_MonitorExit@LIRGenerator@@UAEXPAVMonitorExit@@@Z 0804be70 f   c1_LIRGenerator_x86.obj
 0001:0004aec0       ?getThreadPointer@LIRGenerator@@AAEPAVLIR_OprDesc@@XZ 0804bec0 f   c1_LIRGenerator_x86.obj
 0001:0004aee0       ?visit@ConversionStub@@UAEXPAVLIR_OpVisitState@@@Z 0804bee0 f i c1_LIRGenerator_x86.obj
 0001:0004af20       ?visit@SimpleExceptionStub@@UAEXPAVLIR_OpVisitState@@@Z 0804bf20 f i c1_LIRGenerator_x86.obj
 0001:0004af70       ?load_byte_item@LIRItem@@QAEXXZ 0804bf70 f   c1_LIRGenerator_x86.obj
 0001:0004aff0       ?load_nonconstant@LIRItem@@QAEXXZ 0804bff0 f   c1_LIRGenerator_x86.obj
 0001:0004b020       ?generate_address@LIRGenerator@@AAEPAVLIR_Address@@PAVLIR_OprDesc@@0HHW4BasicType@@@Z 0804c020 f   c1_LIRGenerator_x86.obj
 0001:0004b100       ?increment_counter@LIRGenerator@@AAEXPAVLIR_Address@@H@Z 0804c100 f   c1_LIRGenerator_x86.obj
 0001:0004b170       ?cmp_reg_mem@LIRGenerator@@AAEXW4LIR_Condition@@PAVLIR_OprDesc@@1HW4BasicType@@PAVCodeEmitInfo@@@Z 0804c170 f   c1_LIRGenerator_x86.obj
 0001:0004b1f0       ?strength_reduce_multiply@LIRGenerator@@AAE_NPAVLIR_OprDesc@@H00@Z 0804c1f0 f   c1_LIRGenerator_x86.obj
 0001:0004b2c0       ?store_stack_parameter@LIRGenerator@@AAEXPAVLIR_OprDesc@@H@Z 0804c2c0 f   c1_LIRGenerator_x86.obj
 0001:0004b360       ?do_MonitorEnter@LIRGenerator@@UAEXPAVMonitorEnter@@@Z 0804c360 f   c1_LIRGenerator_x86.obj
 0001:0004b430       ?do_NegateOp@LIRGenerator@@UAEXPAVNegateOp@@@Z 0804c430 f   c1_LIRGenerator_x86.obj
 0001:0004b4f0       ?do_ArithmeticOp_FPU@LIRGenerator@@AAEXPAVArithmeticOp@@@Z 0804c4f0 f   c1_LIRGenerator_x86.obj
 0001:0004b790       ?do_ArithmeticOp_Long@LIRGenerator@@AAEXPAVArithmeticOp@@@Z 0804c790 f   c1_LIRGenerator_x86.obj
 0001:0004bad0       ?do_ArithmeticOp_Int@LIRGenerator@@AAEXPAVArithmeticOp@@@Z 0804cad0 f   c1_LIRGenerator_x86.obj
 0001:0004bd70       ?do_ArithmeticOp@LIRGenerator@@UAEXPAVArithmeticOp@@@Z 0804cd70 f   c1_LIRGenerator_x86.obj
 0001:0004be10       ?do_ShiftOp@LIRGenerator@@UAEXPAVShiftOp@@@Z 0804ce10 f   c1_LIRGenerator_x86.obj
 0001:0004bee0       ?do_LogicOp@LIRGenerator@@UAEXPAVLogicOp@@@Z 0804cee0 f   c1_LIRGenerator_x86.obj
 0001:0004bfe0       ?do_CompareOp@LIRGenerator@@UAEXPAVCompareOp@@@Z 0804cfe0 f   c1_LIRGenerator_x86.obj
 0001:0004c110       ?do_AttemptUpdate@LIRGenerator@@AAEXPAVIntrinsic@@@Z 0804d110 f   c1_LIRGenerator_x86.obj
 0001:0004c300       ?do_CompareAndSwap@LIRGenerator@@AAEXPAVIntrinsic@@PAVValueType@@@Z 0804d300 f   c1_LIRGenerator_x86.obj
 0001:0004c700       ?do_MathIntrinsic@LIRGenerator@@AAEXPAVIntrinsic@@@Z 0804d700 f   c1_LIRGenerator_x86.obj
 0001:0004c8b0       ?do_ArrayCopy@LIRGenerator@@AAEXPAVIntrinsic@@@Z 0804d8b0 f   c1_LIRGenerator_x86.obj
 0001:0004ca90       ?do_Convert@LIRGenerator@@UAEXPAVConvert@@@Z 0804da90 f   c1_LIRGenerator_x86.obj
 0001:0004cdd0       ?do_NewInstance@LIRGenerator@@UAEXPAVNewInstance@@@Z 0804ddd0 f   c1_LIRGenerator_x86.obj
 0001:0004ce60       ?do_NewTypeArray@LIRGenerator@@UAEXPAVNewTypeArray@@@Z 0804de60 f   c1_LIRGenerator_x86.obj
 0001:0004cfa0       ?do_NewObjectArray@LIRGenerator@@UAEXPAVNewObjectArray@@@Z 0804dfa0 f   c1_LIRGenerator_x86.obj
 0001:0004d130       ?do_NewMultiArray@LIRGenerator@@UAEXPAVNewMultiArray@@@Z 0804e130 f   c1_LIRGenerator_x86.obj
 0001:0004d490       ?do_CheckCast@LIRGenerator@@UAEXPAVCheckCast@@@Z 0804e490 f   c1_LIRGenerator_x86.obj
 0001:0004d6b0       ?do_InstanceOf@LIRGenerator@@UAEXPAVInstanceOf@@@Z 0804e6b0 f   c1_LIRGenerator_x86.obj
 0001:0004d7a0       ?do_If@LIRGenerator@@UAEXPAVIf@@@Z 0804e7a0 f   c1_LIRGenerator_x86.obj
 0001:0004da10       ?volatile_field_store@LIRGenerator@@AAEXPAVLIR_OprDesc@@PAVLIR_Address@@PAVCodeEmitInfo@@@Z 0804ea10 f   c1_LIRGenerator_x86.obj
 0001:0004db00       ?volatile_field_load@LIRGenerator@@AAEXPAVLIR_Address@@PAVLIR_OprDesc@@PAVCodeEmitInfo@@@Z 0804eb00 f   c1_LIRGenerator_x86.obj
 0001:0004dbd0       ?get_Object_unsafe@LIRGenerator@@AAEXPAVLIR_OprDesc@@00W4BasicType@@_N@Z 0804ebd0 f   c1_LIRGenerator_x86.obj
 0001:0004dcf0       ?put_Object_unsafe@LIRGenerator@@AAEXPAVLIR_OprDesc@@00W4BasicType@@_N@Z 0804ecf0 f   c1_LIRGenerator_x86.obj
 0001:0004de40       ?emit_array_address@LIRGenerator@@AAEPAVLIR_Address@@PAVLIR_OprDesc@@0W4BasicType@@_N@Z 0804ee40 f   c1_LIRGenerator_x86.obj
 0001:0004dfc0       ?do_StoreIndexed@LIRGenerator@@UAEXPAVStoreIndexed@@@Z 0804efc0 f   c1_LIRGenerator_x86.obj
 0001:0004e380       ?use_fpu_stack_allocation@LinearScan@@ABE_NXZ 0804f380 f i c1_LinearScan.obj
 0001:0004e3a0       ?is_block_begin@LinearScan@@AAE_NH@Z 0804f3a0 f i c1_LinearScan.obj
 0001:0004e3d0       ?pd_init_regs_for_alloc@LinearScanWalker@@AAE_NPAVInterval@@@Z 0804f3d0 f i c1_LinearScan.obj
 0001:0004e440       ?is_precolored_cpu_interval@LinearScan@@CA_NPBVInterval@@@Z 0804f440 f   c1_LinearScan.obj
 0001:0004e460       ?is_virtual_cpu_interval@LinearScan@@CA_NPBVInterval@@@Z 0804f460 f   c1_LinearScan.obj
 0001:0004e490       ?is_precolored_fpu_interval@LinearScan@@CA_NPBVInterval@@@Z 0804f490 f   c1_LinearScan.obj
 0001:0004e4b0       ?is_virtual_fpu_interval@LinearScan@@CA_NPBVInterval@@@Z 0804f4b0 f   c1_LinearScan.obj
 0001:0004e4e0       ?is_in_fpu_register@LinearScan@@CA_NPBVInterval@@@Z 0804f4e0 f   c1_LinearScan.obj
 0001:0004e510       ?is_oop_interval@LinearScan@@CA_NPBVInterval@@@Z 0804f510 f   c1_LinearScan.obj
 0001:0004e530       ?copy_register_flags@LinearScan@@AAEXPAVInterval@@0@Z 0804f530 f   c1_LinearScan.obj
 0001:0004e590       ?change_spill_state@LinearScan@@AAEXPAVInterval@@H@Z 0804f590 f   c1_LinearScan.obj
 0001:0004e5e0       ?must_store_at_definition@LinearScan@@CA_NPBVInterval@@@Z 0804f5e0 f   c1_LinearScan.obj
 0001:0004e600       ?interval_cmp@LinearScan@@CAHPAPAVInterval@@0@Z 0804f600 f   c1_LinearScan.obj
 0001:0004e640       ?intersects_at@Range@@ABEHPAV1@@Z 0804f640 f   c1_LinearScan.obj
 0001:0004e6a0       ?has_hole_between@Interval@@QAE_NHH@Z 0804f6a0 f   c1_LinearScan.obj
 0001:0004e6e0       ?walk_to@IntervalWalker@@IAEXW4IntervalState@@H@Z 0804f6e0 f   c1_LinearScan.obj
 0001:0004e880       ?next_interval@IntervalWalker@@IAEXXZ 0804f880 f   c1_LinearScan.obj
 0001:0004e8e0       ?walk_to@IntervalWalker@@QAEXH@Z 0804f8e0 f   c1_LinearScan.obj
 0001:0004ea00       ?init_use_lists@LinearScanWalker@@AAEX_N@Z 0804fa00 f i c1_LinearScan.obj
 0001:0004ea50       ?spill_exclude_active_fixed@LinearScanWalker@@AAEXXZ 0804fa50 f   c1_LinearScan.obj
 0001:0004ea50       ?free_exclude_active_fixed@LinearScanWalker@@AAEXXZ 0804fa50 f   c1_LinearScan.obj
 0001:0004ea90       ?free_exclude_active_any@LinearScanWalker@@AAEXXZ 0804fa90 f   c1_LinearScan.obj
 0001:0004ead0       ?find_optimal_split_pos@LinearScanWalker@@AAEHPAVBlockBegin@@0H@Z 0804fad0 f   c1_LinearScan.obj
 0001:0004eb40       ?find_free_reg@LinearScanWalker@@AAEHHHHHPA_N@Z 0804fb40 f   c1_LinearScan.obj
 0001:0004ebe0       ?find_free_double_reg@LinearScanWalker@@AAEHHHHPA_N@Z 0804fbe0 f   c1_LinearScan.obj
 0001:0004ec90       ?find_locked_reg@LinearScanWalker@@AAEHHHHHPA_N@Z 0804fc90 f   c1_LinearScan.obj
 0001:0004ed00       ?find_locked_double_reg@LinearScanWalker@@AAEHHHHPA_N@Z 0804fd00 f   c1_LinearScan.obj
 0001:0004ed70       ?init_vars_for_alloc@LinearScanWalker@@AAEXPAVInterval@@@Z 0804fd70 f   c1_LinearScan.obj
 0001:0004edd0       ??0?$GrowableArray@PAVCodeBlob@@@@QAE@H_N@Z 0804fdd0 f i fprofiler.obj
 0001:0004edd0       ??0?$GrowableArray@PAVjvmtiDeferredLocalVariableSet@@@@QAE@H_N@Z 0804fdd0 f i vframe_hp.obj
 0001:0004edd0       ??0?$GrowableArray@PAU_jmethodID@@@@QAE@H_N@Z 0804fdd0 f i jvmtiExport.obj
 0001:0004edd0       ??0?$GrowableArray@PAVinstanceKlass@@@@QAE@H_N@Z 0804fdd0 f i jvmtiTagMap.obj
 0001:0004edd0       ??0?$GrowableArray@VinstanceHandle@@@@QAE@H_N@Z 0804fdd0 f i jvm.obj
 0001:0004edd0       ??0?$GrowableArray@PAVmarkOopDesc@@@@QAE@H_N@Z 0804fdd0 f i biasedLocking.obj
 0001:0004edd0       ??0?$GrowableArray@VmethodHandle@@@@QAE@H_N@Z 0804fdd0 f i instanceKlass.obj
 0001:0004edd0       ??0?$GrowableArray@VHandle@@@@QAE@H_N@Z 0804fdd0 f i biasedLocking.obj
 0001:0004edd0       ??0?$GrowableArray@H@@QAE@H_N@Z 0804fdd0 f i c1_Compilation.obj
 0001:0004edd0       ??0?$GrowableArray@PAVProfilerNode@@@@QAE@H_N@Z 0804fdd0 f i fprofiler.obj
 0001:0004edd0       ??0?$GrowableArray@PAVJvmtiCodeBlobDesc@@@@QAE@H_N@Z 0804fdd0 f i jvmtiCodeBlobEvents.obj
 0001:0004edd0       ??0?$GrowableArray@PBX@@QAE@H_N@Z 0804fdd0 f i jvmtiExport.obj
 0001:0004edd0       ??0?$GrowableArray@PAVScopeValue@@@@QAE@H_N@Z 0804fdd0 f i c1_LinearScan.obj
 0001:0004edd0       ??0?$GrowableArray@PAE@@QAE@H_N@Z 0804fdd0 f i interpreterRuntime.obj
 0001:0004edd0       ??0?$GrowableArray@PAV_jobject@@@@QAE@H_N@Z 0804fdd0 f i instanceKlass.obj
 0001:0004edd0       ??0?$GrowableArray@PAVMonitorInfo@@@@QAE@H_N@Z 0804fdd0 f i vframe.obj
 0001:0004edd0       ??0?$GrowableArray@PAVoopDesc@@@@QAE@H_N@Z 0804fdd0 f i g1CollectedHeap.obj
 0001:0004edd0       ??0?$GrowableArray@PAVPreviousVersionNode@@@@QAE@H_N@Z 0804fdd0 f i instanceKlass.obj
 0001:0004edd0       ??0?$GrowableArray@PAVMonitor@@@@QAE@H_N@Z 0804fdd0 f i gcTaskManager.obj
 0001:0004edd0       ??0?$GrowableArray@PAVMonitorValue@@@@QAE@H_N@Z 0804fdd0 f i c1_LinearScan.obj
 0001:0004ee30       ?insert_before@LIR_OpList@@QAEXHQAVLIR_Op@@@Z 0804fe30 f i c1_LinearScan.obj
 0001:0004ee90       ?to@Interval@@QAEHXZ       0804fe90 f i c1_LinearScan.obj
 0001:0004eec0       ?reg_num@LinearScan@@CAHPAVLIR_OprDesc@@@Z 0804fec0 f   c1_LinearScan.obj
 0001:0004ef60       ?reg_numHi@LinearScan@@CAHPAVLIR_OprDesc@@@Z 0804ff60 f   c1_LinearScan.obj
 0001:0004efe0       ?allocate_spill_slot@LinearScan@@AAEH_N@Z 0804ffe0 f   c1_LinearScan.obj
 0001:0004f040       ?assign_spill_slot@LinearScan@@AAEXPAVInterval@@@Z 08050040 f   c1_LinearScan.obj
 0001:0004f080       ?append_interval@LinearScan@@AAEXPAVInterval@@@Z 08050080 f   c1_LinearScan.obj
 0001:0004f0f0       ?compute_global_live_sets@LinearScan@@AAEXXZ 080500f0 f   c1_LinearScan.obj
 0001:0004f340       ?create_unhandled_lists@LinearScan@@AAEXPAPAVInterval@@0P6A_NPBV2@@Z2@Z 08050340 f   c1_LinearScan.obj
 0001:0004f400       ?calc_operand_for_interval@LinearScan@@CAPAVLIR_OprDesc@@PBVInterval@@@Z 08050400 f   c1_LinearScan.obj
 0001:0004f4f0       ?add_mapping@MoveResolver@@QAEXPAVInterval@@0@Z 080504f0 f   c1_LinearScan.obj
 0001:0004f580       ?add_mapping@MoveResolver@@QAEXPAVLIR_OprDesc@@PAVInterval@@@Z 08050580 f   c1_LinearScan.obj
 0001:0004f610       ?split_child_at_op_id@Interval@@QAEPAV1@HW4OprMode@LIR_OpVisitState@@@Z 08050610 f   c1_LinearScan.obj
 0001:0004f6c0       ?split_child_before_op_id@Interval@@QAEPAV1@H@Z 080506c0 f   c1_LinearScan.obj
 0001:0004f790       ?first_usage@Interval@@QBEHW4IntervalUseKind@@@Z 08050790 f   c1_LinearScan.obj
 0001:0004f7d0       ?next_usage@Interval@@QBEHW4IntervalUseKind@@H@Z 080507d0 f   c1_LinearScan.obj
 0001:0004f820       ?next_usage_exact@Interval@@QBEHW4IntervalUseKind@@H@Z 08050820 f   c1_LinearScan.obj
 0001:0004f870       ?previous_usage@Interval@@QBEHW4IntervalUseKind@@H@Z 08050870 f   c1_LinearScan.obj
 0001:0004f8b0       ?add_use_pos@Interval@@QAEXHW4IntervalUseKind@@@Z 080508b0 f   c1_LinearScan.obj
 0001:0004f900       ?add_range@Interval@@QAEXHH@Z 08050900 f   c1_LinearScan.obj
 0001:0004f980       ??0IntervalWalker@@QAE@PAVLinearScan@@PAVInterval@@1@Z 08050980 f   c1_LinearScan.obj
 0001:0004f9f0       ?append_to_unhandled@IntervalWalker@@IAEXPAPAVInterval@@PAV2@@Z 080509f0 f   c1_LinearScan.obj
 0001:0004fab0       ?free_collect_inactive_fixed@LinearScanWalker@@AAEXPAVInterval@@@Z 08050ab0 f   c1_LinearScan.obj
 0001:0004fb50       ?free_collect_inactive_any@LinearScanWalker@@AAEXPAVInterval@@@Z 08050b50 f   c1_LinearScan.obj
 0001:0004fbc0       ?spill_block_inactive_fixed@LinearScanWalker@@AAEXPAVInterval@@@Z 08050bc0 f   c1_LinearScan.obj
 0001:0004fc90       ?spill_collect_active_any@LinearScanWalker@@AAEXXZ 08050c90 f   c1_LinearScan.obj
 0001:0004fdc0       ?spill_collect_inactive_any@LinearScanWalker@@AAEXPAVInterval@@@Z 08050dc0 f   c1_LinearScan.obj
 0001:0004ff10       ?find_optimal_split_pos@LinearScanWalker@@AAEHPAVInterval@@HH_N@Z 08050f10 f   c1_LinearScan.obj
 0001:0004ffd0       ?no_allocation_possible@LinearScanWalker@@AAE_NPAVInterval@@@Z 08050fd0 f   c1_LinearScan.obj
 0001:00050020       ?append_instructions@EdgeMoveOptimizer@@AAEXPAVLIR_OpList@@H@Z 08051020 f   c1_LinearScan.obj
 0001:00050080       ?operations_different@EdgeMoveOptimizer@@AAE_NPAVLIR_Op@@0@Z 08051080 f   c1_LinearScan.obj
 0001:00050110       ?optimize_moves_at_block_end@EdgeMoveOptimizer@@AAEXPAVBlockBegin@@@Z 08051110 f   c1_LinearScan.obj
 0001:00050290       ?optimize_moves_at_block_begin@EdgeMoveOptimizer@@AAEXPAVBlockBegin@@@Z 08051290 f   c1_LinearScan.obj
 0001:00050420       ?reorder_short_loop@ControlFlowOptimizer@@AAEXPAVBlockList@@PAVBlockBegin@@H@Z 08051420 f   c1_LinearScan.obj
 0001:000504d0       ?reorder_short_loops@ControlFlowOptimizer@@AAEXPAVBlockList@@@Z 080514d0 f   c1_LinearScan.obj
 0001:00050510       ?substitute_branch_target@ControlFlowOptimizer@@AAEXPAVBlockBegin@@00@Z 08051510 f   c1_LinearScan.obj
 0001:00050580       ?delete_empty_blocks@ControlFlowOptimizer@@AAEXPAVBlockList@@@Z 08051580 f   c1_LinearScan.obj
 0001:000506e0       ?delete_unnecessary_jumps@ControlFlowOptimizer@@AAEXPAVBlockList@@@Z 080516e0 f   c1_LinearScan.obj
 0001:00050770       ?delete_jumps_to_return@ControlFlowOptimizer@@AAEXPAVBlockList@@@Z 08051770 f   c1_LinearScan.obj
 0001:00050890       ?get_next_one_offset_inline@BitMap@@QBEIII@Z 08051890 f i c1_LinearScan.obj
 0001:00050920       ?move@LIR_InsertionBuffer@@QAEXHPAVLIR_OprDesc@@0PAVCodeEmitInfo@@@Z 08051920 f i c1_LinearScan.obj
 0001:000509d0       ?number_instructions@LinearScan@@AAEXXZ 080519d0 f   c1_LinearScan.obj
 0001:00050b00       ?compute_local_live_sets@LinearScan@@AAEXXZ 08051b00 f   c1_LinearScan.obj
 0001:00051130       ?use_kind_of_output_operand@LinearScan@@AAE?AW4IntervalUseKind@@PAVLIR_Op@@PAVLIR_OprDesc@@@Z 08052130 f   c1_LinearScan.obj
 0001:00051200       ?use_kind_of_input_operand@LinearScan@@AAE?AW4IntervalUseKind@@PAVLIR_Op@@PAVLIR_OprDesc@@@Z 08052200 f   c1_LinearScan.obj
 0001:00051370       ?add_register_hints@LinearScan@@AAEXPAVLIR_Op@@@Z 08052370 f   c1_LinearScan.obj
 0001:000513f0       ?sort_intervals_before_allocation@LinearScan@@AAEXXZ 080523f0 f   c1_LinearScan.obj
 0001:000514f0       ?sort_intervals_after_allocation@LinearScan@@AAEXXZ 080524f0 f   c1_LinearScan.obj
 0001:000515d0       ?location_for_monitor_index@LinearScan@@AAEPAVMonitorValue@@H@Z 080525d0 f   c1_LinearScan.obj
 0001:00051690       ?location_for_name@LinearScan@@AAEPAVLocationValue@@HW4Type@Location@@@Z 08052690 f   c1_LinearScan.obj
 0001:00051700       ?append_scope_value_for_constant@LinearScan@@AAEHPAVLIR_OprDesc@@PAV?$GrowableArray@PAVScopeValue@@@@@Z 08052700 f   c1_LinearScan.obj
 0001:00051900       ?append_scope_value_for_operand@LinearScan@@AAEHPAVLIR_OprDesc@@PAV?$GrowableArray@PAVScopeValue@@@@@Z 08052900 f   c1_LinearScan.obj
 0001:00051d00       ??0MoveResolver@@QAE@PAVLinearScan@@@Z 08052d00 f   c1_LinearScan.obj
 0001:00051e10       ??0Interval@@QAE@H@Z       08052e10 f   c1_LinearScan.obj
 0001:00051eb0       ?new_split_child@Interval@@AAEPAV1@XZ 08052eb0 f   c1_LinearScan.obj
 0001:00051f70       ?split@Interval@@QAEPAV1@H@Z 08052f70 f   c1_LinearScan.obj
 0001:00052100       ?split_from_start@Interval@@QAEPAV1@H@Z 08053100 f   c1_LinearScan.obj
 0001:00052150       ??0LinearScanWalker@@QAE@PAVLinearScan@@PAVInterval@@1@Z 08053150 f   c1_LinearScan.obj
 0001:000521f0       ?split_before_usage@LinearScanWalker@@AAEXPAVInterval@@HH@Z 080531f0 f   c1_LinearScan.obj
 0001:000522f0       ?split_stack_interval@LinearScanWalker@@AAEXPAVInterval@@@Z 080532f0 f   c1_LinearScan.obj
 0001:00052380       ?split_when_partial_register_available@LinearScanWalker@@AAEXPAVInterval@@H@Z 08053380 f   c1_LinearScan.obj
 0001:000523c0       ?alloc_free_reg@LinearScanWalker@@AAE_NPAVInterval@@@Z 080533c0 f   c1_LinearScan.obj
 0001:000525d0       ?is_move@LinearScanWalker@@AAE_NPAVLIR_Op@@PAVInterval@@1@Z 080535d0 f   c1_LinearScan.obj
 0001:00052640       ?combine_spilled_intervals@LinearScanWalker@@AAEXPAVInterval@@@Z 08053640 f   c1_LinearScan.obj
 0001:00052760       ??0EdgeMoveOptimizer@@AAE@XZ 08053760 f   c1_LinearScan.obj
 0001:000527c0       ?optimize@EdgeMoveOptimizer@@SAXPAVBlockList@@@Z 080537c0 f   c1_LinearScan.obj
 0001:00052820       ?optimize@ControlFlowOptimizer@@SAXPAVBlockList@@@Z 08053820 f   c1_LinearScan.obj
 0001:000528d0       ?create_interval@LinearScan@@AAEPAVInterval@@H@Z 080538d0 f   c1_LinearScan.obj
 0001:00052930       ?eliminate_spill_moves@LinearScan@@AAEXXZ 08053930 f   c1_LinearScan.obj
 0001:00052ae0       ?add_def@LinearScan@@AAEXHHW4IntervalUseKind@@W4BasicType@@@Z 08053ae0 f   c1_LinearScan.obj
 0001:00052b90       ?add_use@LinearScan@@AAEXHHHW4IntervalUseKind@@W4BasicType@@@Z 08053b90 f   c1_LinearScan.obj
 0001:00052c10       ?add_temp@LinearScan@@AAEXHHW4IntervalUseKind@@W4BasicType@@@Z 08053c10 f   c1_LinearScan.obj
 0001:00052c90       ?split_child_at_op_id@LinearScan@@AAEPAVInterval@@PAV2@HW4OprMode@LIR_OpVisitState@@@Z 08053c90 f   c1_LinearScan.obj
 0001:00052d10       ?resolve_collect_mappings@LinearScan@@AAEXPAVBlockBegin@@0AAVMoveResolver@@@Z 08053d10 f   c1_LinearScan.obj
 0001:00052dd0       ?resolve_exception_entry@LinearScan@@AAEXPAVBlockBegin@@HAAVMoveResolver@@@Z 08053dd0 f   c1_LinearScan.obj
 0001:00052eb0       ?resolve_exception_edge@LinearScan@@AAEXPAVXHandler@@HHPAVPhi@@AAVMoveResolver@@@Z 08053eb0 f   c1_LinearScan.obj
 0001:00052fa0       ?color_lir_opr@LinearScan@@AAEPAVLIR_OprDesc@@PAV2@HW4OprMode@LIR_OpVisitState@@@Z 08053fa0 f   c1_LinearScan.obj
 0001:00053030       ?init_compute_oop_maps@LinearScan@@AAEPAVIntervalWalker@@XZ 08054030 f   c1_LinearScan.obj
 0001:000530e0       ?compute_oop_map@LinearScan@@AAEPAVOopMap@@PAVIntervalWalker@@PAVLIR_Op@@PAVCodeEmitInfo@@_N@Z 080540e0 f   c1_LinearScan.obj
 0001:00053230       ?compute_oop_map@LinearScan@@AAEXPAVIntervalWalker@@ABVLIR_OpVisitState@@PAVLIR_Op@@@Z 08054230 f   c1_LinearScan.obj
 0001:000532f0       ?append_scope_value@LinearScan@@AAEHHPAVInstruction@@PAV?$GrowableArray@PAVScopeValue@@@@@Z 080542f0 f   c1_LinearScan.obj
 0001:00053420       ?compute_debug_info_for_scope@LinearScan@@AAEPAVIRScopeDebugInfo@@HPAVIRScope@@PAVValueStack@@1HHH@Z 08054420 f   c1_LinearScan.obj
 0001:000535f0       ?compute_debug_info@LinearScan@@AAEXPAVCodeEmitInfo@@H@Z 080545f0 f   c1_LinearScan.obj
 0001:00053640       ?assign_reg_num@LinearScan@@AAEXPAVLIR_OpList@@PAVIntervalWalker@@@Z 08054640 f   c1_LinearScan.obj
 0001:000538a0       ?assign_reg_num@LinearScan@@AAEXXZ 080548a0 f   c1_LinearScan.obj
 0001:00053920       ?resolve_mappings@MoveResolver@@AAEXXZ 08054920 f   c1_LinearScan.obj
 0001:00053cd0       ?move_insert_position@MoveResolver@@QAEXPAVLIR_List@@H@Z 08054cd0 f   c1_LinearScan.obj
 0001:00053d40       ?resolve_and_append_moves@MoveResolver@@QAEXXZ 08054d40 f   c1_LinearScan.obj
 0001:00053d70       ?initialize@Interval@@SAXXZ 08054d70 f   c1_LinearScan.obj
 0001:00053e00       ?insert_move@LinearScanWalker@@AAEXHPAVInterval@@0@Z 08054e00 f   c1_LinearScan.obj
 0001:00053e80       ?split_for_spilling@LinearScanWalker@@AAEXPAVInterval@@@Z 08054e80 f   c1_LinearScan.obj
 0001:000540a0       ?split_and_spill_interval@LinearScanWalker@@AAEXPAVInterval@@@Z 080550a0 f   c1_LinearScan.obj
 0001:00054130       ?split_and_spill_intersecting_intervals@LinearScanWalker@@AAEXHH@Z 08055130 f   c1_LinearScan.obj
 0001:00054280       ?alloc_locked_reg@LinearScanWalker@@AAEXPAVInterval@@@Z 08055280 f   c1_LinearScan.obj
 0001:00054500       ?activate_current@LinearScanWalker@@EAE_NXZ 08055500 f   c1_LinearScan.obj
 0001:000545b0       ?pd_add_temps@LinearScan@@AAEXPAVLIR_Op@@@Z 080555b0 f i c1_LinearScan.obj
 0001:00054620       ??0LinearScan@@QAE@PAVIR@@PAVLIRGenerator@@PAVFrameMap@@@Z 08055620 f   c1_LinearScan.obj
 0001:00054700       ?add_def@LinearScan@@AAEXPAVLIR_OprDesc@@HW4IntervalUseKind@@@Z 08055700 f   c1_LinearScan.obj
 0001:000547b0       ?add_use@LinearScan@@AAEXPAVLIR_OprDesc@@HHW4IntervalUseKind@@@Z 080557b0 f   c1_LinearScan.obj
 0001:00054870       ?add_temp@LinearScan@@AAEXPAVLIR_OprDesc@@HW4IntervalUseKind@@@Z 08055870 f   c1_LinearScan.obj
 0001:00054920       ?handle_doubleword_moves@LinearScan@@AAEXPAVLIR_Op@@@Z 08055920 f   c1_LinearScan.obj
 0001:000549a0       ?allocate_registers@LinearScan@@AAEXXZ 080559a0 f   c1_LinearScan.obj
 0001:00054ab0       ?resolve_data_flow@LinearScan@@AAEXXZ 08055ab0 f   c1_LinearScan.obj
 0001:00054db0       ?resolve_exception_entry@LinearScan@@AAEXPAVBlockBegin@@AAVMoveResolver@@@Z 08055db0 f   c1_LinearScan.obj
 0001:00054f10       ?resolve_exception_edge@LinearScan@@AAEXPAVXHandler@@HAAVMoveResolver@@@Z 08055f10 f   c1_LinearScan.obj
 0001:00055110       ?resolve_exception_handlers@LinearScan@@AAEXXZ 08056110 f   c1_LinearScan.obj
 0001:00055270       ?build_intervals@LinearScan@@AAEXXZ 08056270 f   c1_LinearScan.obj
 0001:000558b0       ?do_linear_scan@LinearScan@@QAEXXZ 080568b0 f   c1_LinearScan.obj
 0001:00055990       ?merge_rename@FpuStackAllocator@@AAE_NPAVFpuStackSim@@0HH@Z 08056990 f   c1_LinearScan_x86.obj
 0001:000559f0       ?insert_before@LIR_OpList@@QAEXHPBV1@@Z 080569f0 f i c1_LinearScan_x86.obj
 0001:00055a80       ?fpu_num@FpuStackAllocator@@AAEHPAVLIR_OprDesc@@@Z 08056a80 f   c1_LinearScan_x86.obj
 0001:00055aa0       ?tos_offset@FpuStackAllocator@@AAEHPAVLIR_OprDesc@@@Z 08056aa0 f   c1_LinearScan_x86.obj
 0001:00055ad0       ?to_fpu_stack@FpuStackAllocator@@QAEPAVLIR_OprDesc@@PAV2@@Z 08056ad0 f   c1_LinearScan_x86.obj
 0001:00055b20       ?do_rename@FpuStackAllocator@@AAEXPAVLIR_OprDesc@@0@Z 08056b20 f   c1_LinearScan_x86.obj
 0001:00055b80       ?do_push@FpuStackAllocator@@AAEXPAVLIR_OprDesc@@@Z 08056b80 f   c1_LinearScan_x86.obj
 0001:00055bb0       ?pop_if_last_use@FpuStackAllocator@@AAEXPAVLIR_Op@@PAVLIR_OprDesc@@@Z 08056bb0 f   c1_LinearScan_x86.obj
 0001:00055be0       ?pop_always@FpuStackAllocator@@AAEXPAVLIR_Op@@PAVLIR_OprDesc@@@Z 08056be0 f   c1_LinearScan_x86.obj
 0001:00055c00       ?merge_insert_pop@FpuStackAllocator@@AAEXPAVLIR_List@@PAVFpuStackSim@@@Z 08056c00 f   c1_LinearScan_x86.obj
 0001:00055ca0       ?insert_exchange@FpuStackAllocator@@AAEXH@Z 08056ca0 f   c1_LinearScan_x86.obj
 0001:00055d60       ?insert_exchange@FpuStackAllocator@@AAEXPAVLIR_OprDesc@@@Z 08056d60 f   c1_LinearScan_x86.obj
 0001:00055da0       ?insert_free@FpuStackAllocator@@AAEXH@Z 08056da0 f   c1_LinearScan_x86.obj
 0001:00055e40       ?insert_free_if_dead@FpuStackAllocator@@AAEXPAVLIR_OprDesc@@@Z 08056e40 f   c1_LinearScan_x86.obj
 0001:00055ea0       ?insert_free_if_dead@FpuStackAllocator@@AAEXPAVLIR_OprDesc@@0@Z 08056ea0 f   c1_LinearScan_x86.obj
 0001:00055f30       ?insert_copy@FpuStackAllocator@@AAEXPAVLIR_OprDesc@@0@Z 08056f30 f   c1_LinearScan_x86.obj
 0001:00056030       ?clear_fpu_stack@FpuStackAllocator@@AAEXPAVLIR_OprDesc@@@Z 08057030 f   c1_LinearScan_x86.obj
 0001:000560d0       ?handle_op1@FpuStackAllocator@@AAEXPAVLIR_Op1@@@Z 080570d0 f   c1_LinearScan_x86.obj
 0001:00056510       ?handle_op2@FpuStackAllocator@@AAEXPAVLIR_Op2@@@Z 08057510 f   c1_LinearScan_x86.obj
 0001:00056860       ?merge_insert_xchg@FpuStackAllocator@@AAEXPAVLIR_List@@PAVFpuStackSim@@H@Z 08057860 f   c1_LinearScan_x86.obj
 0001:00056910       ?merge_fpu_stack@FpuStackAllocator@@AAEXPAVLIR_List@@PAVFpuStackSim@@1@Z 08057910 f   c1_LinearScan_x86.obj
 0001:00056a70       ?merge_cleanup_fpu_stack@FpuStackAllocator@@AAEXPAVLIR_List@@PAVFpuStackSim@@AAVBitMap@@@Z 08057a70 f   c1_LinearScan_x86.obj
 0001:00056ae0       ?merge_fpu_stack_with_successors@FpuStackAllocator@@AAE_NPAVBlockBegin@@@Z 08057ae0 f   c1_LinearScan_x86.obj
 0001:00056c10       ?allocate_exception_handler@FpuStackAllocator@@AAEXPAVXHandler@@@Z 08057c10 f   c1_LinearScan_x86.obj
 0001:00056d40       ?compute_debug_information@FpuStackAllocator@@AAEXPAVLIR_Op@@@Z 08057d40 f   c1_LinearScan_x86.obj
 0001:00056e10       ?handle_opCall@FpuStackAllocator@@AAEXPAVLIR_OpCall@@@Z 08057e10 f   c1_LinearScan_x86.obj
 0001:00056e90       ?allocate_block@FpuStackAllocator@@AAEXPAVBlockBegin@@@Z 08057e90 f   c1_LinearScan_x86.obj
 0001:00056fa0       ?allocate@FpuStackAllocator@@QAEXXZ 08057fa0 f   c1_LinearScan_x86.obj
 0001:00057010       ?allocate_fpu_stack@LinearScan@@AAEXXZ 08058010 f   c1_LinearScan_x86.obj
 0001:000571d0       ?verified_entry@C1_MacroAssembler@@QAEXXZ 080581d0 f   c1_MacroAssembler_x86.obj
 0001:000571e0       ?lock_object@C1_MacroAssembler@@QAEHPAVRegisterImpl@@000AAVLabel@@@Z 080581e0 f   c1_MacroAssembler_x86.obj
 0001:00057420       ?unlock_object@C1_MacroAssembler@@QAEXPAVRegisterImpl@@00AAVLabel@@@Z 08058420 f   c1_MacroAssembler_x86.obj
 0001:000575c0       ?initialize_body@C1_MacroAssembler@@QAEXPAVRegisterImpl@@0H0@Z 080585c0 f   c1_MacroAssembler_x86.obj
 0001:00057770       ?inline_cache_check@C1_MacroAssembler@@QAEXPAVRegisterImpl@@0@Z 08058770 f   c1_MacroAssembler_x86.obj
 0001:00057800       ?build_frame@C1_MacroAssembler@@QAEXH@Z 08058800 f   c1_MacroAssembler_x86.obj
 0001:00057830       ?initialize_header@C1_MacroAssembler@@QAEXPAVRegisterImpl@@0000@Z 08058830 f   c1_MacroAssembler_x86.obj
 0001:000579c0       ?initialize_object@C1_MacroAssembler@@QAEXPAVRegisterImpl@@00H00@Z 080589c0 f   c1_MacroAssembler_x86.obj
 0001:00057c00       ?allocate_array@C1_MacroAssembler@@QAEXPAVRegisterImpl@@000HW4ScaleFactor@Address@@0AAVLabel@@@Z 08058c00 f   c1_MacroAssembler_x86.obj
 0001:00057d40       ?allocate_object@C1_MacroAssembler@@QAEXPAVRegisterImpl@@00HH0AAVLabel@@@Z 08058d40 f   c1_MacroAssembler_x86.obj
 0001:00057db0       ??0Optimizer@@QAE@PAVIR@@@Z 08058db0 f   c1_Optimizer.obj
 0001:00057dc0       ?eliminate_blocks@Optimizer@@QAEXXZ 08058dc0 f   c1_Optimizer.obj
 0001:00057df0       ?do_ArithmeticOp@NullCheckVisitor@@UAEXPAVArithmeticOp@@@Z 08058df0 f   c1_Optimizer.obj
 0001:00057e20       ?do_Throw@NullCheckVisitor@@UAEXPAVThrow@@@Z 08058e20 f   c1_Optimizer.obj
 0001:00057e20       ?do_ProfileCall@NullCheckVisitor@@UAEXPAVProfileCall@@@Z 08058e20 f   c1_Optimizer.obj
 0001:00057e20       ?do_Intrinsic@NullCheckVisitor@@UAEXPAVIntrinsic@@@Z 08058e20 f   c1_Optimizer.obj
 0001:00057e30       ?copy@ValueSet@@QAEPAV1@XZ 08058e30 f i c1_Optimizer.obj
 0001:00057eb0       ?eliminate_conditional_expressions@Optimizer@@QAEXXZ 08058eb0 f   c1_Optimizer.obj
 0001:00057f00       ?set_put@NullCheckEliminator@@AAEXPAVInstruction@@@Z 08058f00 f i c1_Optimizer.obj
 0001:00057f30       ?do_value@NullCheckEliminator@@CAXPAPAVInstruction@@@Z 08058f30 f   c1_Optimizer.obj
 0001:00057fa0       ?iterate_one@NullCheckEliminator@@AAEXPAVBlockBegin@@@Z 08058fa0 f   c1_Optimizer.obj
 0001:00058340       ?handle_AccessField@NullCheckEliminator@@QAEXPAVAccessField@@@Z 08059340 f   c1_Optimizer.obj
 0001:00058470       ?handle_ArrayLength@NullCheckEliminator@@QAEXPAVArrayLength@@@Z 08059470 f   c1_Optimizer.obj
 0001:00058520       ?handle_LoadIndexed@NullCheckEliminator@@QAEXPAVLoadIndexed@@@Z 08059520 f   c1_Optimizer.obj
 0001:000585d0       ?handle_StoreIndexed@NullCheckEliminator@@QAEXPAVStoreIndexed@@@Z 080595d0 f   c1_Optimizer.obj
 0001:00058640       ?handle_NullCheck@NullCheckEliminator@@QAEXPAVNullCheck@@@Z 08059640 f   c1_Optimizer.obj
 0001:000586c0       ?handle_Invoke@NullCheckEliminator@@QAEXPAVInvoke@@@Z 080596c0 f   c1_Optimizer.obj
 0001:00058720       ?handle_AccessMonitor@NullCheckEliminator@@QAEXPAVAccessMonitor@@@Z 08059720 f   c1_Optimizer.obj
 0001:00058790       ?handle_Phi@NullCheckEliminator@@QAEXPAVPhi@@@Z 08059790 f   c1_Optimizer.obj
 0001:00058850       ?block_do@CE_Eliminator@@UAEXPAVBlockBegin@@@Z 08059850 f i c1_Optimizer.obj
 0001:00058e40       ?name@IfOp@@UBEPBDXZ       08059e40 f i c1_Optimizer.obj
 0001:00058e50       ?visit@IfOp@@UAEXPAVInstructionVisitor@@@Z 08059e50 f i c1_Optimizer.obj
 0001:00058e70       ?input_values_do@IfOp@@UAEXP6AXPAPAVInstruction@@@Z@Z 08059e70 f i c1_Optimizer.obj
 0001:00058ea0       ?adjust_exception_edges@CE_Eliminator@@QAEXPAVBlockBegin@@0@Z 08059ea0 f i c1_Optimizer.obj
 0001:00058f00       ?block_do@BlockMerger@@UAEXPAVBlockBegin@@@Z 08059f00 f i c1_Optimizer.obj
 0001:00058f30       ?try_merge@BlockMerger@@QAE_NPAVBlockBegin@@@Z 08059f30 f i c1_Optimizer.obj
 0001:000591b0       ??0NullCheckEliminator@@QAE@PAVOptimizer@@@Z 0805a1b0 f i c1_Optimizer.obj
 0001:000592c0       ?do_Phi@NullCheckVisitor@@UAEXPAVPhi@@@Z 0805a2c0 f   c1_Optimizer.obj
 0001:000592d0       ?do_LoadField@NullCheckVisitor@@UAEXPAVLoadField@@@Z 0805a2d0 f   c1_Optimizer.obj
 0001:000592d0       ?do_StoreField@NullCheckVisitor@@UAEXPAVStoreField@@@Z 0805a2d0 f   c1_Optimizer.obj
 0001:000592e0       ?do_ArrayLength@NullCheckVisitor@@UAEXPAVArrayLength@@@Z 0805a2e0 f   c1_Optimizer.obj
 0001:000592f0       ?do_LoadIndexed@NullCheckVisitor@@UAEXPAVLoadIndexed@@@Z 0805a2f0 f   c1_Optimizer.obj
 0001:00059300       ?do_StoreIndexed@NullCheckVisitor@@UAEXPAVStoreIndexed@@@Z 0805a300 f   c1_Optimizer.obj
 0001:00059310       ?do_NullCheck@NullCheckVisitor@@UAEXPAVNullCheck@@@Z 0805a310 f   c1_Optimizer.obj
 0001:00059320       ?do_Invoke@NullCheckVisitor@@UAEXPAVInvoke@@@Z 0805a320 f   c1_Optimizer.obj
 0001:00059330       ?do_MonitorEnter@NullCheckVisitor@@UAEXPAVMonitorEnter@@@Z 0805a330 f   c1_Optimizer.obj
 0001:00059330       ?do_MonitorExit@NullCheckVisitor@@UAEXPAVMonitorExit@@@Z 0805a330 f   c1_Optimizer.obj
 0001:00059340       ?do_NewTypeArray@NullCheckVisitor@@UAEXPAVNewTypeArray@@@Z 0805a340 f   c1_Optimizer.obj
 0001:00059340       ?do_NewObjectArray@NullCheckVisitor@@UAEXPAVNewObjectArray@@@Z 0805a340 f   c1_Optimizer.obj
 0001:00059340       ?do_NewMultiArray@NullCheckVisitor@@UAEXPAVNewMultiArray@@@Z 0805a340 f   c1_Optimizer.obj
 0001:00059340       ?do_ExceptionObject@NullCheckVisitor@@UAEXPAVExceptionObject@@@Z 0805a340 f   c1_Optimizer.obj
 0001:00059340       ?do_NewInstance@NullCheckVisitor@@UAEXPAVNewInstance@@@Z 0805a340 f   c1_Optimizer.obj
 0001:00059370       ?eliminate_null_checks@Optimizer@@QAEXXZ 0805a370 f   c1_Optimizer.obj
 0001:00059610       ?is_subtype_of@Klass@@QBE_NPAVklassOopDesc@@@Z 0805a610 f i c1_Runtime1.obj
 0001:00059640       ?set_info@StubAssembler@@QAEXPBD_N@Z 0805a640 f   c1_Runtime1.obj
 0001:00059660       ?set_frame_size@StubAssembler@@QAEXH@Z 0805a660 f   c1_Runtime1.obj
 0001:00059680       ?set_num_rt_args@StubAssembler@@QAEXH@Z 0805a680 f   c1_Runtime1.obj
 0001:000596a0       ?get_buffer_blob@Runtime1@@SAPAVBufferBlob@@XZ 0805a6a0 f   c1_Runtime1.obj
 0001:000596f0       ?inc@Atomic@@SAXPCH@Z      0805a6f0 f i c1_Runtime1.obj
 0001:00059720       ??0RelocIterator@@QAE@PAVCodeBlob@@PAE1@Z 0805a720 f i c1_Runtime1.obj
 0001:00059760       ?pc_desc_at@nmethod@@QAEPAVPcDesc@@PAE@Z 0805a760 f i c1_Runtime1.obj
 0001:00059790       ?set_data@NativeMovConstReg@@QAEXH@Z 0805a790 f i c1_Runtime1.obj
 0001:000597b0       ?returns_to_call_stub@StubRoutines@@SA_NPAE@Z 0805a7b0 f i c1_Runtime1.obj
 0001:000597e0       ??0frame@@QAE@PAH0PAE@Z    0805a7e0 f i c1_Runtime1.obj
 0001:00059830       ??0frame@@QAE@PAH0@Z       0805a830 f i c1_Runtime1.obj
 0001:00059880       ??1HandleMarkCleaner@@QAE@XZ 0805a880 f i c1_Runtime1.obj
 0001:000598b0       ??1ThreadInVMfromJava@@QAE@XZ 0805a8b0 f i c1_Runtime1.obj
 0001:000598e0       ??1ThreadInVMfromJavaNoAsyncException@@QAE@XZ 0805a8e0 f i c1_Runtime1.obj
 0001:00059910       ?fill_from_compiled_native_frame@vframeStreamCommon@@IAEXXZ 0805a910 f i c1_Runtime1.obj
 0001:00059940       ??0symbolHandle@@QAE@PAVThread@@PAVsymbolOopDesc@@@Z 0805a940 f i bytecode.obj
 0001:00059940       ??0constantPoolHandle@@QAE@PAVThread@@PAVconstantPoolOopDesc@@@Z 0805a940 f i bytecode.obj
 0001:00059940       ??0instanceHandle@@QAE@PAVThread@@PAVinstanceOopDesc@@@Z 0805a940 f i attachListener.obj
 0001:00059940       ??0constantPoolCacheHandle@@QAE@PAVThread@@PAVconstantPoolCacheOopDesc@@@Z 0805a940 f i ciObjectFactory.obj
 0001:00059940       ??0objArrayKlassHandle@@QAE@PAVThread@@PAVklassOopDesc@@@Z 0805a940 f i jvm.obj
 0001:00059940       ??0objArrayHandle@@QAE@PAVThread@@PAVobjArrayOopDesc@@@Z 0805a940 f i ciObjectFactory.obj
 0001:00059940       ??0instanceKlassHandle@@QAE@PAVThread@@PAVklassOopDesc@@@Z 0805a940 f i attachListener.obj
 0001:00059940       ??0KlassHandle@@QAE@PAVThread@@PAVoopDesc@@@Z 0805a940 f i arrayKlass.obj
 0001:00059940       ??0methodHandle@@QAE@PAVThread@@PAVmethodOopDesc@@@Z 0805a940 f i c1_Runtime1.obj
 0001:00059940       ??0typeArrayHandle@@QAE@PAVThread@@PAVtypeArrayOopDesc@@@Z 0805a940 f i ciObjectFactory.obj
 0001:00059960       ?setup_code_buffer@Runtime1@@SAXPAVCodeBuffer@@H@Z 0805a960 f   c1_Runtime1.obj
 0001:000599b0       ?new_instance@Runtime1@@CAXPAVJavaThread@@PAVklassOopDesc@@@Z 0805a9b0 f   c1_Runtime1.obj
 0001:00059ae0       ?new_multi_array@Runtime1@@CAXPAVJavaThread@@PAVklassOopDesc@@HPAH@Z 0805aae0 f   c1_Runtime1.obj
 0001:00059b70       ?unimplemented_entry@Runtime1@@CAXPAVJavaThread@@W4StubID@1@@Z 0805ab70 f   c1_Runtime1.obj
 0001:00059bf0       ?throw_range_check_exception@Runtime1@@CAXPAVJavaThread@@H@Z 0805abf0 f   c1_Runtime1.obj
 0001:00059c90       ?throw_index_exception@Runtime1@@CAXPAVJavaThread@@H@Z 0805ac90 f   c1_Runtime1.obj
 0001:00059d30       ?throw_div0_exception@Runtime1@@CAXPAVJavaThread@@@Z 0805ad30 f   c1_Runtime1.obj
 0001:00059db0       ?throw_null_pointer_exception@Runtime1@@CAXPAVJavaThread@@@Z 0805adb0 f   c1_Runtime1.obj
 0001:00059e30       ?monitorenter@Runtime1@@CAXPAVJavaThread@@PAVoopDesc@@PAVBasicObjectLock@@@Z 0805ae30 f   c1_Runtime1.obj
 0001:00059f50       ?monitorexit@Runtime1@@CAXPAVJavaThread@@PAVBasicObjectLock@@@Z 0805af50 f   c1_Runtime1.obj
 0001:0005a040       ?klass_at@constantPoolOopDesc@@QAEPAVklassOopDesc@@HPAVThread@@@Z 0805b040 f i c1_Runtime1.obj
 0001:0005a0a0       ?pd_last_frame@JavaThread@@AAE?AVframe@@XZ 0805b0a0 f i c1_Runtime1.obj
 0001:0005a0f0       ?conjoint_oops_atomic@Copy@@SAXPAPAVoopDesc@@0I@Z 0805b0f0 f i c1_Runtime1.obj
 0001:0005a140       ?is_objArray@oopDesc@@QBE_NXZ 0805b140 f i c1_Runtime1.obj
 0001:0005a160       ?read_oop@DebugInfoReadStream@@QAEPAVoopDesc@@XZ 0805b160 f i c1_Runtime1.obj
 0001:0005a1a0       ?fill_from_compiled_frame@vframeStreamCommon@@IAEXH@Z 0805b1a0 f i c1_Runtime1.obj
 0001:0005a280       ?generate_blob_for@Runtime1@@CAXW4StubID@1@@Z 0805b280 f   c1_Runtime1.obj
 0001:0005a460       ?initialize@Runtime1@@SAXXZ 0805b460 f   c1_Runtime1.obj
 0001:0005a490       ?blob_for@Runtime1@@SAPAVCodeBlob@@W4StubID@1@@Z 0805b490 f   c1_Runtime1.obj
 0001:0005a4e0       ?throw_array_store_exception@Runtime1@@CAXPAVJavaThread@@@Z 0805b4e0 f   c1_Runtime1.obj
 0001:0005a570       ?throw_class_cast_exception@Runtime1@@CAXPAVJavaThread@@PAVoopDesc@@@Z 0805b570 f   c1_Runtime1.obj
 0001:0005a640       ?throw_incompatible_class_change_error@Runtime1@@CAXPAVJavaThread@@@Z 0805b640 f   c1_Runtime1.obj
 0001:0005a6f0       ?primitive_arraycopy@Runtime1@@SAXPAVHeapWord@@0H@Z 0805b6f0 f   c1_Runtime1.obj
 0001:0005a710       ?oop_arraycopy@Runtime1@@SAXPAVHeapWord@@0H@Z 0805b710 f   c1_Runtime1.obj
 0001:0005a770       ??$obj_arraycopy_work@PAVoopDesc@@@@YAHPAVoopDesc@@PAPAV0@01H@Z 0805b770 f i c1_Runtime1.obj
 0001:0005a8a0       ?new_type_array@Runtime1@@CAXPAVJavaThread@@PAVklassOopDesc@@H@Z 0805b8a0 f   c1_Runtime1.obj
 0001:0005a930       ?new_object_array@Runtime1@@CAXPAVJavaThread@@PAVklassOopDesc@@H@Z 0805b930 f   c1_Runtime1.obj
 0001:0005aca0       ?exception_handler_for_pc@Runtime1@@CAPAEPAVJavaThread@@@Z 0805bca0 f   c1_Runtime1.obj
 0001:0005acf0       ?base@objArrayOopDesc@@QBEPAVHeapWord@@XZ 0805bcf0 f i c1_Runtime1.obj
 0001:0005ad00       ?fill_from_frame@vframeStreamCommon@@IAE_NXZ 0805bd00 f i c1_Runtime1.obj
 0001:0005ae00       ?arraycopy@Runtime1@@SAHPAVoopDesc@@H0HH@Z 0805be00 f   c1_Runtime1.obj
 0001:0005af10       ??0vframeStream@@QAE@PAVJavaThread@@_N@Z 0805bf10 f i c1_Runtime1.obj
 0001:0005b030       ?post_jvmti_exception_throw@Runtime1@@CAXPAVJavaThread@@@Z 0805c030 f   c1_Runtime1.obj
 0001:0005b0e0       ?patch_code@Runtime1@@CAXPAVJavaThread@@W4StubID@1@@Z 0805c0e0 f   c1_Runtime1.obj
 0001:0005b710       ?move_klass_patching@Runtime1@@CAHPAVJavaThread@@@Z 0805c710 f   c1_Runtime1.obj
 0001:0005b730       ?access_field_patching@Runtime1@@CAHPAVJavaThread@@@Z 0805c730 f   c1_Runtime1.obj
 0001:0005b750       ??0StubFrame@@QAE@PAVStubAssembler@@PBD_N@Z 0805c750 f   c1_Runtime1_x86.obj
 0001:0005b780       ??1StubFrame@@QAE@XZ       0805c780 f   c1_Runtime1_x86.obj
 0001:0005b7a0       ?addptr@MacroAssembler@@QAEXPAVRegisterImpl@@VAddress@@@Z 0805c7a0 f i c1_Runtime1_x86.obj
 0001:0005b7d0       ?fldcw@MacroAssembler@@QAEXVAddress@@@Z 0805c7d0 f i c1_Runtime1_x86.obj
 0001:0005b800       ?call_RT@StubAssembler@@QAEHPAVRegisterImpl@@0PAEH@Z 0805c800 f   c1_Runtime1_x86.obj
 0001:0005bba0       ?call_RT@StubAssembler@@QAEHPAVRegisterImpl@@0PAE0@Z 0805cba0 f   c1_Runtime1_x86.obj
 0001:0005bbd0       ?call_RT@StubAssembler@@QAEHPAVRegisterImpl@@0PAE00@Z 0805cbd0 f   c1_Runtime1_x86.obj
 0001:0005bc10       ?call_RT@StubAssembler@@QAEHPAVRegisterImpl@@0PAE000@Z 0805cc10 f   c1_Runtime1_x86.obj
 0001:0005bc50       ?load_argument@StubFrame@@QAEXHPAVRegisterImpl@@@Z 0805cc50 f   c1_Runtime1_x86.obj
 0001:0005bcb0       ?generate_unwind_exception@Runtime1@@CAXPAVStubAssembler@@@Z 0805ccb0 f   c1_Runtime1_x86.obj
 0001:0005cde0       ?generate_exception_throw@Runtime1@@CAPAVOopMapSet@@PAVStubAssembler@@PAE_N@Z 0805dde0 f   c1_Runtime1_x86.obj
 0001:0005cec0       ?generate_handle_exception@Runtime1@@CAXPAVStubAssembler@@PAVOopMapSet@@PAVOopMap@@_N@Z 0805dec0 f   c1_Runtime1_x86.obj
 0001:0005d2b0       ?generate_patching@Runtime1@@CAPAVOopMapSet@@PAVStubAssembler@@PAE@Z 0805e2b0 f   c1_Runtime1_x86.obj
 0001:0005d6b0       ?generate_code_for@Runtime1@@CAPAVOopMapSet@@W4StubID@1@PAVStubAssembler@@@Z 0805e6b0 f   c1_Runtime1_x86.obj
 0001:0005f180       ?kill_memory@ValueMap@@QAEXXZ 08060180 f   c1_ValueMap.obj
 0001:0005f230       ?kill_array@ValueMap@@QAEXPAVValueType@@@Z 08060230 f   c1_ValueMap.obj
 0001:0005f2f0       ?kill_field@ValueMap@@QAEXPAVciField@@@Z 080602f0 f   c1_ValueMap.obj
 0001:0005f3b0       ?kill_exception@ValueMap@@QAEXXZ 080603b0 f   c1_ValueMap.obj
 0001:0005f440       ?kill_all@ValueMap@@QAEXXZ 08060440 f   c1_ValueMap.obj
 0001:0005f470       ?process@ShortLoopOptimizer@@QAE_NPAVBlockBegin@@@Z 08060470 f   c1_ValueMap.obj
 0001:0005f5b0       ??0ValueMapEntryArray@@QAE@HQAVValueMapEntry@@@Z 080605b0 f i c1_ValueMap.obj
 0001:0005f5b0       ??0intArray@@QAE@HH@Z      080605b0 f i c1_FrameMap.obj
 0001:0005f5b0       ??0ValueMapArray@@QAE@HQAVValueMap@@@Z 080605b0 f i c1_ValueMap.obj
 0001:0005f600       ??0ValueMap@@QAE@XZ        08060600 f   c1_ValueMap.obj
 0001:0005f650       ??0ValueMap@@QAE@PAV0@@Z   08060650 f   c1_ValueMap.obj
 0001:0005f6e0       ?increase_table_size@ValueMap@@AAEXXZ 080606e0 f   c1_ValueMap.obj
 0001:0005f870       ?find_insert@ValueMap@@QAEPAVInstruction@@PAV2@@Z 08060870 f   c1_ValueMap.obj
 0001:0005f990       ?kill_memory@ShortLoopOptimizer@@EAEXXZ 08060990 f i c1_ValueMap.obj
 0001:0005f9a0       ?kill_field@ShortLoopOptimizer@@EAEXPAVciField@@@Z 080609a0 f i c1_ValueMap.obj
 0001:0005f9b0       ?kill_array@ShortLoopOptimizer@@EAEXPAVValueType@@@Z 080609b0 f i c1_ValueMap.obj
 0001:0005f9c0       ??0GlobalValueNumbering@@QAE@PAVIR@@@Z 080609c0 f   c1_ValueMap.obj
 0001:0005fbd0       ?caller_state@ValueStack@@QBEPAV1@XZ 08060bd0 f   c1_ValueStack.obj
 0001:0005fbe0       ??0Phi@@QAE@PAVValueType@@PAVBlockBegin@@H@Z 08060be0 f i c1_ValueStack.obj
 0001:0005fc60       ?name@Phi@@UBEPBDXZ        08060c60 f i c1_ValueStack.obj
 0001:0005fc70       ?visit@Phi@@UAEXPAVInstructionVisitor@@@Z 08060c70 f i c1_ValueStack.obj
 0001:0005fc90       ?is_same_across_scopes@ValueStack@@QAE_NPAV1@@Z 08060c90 f   c1_ValueStack.obj
 0001:0005fd10       ?clear_locals@ValueStack@@QAEXXZ 08060d10 f   c1_ValueStack.obj
 0001:0005fd30       ?pin_stack_for_linear_scan@ValueStack@@QAEXXZ 08060d30 f   c1_ValueStack.obj
 0001:0005fde0       ?apply@ValueStack@@CAXVValues@@P6AXPAPAVInstruction@@@Z@Z 08060de0 f   c1_ValueStack.obj
 0001:0005fe30       ?values_do@ValueStack@@QAEXP6AXPAPAVInstruction@@@Z@Z 08060e30 f   c1_ValueStack.obj
 0001:0005feb0       ?lock@ValueStack@@QAEHPAVIRScope@@PAVInstruction@@@Z 08060eb0 f   c1_ValueStack.obj
 0001:0005ff00       ?unlock@ValueStack@@QAEHXZ 08060f00 f   c1_ValueStack.obj
 0001:0005ff10       ?setup_phi_for_stack@ValueStack@@QAEXPAVBlockBegin@@H@Z 08060f10 f   c1_ValueStack.obj
 0001:0005ff80       ?setup_phi_for_local@ValueStack@@QAEXPAVBlockBegin@@H@Z 08060f80 f   c1_ValueStack.obj
 0001:0005fff0       ??0ValueStack@@QAE@PAVIRScope@@HH@Z 08060ff0 f   c1_ValueStack.obj
 0001:00060060       ?copy@ValueStack@@QAEPAV1@XZ 08061060 f   c1_ValueStack.obj
 0001:000600e0       ?copy_locks@ValueStack@@QAEPAV1@XZ 080610e0 f   c1_ValueStack.obj
 0001:000601d0       ?pop_arguments@ValueStack@@QAEPAVValues@@H@Z 080611d0 f   c1_ValueStack.obj
 0001:00060290       ?push_scope@ValueStack@@QAEPAV1@PAVIRScope@@@Z 08061290 f   c1_ValueStack.obj
 0001:00060300       ?pop_scope@ValueStack@@QAEPAV1@XZ 08061300 f   c1_ValueStack.obj
 0001:00060390       ?create_variable@PerfDataManager@@SAPAVPerfLongVariable@@W4CounterNS@@PBDW4Units@PerfData@@_JPAVThread@@@Z 08061390 f i cSpaceCounters.obj
 0001:000603c0       ?take_sample@ContiguousSpaceUsedHelper@@UAE_JXZ 080613c0 f i cSpaceCounters.obj
 0001:000603d0       ??0CSpaceCounters@@QAE@PBDHIPAVContiguousSpace@@PAVGenerationCounters@@@Z 080613d0 f   cSpaceCounters.obj
 0001:00060600       ?do_oop_v@OopClosure@@UAEXPAPAVoopDesc@@@Z 08061600 f i cardTableExtension.obj
 0001:00060610       ?do_oop_v@OopClosure@@UAEXPAI@Z 08061610 f i cardTableExtension.obj
 0001:00060620       ?verify_all_young_refs_imprecise@CardTableExtension@@SAXXZ 08061620 f   cardTableExtension.obj
 0001:00060670       ?resize_update_covered_table@CardTableExtension@@AAEXHVMemRegion@@@Z 08061670 f   cardTableExtension.obj
 0001:00060710       ?lowest_prev_committed_start@CardTableExtension@@QBEPAVHeapWord@@H@Z 08061710 f   cardTableExtension.obj
 0001:00060790       ?do_object@CheckForUnmarkedObjects@@UAEXPAVoopDesc@@@Z 08061790 f i cardTableExtension.obj
 0001:000607d0       ?oop_iterate@oopDesc@@QAEHPAVOopClosure@@@Z 080617d0 f i cardTableExtension.obj
 0001:000607f0       ?do_oop@CheckForUnmarkedOops@@UAEXPAPAVoopDesc@@@Z 080617f0 f i cardTableExtension.obj
 0001:00060800       ??$do_oop_work@PAVoopDesc@@@CheckForUnmarkedOops@@IAEXPAPAVoopDesc@@@Z 08061800 f i cardTableExtension.obj
 0001:00060850       ?do_oop@CheckForUnmarkedOops@@UAEXPAI@Z 08061850 f i cardTableExtension.obj
 0001:00060860       ??$do_oop_work@I@CheckForUnmarkedOops@@IAEXPAI@Z 08061860 f i cardTableExtension.obj
 0001:000608c0       ?do_oop@CheckForPreciseMarks@@UAEXPAPAVoopDesc@@@Z 080618c0 f i cardTableExtension.obj
 0001:000608d0       ??$do_oop_work@PAVoopDesc@@@CheckForPreciseMarks@@IAEXPAPAVoopDesc@@@Z 080618d0 f i cardTableExtension.obj
 0001:00060910       ?do_oop@CheckForPreciseMarks@@UAEXPAI@Z 08061910 f i cardTableExtension.obj
 0001:00060920       ??$do_oop_work@I@CheckForPreciseMarks@@IAEXPAI@Z 08061920 f i cardTableExtension.obj
 0001:00060970       ?resize_commit_uncommit@CardTableExtension@@AAEXHVMemRegion@@@Z 08061970 f   cardTableExtension.obj
 0001:00060a90       ?object_start@ObjectStartArray@@QBEPAVHeapWord@@PAV2@@Z 08061a90 f i cardTableExtension.obj
 0001:00060b70       ?scavenge_contents@CardTableExtension@@QAEXPAVObjectStartArray@@PAVMutableSpace@@PAVHeapWord@@PAVPSPromotionManager@@@Z 08061b70 f   cardTableExtension.obj
 0001:00060df0       ?scavenge_contents_parallel@CardTableExtension@@QAEXPAVObjectStartArray@@PAVMutableSpace@@PAVHeapWord@@PAVPSPromotionManager@@I@Z 08061df0 f   cardTableExtension.obj
 0001:000612b0       ?resize_covered_region_by_end@CardTableExtension@@QAEXHVMemRegion@@@Z 080622b0 f   cardTableExtension.obj
 0001:00061380       ?resize_covered_region@CardTableExtension@@UAEXVMemRegion@@@Z 08062380 f   cardTableExtension.obj
 0001:00061410       ?contains@MemRegion@@QBE_NPBX@Z 08062410 f i cardTableModRefBS.obj
 0001:00061440       ?find_covering_region_containing@CardTableModRefBS@@IAEHPAVHeapWord@@@Z 08062440 f   cardTableModRefBS.obj
 0001:00061480       ?largest_prev_committed_end@CardTableModRefBS@@IBEPAVHeapWord@@H@Z 08062480 f   cardTableModRefBS.obj
 0001:000614b0       ?committed_unique_to_self@CardTableModRefBS@@IBE?AVMemRegion@@HV2@@Z 080624b0 f   cardTableModRefBS.obj
 0001:00061540       ?ct_max_alignment_constraint@CardTableModRefBS@@SAIXZ 08062540 f   cardTableModRefBS.obj
 0001:00061550       ?verify@CardTableModRefBS@@QAEXXZ 08062550 f   cardTableModRefBS.obj
 0001:00061580       ?write_ref_field_pre_work@BarrierSet@@EAEXPAXPAVoopDesc@@@Z 08062580 f i cardTableModRefBS.obj
 0001:000615a0       ?is_a@ModRefBarrierSet@@UAE_NW4Name@BarrierSet@@@Z 080625a0 f i cardTableModRefBS.obj
 0001:000615c0       ?adjust@ChangeItem@@UAE_NHH@Z 080625c0 f i relocator.obj
 0001:000615c0       ?stub_match@ProfilerNode@@UBE_NPAVmethodOopDesc@@PBD@Z 080625c0 f i fprofiler.obj
 0001:000615c0       ?runtimeStub_match@ProfilerNode@@UBE_NPBVCodeBlob@@PBD@Z 080625c0 f i fprofiler.obj
 0001:000615c0       ?read_prim_needs_barrier@ModRefBarrierSet@@UAE_NPAVHeapWord@@I@Z 080625c0 f i cardTableModRefBS.obj
 0001:000615d0       ?write_prim_needs_barrier@ModRefBarrierSet@@UAE_NPAVHeapWord@@III@Z 080625d0 f i cardTableModRefBS.obj
 0001:000615e0       ?card_will_be_scanned@CardTableModRefBS@@MAE_NC@Z 080625e0 f i cardTableModRefBS.obj
 0001:000615e0       ?card_may_have_been_dirty@CardTableModRefBS@@MAE_NC@Z 080625e0 f i cardTableModRefBS.obj
 0001:00061600       ??0CardTableModRefBS@@QAE@VMemRegion@@H@Z 08062600 f   cardTableModRefBS.obj
 0001:000618a0       ?is_a@CardTableModRefBS@@UAE_NW4Name@BarrierSet@@@Z 080628a0 f i cardTableModRefBS.obj
 0001:000618c0       ?write_ref_needs_barrier@CardTableModRefBS@@UAE_NPAXPAVoopDesc@@@Z 080628c0 f i cardTableModRefBS.obj
 0001:000618f0       ?find_covering_region_by_base@CardTableModRefBS@@IAEHPAVHeapWord@@@Z 080628f0 f   cardTableModRefBS.obj
 0001:00061980       ?resize_covered_region@CardTableModRefBS@@MAEXVMemRegion@@@Z 08062980 f   cardTableModRefBS.obj
 0001:00061b70       ?write_ref_field_work@CardTableModRefBS@@MAEXPAXPAVoopDesc@@@Z 08062b70 f   cardTableModRefBS.obj
 0001:00061b90       ?mark_card_deferred@CardTableModRefBS@@QAE_NI@Z 08062b90 f   cardTableModRefBS.obj
 0001:00061bf0       ?non_clean_card_iterate_work@CardTableModRefBS@@IAEXVMemRegion@@PAVMemRegionClosure@@_N@Z 08062bf0 f   cardTableModRefBS.obj
 0001:00061d50       ?dirty_MemRegion@CardTableModRefBS@@IAEXVMemRegion@@@Z 08062d50 f   cardTableModRefBS.obj
 0001:00061d90       ?invalidate@CardTableModRefBS@@UAEXVMemRegion@@_N@Z 08062d90 f   cardTableModRefBS.obj
 0001:00061e10       ?clear@CardTableModRefBS@@UAEXVMemRegion@@@Z 08062e10 f   cardTableModRefBS.obj
 0001:00061ea0       ?dirty@CardTableModRefBS@@QAEXVMemRegion@@@Z 08062ea0 f   cardTableModRefBS.obj
 0001:00061ee0       ?dirty_card_iterate@CardTableModRefBS@@QAEXVMemRegion@@PAVMemRegionClosure@@@Z 08062ee0 f   cardTableModRefBS.obj
 0001:00061fa0       ?dirty_card_range_after_reset@CardTableModRefBS@@QAE?AVMemRegion@@V2@_NH@Z 08062fa0 f   cardTableModRefBS.obj
 0001:000620a0       ?card_will_be_scanned@CardTableModRefBSForCTRS@@MAE_NC@Z 080630a0 f   cardTableModRefBS.obj
 0001:000620d0       ?card_may_have_been_dirty@CardTableModRefBSForCTRS@@MAE_NC@Z 080630d0 f   cardTableModRefBS.obj
 0001:00062100       ?write_ref_array_work@CardTableModRefBS@@MAEXVMemRegion@@@Z 08063100 f i cardTableModRefBS.obj
 0001:00062100       ?write_region_work@CardTableModRefBS@@MAEXVMemRegion@@@Z 08063100 f i cardTableModRefBS.obj
 0001:00062120       ?non_clean_card_iterate@CardTableModRefBS@@IAEXPAVSpace@@VMemRegion@@PAVDirtyCardToOopClosure@@PAVMemRegionClosure@@_N@Z 08063120 f   cardTableModRefBS.obj
 0001:00062180       ?mod_oop_in_space_iterate@CardTableModRefBS@@UAEXPAVSpace@@PAVOopClosure@@_N2@Z 08063180 f   cardTableModRefBS.obj
 0001:000621e0       ?find_unused_youngergenP_card_value@CardTableRS@@AAECXZ 080631e0 f   cardTableRS.obj
 0001:00062220       ?prepare_for_younger_refs_iterate@CardTableRS@@UAEX_N@Z 08063220 f   cardTableRS.obj
 0001:00062250       ??0CardTableRS@@QAE@VMemRegion@@H@Z 08063250 f   cardTableRS.obj
 0001:00062330       ?write_ref_field_gc_work@CardTableRS@@UAEXPAXPAVoopDesc@@@Z 08063330 f i cardTableRS.obj
 0001:00062350       ?clear@CardTableRS@@UAEXVMemRegion@@@Z 08063350 f i cardTableRS.obj
 0001:00062380       ?invalidate@CardTableRS@@UAEXVMemRegion@@_N@Z 08063380 f i cardTableRS.obj
 0001:000623b0       ?resize_covered_region@CardTableRS@@UAEXVMemRegion@@@Z 080633b0 f   cardTableRS.obj
 0001:000623e0       ?younger_refs_iterate@CardTableRS@@UAEXPAVGeneration@@PAVOopsInGenClosure@@@Z 080633e0 f   cardTableRS.obj
 0001:00062410       ?do_MemRegion@ClearNoncleanCardWrapper@@UAEXVMemRegion@@@Z 08063410 f i cardTableRS.obj
 0001:000624c0       ?clear_card@ClearNoncleanCardWrapper@@AAE_NPAC@Z 080634c0 f i cardTableRS.obj
 0001:00062540       ?write_ref_field_gc_par@CardTableRS@@UAEXPAXPAVoopDesc@@@Z 08063540 f   cardTableRS.obj
 0001:000625b0       ?younger_refs_in_space_iterate@CardTableRS@@EAEXPAVSpace@@PAVOopsInGenClosure@@@Z 080635b0 f   cardTableRS.obj
 0001:00062610       ?clear_into_younger@CardTableRS@@UAEXPAVGeneration@@_N@Z 08063610 f   cardTableRS.obj
 0001:00062690       ?invalidate_or_clear@CardTableRS@@UAEXPAVGeneration@@_N1@Z 08063690 f   cardTableRS.obj
 0001:000627d0       ?do_generation@VerifyCTGenClosure@@UAEXPAVGeneration@@@Z 080637d0 f i cardTableRS.obj
 0001:00062810       ?verify@CardTableRS@@UAEXXZ 08063810 f   cardTableRS.obj
 0001:000628d0       ?verify_aligned_region_empty@CardTableRS@@UAEXVMemRegion@@@Z 080638d0 f   cardTableRS.obj
 0001:00062930       ?is_aligned@CardTableModRefBS@@UAE_NPAVHeapWord@@@Z 08063930 f i cardTableModRefBS.obj
 0001:00062930       ?is_aligned@CardTableRS@@UAE_NPAVHeapWord@@@Z 08063930 f i cardTableRS.obj
 0001:00062950       ?do_oop@VerifyCleanCardClosure@@UAEXPAPAVoopDesc@@@Z 08063950 f i cardTableRS.obj
 0001:00062960       ??$do_oop_work@PAVoopDesc@@@VerifyCleanCardClosure@@IAEXPAPAVoopDesc@@@Z 08063960 f i cardTableRS.obj
 0001:000629a0       ?do_oop@VerifyCleanCardClosure@@UAEXPAI@Z 080639a0 f i cardTableRS.obj
 0001:000629b0       ??$do_oop_work@I@VerifyCleanCardClosure@@IAEXPAI@Z 080639b0 f i cardTableRS.obj
 0001:00062a10       ?verify_space@CardTableRS@@AAEXPAVSpace@@PAVHeapWord@@@Z 08063a10 f   cardTableRS.obj
 0001:00062bd0       ?do_space@VerifyCTSpaceClosure@@UAEXPAVSpace@@@Z 08063bd0 f i cardTableRS.obj
 0001:00062bf0       ?print_impl@ciArray@@MAEXPAVoutputStream@@@Z 08063bf0 f   ciArray.obj
 0001:00062c30       ??0ciArrayKlass@@IAE@PAVciSymbol@@HPAVciKlass@@@Z 08063c30 f   ciArrayKlass.obj
 0001:00062c60       ?is_CounterData@ProfileData@@UAE_NXZ 08063c60 f i ciMethodData.obj
 0001:00062c60       ?is_JumpData@ProfileData@@UAE_NXZ 08063c60 f i ciMethodData.obj
 0001:00062c60       ?is_compiled_frame@vframe@@UBE_NXZ 08063c60 f i vframe.obj
 0001:00062c60       ?must_be_youngest@ConcurrentMarkSweepGeneration@@UBE_NXZ 08063c60 f i concurrentMarkSweepGeneration.obj
 0001:00062c60       ?is_java_lang_Object@ciObject@@UAE_NXZ 08063c60 f i ciArrayKlass.obj
 0001:00062c60       ?must_be_oldest@DefNewGeneration@@UBE_NXZ 08063c60 f i asParNewGeneration.obj
 0001:00062c60       ?report_results@OopMapForCacheEntry@@EBE_NXZ 08063c60 f i oopMapCache.obj
 0001:00062c60       ?oop_is_methodData@Klass@@UBE_NXZ 08063c60 f i arrayKlassKlass.obj
 0001:00062c60       ?is_type_array@ciObject@@UAE_NXZ 08063c60 f i ciArrayKlass.obj
 0001:00062c60       ?is_instance_klass_klass@ciObject@@UAE_NXZ 08063c60 f i ciArrayKlass.obj
 0001:00062c60       ?is_runtime_stub@ProfilerNode@@UBE_NXZ 08063c60 f i fprofiler.obj
 0001:00062c60       ?is_Compiler_thread@Thread@@UBE_NXZ 08063c60 f i concurrentG1RefineThread.obj
 0001:00062c60       ?allow_nested_vm_operations@VM_EnableBiasedLocking@@UBE_NXZ 08063c60 f i biasedLocking.obj
 0001:00062c60       ?is_symbol@ciObject@@UAE_NXZ 08063c60 f i ciArrayKlass.obj
 0001:00062c60       ?needs_stubs@Compiler@@UAE_NXZ 08063c60 f i c1_Compiler.obj
 0001:00062c60       ?has_read_region_opt@ModRefBarrierSet@@UAE_NXZ 08063c60 f i cardTableModRefBS.obj
 0001:00062c60       ?full_collects_younger_generations@Generation@@UBE_NXZ 08063c60 f i asParNewGeneration.obj
 0001:00062c60       ?is_ConcurrentGC_thread@Thread@@UBE_NXZ 08063c60 f i concurrentGCThread.obj
 0001:00062c60       ?must_be_oldest@CompactingPermGenGen@@UBE_NXZ 08063c60 f i compactingPermGenGen.obj
 0001:00062c60       ?is_call@Relocation@@UAE_NXZ 08063c60 f i assembler_windows_x86.obj
 0001:00062c60       ?is_leaf_type@ciKlass@@UAE_NXZ 08063c60 f i ciKlass.obj
 0001:00062c60       ?is_supported@DTraceJSDT@@SAEXZ 08063c60 f i dtraceJSDT.obj
 0001:00062c60       ?allocs_are_zero_filled@G1CollectedHeap@@UAE_NXZ 08063c60 f i g1CollectedHeap.obj
 0001:00062c60       ?is_exception_throw_stub@CodeStub@@UBE_NXZ 08063c60 f i c1_CodeStubs_x86.obj
 0001:00062c60       ?card_mark_must_follow_store@ParallelScavengeHeap@@UBE_NXZ 08063c60 f i universe.obj
 0001:00062c60       ?oop_is_constantPool@Klass@@UBE_NXZ 08063c60 f i arrayKlassKlass.obj
 0001:00062c60       ?is_lazy@ClassPathEntry@@UAE_NXZ 08063c60 f i classLoader.obj
 0001:00062c60       ?should_remember_mdo@Par_PushAndMarkClosure@@UBE?B_NXZ 08063c60 f i concurrentMarkSweepGeneration.obj
 0001:00062c60       ?supports_tlab_allocation@Generation@@UBE_NXZ 08063c60 f i cmsPermGen.obj
 0001:00062c60       ?is_return_address@ciObject@@UAE_NXZ 08063c60 f i ciArrayKlass.obj
 0001:00062c60       ?is_interpreted@RFrame@@UBE_NXZ 08063c60 f i rframe.obj
 0001:00062c60       ?have_special_privileges@os@@SA_NXZ 08063c60 f i os_windows.obj
 0001:00062c60       ?is_constant@ValueType@@UBE_NXZ 08063c60 f i c1_Canonicalizer.obj
 0001:00062c60       ?is_adapter_blob@CodeBlob@@UBE_NXZ 08063c60 f i codeBlob.obj
 0001:00062c60       ?skip_operation@VM_HeapDumper@@EBE_NXZ 08063c60 f i heapDumper.obj
 0001:00062c60       ?has_write_ref_pre_barrier@CardTableModRefBS@@UAE_NXZ 08063c60 f i cardTableModRefBS.obj
 0001:00062c60       ?is_cheap_allocated@VM_CMS_Operation@@UBE_NXZ 08063c60 f i concurrentMarkSweepGeneration.obj
 0001:00062c60       ?oop_is_typeArray_slow@Klass@@UBE_NXZ 08063c60 f i arrayKlassKlass.obj
 0001:00062c60       ?is_method_klass@ciObject@@UAE_NXZ 08063c60 f i ciArrayKlass.obj
 0001:00062c60       ?is_cheap_allocated@VM_GenCollectFullConcurrent@@UBE_NXZ 08063c60 f i genCollectedHeap.obj
 0001:00062c60       ?oop_is_instanceRef@Klass@@UBE_NXZ 08063c60 f i arrayKlassKlass.obj
 0001:00062c60       ?is_BranchData@ProfileData@@UAE_NXZ 08063c60 f i ciMethodData.obj
 0001:00062c60       ?report_results@GeneratePairingInfo@@EBE_NXZ 08063c60 f i ciMethod.obj
 0001:00062c60       ?has_read_prim_barrier@ModRefBarrierSet@@UAE_NXZ 08063c60 f i cardTableModRefBS.obj
 0001:00062c60       ?is_collected_pool@MemoryPool@@UAE_NXZ 08063c60 f i memoryPool.obj
 0001:00062c60       ?should_be_initialized@Klass@@UBE_NXZ 08063c60 f i arrayKlassKlass.obj
 0001:00062c60       ?is_buffer_blob@CodeBlob@@UBE_NXZ 08063c60 f i codeBlob.obj
 0001:00062c60       ?is_cheap_allocated@VM_Operation@@UBE_NXZ 08063c60 f i attachListener.obj
 0001:00062c60       ?is_nmethod@CodeBlob@@UBE_NXZ 08063c60 f i codeBlob.obj
 0001:00062c60       ?is_cpcache@ciObject@@UBE_NXZ 08063c60 f i ciArrayKlass.obj
 0001:00062c60       ?needs_pll@VM_CMS_Initial_Mark@@UBE?B_NXZ 08063c60 f i concurrentMarkSweepGeneration.obj
 0001:00062c60       ?is_classless@ciObject@@UBE_NXZ 08063c60 f i ciMethod.obj
 0001:00062c60       ?is_data@Relocation@@UAE_NXZ 08063c60 f i assembler_windows_x86.obj
 0001:00062c60       ?oop_is_symbol@Klass@@UBE_NXZ 08063c60 f i arrayKlassKlass.obj
 0001:00062c60       ?is_method_data@ciObject@@UAE_NXZ 08063c60 f i ciArrayKlass.obj
 0001:00062c60       ?is_interpreted_frame@vframe@@UBE_NXZ 08063c60 f i vframe.obj
 0001:00062c60       ?is_gc_memory_manager@MemoryManager@@UAE_NXZ 08063c60 f i memoryManager.obj
 0001:00062c60       ?oop_is_objArray_slow@Klass@@UBE_NXZ 08063c60 f i arrayKlassKlass.obj
 0001:00062c60       ?should_remember_mdo@PushOrMarkClosure@@UBE?B_NXZ 08063c60 f i concurrentMarkSweepGeneration.obj
 0001:00062c60       ?is_location@ScopeValue@@UBE_NXZ 08063c60 f i c1_LinearScan.obj
 0001:00062c60       ?is_jar_file@ClassPathDirEntry@@UAE_NXZ 08063c60 f i classLoader.obj
 0001:00062c60       ?allow_rewrites@GeneratePairingInfo@@EBE_NXZ 08063c60 f i ciMethod.obj
 0001:00062c60       ?is_hidden_from_external_view@Thread@@UBE_NXZ 08063c60 f i concurrentG1RefineThread.obj
 0001:00062c60       ?must_be_youngest@TenuredGeneration@@UBE_NXZ 08063c60 f i tenuredGeneration.obj
 0001:00062c60       ?is_type_array_klass_klass@ciObject@@UAE_NXZ 08063c60 f i ciArrayKlass.obj
 0001:00062c60       ?report_results@ResolveOopMapConflicts@@EBE_NXZ 08063c60 f i rewriter.obj
 0001:00062c60       ?skip_operation@VM_GC_HeapInspection@@UBE_NXZ 08063c60 f i vmGCOperations.obj
 0001:00062c60       ?oop_is_thread@Klass@@UBE_NXZ 08063c60 f i arrayKlassKlass.obj
 0001:00062c60       ?is_constant_int@ScopeValue@@UBE_NXZ 08063c60 f i c1_LinearScan.obj
 0001:00062c60       ?should_remember_mdo@Par_PushOrMarkClosure@@UBE?B_NXZ 08063c60 f i concurrentMarkSweepGeneration.obj
 0001:00062c60       ?oop_is_klass@Klass@@UBE_NXZ 08063c60 f i arrayKlassKlass.obj
 0001:00062c60       ?oop_is_instance_slow@Klass@@UBE_NXZ 08063c60 f i arrayKlassKlass.obj
 0001:00062c60       ?allow_nested_vm_operations@VM_Operation@@UBE_NXZ 08063c60 f i attachListener.obj
 0001:00062c60       ?numa_topology_changed@os@@SA_NXZ 08063c60 f i os_windows.obj
 0001:00062c60       ?is_Watcher_thread@Thread@@UBE_NXZ 08063c60 f i concurrentG1RefineThread.obj
 0001:00062c60       ?is_constant_oop@ScopeValue@@UBE_NXZ 08063c60 f i c1_LinearScan.obj
 0001:00062c60       ?can_trap@Instruction@@UBE_NXZ 08063c60 f i c1_Canonicalizer.obj
 0001:00062c60       ?should_remember_klasses@OopClosure@@UBE?B_NXZ 08063c60 f i cardTableExtension.obj
 0001:00062c60       ?is_method_handle@ciObject@@UBE_NXZ 08063c60 f i ciArrayKlass.obj
 0001:00062c60       ?has_read_ref_array_opt@ModRefBarrierSet@@UAE_NXZ 08063c60 f i cardTableModRefBS.obj
 0001:00062c60       ?is_compiled_by_c1@CodeBlob@@UBE_NXZ 08063c60 f i codeBlob.obj
 0001:00062c60       ?is_divbyzero_stub@CodeStub@@UBE_NXZ 08063c60 f i c1_CodeStubs_x86.obj
 0001:00062c60       ?is_obj_array_klass_klass@ciObject@@UAE_NXZ 08063c60 f i ciArrayKlass.obj
 0001:00062c60       ?is_GC_task_thread@Thread@@UBE_NXZ 08063c60 f i concurrentG1RefineThread.obj
 0001:00062c60       ?allow_nested_vm_operations@VM_CMS_Operation@@UBE_NXZ 08063c60 f i concurrentMarkSweepGeneration.obj
 0001:00062c60       ?should_remember_mdo@PushAndMarkClosure@@UBE?B_NXZ 08063c60 f i concurrentMarkSweepGeneration.obj
 0001:00062c60       ?must_be_youngest@CMSPermGenGen@@UBE_NXZ 08063c60 f i cmsPermGen.obj
 0001:00062c60       ?distribute_processes@os@@SA_NIPAI@Z 08063c60 f i os_windows.obj
 0001:00062c60       ?is_VirtualCallData@ProfileData@@UAE_NXZ 08063c60 f i ciMethodData.obj
 0001:00062c60       ?is_klass@ciObject@@UAE_NXZ 08063c60 f i ciMethod.obj
 0001:00062c60       ?is_BitData@ProfileData@@UAE_NXZ 08063c60 f i ciMethodData.obj
 0001:00062c60       ?is_object@ScopeValue@@UBE_NXZ 08063c60 f i c1_LinearScan.obj
 0001:00062c60       ?is_switch_pad@ChangeItem@@UAE_NXZ 08063c60 f i relocator.obj
 0001:00062c60       ?supports_inline_contig_alloc@Generation@@UBE_NXZ 08063c60 f i cmsPermGen.obj
 0001:00062c60       ?refs_discovery_is_atomic@ConcurrentMarkSweepGeneration@@UBE_NXZ 08063c60 f i cmsPermGen.obj
 0001:00062c60       ?is_commutative@Op2@@UBE_NXZ 08063c60 f i c1_GraphBuilder.obj
 0001:00062c60       ?oop_is_array@Klass@@UBE_NXZ 08063c60 f i arrayKlassKlass.obj
 0001:00062c60       ?is_instance@ciObject@@UAE_NXZ 08063c60 f i ciArrayKlass.obj
 0001:00062c60       ?is_type@ciObject@@UAE_NXZ 08063c60 f i ciMethod.obj
 0001:00062c60       ?allow_rewrites@GenerateOopMap@@UBE_NXZ 08063c60 f i generateOopMap.obj
 0001:00062c60       ?has_write_prim_array_opt@ModRefBarrierSet@@UAE_NXZ 08063c60 f i cardTableModRefBS.obj
 0001:00062c60       ?bind_to_processor@os@@SA_NI@Z 08063c60 f i os_windows.obj
 0001:00062c60       ?oop_is_arrayKlass@Klass@@UBE_NXZ 08063c60 f i arrayKlassKlass.obj
 0001:00062c60       ?is_unloaded@CodeBlob@@UBE_NXZ 08063c60 f i codeBlob.obj
 0001:00062c60       ?is_jump_widen@ChangeItem@@UAE_NXZ 08063c60 f i relocator.obj
 0001:00062c60       ?oop_is_compiledICHolder@Klass@@UBE_NXZ 08063c60 f i arrayKlassKlass.obj
 0001:00062c60       ?should_remember_mdo@OopClosure@@UBE?B_NXZ 08063c60 f i cardTableExtension.obj
 0001:00062c60       ?is_compiled@ProfilerNode@@UBE_NXZ 08063c60 f i fprofiler.obj
 0001:00062c60       ?refs_discovery_is_mt@ConcurrentMarkSweepGeneration@@UBE_NXZ 08063c60 f i cmsPermGen.obj
 0001:00062c60       ?oop_is_instanceKlass@Klass@@UBE_NXZ 08063c60 f i arrayKlassKlass.obj
 0001:00062c60       ?has_write_prim_barrier@ModRefBarrierSet@@UAE_NXZ 08063c60 f i cardTableModRefBS.obj
 0001:00062c60       ?is_uncommon_trap_stub@CodeBlob@@UBE_NXZ 08063c60 f i codeBlob.obj
 0001:00062c60       ?report_init_vars@GeneratePairingInfo@@EBE_NXZ 08063c60 f i ciMethod.obj
 0001:00062c60       ?idempotent@OopClosure@@UAE_NXZ 08063c60 f i cardTableExtension.obj
 0001:00062c60       ?refs_discovery_is_mt@Generation@@UBE_NXZ 08063c60 f i compactingPermGenGen.obj
 0001:00062c60       ?is_jvmti_agent_thread@Thread@@UBE_NXZ 08063c60 f i concurrentG1RefineThread.obj
 0001:00062c60       ?adapter_match@ProfilerNode@@UBE_NXZ 08063c60 f i fprofiler.obj
 0001:00062c60       ?is_constant_double@ScopeValue@@UBE_NXZ 08063c60 f i c1_LinearScan.obj
 0001:00062c60       ?is_ReceiverTypeData@ProfileData@@UAE_NXZ 08063c60 f i ciMethodData.obj
 0001:00062c60       ?is_abstract@ciKlass@@UAE_NXZ 08063c60 f i ciArrayKlass.obj
 0001:00062c60       ?is_exception_stub@CodeBlob@@UBE_NXZ 08063c60 f i codeBlob.obj
 0001:00062c60       ?is_symbol_klass@ciObject@@UAE_NXZ 08063c60 f i ciArrayKlass.obj
 0001:00062c60       ?is_instance_klass@ciObject@@UAE_NXZ 08063c60 f i ciArrayKlass.obj
 0001:00062c60       ?is_probe_enabled@DTraceJSDT@@SAEPAU_jmethodID@@@Z 08063c60 f i dtraceJSDT.obj
 0001:00062c60       ?must_be_youngest@CompactingPermGenGen@@UBE_NXZ 08063c60 f i compactingPermGenGen.obj
 0001:00062c60       ?is_methodCompiler@VM_Operation@@UBE_NXZ 08063c60 f i attachListener.obj
 0001:00062c60       ?is_dynamic_code_event@JvmtiEventCollector@@UAE_NXZ 08063c60 f i jvmtiExport.obj
 0001:00062c60       ?apply_to_weak_ref_discovered_field@OopClosure@@UAE_NXZ 08063c60 f i cardTableExtension.obj
 0001:00062c60       ?needs_adapters@Compiler@@UAE_NXZ 08063c60 f i c1_Compiler.obj
 0001:00062c60       ?is_widen@ChangeItem@@UAE_NXZ 08063c60 f i relocator.obj
 0001:00062c60       ?is_entry_frame@vframe@@UBE_NXZ 08063c60 f i vframe.obj
 0001:00062c60       ?has_read_prim_array_opt@ModRefBarrierSet@@UAE_NXZ 08063c60 f i cardTableModRefBS.obj
 0001:00062c60       ?oop_is_typeArrayKlass@Klass@@UBE_NXZ 08063c60 f i arrayKlassKlass.obj
 0001:00062c60       ?oop_is_constantPoolCache@Klass@@UBE_NXZ 08063c60 f i arrayKlassKlass.obj
 0001:00062c60       ?supports_tlab_allocation@CollectedHeap@@UBE_NXZ 08063c60 f i collectedHeap.obj
 0001:00062c60       ?is_array_klass@ciObject@@UAE_NXZ 08063c60 f i ciInstanceKlass.obj
 0001:00062c60       ?is_array_klass_klass@ciObject@@UAE_NXZ 08063c60 f i ciArrayKlass.obj
 0001:00062c60       ?oop_is_objArrayKlass@Klass@@UBE_NXZ 08063c60 f i arrayKlassKlass.obj
 0001:00062c60       ?is_stub@ProfilerNode@@UBE_NXZ 08063c60 f i fprofiler.obj
 0001:00062c60       ?is_locked_by_vm@CodeBlob@@UBE_NXZ 08063c60 f i codeBlob.obj
 0001:00062c60       ?is_constant_long@ScopeValue@@UBE_NXZ 08063c60 f i c1_LinearScan.obj
 0001:00062c60       ?is_not_entrant@CodeBlob@@UBE_NXZ 08063c60 f i codeBlob.obj
 0001:00062c60       ?is_deoptimization_stub@CodeBlob@@UBE_NXZ 08063c60 f i codeBlob.obj
 0001:00062c60       ?is_runtime_stub@CodeBlob@@UBE_NXZ 08063c60 f i codeBlob.obj
 0001:00062c60       ?is_vm_object_alloc_event@JvmtiEventCollector@@UAE_NXZ 08063c60 f i jvmtiExport.obj
 0001:00062c60       ?enable_vtime@os@@SA_NXZ   08063c60 f i os_windows.obj
 0001:00062c60       ?oop_is_method@Klass@@UBE_NXZ 08063c60 f i arrayKlassKlass.obj
 0001:00062c60       ?is_null_object@ciObject@@UBE_NXZ 08063c60 f i ciArrayKlass.obj
 0001:00062c60       ?is_ArrayData@ProfileData@@UAE_NXZ 08063c60 f i ciMethodData.obj
 0001:00062c60       ?is_type_array_klass@ciObject@@UAE_NXZ 08063c60 f i ciArrayKlass.obj
 0001:00062c60       ?can_commit_large_page_memory@os@@SA_NXZ 08063c60 f i os_windows.obj
 0001:00062c60       ?is_Java_thread@Thread@@UBE_NXZ 08063c60 f i concurrentG1RefineThread.obj
 0001:00062c60       ?is_klass_klass@ciObject@@UAE_NXZ 08063c60 f i ciArrayKlass.obj
 0001:00062c60       ?is_obj_array@ciObject@@UAE_NXZ 08063c60 f i ciArrayKlass.obj
 0001:00062c60       ?is_ArgInfoData@ProfileData@@UAE_NXZ 08063c60 f i ciMethodData.obj
 0001:00062c60       ?is_compiled@RFrame@@UBE_NXZ 08063c60 f i rframe.obj
 0001:00062c60       ?has_read_ref_barrier@ModRefBarrierSet@@UAE_NXZ 08063c60 f i cardTableModRefBS.obj
 0001:00062c60       ?is_java_klass@ciObject@@UAE_NXZ 08063c60 f i ciKlass.obj
 0001:00062c60       ?performs_in_place_marking@DefNewGeneration@@UBE_NXZ 08063c60 f i asParNewGeneration.obj
 0001:00062c60       ?get_page_info@os@@SA_NPADPAUpage_info@1@@Z 08063c60 f i os_windows.obj
 0001:00062c60       ?is_safepoint_stub@CodeBlob@@UBE_NXZ 08063c60 f i codeBlob.obj
 0001:00062c60       ?is_java_object@ciObject@@UAE_NXZ 08063c60 f i ciArrayKlass.obj
 0001:00062c60       ?oop_is_constMethod@Klass@@UBE_NXZ 08063c60 f i arrayKlassKlass.obj
 0001:00062c60       ?is_zombie@CodeBlob@@UBE_NXZ 08063c60 f i codeBlob.obj
 0001:00062c60       ?must_be_oldest@CMSPermGenGen@@UBE_NXZ 08063c60 f i cmsPermGen.obj
 0001:00062c60       ?is_call_site@ciObject@@UBE_NXZ 08063c60 f i ciArrayKlass.obj
 0001:00062c60       ?is_range_check_stub@CodeStub@@UBE_NXZ 08063c60 f i c1_CodeStubs_x86.obj
 0001:00062c60       ?is_init_trigger@AttachListener@@SA_NXZ 08063c60 f i attachListener_windows.obj
 0001:00062c60       ?is_interpreted@ProfilerNode@@UBE_NXZ 08063c60 f i fprofiler.obj
 0001:00062c60       ?is_compiled_by_c2@CodeBlob@@UBE_NXZ 08063c60 f i codeBlob.obj
 0001:00062c60       ?is_java_frame@vframe@@UBE_NXZ 08063c60 f i vframe.obj
 0001:00062c60       ?is_method@ciObject@@UAE_NXZ 08063c60 f i ciArrayKlass.obj
 0001:00062c60       ?is_Named_thread@Thread@@UBE_NXZ 08063c60 f i concurrentGCThread.obj
 0001:00062c60       ?supports_inline_contig_alloc@CollectedHeap@@UBE_NXZ 08063c60 f i collectedHeap.obj
 0001:00062c60       ?is_RetData@ProfileData@@UAE_NXZ 08063c60 f i ciMethodData.obj
 0001:00062c60       ?is_VM_thread@Thread@@UBE_NXZ 08063c60 f i concurrentG1RefineThread.obj
 0001:00062c60       ?is_interface@ciKlass@@UAE_NXZ 08063c60 f i ciArrayKlass.obj
 0001:00062c60       ?is_obj_array_klass@ciObject@@UAE_NXZ 08063c60 f i ciArrayKlass.obj
 0001:00062c60       ?can_elide_tlab_store_barriers@G1CollectedHeap@@UBE_NXZ 08063c60 f i g1CollectedHeap.obj
 0001:00062c60       ?reading@WriteClosure@@UBE_NXZ 08063c60 f i dump.obj
 0001:00062c60       ?is_array@ciObject@@UAE_NXZ 08063c60 f i ciArrayKlass.obj
 0001:00062c60       ?supports_vtime@os@@SA_NXZ 08063c60 f i os_windows.obj
 0001:00062c60       ?has_soft_ended_eden@CollectorPolicy@@UAE_NXZ 08063c60 f i cmsCollectorPolicy.obj
 0001:00062c60       ?is_MultiBranchData@ProfileData@@UAE_NXZ 08063c60 f i ciMethodData.obj
 0001:00062c70       ?is_classless@ciType@@UBE_NXZ 08063c70 f i ciArrayKlass.obj
 0001:00062c90       ?as_AddressType@ValueType@@UAEPAVAddressType@@XZ 08063c90 f i c1_Canonicalizer.obj
 0001:00062c90       ?hash@Instruction@@UBEHXZ  08063c90 f i c1_Canonicalizer.obj
 0001:00062c90       ?as_VoidType@ValueType@@UAEPAVVoidType@@XZ 08063c90 f i c1_Canonicalizer.obj
 0001:00062c90       ?declared_type@Instruction@@UBEPAVciType@@XZ 08063c90 f i c1_Canonicalizer.obj
 0001:00062c90       ?kind@MemoryManager@@UAE?AW4Name@1@XZ 08063c90 f i memoryManager.obj
 0001:00062c90       ?as_BlockBegin@Instruction@@UAEPAVBlockBegin@@XZ 08063c90 f i c1_Canonicalizer.obj
 0001:00062c90       ?kind@GCStats@@UAE?AW4Name@1@XZ 08063c90 f i gcStats.obj
 0001:00062c90       ?as_RoundFP@Instruction@@UAEPAVRoundFP@@XZ 08063c90 f i c1_Canonicalizer.obj
 0001:00062c90       ?as_MonitorExit@Instruction@@UAEPAVMonitorExit@@XZ 08063c90 f i c1_Canonicalizer.obj
 0001:00062c90       ?as_FloatConstant@ValueType@@UAEPAVFloatConstant@@XZ 08063c90 f i c1_Canonicalizer.obj
 0001:00062c90       ?rem_set_name@G1CollectorPolicy@@UAE?AW4Name@GenRemSet@@XZ 08063c90 f i g1CollectorPolicy.obj
 0001:00062c90       ?java_super@Klass@@UBEPAVklassOopDesc@@XZ 08063c90 f i arrayKlassKlass.obj
 0001:00062c90       ?as_OpCompareAndSwap@LIR_Op@@UAEPAVLIR_OpCompareAndSwap@@XZ 08063c90 f i c1_LIR.obj
 0001:00062c90       ?as_IntType@ValueType@@UAEPAVIntType@@XZ 08063c90 f i c1_Canonicalizer.obj
 0001:00062c90       ?protection_domain_handle@ciKlass@@MAEPAV_jobject@@XZ 08063c90 f i ciArrayKlass.obj
 0001:00062c90       ?as_AccessArray@Instruction@@UAEPAVAccessArray@@XZ 08063c90 f i c1_Canonicalizer.obj
 0001:00062c90       ?as_ArithmeticOp@Instruction@@UAEPAVArithmeticOp@@XZ 08063c90 f i c1_Canonicalizer.obj
 0001:00062c90       ?as_OsrEntry@Instruction@@UAEPAVOsrEntry@@XZ 08063c90 f i c1_Canonicalizer.obj
 0001:00062c90       ?as_OpAllocObj@LIR_Op@@UAEPAVLIR_OpAllocObj@@XZ 08063c90 f i c1_LIR.obj
 0001:00062c90       ?as_OpCall@LIR_Op@@UAEPAVLIR_OpCall@@XZ 08063c90 f i c1_LIR.obj
 0001:00062c90       ?as_NewMultiArray@Instruction@@UAEPAVNewMultiArray@@XZ 08063c90 f i c1_Canonicalizer.obj
 0001:00062c90       ?as_ClassConstant@ValueType@@UAEPAVClassConstant@@XZ 08063c90 f i c1_Canonicalizer.obj
 0001:00062c90       ?as_TypeCheck@Instruction@@UAEPAVTypeCheck@@XZ 08063c90 f i c1_Canonicalizer.obj
 0001:00062c90       ?as_CheckCast@Instruction@@UAEPAVCheckCast@@XZ 08063c90 f i c1_Canonicalizer.obj
 0001:00062c90       ?as_OpLabel@LIR_Op@@UAEPAVLIR_OpLabel@@XZ 08063c90 f i c1_LIR.obj
 0001:00062c90       ?as_OpJavaCall@LIR_Op@@UAEPAVLIR_OpJavaCall@@XZ 08063c90 f i c1_LIR.obj
 0001:00062c90       ?as_ExceptionObject@Instruction@@UAEPAVExceptionObject@@XZ 08063c90 f i c1_Canonicalizer.obj
 0001:00062c90       ?toContiguousSpace@Space@@UAEPAVContiguousSpace@@XZ 08063c90 f i compactibleFreeListSpace.obj
 0001:00062c90       ?method@adapterNode@@UAEPAVmethodOopDesc@@XZ 08063c90 f i fprofiler.obj
 0001:00062c90       ?as_OpProfileCall@LIR_Op@@UAEPAVLIR_OpProfileCall@@XZ 08063c90 f i c1_LIR.obj
 0001:00062c90       ?as_CompareOp@Instruction@@UAEPAVCompareOp@@XZ 08063c90 f i c1_Canonicalizer.obj
 0001:00062c90       ?loader_handle@ciKlass@@MAEPAV_jobject@@XZ 08063c90 f i ciArrayKlass.obj
 0001:00062c90       ?name@LIR_Op@@UBEPBDXZ     08063c90 f i c1_LIR.obj
 0001:00062c90       ?as_Op2@LIR_Op@@UAEPAVLIR_Op2@@XZ 08063c90 f i c1_LIR.obj
 0001:00062c90       ?as_g1_policy@CollectorPolicy@@UAEPAVG1CollectorPolicy@@XZ 08063c90 f i cmsCollectorPolicy.obj
 0001:00062c90       ?as_NewObjectArray@Instruction@@UAEPAVNewObjectArray@@XZ 08063c90 f i c1_Canonicalizer.obj
 0001:00062c90       ?as_Op2@Instruction@@UAEPAVOp2@@XZ 08063c90 f i c1_Canonicalizer.obj
 0001:00062c90       ?as_HiWord@Instruction@@UAEPAVHiWord@@XZ 08063c90 f i c1_Canonicalizer.obj
 0001:00062c90       ?top_addr@Generation@@UBEPAPAVHeapWord@@XZ 08063c90 f i cmsPermGen.obj
 0001:00062c90       ?main_body_summary@PauseSummary@@UAEPAVMainBodySummary@@XZ 08063c90 f i g1CollectorPolicy.obj
 0001:00062c90       ?as_ShiftOp@Instruction@@UAEPAVShiftOp@@XZ 08063c90 f i c1_Canonicalizer.obj
 0001:00062c90       ?as_ObjectType@ValueType@@UAEPAVObjectType@@XZ 08063c90 f i c1_Canonicalizer.obj
 0001:00062c90       ?as_generation_policy@CollectorPolicy@@UAEPAVGenCollectorPolicy@@XZ 08063c90 f i cmsCollectorPolicy.obj
 0001:00062c90       ?as_LoadField@Instruction@@UAEPAVLoadField@@XZ 08063c90 f i c1_Canonicalizer.obj
 0001:00062c90       ?as_NullCheck@Instruction@@UAEPAVNullCheck@@XZ 08063c90 f i c1_Canonicalizer.obj
 0001:00062c90       ?as_IntConstant@ValueType@@UAEPAVIntConstant@@XZ 08063c90 f i c1_Canonicalizer.obj
 0001:00062c90       ?as_Local@Instruction@@UAEPAVLocal@@XZ 08063c90 f i c1_Canonicalizer.obj
 0001:00062c90       ?type@Relocation@@UAE?AW4relocType@relocInfo@@XZ 08063c90 f i assembler_windows_x86.obj
 0001:00062c90       ?protection_domain@Klass@@UAEPAVoopDesc@@XZ 08063c90 f i arrayKlassKlass.obj
 0001:00062c90       ?as_OpRoundFP@LIR_Op@@UAEPAVLIR_OpRoundFP@@XZ 08063c90 f i c1_LIR.obj
 0001:00062c90       ?size_policy@G1CollectedHeap@@UAEPAVAdaptiveSizePolicy@@XZ 08063c90 f i g1CollectedHeap.obj
 0001:00062c90       ?as_LongConstant@ValueType@@UAEPAVLongConstant@@XZ 08063c90 f i c1_Canonicalizer.obj
 0001:00062c90       ?as_LongType@ValueType@@UAEPAVLongType@@XZ 08063c90 f i c1_Canonicalizer.obj
 0001:00062c90       ?exact_type@Instruction@@UBEPAVciType@@XZ 08063c90 f i c1_Canonicalizer.obj
 0001:00062c90       ?as_NewInstance@Instruction@@UAEPAVNewInstance@@XZ 08063c90 f i c1_Canonicalizer.obj
 0001:00062c90       ?as_StoreIndexed@Instruction@@UAEPAVStoreIndexed@@XZ 08063c90 f i c1_Canonicalizer.obj
 0001:00062c90       ?rem_set_name@TwoGenerationCollectorPolicy@@UAE?AW4Name@GenRemSet@@XZ 08063c90 f i cmsCollectorPolicy.obj
 0001:00062c90       ?as_OpBranch@LIR_Op@@UAEPAVLIR_OpBranch@@XZ 08063c90 f i c1_LIR.obj
 0001:00062c90       ?offset@DataRelocation@@UAEHXZ 08063c90 f i assembler_x86.obj
 0001:00062c90       ?as_TableSwitch@Instruction@@UAEPAVTableSwitch@@XZ 08063c90 f i c1_Canonicalizer.obj
 0001:00062c90       ?as_InstanceType@ValueType@@UAEPAVInstanceType@@XZ 08063c90 f i c1_Canonicalizer.obj
 0001:00062c90       ?kind@ASParNewGeneration@@UAE?AW4Name@Generation@@XZ 08063c90 f i asParNewGeneration.obj
 0001:00062c90       ?as_address@LIR_OprPtr@@UAEPAVLIR_Address@@XZ 08063c90 f i c1_FrameMap_x86.obj
 0001:00062c90       ?evaluation_mode@VM_Operation@@UBE?AW4Mode@1@XZ 08063c90 f i attachListener.obj
 0001:00062c90       ?as_MonitorEnter@Instruction@@UAEPAVMonitorEnter@@XZ 08063c90 f i c1_Canonicalizer.obj
 0001:00062c90       ?as_LogicOp@Instruction@@UAEPAVLogicOp@@XZ 08063c90 f i c1_Canonicalizer.obj
 0001:00062c90       ?as_ClassType@ValueType@@UAEPAVClassType@@XZ 08063c90 f i c1_Canonicalizer.obj
 0001:00062c90       ?as_Invoke@Instruction@@UAEPAVInvoke@@XZ 08063c90 f i c1_Canonicalizer.obj
 0001:00062c90       ?as_LookupSwitch@Instruction@@UAEPAVLookupSwitch@@XZ 08063c90 f i c1_Canonicalizer.obj
 0001:00062c90       ?as_InstanceOf@Instruction@@UAEPAVInstanceOf@@XZ 08063c90 f i c1_Canonicalizer.obj
 0001:00062c90       ?as_OpTypeCheck@LIR_Op@@UAEPAVLIR_OpTypeCheck@@XZ 08063c90 f i c1_LIR.obj
 0001:00062c90       ?jvmti_class_status@Klass@@UBEHXZ 08063c90 f i klass.obj
 0001:00062c90       ?as_OpArrayCopy@LIR_Op@@UAEPAVLIR_OpArrayCopy@@XZ 08063c90 f i c1_LIR.obj
 0001:00062c90       ?as_ArrayLength@Instruction@@UAEPAVArrayLength@@XZ 08063c90 f i c1_Canonicalizer.obj
 0001:00062c90       ?loader@ciKlass@@MAEPAVoopDesc@@XZ 08063c90 f i ciArrayKlass.obj
 0001:00062c90       ?as_InstanceConstant@ValueType@@UAEPAVInstanceConstant@@XZ 08063c90 f i c1_Canonicalizer.obj
 0001:00062c90       ?as_ObjectConstant@ValueType@@UAEPAVObjectConstant@@XZ 08063c90 f i c1_Canonicalizer.obj
 0001:00062c90       ?as_NewArray@Instruction@@UAEPAVNewArray@@XZ 08063c90 f i c1_Canonicalizer.obj
 0001:00062c90       ?name@LIR_Op1@@UBEPBDXZ    08063c90 f i c1_LIR.obj
 0001:00062c90       ?as_If@Instruction@@UAEPAVIf@@XZ 08063c90 f i c1_Canonicalizer.obj
 0001:00062c90       ?as_IllegalType@ValueType@@UAEPAVIllegalType@@XZ 08063c90 f i c1_Canonicalizer.obj
 0001:00062c90       ?as_ArrayConstant@ValueType@@UAEPAVArrayConstant@@XZ 08063c90 f i c1_Canonicalizer.obj
 0001:00062c90       ?info@CodeStub@@UBEPAVCodeEmitInfo@@XZ 08063c90 f i c1_CodeStubs_x86.obj
 0001:00062c90       ?cell_count@BitData@@UAEHXZ 08063c90 f i ciMethodData.obj
 0001:00062c90       ?as_Return@Instruction@@UAEPAVReturn@@XZ 08063c90 f i c1_Canonicalizer.obj
 0001:00062c90       ?as_OpRTCall@LIR_Op@@UAEPAVLIR_OpRTCall@@XZ 08063c90 f i c1_LIR.obj
 0001:00062c90       ?protection_domain@ciKlass@@MAEPAVoopDesc@@XZ 08063c90 f i ciArrayKlass.obj
 0001:00062c90       ?as_Base@Instruction@@UAEPAVBase@@XZ 08063c90 f i c1_Canonicalizer.obj
 0001:00062c90       ?as_CardTableRS@GenRemSet@@UAEPAVCardTableRS@@XZ 08063c90 f i cardTableRS.obj
 0001:00062c90       ?method@vmNode@@UAEPAVmethodOopDesc@@XZ 08063c90 f i fprofiler.obj
 0001:00062c90       ?as_IfOp@Instruction@@UAEPAVIfOp@@XZ 08063c90 f i c1_Canonicalizer.obj
 0001:00062c90       ?method@runtimeStubNode@@UAEPAVmethodOopDesc@@XZ 08063c90 f i fprofiler.obj
 0001:00062c90       ?as_IfInstanceOf@Instruction@@UAEPAVIfInstanceOf@@XZ 08063c90 f i c1_Canonicalizer.obj
 0001:00062c90       ?as_NewTypeArray@Instruction@@UAEPAVNewTypeArray@@XZ 08063c90 f i c1_Canonicalizer.obj
 0001:00062c90       ?as_Convert@Instruction@@UAEPAVConvert@@XZ 08063c90 f i c1_Canonicalizer.obj
 0001:00062c90       ?as_two_generation_policy@CollectorPolicy@@UAEPAVTwoGenerationCollectorPolicy@@XZ 08063c90 f i cmsCollectorPolicy.obj
 0001:00062c90       ?as_StateSplit@Instruction@@UAEPAVStateSplit@@XZ 08063c90 f i c1_Canonicalizer.obj
 0001:00062c90       ?as_OpConvert@LIR_Op@@UAEPAVLIR_OpConvert@@XZ 08063c90 f i c1_LIR.obj
 0001:00062c90       ?pd_find_operation@AttachListener@@SAPAUAttachOperationFunctionInfo@@PBD@Z 08063c90 f i attachListener_windows.obj
 0001:00062c90       ?as_Op1@LIR_Op@@UAEPAVLIR_Op1@@XZ 08063c90 f i c1_LIR.obj
 0001:00062c90       ?kind@CollectorPolicy@@UAE?AW4Name@1@XZ 08063c90 f i cmsCollectorPolicy.obj
 0001:00062c90       ?vtable@Klass@@UBEPAVklassVtable@@XZ 08063c90 f i arrayKlassKlass.obj
 0001:00062c90       ?minimum_free_block_size@ContiguousSpace@@UBEIXZ 08063c90 f i compactingPermGenGen.obj
 0001:00062c90       ?as_OpLock@LIR_Op@@UAEPAVLIR_OpLock@@XZ 08063c90 f i c1_LIR.obj
 0001:00062c90       ?as_Throw@Instruction@@UAEPAVThrow@@XZ 08063c90 f i c1_Canonicalizer.obj
 0001:00062c90       ?as_Phi@Instruction@@UAEPAVPhi@@XZ 08063c90 f i c1_Canonicalizer.obj
 0001:00062c90       ?as_DoubleType@ValueType@@UAEPAVDoubleType@@XZ 08063c90 f i c1_Canonicalizer.obj
 0001:00062c90       ?out_preserve_stack_slots@SharedRuntime@@SAIXZ 08063c90 f i sharedRuntime_x86_32.obj
 0001:00062c90       ?as_Constant@Instruction@@UAEPAVConstant@@XZ 08063c90 f i c1_Canonicalizer.obj
 0001:00062c90       ?as_FloatType@ValueType@@UAEPAVFloatType@@XZ 08063c90 f i c1_Canonicalizer.obj
 0001:00062c90       ?preferred_heap_base@Universe@@SAPADIW4NARROW_OOP_MODE@1@@Z 08063c90 f i universe.obj
 0001:00062c90       ?as_DoubleConstant@ValueType@@UAEPAVDoubleConstant@@XZ 08063c90 f i c1_Canonicalizer.obj
 0001:00062c90       ?as_UnsafeOp@Instruction@@UAEPAVUnsafeOp@@XZ 08063c90 f i c1_Canonicalizer.obj
 0001:00062c90       ?as_AccessField@Instruction@@UAEPAVAccessField@@XZ 08063c90 f i c1_Canonicalizer.obj
 0001:00062c90       ?as_Op3@LIR_Op@@UAEPAVLIR_Op3@@XZ 08063c90 f i c1_LIR.obj
 0001:00062c90       ?numa_get_group_id@os@@SAHXZ 08063c90 f i os_windows.obj
 0001:00062c90       ?capacity_before_gc@Generation@@UBEIXZ 08063c90 f i cmsPermGen.obj
 0001:00062c90       ?as_OpAllocArray@LIR_Op@@UAEPAVLIR_OpAllocArray@@XZ 08063c90 f i c1_LIR.obj
 0001:00062c90       ?method@unknown_compiledNode@@UAEPAVmethodOopDesc@@XZ 08063c90 f i fprofiler.obj
 0001:00062c90       ?as_NegateOp@Instruction@@UAEPAVNegateOp@@XZ 08063c90 f i c1_Canonicalizer.obj
 0001:00062c90       ?type@VM_Dummy@@EBE?AW4VMOp_Type@VM_Operation@@XZ 08063c90 f i vmThread.obj
 0001:00062c90       ?allowed_dead_ratio@CompactibleSpace@@UBEIXZ 08063c90 f i compactibleFreeListSpace.obj
 0001:00062c90       ?as_AccessIndexed@Instruction@@UAEPAVAccessIndexed@@XZ 08063c90 f i c1_Canonicalizer.obj
 0001:00062c90       ?as_Intrinsic@Instruction@@UAEPAVIntrinsic@@XZ 08063c90 f i c1_Canonicalizer.obj
 0001:00062c90       ?as_LoadIndexed@Instruction@@UAEPAVLoadIndexed@@XZ 08063c90 f i c1_Canonicalizer.obj
 0001:00062c90       ?end_addr@Generation@@UBEPAPAVHeapWord@@XZ 08063c90 f i cmsPermGen.obj
 0001:00062c90       ?as_concurrent_mark_sweep_policy@CollectorPolicy@@UAEPAVConcurrentMarkSweepPolicy@@XZ 08063c90 f i cmsCollectorPolicy.obj
 0001:00062c90       ?as_StoreField@Instruction@@UAEPAVStoreField@@XZ 08063c90 f i c1_Canonicalizer.obj
 0001:00062c90       ?kind@AdaptiveSizePolicy@@MBE?AW4GCPolicyKind@1@XZ 08063c90 f i adaptiveSizePolicy.obj
 0001:00062c90       ?as_AddressConstant@ValueType@@UAEPAVAddressConstant@@XZ 08063c90 f i c1_Canonicalizer.obj
 0001:00062c90       ?class_loader@Klass@@UBEPAVoopDesc@@XZ 08063c90 f i arrayKlassKlass.obj
 0001:00062c90       ?rs_kind@CardTableRS@@UAE?AW4Name@GenRemSet@@XZ 08063c90 f i cardTableRS.obj
 0001:00062c90       ?as_BlockEnd@Instruction@@UAEPAVBlockEnd@@XZ 08063c90 f i c1_Canonicalizer.obj
 0001:00062c90       ?as_constant@LIR_OprPtr@@UAEPAVLIR_Const@@XZ 08063c90 f i c1_FrameMap_x86.obj
 0001:00062c90       ?kind@CollectedHeap@@UBE?AW4Name@1@XZ 08063c90 f i collectedHeap.obj
 0001:00062c90       ?as_Op0@LIR_Op@@UAEPAVLIR_Op0@@XZ 08063c90 f i c1_LIR.obj
 0001:00062c90       ?as_ArrayType@ValueType@@UAEPAVArrayType@@XZ 08063c90 f i c1_Canonicalizer.obj
 0001:00062c90       ?as_HRInto_G1RemSet@G1RemSet@@UAEPAVHRInto_G1RemSet@@XZ 08063c90 f i g1CollectedHeap.obj
 0001:00062c90       ?lock_stack@Instruction@@UBEPAVValueStack@@XZ 08063c90 f i c1_Canonicalizer.obj
 0001:00062c90       ?as_AccessMonitor@Instruction@@UAEPAVAccessMonitor@@XZ 08063c90 f i c1_Canonicalizer.obj
 0001:00062c90       ?as_mark_sweep_policy@CollectorPolicy@@UAEPAVMarkSweepPolicy@@XZ 08063c90 f i cmsCollectorPolicy.obj
 0001:00062c90       ?as_OpDelay@LIR_Op@@UAEPAVLIR_OpDelay@@XZ 08063c90 f i c1_LIR.obj
 0001:00062c90       ?as_Goto@Instruction@@UAEPAVGoto@@XZ 08063c90 f i c1_Canonicalizer.obj
 0001:00062ca0       ?type_string@ciArrayKlass@@MAEPBDXZ 08063ca0 f i ciArrayKlass.obj
 0001:00062cb0       ??0ciArrayKlass@@IAE@VKlassHandle@@@Z 08063cb0 f   ciArrayKlass.obj
 0001:00062ce0       ?element_type@ciArrayKlass@@QAEPAVciType@@XZ 08063ce0 f   ciArrayKlass.obj
 0001:00062d10       ?base_element_type@ciArrayKlass@@QAEPAVciType@@XZ 08063d10 f   ciArrayKlass.obj
 0001:00062d40       ?is_leaf_type@ciArrayKlass@@UAE_NXZ 08063d40 f   ciArrayKlass.obj
 0001:00062d60       ?get_object@ciEnv@@AAEPAVciObject@@PAVoopDesc@@@Z 08063d60 f i ciCallSite.obj
 0001:00062d80       ??2ResourceObj@@SAPAXIPAVArena@@@Z 08063d80 f i ciConstantPoolCache.obj
 0001:00062db0       ?find@ciConstantPoolCache@@AAEHH@Z 08063db0 f   ciConstantPoolCache.obj
 0001:00062df0       ??0ciConstantPoolCache@@QAE@PAVArena@@H@Z 08063df0 f   ciConstantPoolCache.obj
 0001:00062e90       ?get@ciConstantPoolCache@@QAEPAXH@Z 08063e90 f   ciConstantPoolCache.obj
 0001:00062ed0       ?insert@ciConstantPoolCache@@QAEXHPAX@Z 08063ed0 f   ciConstantPoolCache.obj
 0001:00063030       ?cache_dtrace_flags@ciEnv@@QAEXXZ 08064030 f   ciEnv.obj
 0001:00063070       ?double_at@constantPoolOopDesc@@QAENH@Z 08064070 f i ciEnv.obj
 0001:00063090       ?get_unloaded_klass@ciEnv@@AAEPAVciKlass@@PAV2@PAVciSymbol@@@Z 08064090 f i ciEnv.obj
 0001:000630b0       ?check_klass_accessibility@ciEnv@@AAE_NPAVciKlass@@PAVklassOopDesc@@@Z 080640b0 f   ciEnv.obj
 0001:00063120       ?get_field_by_index_impl@ciEnv@@AAEPAVciField@@PAVciInstanceKlass@@H@Z 08064120 f   ciEnv.obj
 0001:000631d0       ?name_buffer@ciEnv@@AAEPADH@Z 080641d0 f   ciEnv.obj
 0001:00063240       ?comp_level@ciEnv@@QAEHXZ  08064240 f   ciEnv.obj
 0001:00063260       ?notice_inlined_method@ciEnv@@QAEXPAVciMethod@@@Z 08064260 f   ciEnv.obj
 0001:00063270       ?record_failure@ciEnv@@QAEXPBD@Z 08064270 f   ciEnv.obj
 0001:000632a0       ?record_method_not_compilable@ciEnv@@QAEXPBD_N@Z 080642a0 f   ciEnv.obj
 0001:00063310       ?record_out_of_memory_failure@ciEnv@@QAEXXZ 08064310 f   ciEnv.obj
 0001:00063370       ?string_at@constantPoolOopDesc@@QAEPAVoopDesc@@HPAVThread@@@Z 08064370 f i ciEnv.obj
 0001:000633d0       ??0Handle@@QAE@PAVoopDesc@@@Z 080643d0 f i ciEnv.obj
 0001:00063430       ?new_symbol_handle@oopFactory@@SA?AVsymbolHandle@@PBDHPAVThread@@@Z 08064430 f i ciEnv.obj
 0001:00063460       ??0ciEnv@@QAE@PAVCompileTask@@H@Z 08064460 f   ciEnv.obj
 0001:00063590       ??0ciEnv@@QAE@PAVArena@@@Z 08064590 f   ciEnv.obj
 0001:00063670       ??1ciEnv@@QAE@XZ           08064670 f   ciEnv.obj
 0001:000636a0       ?cache_jvmti_state@ciEnv@@QAEXXZ 080646a0 f   ciEnv.obj
 0001:00063730       ?get_method_from_handle@ciEnv@@AAEPAVciMethod@@PAV_jobject@@@Z 08064730 f   ciEnv.obj
 0001:000637c0       ?get_klass_by_name_impl@ciEnv@@AAEPAVciKlass@@PAV2@PAVciSymbol@@_N@Z 080647c0 f   ciEnv.obj
 0001:00063af0       ?lookup_method@ciEnv@@AAEPAVmethodOopDesc@@PAVinstanceKlass@@0PAVsymbolOopDesc@@1W4Code@Bytecodes@@@Z 08064af0 f   ciEnv.obj
 0001:00063cd0       ?get_fake_invokedynamic_method_impl@ciEnv@@AAEPAVciMethod@@VconstantPoolHandle@@HW4Code@Bytecodes@@@Z 08064cd0 f   ciEnv.obj
 0001:00063da0       ?get_instance_klass_for_declared_method_holder@ciEnv@@SAPAVciInstanceKlass@@PAVciKlass@@@Z 08064da0 f   ciEnv.obj
 0001:00063df0       ?is_in_vm@ciEnv@@CA_NXZ    08064df0 f   ciEnv.obj
 0001:00063e10       ?check_for_system_dictionary_modification@ciEnv@@AAEXPAVciMethod@@@Z 08064e10 f   ciEnv.obj
 0001:00063ea0       ?register_method@ciEnv@@QAEXPAVciMethod@@HPAVCodeOffsets@@HPAVCodeBuffer@@HPAVOopMapSet@@PAVExceptionHandlerTable@@PAVImplicitExceptionTable@@PAVAbstractCompiler@@H_N7@Z 08064ea0 f   ciEnv.obj
 0001:00064280       ?get_klass_by_name@ciEnv@@AAEPAVciKlass@@PAV2@PAVciSymbol@@_N@Z 08065280 f   ciEnv.obj
 0001:00064330       ?get_field_by_index@ciEnv@@AAEPAVciField@@PAVciInstanceKlass@@H@Z 08065330 f   ciEnv.obj
 0001:000643d0       ?resolved_klass_at@constantPoolOopDesc@@QAEPAVklassOopDesc@@H@Z 080653d0 f i ciEnv.obj
 0001:00064410       ?get_klass_by_index_impl@ciEnv@@AAEPAVciKlass@@VconstantPoolHandle@@HAA_NPAVciInstanceKlass@@@Z 08065410 f   ciEnv.obj
 0001:00064680       ?get_klass_by_index@ciEnv@@AAEPAVciKlass@@VconstantPoolHandle@@HAA_NPAVciInstanceKlass@@@Z 08065680 f   ciEnv.obj
 0001:00064730       ?get_constant_by_index_impl@ciEnv@@AAE?AVciConstant@@VconstantPoolHandle@@HPAVciInstanceKlass@@@Z 08065730 f   ciEnv.obj
 0001:000648d0       ?get_constant_by_index@ciEnv@@AAE?AVciConstant@@VconstantPoolHandle@@HPAVciInstanceKlass@@@Z 080658d0 f   ciEnv.obj
 0001:00064980       ?get_method_by_index_impl@ciEnv@@AAEPAVciMethod@@VconstantPoolHandle@@HW4Code@Bytecodes@@PAVciInstanceKlass@@@Z 08065980 f   ciEnv.obj
 0001:00064a60       ?get_method_by_index@ciEnv@@AAEPAVciMethod@@VconstantPoolHandle@@HW4Code@Bytecodes@@PAVciInstanceKlass@@@Z 08065a60 f   ciEnv.obj
 0001:00064b80       ?obj_at@objArrayOopDesc@@QBEPAVoopDesc@@H@Z 08065b80 f i ciEnv.obj
 0001:00064b90       ?obj_at_put@objArrayOopDesc@@QAEXHPAVoopDesc@@@Z 08065b90 f i ciEnv.obj
 0001:00064bb0       ?catch_klass@ciExceptionHandler@@QAEPAVciInstanceKlass@@XZ 08065bb0 f   ciExceptionHandler.obj
 0001:00064d10       ?field_type@fieldDescriptor@@QBE?AW4BasicType@@XZ 08065d10 f i ciField.obj
 0001:00064d80       ?obj_field@oopDesc@@QBEPAV1@H@Z 08065d80 f i ciField.obj
 0001:00064d90       ?is_shared@ciField@@QAE_NXZ 08065d90 f i ciField.obj
 0001:00064db0       ?compute_type_impl@ciField@@AAEPAVciType@@XZ 08065db0 f   ciField.obj
 0001:00064e30       ?will_link@ciField@@QAE_NPAVciInstanceKlass@@W4Code@Bytecodes@@@Z 08065e30 f   ciField.obj
 0001:00064fc0       ?compute_type@ciField@@AAEPAVciType@@XZ 08065fc0 f   ciField.obj
 0001:00065040       ?initialize_from@ciField@@AAEXPAVfieldDescriptor@@@Z 08066040 f   ciField.obj
 0001:00065330       ??0ciField@@AAE@PAVciInstanceKlass@@H@Z 08066330 f   ciField.obj
 0001:00065580       ??0ciField@@AAE@PAVfieldDescriptor@@@Z 08066580 f   ciField.obj
 0001:00065660       ?print_klass_flags@ciFlags@@QAEXPAVoutputStream@@@Z 08066660 f   ciFlags.obj
 0001:000656f0       ?print_member_flags@ciFlags@@QAEXPAVoutputStream@@@Z 080666f0 f   ciFlags.obj
 0001:00065800       ?print_impl@ciInstance@@MAEXPAVoutputStream@@@Z 08066800 f   ciInstance.obj
 0001:00065830       ?loader_handle@ciInstanceKlass@@MAEPAV_jobject@@XZ 08066830 f   ciInstanceKlass.obj
 0001:00065840       ?protection_domain_handle@ciInstanceKlass@@MAEPAV_jobject@@XZ 08066840 f   ciInstanceKlass.obj
 0001:00065850       ?java_mirror@ciInstanceKlass@@UAEPAVciInstance@@XZ 08066850 f   ciInstanceKlass.obj
 0001:00065870       ??0ciInstanceKlass@@IAE@PAVciSymbol@@PAV_jobject@@1@Z 08066870 f   ciInstanceKlass.obj
 0001:000658d0       ?type_string@ciInstanceKlass@@MAEPBDXZ 080668d0 f i ciInstanceKlass.obj
 0001:000658e0       ?is_interface@ciInstanceKlass@@UAE_NXZ 080668e0 f i ciInstanceKlass.obj
 0001:000658f0       ?is_abstract@ciInstanceKlass@@UAE_NXZ 080668f0 f i ciInstanceKlass.obj
 0001:00065900       ?loader@ciInstanceKlass@@MAEPAVoopDesc@@XZ 08066900 f   ciInstanceKlass.obj
 0001:00065910       ?protection_domain@ciInstanceKlass@@MAEPAVoopDesc@@XZ 08066910 f   ciInstanceKlass.obj
 0001:00065920       ?is_in_package_impl@ciInstanceKlass@@IAE_NPBDH@Z 08066920 f   ciInstanceKlass.obj
 0001:000659b0       ?is_leaf_type@ciInstanceKlass@@UAE_NXZ 080669b0 f   ciInstanceKlass.obj
 0001:000659e0       ??0?$GrowableArray@PAVciType@@@@QAE@PAVArena@@HHABQAVciType@@@Z 080669e0 f i ciSignature.obj
 0001:000659e0       ??0?$GrowableArray@PAVciKlass@@@@QAE@PAVArena@@HHABQAVciKlass@@@Z 080669e0 f i ciObjectFactory.obj
 0001:000659e0       ??0?$GrowableArray@PAV_jobject@@@@QAE@PAVArena@@HHABQAV_jobject@@@Z 080669e0 f i oopRecorder.obj
 0001:000659e0       ??0?$GrowableArray@PAVciMethod@@@@QAE@PAVArena@@HHABQAVciMethod@@@Z 080669e0 f i ciObjectFactory.obj
 0001:000659e0       ??0?$GrowableArray@PAVciObject@@@@QAE@PAVArena@@HHABQAVciObject@@@Z 080669e0 f i ciObjectFactory.obj
 0001:000659e0       ??0?$GrowableArray@PAVBasicBlock@MethodLiveness@@@@QAE@PAVArena@@HHABQAVBasicBlock@MethodLiveness@@@Z 080669e0 f i methodLiveness.obj
 0001:000659e0       ??0?$GrowableArray@PAVciField@@@@QAE@PAVArena@@HHABQAVciField@@@Z 080669e0 f i ciInstanceKlass.obj
 0001:000659e0       ??0?$GrowableArray@H@@QAE@PAVArena@@HHABH@Z 080669e0 f i ciConstantPoolCache.obj
 0001:000659e0       ??0?$GrowableArray@PAVciReturnAddress@@@@QAE@PAVArena@@HHABQAVciReturnAddress@@@Z 080669e0 f i ciObjectFactory.obj
 0001:000659e0       ??0?$GrowableArray@PAX@@QAE@PAVArena@@HHABQAX@Z 080669e0 f i ciConstantPoolCache.obj
 0001:00065a50       ?compute_shared_is_initialized@ciInstanceKlass@@IAE_NXZ 08066a50 f   ciInstanceKlass.obj
 0001:00065af0       ?compute_shared_has_subklass@ciInstanceKlass@@IAE_NXZ 08066af0 f   ciInstanceKlass.obj
 0001:00065b90       ?compute_shared_nof_implementors@ciInstanceKlass@@IAEHXZ 08066b90 f   ciInstanceKlass.obj
 0001:00065c20       ?field_cache@ciInstanceKlass@@IAEPAVciConstantPoolCache@@XZ 08066c20 f   ciInstanceKlass.obj
 0001:00065c90       ?is_java_lang_Object@ciInstanceKlass@@UAE_NXZ 08066c90 f   ciInstanceKlass.obj
 0001:00065cb0       ?is_in_package@ciInstanceKlass@@QAE_NPBDH@Z 08066cb0 f   ciInstanceKlass.obj
 0001:00065d50       ?super@ciInstanceKlass@@QAEPAV1@XZ 08066d50 f   ciInstanceKlass.obj
 0001:00065e30       ?has_finalizable_subclass@ciInstanceKlass@@QAE_NXZ 08066e30 f   ciInstanceKlass.obj
 0001:00065ec0       ?implementor@ciInstanceKlass@@QAEPAV1@H@Z 08066ec0 f   ciInstanceKlass.obj
 0001:00065f80       ??0ciInstanceKlass@@IAE@VKlassHandle@@@Z 08066f80 f   ciInstanceKlass.obj
 0001:00066120       ?print_impl@ciInstanceKlass@@MAEXPAVoutputStream@@@Z 08067120 f   ciInstanceKlass.obj
 0001:000662f0       ?do_field@NonStaticFieldFiller@@UAEXPAVfieldDescriptor@@@Z 080672f0 f i ciInstanceKlass.obj
 0001:00066350       ?compute_nonstatic_fields_impl@ciInstanceKlass@@IAEPAV?$GrowableArray@PAVciField@@@@PAV2@@Z 08067350 f   ciInstanceKlass.obj
 0001:000664c0       ?compute_nonstatic_fields@ciInstanceKlass@@IAEHXZ 080674c0 f   ciInstanceKlass.obj
 0001:00066620       ?make@ciInstanceKlassKlass@@SAPAV1@XZ 08067620 f   ciInstanceKlassKlass.obj
 0001:00066640       ??0ciKlass@@IAE@VKlassHandle@@PAVciSymbol@@@Z 08067640 f   ciKlass.obj
 0001:00066670       ??0ciKlass@@IAE@PAVciSymbol@@PAV0@@Z 08067670 f   ciKlass.obj
 0001:000666a0       ?print_impl@ciKlass@@MAEXPAVoutputStream@@@Z 080676a0 f   ciKlass.obj
 0001:000666d0       ?type_string@ciKlass@@MAEPBDXZ 080676d0 f i ciKlass.obj
 0001:000666e0       ?print_name_on@ciKlass@@UAEXPAVoutputStream@@@Z 080676e0 f   ciKlass.obj
 0001:000666f0       ??0ciKlass@@QAE@VKlassHandle@@@Z 080676f0 f   ciKlass.obj
 0001:00066760       ?is_subtype_of@ciKlass@@QAE_NPAV1@@Z 08067760 f   ciKlass.obj
 0001:00066800       ?is_subclass_of@ciKlass@@QAE_NPAV1@@Z 08067800 f   ciKlass.obj
 0001:00066880       ?super_check_offset@ciKlass@@QAEIXZ 08067880 f   ciKlass.obj
 0001:000668f0       ?java_mirror@ciKlass@@UAEPAVciInstance@@XZ 080678f0 f   ciKlass.obj
 0001:000669d0       ?modifier_flags@ciKlass@@QAEHXZ 080679d0 f   ciKlass.obj
 0001:00066a60       ?do_object@G1IsAliveClosure@@UAEXPAVoopDesc@@@Z 08067a60 f i g1CollectedHeap.obj
 0001:00066a60       ?fill_init_vars@GeneratePairingInfo@@EAEXPAV?$GrowableArray@H@@@Z 08067a60 f i ciMethod.obj
 0001:00066a60       ?print_value_on@LIR_Address@@UBEXPAVoutputStream@@@Z 08067a60 f i c1_FrameMap_x86.obj
 0001:00066a60       ?do_object@CMSIsAliveClosure@@UAEXPAVoopDesc@@@Z 08067a60 f i concurrentMarkSweepGeneration.obj
 0001:00066a60       ?oop_iterate@ProfileData@@UAEXPAVOopClosure@@@Z 08067a60 f i ciMethodData.obj
 0001:00066a60       ?oop_follow_contents@typeArrayKlass@@UAEXPAVoopDesc@@@Z 08067a60 f i typeArrayKlass.obj
 0001:00066a60       ?do_BlockBegin@LIRGenerator@@UAEXPAVBlockBegin@@@Z 08067a60 f i c1_LIRGenerator_x86.obj
 0001:00066a60       ?print_value_on@CodeBlob@@UBEXPAVoutputStream@@@Z 08067a60 f i codeBlob.obj
 0001:00066a60       ?check_and_handle_earlyret@MacroAssembler@@MAEXPAVRegisterImpl@@@Z 08067a60 f i assembler_x86.obj
 0001:00066a60       ?do_NegateOp@NullCheckVisitor@@UAEXPAVNegateOp@@@Z 08067a60 f i c1_Optimizer.obj
 0001:00066a60       ?print_value_on@LIR_Const@@UBEXPAVoutputStream@@@Z 08067a60 f i c1_LIR.obj
 0001:00066a60       ?initialize@typeArrayKlass@@UAEXPAVThread@@@Z 08067a60 f i typeArrayKlass.obj
 0001:00066a60       ?set_lock_stack@Instruction@@UAEXPAVValueStack@@@Z 08067a60 f i c1_Canonicalizer.obj
 0001:00066a60       ?fill_stackmap_prolog@GeneratePairingInfo@@EAEXH@Z 08067a60 f i ciMethod.obj
 0001:00066a60       ?print_on@LIR_Op@@UBEXPAVoutputStream@@@Z 08067a60 f i c1_LIR.obj
 0001:00066a60       ?do_NewInstance@ValueNumberingVisitor@@MAEXPAVNewInstance@@@Z 08067a60 f i c1_GraphBuilder.obj
 0001:00066a60       ?verify@ConstantPoolCacheEntry@@QBEXPAVoutputStream@@@Z 08067a60 f i cpCacheOop.obj
 0001:00066a60       ?do_NewMultiArray@Canonicalizer@@UAEXPAVNewMultiArray@@@Z 08067a60 f i c1_Canonicalizer.obj
 0001:00066a60       ?print_instr@LIR_Op0@@UBEXPAVoutputStream@@@Z 08067a60 f i c1_LIRGenerator.obj
 0001:00066a60       ?do_RoundFP@NullCheckVisitor@@UAEXPAVRoundFP@@@Z 08067a60 f i c1_Optimizer.obj
 0001:00066a60       ?verify@ICStubInterface@@UAEXPAVStub@@@Z 08067a60 f i icBuffer.obj
 0001:00066a60       ?do_LogicOp@ValueNumberingVisitor@@MAEXPAVLogicOp@@@Z 08067a60 f i c1_GraphBuilder.obj
 0001:00066a60       ?do_ShiftOp@ValueNumberingVisitor@@MAEXPAVShiftOp@@@Z 08067a60 f i c1_GraphBuilder.obj
 0001:00066a60       ?follow_contents@ProfileData@@UAEXPAVParCompactionManager@@@Z 08067a60 f i ciMethodData.obj
 0001:00066a60       ?input_values_do@Local@@UAEXP6AXPAPAVInstruction@@@Z@Z 08067a60 f i c1_GraphBuilder.obj
 0001:00066a60       ?remember_mdo@OopClosure@@UAEXPAVDataLayout@@@Z 08067a60 f i cardTableExtension.obj
 0001:00066a60       ?input_values_do@Constant@@UAEXP6AXPAPAVInstruction@@@Z@Z 08067a60 f i c1_Canonicalizer.obj
 0001:00066a60       ?do_IfOp@ValueNumberingVisitor@@MAEXPAVIfOp@@@Z 08067a60 f i c1_GraphBuilder.obj
 0001:00066a60       ?do_TableSwitch@NullCheckVisitor@@UAEXPAVTableSwitch@@@Z 08067a60 f i c1_Optimizer.obj
 0001:00066a60       ?gc_prologue@Generation@@UAEX_N@Z 08067a60 f i compactingPermGenGen.obj
 0001:00066a60       ?do_IfInstanceOf@Canonicalizer@@UAEXPAVIfInstanceOf@@@Z 08067a60 f i c1_Canonicalizer.obj
 0001:00066a60       ?print_instr@LIR_OpLabel@@UBEXPAVoutputStream@@@Z 08067a60 f i c1_LIRGenerator.obj
 0001:00066a60       ?do_Goto@NullCheckVisitor@@UAEXPAVGoto@@@Z 08067a60 f i c1_Optimizer.obj
 0001:00066a60       ?input_values_do@OsrEntry@@UAEXP6AXPAPAVInstruction@@@Z@Z 08067a60 f i c1_GraphBuilder.obj
 0001:00066a60       ?remember_klass@OopClosure@@UAEXPAVKlass@@@Z 08067a60 f i cardTableExtension.obj
 0001:00066a60       ?do_UnsafePutObject@NullCheckVisitor@@UAEXPAVUnsafePutObject@@@Z 08067a60 f i c1_Optimizer.obj
 0001:00066a60       ?par_oop_since_save_marks_iterate_done@Generation@@UAEXH@Z 08067a60 f i asParNewGeneration.obj
 0001:00066a60       ?oop_set_partially_loaded@Klass@@UAEXPAVoopDesc@@@Z 08067a60 f i arrayKlassKlass.obj
 0001:00066a60       ?do_ArrayLength@ValueNumberingVisitor@@MAEXPAVArrayLength@@@Z 08067a60 f i c1_GraphBuilder.obj
 0001:00066a60       ?do_NewMultiArray@ValueNumberingVisitor@@MAEXPAVNewMultiArray@@@Z 08067a60 f i c1_GraphBuilder.obj
 0001:00066a60       ?read_ref_field@ModRefBarrierSet@@UAEXPAX@Z 08067a60 f i cardTableModRefBS.obj
 0001:00066a60       ?do_Constant@Canonicalizer@@UAEXPAVConstant@@@Z 08067a60 f i c1_Canonicalizer.obj
 0001:00066a60       ?print_instr@LIR_OpLock@@UBEXPAVoutputStream@@@Z 08067a60 f i c1_LIR.obj
 0001:00066a60       ?do_NewTypeArray@ValueNumberingVisitor@@MAEXPAVNewTypeArray@@@Z 08067a60 f i c1_GraphBuilder.obj
 0001:00066a60       ?do_Constant@ValueNumberingVisitor@@MAEXPAVConstant@@@Z 08067a60 f i c1_GraphBuilder.obj
 0001:00066a60       ?print_address_on@oopDesc@@QBEXPAVoutputStream@@@Z 08067a60 f i oop.obj
 0001:00066a60       ?do_OsrEntry@NullCheckVisitor@@UAEXPAVOsrEntry@@@Z 08067a60 f i c1_Optimizer.obj
 0001:00066a60       ?input_values_do@ExceptionObject@@UAEXP6AXPAPAVInstruction@@@Z@Z 08067a60 f i c1_GraphBuilder.obj
 0001:00066a60       ?do_Local@Canonicalizer@@UAEXPAVLocal@@@Z 08067a60 f i c1_Canonicalizer.obj
 0001:00066a60       ?fill_init_vars@OopMapForCacheEntry@@EAEXPAV?$GrowableArray@H@@@Z 08067a60 f i oopMapCache.obj
 0001:00066a60       ?do_InstanceOf@NullCheckVisitor@@UAEXPAVInstanceOf@@@Z 08067a60 f i c1_Optimizer.obj
 0001:00066a60       ?do_NegateOp@ValueNumberingVisitor@@MAEXPAVNegateOp@@@Z 08067a60 f i c1_GraphBuilder.obj
 0001:00066a60       ?do_ShiftOp@NullCheckVisitor@@UAEXPAVShiftOp@@@Z 08067a60 f i c1_Optimizer.obj
 0001:00066a60       ?do_BlockBegin@NullCheckVisitor@@UAEXPAVBlockBegin@@@Z 08067a60 f i c1_Optimizer.obj
 0001:00066a60       ?print_value_on@SingletonBlob@@UBEXPAVoutputStream@@@Z 08067a60 f i codeBlob.obj
 0001:00066a60       ?do_Phi@Canonicalizer@@UAEXPAVPhi@@@Z 08067a60 f i c1_Canonicalizer.obj
 0001:00066a60       ?do_oop@AssertIsPermClosure@@UAEXPAPAVoopDesc@@@Z 08067a60 f i genCollectedHeap.obj
 0001:00066a60       ?do_Return@ValueNumberingVisitor@@MAEXPAVReturn@@@Z 08067a60 f i c1_GraphBuilder.obj
 0001:00066a60       ?eager_initialize@instanceKlass@@QAEXPAVThread@@@Z 08067a60 f i instanceKlass.obj
 0001:00066a60       ?do_UnsafePrefetchRead@NullCheckVisitor@@UAEXPAVUnsafePrefetchRead@@@Z 08067a60 f i c1_Optimizer.obj
 0001:00066a60       ?do_NewTypeArray@Canonicalizer@@UAEXPAVNewTypeArray@@@Z 08067a60 f i c1_Canonicalizer.obj
 0001:00066a60       ?oops_do@BufferBlob@@UAEXPAVOopClosure@@@Z 08067a60 f i codeBlob.obj
 0001:00066a60       ?do_NullCheck@ValueNumberingVisitor@@MAEXPAVNullCheck@@@Z 08067a60 f i c1_GraphBuilder.obj
 0001:00066a60       ?note_change_in_marked_bytes@G1CollectorPolicy_BestRegionsFirst@@UAEXPAVHeapRegion@@@Z 08067a60 f i universe.obj
 0001:00066a60       ?do_CheckCast@NullCheckVisitor@@UAEXPAVCheckCast@@@Z 08067a60 f i c1_Optimizer.obj
 0001:00066a60       ?do_NewObjectArray@Canonicalizer@@UAEXPAVNewObjectArray@@@Z 08067a60 f i c1_Canonicalizer.obj
 0001:00066a60       ?remember_mdo@Par_PushAndMarkClosure@@UAEXPAVDataLayout@@@Z 08067a60 f i concurrentMarkSweepGeneration.obj
 0001:00066a60       ?oops_do@vmNode@@UAEXPAVOopClosure@@@Z 08067a60 f i fprofiler.obj
 0001:00066a60       ?do_ProfileCounter@NullCheckVisitor@@UAEXPAVProfileCounter@@@Z 08067a60 f i c1_Optimizer.obj
 0001:00066a60       ?do_UnsafeGetObject@NullCheckVisitor@@UAEXPAVUnsafeGetObject@@@Z 08067a60 f i c1_Optimizer.obj
 0001:00066a60       ?oops_do@DeoptimizationBlob@@UAEXPAVOopClosure@@@Z 08067a60 f i codeBlob.obj
 0001:00066a60       ?do_Base@Canonicalizer@@UAEXPAVBase@@@Z 08067a60 f i c1_Canonicalizer.obj
 0001:00066a60       ?do_CheckCast@ValueNumberingVisitor@@MAEXPAVCheckCast@@@Z 08067a60 f i c1_GraphBuilder.obj
 0001:00066a60       ?peephole@LIR_Assembler@@QAEXPAVLIR_List@@@Z 08067a60 f i c1_LIRAssembler_x86.obj
 0001:00066a60       ?do_MonitorExit@Canonicalizer@@UAEXPAVMonitorExit@@@Z 08067a60 f i c1_Canonicalizer.obj
 0001:00066a60       ?do_Return@Canonicalizer@@UAEXPAVReturn@@@Z 08067a60 f i c1_Canonicalizer.obj
 0001:00066a60       ?oops_do@RuntimeStub@@UAEXPAVOopClosure@@@Z 08067a60 f i codeBlob.obj
 0001:00066a60       ?set_alloc_size@instanceKlass@@UAEXI@Z 08067a60 f i instanceKlassKlass.obj
 0001:00066a60       ?do_LookupSwitch@NullCheckVisitor@@UAEXPAVLookupSwitch@@@Z 08067a60 f i c1_Optimizer.obj
 0001:00066a60       ?input_values_do@StateSplit@@UAEXP6AXPAPAVInstruction@@@Z@Z 08067a60 f i c1_Canonicalizer.obj
 0001:00066a60       ?print_instr@LIR_OpConvert@@UBEXPAVoutputStream@@@Z 08067a60 f i c1_LIRGenerator.obj
 0001:00066a60       ?print_instr@LIR_OpJavaCall@@UBEXPAVoutputStream@@@Z 08067a60 f i c1_LIRGenerator.obj
 0001:00066a60       ?do_Phi@ValueNumberingVisitor@@MAEXPAVPhi@@@Z 08067a60 f i c1_GraphBuilder.obj
 0001:00066a60       ?clear@Space@@UAEX_N@Z     08067a60 f i space.obj
 0001:00066a60       ?remember_mdo@PushOrMarkClosure@@UAEXPAVDataLayout@@@Z 08067a60 f i concurrentMarkSweepGeneration.obj
 0001:00066a60       ?do_IfOp@NullCheckVisitor@@UAEXPAVIfOp@@@Z 08067a60 f i c1_Optimizer.obj
 0001:00066a60       ?verify_data_on@methodDataOopDesc@@QAEXPAVoutputStream@@@Z 08067a60 f i methodDataOop.obj
 0001:00066a60       ?remember_mdo@PushAndMarkClosure@@UAEXPAVDataLayout@@@Z 08067a60 f i concurrentMarkSweepGeneration.obj
 0001:00066a60       ?do_IfInstanceOf@ValueNumberingVisitor@@MAEXPAVIfInstanceOf@@@Z 08067a60 f i c1_GraphBuilder.obj
 0001:00066a60       ?do_RoundFP@ValueNumberingVisitor@@MAEXPAVRoundFP@@@Z 08067a60 f i c1_GraphBuilder.obj
 0001:00066a60       ?do_BlockBegin@Canonicalizer@@UAEXPAVBlockBegin@@@Z 08067a60 f i c1_Canonicalizer.obj
 0001:00066a60       ?do_BlockBegin@ValueNumberingVisitor@@MAEXPAVBlockBegin@@@Z 08067a60 f i c1_GraphBuilder.obj
 0001:00066a60       ?do_Goto@Canonicalizer@@UAEXPAVGoto@@@Z 08067a60 f i c1_Canonicalizer.obj
 0001:00066a60       ?block_comment@AbstractAssembler@@QAEXPBD@Z 08067a60 f i assembler.obj
 0001:00066a60       ?fill_stackmap_prolog@OopMapForCacheEntry@@EAEXH@Z 08067a60 f i oopMapCache.obj
 0001:00066a60       ?do_UnsafePrefetchRead@ValueNumberingVisitor@@MAEXPAVUnsafePrefetchRead@@@Z 08067a60 f i c1_GraphBuilder.obj
 0001:00066a60       ?check_mangled_unused_area@MutableSpace@@UAEXPAVHeapWord@@@Z 08067a60 f i mutableSpace.obj
 0001:00066a60       ?print@ICStubInterface@@UAEXPAVStub@@@Z 08067a60 f i icBuffer.obj
 0001:00066a60       ?do_UnsafePrefetchWrite@ValueNumberingVisitor@@MAEXPAVUnsafePrefetchWrite@@@Z 08067a60 f i c1_GraphBuilder.obj
 0001:00066a60       ?do_LookupSwitch@ValueNumberingVisitor@@MAEXPAVLookupSwitch@@@Z 08067a60 f i c1_GraphBuilder.obj
 0001:00066a60       ?do_object@IsAliveClosure@DefNewGeneration@@UAEXPAVoopDesc@@@Z 08067a60 f i defNewGeneration.obj
 0001:00066a60       ?set_top_for_allocations@MutableNUMASpace@@UAEXPAVHeapWord@@@Z 08067a60 f i mutableNUMASpace.obj
 0001:00066a60       ?do_If@ValueNumberingVisitor@@MAEXPAVIf@@@Z 08067a60 f i c1_GraphBuilder.obj
 0001:00066a60       ?stub_prolog@StubCodeGenerator@@UAEXPAVStubCodeDesc@@@Z 08067a60 f i stubCodeGenerator.obj
 0001:00066a60       ?print_instr@LIR_OpArrayCopy@@UBEXPAVoutputStream@@@Z 08067a60 f i c1_LIR.obj
 0001:00066a60       ?younger_refs_iterate@DefNewGeneration@@UAEXPAVOopsInGenClosure@@@Z 08067a60 f i defNewGeneration.obj
 0001:00066a60       ?oop_follow_contents@symbolKlass@@UAEXPAVoopDesc@@@Z 08067a60 f i symbolKlass.obj
 0001:00066a60       ?print_value_on@RuntimeStub@@UBEXPAVoutputStream@@@Z 08067a60 f i codeBlob.obj
 0001:00066a60       ?do_UnsafePrefetchRead@Canonicalizer@@UAEXPAVUnsafePrefetchRead@@@Z 08067a60 f i c1_Canonicalizer.obj
 0001:00066a60       ?set_top_for_allocations@MutableSpace@@UAEXPAVHeapWord@@@Z 08067a60 f i mutableSpace.obj
 0001:00066a60       ?do_UnsafePrefetchWrite@Canonicalizer@@UAEXPAVUnsafePrefetchWrite@@@Z 08067a60 f i c1_Canonicalizer.obj
 0001:00066a60       ?do_Base@ValueNumberingVisitor@@MAEXPAVBase@@@Z 08067a60 f i c1_GraphBuilder.obj
 0001:00066a60       ?do_ArithmeticOp@ValueNumberingVisitor@@MAEXPAVArithmeticOp@@@Z 08067a60 f i c1_GraphBuilder.obj
 0001:00066a60       ?remember_mdo@Par_PushOrMarkClosure@@UAEXPAVDataLayout@@@Z 08067a60 f i concurrentMarkSweepGeneration.obj
 0001:00066a60       ?print_value_on@nmethod@@UBEXPAVoutputStream@@@Z 08067a60 f i nmethod.obj
 0001:00066a60       ?input_values_do@UnsafeOp@@UAEXP6AXPAPAVInstruction@@@Z@Z 08067a60 f i c1_GraphBuilder.obj
 0001:00066a60       ?do_Throw@Canonicalizer@@UAEXPAVThrow@@@Z 08067a60 f i c1_Canonicalizer.obj
 0001:00066a60       ?do_object@PSIsAliveClosure@@UAEXPAVoopDesc@@@Z 08067a60 f i psScavenge.obj
 0001:00066a60       ?do_OsrEntry@Canonicalizer@@UAEXPAVOsrEntry@@@Z 08067a60 f i c1_Canonicalizer.obj
 0001:00066a60       ?do_Local@ValueNumberingVisitor@@MAEXPAVLocal@@@Z 08067a60 f i c1_GraphBuilder.obj
 0001:00066a60       ?print_impl@ciObject@@MAEXPAVoutputStream@@@Z 08067a60 f i ciMethod.obj
 0001:00066a60       ?do_ExceptionObject@ValueNumberingVisitor@@MAEXPAVExceptionObject@@@Z 08067a60 f i c1_GraphBuilder.obj
 0001:00066a60       ?oops_do@VM_Operation@@UAEXPAVOopClosure@@@Z 08067a60 f i attachListener.obj
 0001:00066a60       ?print_instr@LIR_Op2@@UBEXPAVoutputStream@@@Z 08067a60 f i c1_LIR.obj
 0001:00066a60       ?do_LogicOp@NullCheckVisitor@@UAEXPAVLogicOp@@@Z 08067a60 f i c1_Optimizer.obj
 0001:00066a60       ?print_value_on@BufferBlob@@UBEXPAVoutputStream@@@Z 08067a60 f i codeBlob.obj
 0001:00066a60       ?do_Throw@ValueNumberingVisitor@@MAEXPAVThrow@@@Z 08067a60 f i c1_GraphBuilder.obj
 0001:00066a60       ?pack_data_to@Relocation@@UAEXPAVCodeSection@@@Z 08067a60 f i assembler_windows_x86.obj
 0001:00066a60       ?do_oop@DoNothingClosure@@UAEXPAPAVoopDesc@@@Z 08067a60 f i oopMap.obj
 0001:00066a60       ?oops_do@SafepointBlob@@UAEXPAVOopClosure@@@Z 08067a60 f i codeBlob.obj
 0001:00066a60       ?print_instr@LIR_OpAllocObj@@UBEXPAVoutputStream@@@Z 08067a60 f i c1_LIR.obj
 0001:00066a60       ?do_InstanceOf@ValueNumberingVisitor@@MAEXPAVInstanceOf@@@Z 08067a60 f i c1_GraphBuilder.obj
 0001:00066a60       ?do_ProfileCall@Canonicalizer@@UAEXPAVProfileCall@@@Z 08067a60 f i c1_Canonicalizer.obj
 0001:00066a60       ?set_method_handle@MethodHandleWalker@@UAEXPAVoopDesc@@@Z 08067a60 f i methodHandleWalk.obj
 0001:00066a60       ?oops_do@unknown_compiledNode@@UAEXPAVOopClosure@@@Z 08067a60 f i fprofiler.obj
 0001:00066a60       ?print_instr@LIR_OpBranch@@UBEXPAVoutputStream@@@Z 08067a60 f i c1_LIR.obj
 0001:00066a60       ?check_mangled_unused_area@MutableNUMASpace@@UAEXPAVHeapWord@@@Z 08067a60 f i mutableNUMASpace.obj
 0001:00066a60       ?print_impl@ciMethodData@@EAEXPAVoutputStream@@@Z 08067a60 f i ciMethodData.obj
 0001:00066a60       ?visit@CodeStub@@UAEXPAVLIR_OpVisitState@@@Z 08067a60 f i c1_CodeStubs_x86.obj
 0001:00066a60       ?do_Return@NullCheckVisitor@@UAEXPAVReturn@@@Z 08067a60 f i c1_Optimizer.obj
 0001:00066a60       ?gc_epilogue@Generation@@UAEX_N@Z 08067a60 f i generation.obj
 0001:00066a60       ?print_instr@LIR_Op3@@UBEXPAVoutputStream@@@Z 08067a60 f i c1_LIR.obj
 0001:00066a60       ?verify_oop_map@LIR_Assembler@@QAEXPAVCodeEmitInfo@@@Z 08067a60 f i c1_LIRAssembler.obj
 0001:00066a60       ?do_NewInstance@Canonicalizer@@UAEXPAVNewInstance@@@Z 08067a60 f i c1_Canonicalizer.obj
 0001:00066a60       ?print_instr@LIR_OpTypeCheck@@UBEXPAVoutputStream@@@Z 08067a60 f i c1_LIR.obj
 0001:00066a60       ?print_instr@LIR_OpCompareAndSwap@@UBEXPAVoutputStream@@@Z 08067a60 f i c1_LIR.obj
 0001:00066a60       ?do_UnsafeGetRaw@NullCheckVisitor@@UAEXPAVUnsafeGetRaw@@@Z 08067a60 f i c1_Optimizer.obj
 0001:00066a60       ?do_UnsafePutObject@Canonicalizer@@UAEXPAVUnsafePutObject@@@Z 08067a60 f i c1_Canonicalizer.obj
 0001:00066a60       ?do_object@VerifyMarkedObjsClosure@@UAEXPAVoopDesc@@@Z 08067a60 f i g1CollectedHeap.obj
 0001:00066a60       ?do_Constant@NullCheckVisitor@@UAEXPAVConstant@@@Z 08067a60 f i c1_Optimizer.obj
 0001:00066a60       ?do_RoundFP@Canonicalizer@@UAEXPAVRoundFP@@@Z 08067a60 f i c1_Canonicalizer.obj
 0001:00066a60       ?do_code_blob@AdjustPointerClosure@PSParallelCompact@@UBEXPAVCodeBlob@@@Z 08067a60 f i psParallelCompact.obj
 0001:00066a60       ?do_UnsafeGetObject@ValueNumberingVisitor@@MAEXPAVUnsafeGetObject@@@Z 08067a60 f i c1_GraphBuilder.obj
 0001:00066a60       ?do_ProfileCall@ValueNumberingVisitor@@MAEXPAVProfileCall@@@Z 08067a60 f i c1_GraphBuilder.obj
 0001:00066a60       ?do_object@AlwaysAliveClosure@@UAEXPAVoopDesc@@@Z 08067a60 f i jniHandles.obj
 0001:00066a60       ?translate_from@ProfileData@@UAEXPAV1@@Z 08067a60 f i ciMethodData.obj
 0001:00066a60       ?do_LoadIndexed@ValueNumberingVisitor@@MAEXPAVLoadIndexed@@@Z 08067a60 f i c1_GraphBuilder.obj
 0001:00066a60       ?do_Invoke@Canonicalizer@@UAEXPAVInvoke@@@Z 08067a60 f i c1_Canonicalizer.obj
 0001:00066a60       ?do_ProfileCounter@Canonicalizer@@UAEXPAVProfileCounter@@@Z 08067a60 f i c1_Canonicalizer.obj
 0001:00066a60       ?do_ExceptionObject@Canonicalizer@@UAEXPAVExceptionObject@@@Z 08067a60 f i c1_Canonicalizer.obj
 0001:00066a60       ?do_Convert@NullCheckVisitor@@UAEXPAVConvert@@@Z 08067a60 f i c1_Optimizer.obj
 0001:00066a60       ?do_UnsafePrefetchWrite@NullCheckVisitor@@UAEXPAVUnsafePrefetchWrite@@@Z 08067a60 f i c1_Optimizer.obj
 0001:00066a60       ?do_Convert@ValueNumberingVisitor@@MAEXPAVConvert@@@Z 08067a60 f i c1_GraphBuilder.obj
 0001:00066a60       ?do_LoadField@Canonicalizer@@UAEXPAVLoadField@@@Z 08067a60 f i c1_Canonicalizer.obj
 0001:00066a60       ?do_UnsafePutRaw@NullCheckVisitor@@UAEXPAVUnsafePutRaw@@@Z 08067a60 f i c1_Optimizer.obj
 0001:00066a60       ?do_IfInstanceOf@NullCheckVisitor@@UAEXPAVIfInstanceOf@@@Z 08067a60 f i c1_Optimizer.obj
 0001:00066a60       ?print_instr@LIR_OpProfileCall@@UBEXPAVoutputStream@@@Z 08067a60 f i c1_LIRGenerator.obj
 0001:00066a60       ?oops_do@runtimeStubNode@@UAEXPAVOopClosure@@@Z 08067a60 f i fprofiler.obj
 0001:00066a60       ?do_ProfileCounter@ValueNumberingVisitor@@MAEXPAVProfileCounter@@@Z 08067a60 f i c1_GraphBuilder.obj
 0001:00066a60       ?check_and_handle_popframe@MacroAssembler@@MAEXPAVRegisterImpl@@@Z 08067a60 f i assembler_x86.obj
 0001:00066a60       ?do_UnsafeGetObject@Canonicalizer@@UAEXPAVUnsafeGetObject@@@Z 08067a60 f i c1_Canonicalizer.obj
 0001:00066a60       ?do_oop@DoNothingClosure@@UAEXPAI@Z 08067a60 f i oopMap.obj
 0001:00066a60       ?do_OsrEntry@ValueNumberingVisitor@@MAEXPAVOsrEntry@@@Z 08067a60 f i c1_GraphBuilder.obj
 0001:00066a60       ?other_values_do@Instruction@@UAEXP6AXPAPAV1@@Z@Z 08067a60 f i c1_Canonicalizer.obj
 0001:00066a60       ?fill_stackmap_prolog@ResolveOopMapConflicts@@EAEXH@Z 08067a60 f i rewriter.obj
 0001:00066a60       ?pop_tag@xmlStream@@MAEXPBD@Z 08067a60 f i compileLog.obj
 0001:00066a60       ?do_LoadIndexed@Canonicalizer@@UAEXPAVLoadIndexed@@@Z 08067a60 f i c1_Canonicalizer.obj
 0001:00066a60       ?do_CompareOp@ValueNumberingVisitor@@MAEXPAVCompareOp@@@Z 08067a60 f i c1_GraphBuilder.obj
 0001:00066a60       ?do_object@G1CMIsAliveClosure@@UAEXPAVoopDesc@@@Z 08067a60 f i concurrentMark.obj
 0001:00066a60       ?input_values_do@Phi@@UAEXP6AXPAPAVInstruction@@@Z@Z 08067a60 f i c1_ValueStack.obj
 0001:00066a60       ?gc_epilogue@G1CollectedHeap@@UAEX_N@Z 08067a60 f i g1CollectedHeap.obj
 0001:00066a60       ?follow_weak_refs@ProfileData@@UAEXPAVBoolObjectClosure@@@Z 08067a60 f i ciMethodData.obj
 0001:00066a60       ?do_If@NullCheckVisitor@@UAEXPAVIf@@@Z 08067a60 f i c1_Optimizer.obj
 0001:00066a60       ?print_on@oopDesc@@QBEXPAVoutputStream@@@Z 08067a60 f i oop.obj
 0001:00066a60       ?do_MonitorEnter@Canonicalizer@@UAEXPAVMonitorEnter@@@Z 08067a60 f i c1_Canonicalizer.obj
 0001:00066a60       ?print_instr@LIR_OpRoundFP@@UBEXPAVoutputStream@@@Z 08067a60 f i c1_LIRGenerator.obj
 0001:00066a60       ?print_instr@LIR_OpAllocArray@@UBEXPAVoutputStream@@@Z 08067a60 f i c1_LIR.obj
 0001:00066a60       ?print_instr@LIR_Op1@@UBEXPAVoutputStream@@@Z 08067a60 f i c1_LIR.obj
 0001:00066a60       ?do_CompareOp@NullCheckVisitor@@UAEXPAVCompareOp@@@Z 08067a60 f i c1_Optimizer.obj
 0001:00066a60       ?do_Local@NullCheckVisitor@@UAEXPAVLocal@@@Z 08067a60 f i c1_Optimizer.obj
 0001:00066a60       ?print_instr@LIR_OpRTCall@@UBEXPAVoutputStream@@@Z 08067a60 f i c1_LIRGenerator.obj
 0001:00066a60       ?print_value_on@DeoptimizationBlob@@UBEXPAVoutputStream@@@Z 08067a60 f i codeBlob.obj
 0001:00066a60       ?array_klasses_do@Klass@@UAEXP6AXPAVklassOopDesc@@@Z@Z 08067a60 f i arrayKlassKlass.obj
 0001:00066a60       ?do_TableSwitch@ValueNumberingVisitor@@MAEXPAVTableSwitch@@@Z 08067a60 f i c1_GraphBuilder.obj
 0001:00066a60       ?state_values_do@Instruction@@UAEXP6AXPAPAV1@@Z@Z 08067a60 f i c1_Canonicalizer.obj
 0001:00066a60       ?oops_do@adapterNode@@UAEXPAVOopClosure@@@Z 08067a60 f i fprofiler.obj
 0001:00066a60       ?do_Goto@ValueNumberingVisitor@@MAEXPAVGoto@@@Z 08067a60 f i c1_GraphBuilder.obj
 0001:00066a60       ?other_values_do@UnsafeOp@@UAEXP6AXPAPAVInstruction@@@Z@Z 08067a60 f i c1_GraphBuilder.obj
 0001:00066a60       ?do_Base@NullCheckVisitor@@UAEXPAVBase@@@Z 08067a60 f i c1_Optimizer.obj
 0001:00066a60       ?par_promote_alloc_done@Generation@@UAEXH@Z 08067a60 f i asParNewGeneration.obj
 0001:00066a60       ?do_NewObjectArray@ValueNumberingVisitor@@MAEXPAVNewObjectArray@@@Z 08067a60 f i c1_GraphBuilder.obj
 0001:00066a60       ?do_UnsafeGetRaw@ValueNumberingVisitor@@MAEXPAVUnsafeGetRaw@@@Z 08067a60 f i c1_GraphBuilder.obj
 0001:00066a70       ?interval_moved@IntervalWalker@@MAEXPAVInterval@@W4IntervalKind@@W4IntervalState@@2@Z 08067a70 f i c1_LinearScan.obj
 0001:00066a70       ?fill_stackmap_for_opcodes@GeneratePairingInfo@@EAEXPAVBytecodeStream@@PAVCellTypeState@@1H@Z 08067a70 f i ciMethod.obj
 0001:00066a70       ?scrub_par@StupidG1RemSet@@UAEXPAVBitMap@@0HH@Z 08067a70 f i g1CollectedHeap.obj
 0001:00066a70       ?fill_stackmap_for_opcodes@ResolveOopMapConflicts@@EAEXPAVBytecodeStream@@PAVCellTypeState@@1H@Z 08067a70 f i rewriter.obj
 0001:00066a70       ?write_prim_field@ModRefBarrierSet@@UAEXPAVHeapWord@@III@Z 08067a70 f i cardTableModRefBS.obj
 0001:00066a80       ??0HandleMark@@QAE@PAVThread@@@Z 08067a80 f i ciMethod.obj
 0001:00066aa0       ?has_loops@methodOopDesc@@QAE_NXZ 08067aa0 f i ciMethod.obj
 0001:00066ac0       ?will_link@ciMethod@@QAE_NPAVciKlass@@0W4Code@Bytecodes@@@Z 08067ac0 f   ciMethod.obj
 0001:00066ae0       ?can_be_compiled@ciMethod@@QAE_NXZ 08067ae0 f   ciMethod.obj
 0001:00066af0       ?print_impl@ciMethod@@EAEXPAVoutputStream@@@Z 08067af0 f   ciMethod.obj
 0001:00066b90       ??0ciMethod@@AAE@VmethodHandle@@@Z 08067b90 f   ciMethod.obj
 0001:00066e70       ?type_string@ciMethod@@EAEPBDXZ 08067e70 f i ciMethod.obj
 0001:00066e80       ??0ciMethod@@AAE@PAVciInstanceKlass@@PAVciSymbol@@1@Z 08067e80 f   ciMethod.obj
 0001:00066f10       ?has_balanced_monitors@ciMethod@@QAE_NXZ 08067f10 f   ciMethod.obj
 0001:000670e0       ?raw_liveness_at_bci@ciMethod@@QAE?AVMethodLivenessResult@@H@Z 080680e0 f   ciMethod.obj
 0001:00067150       ?liveness_at_bci@ciMethod@@QAE?AVMethodLivenessResult@@H@Z 08068150 f   ciMethod.obj
 0001:000671b0       ?bci_block_start@ciMethod@@QAE?BVBitMap@@XZ 080681b0 f   ciMethod.obj
 0001:00067220       ?resolve_invoke@ciMethod@@QAEPAV1@PAVciKlass@@0@Z 08068220 f   ciMethod.obj
 0001:000674a0       ?build_method_data@ciMethod@@AAEXVmethodHandle@@@Z 080684a0 f   ciMethod.obj
 0001:00067580       ?method_data@ciMethod@@QAEPAVciMethodData@@XZ 08068580 f   ciMethod.obj
 0001:000676d0       ?should_exclude@ciMethod@@QAE_NXZ 080686d0 f   ciMethod.obj
 0001:00067770       ?break_at_execute@ciMethod@@QAE_NXZ 08068770 f   ciMethod.obj
 0001:00067810       ?log_nmethod_identity@ciMethod@@QAEXPAVxmlStream@@@Z 08068810 f   ciMethod.obj
 0001:000678b0       ?has_jsrs@ciMethod@@QBE_NXZ 080688b0 f   ciMethod.obj
 0001:00067930       ?get_method_blocks@ciMethod@@QAEPAVciMethodBlocks@@XZ 08068930 f   ciMethod.obj
 0001:00067990       ?live_local_oops_at_bci@ciMethod@@QAE?AVBitMap@@H@Z 08068990 f   ciMethod.obj
 0001:00067af0       ?find_monomorphic_target@ciMethod@@QAEPAV1@PAVciInstanceKlass@@00@Z 08068af0 f   ciMethod.obj
 0001:00067c40       ?load_code@ciMethod@@AAEXXZ 08068c40 f   ciMethod.obj
 0001:00067e90       ?split_block_at@ciMethodBlocks@@QAEPAVciBlock@@H@Z 08068e90 f   ciMethodBlocks.obj
 0001:00067f70       ?make_block_at@ciMethodBlocks@@QAEPAVciBlock@@H@Z 08068f70 f   ciMethodBlocks.obj
 0001:00068010       ?do_analysis@ciMethodBlocks@@AAEXXZ 08069010 f   ciMethodBlocks.obj
 0001:000683d0       ??0ciMethodBlocks@@QAE@PAVArena@@PAVciMethod@@@Z 080693d0 f   ciMethodBlocks.obj
 0001:00068660       ?cell_count@ProfileData@@UAEHXZ 08069660 f i ciMethodData.obj
 0001:00068680       ?oop_iterate_m@ReceiverTypeData@@UAEXPAVOopClosure@@VMemRegion@@@Z 08069680 f i methodDataOop.obj
 0001:00068680       ?oop_verify_old_oop@Klass@@UAEXPAVoopDesc@@PAI_N@Z 08069680 f i klass.obj
 0001:00068680       ?do_unloading@SingletonBlob@@UAEXPAVBoolObjectClosure@@PAVOopClosure@@_N@Z 08069680 f i codeBlob.obj
 0001:00068680       ?contribute_scratch@Generation@@UAEXAAPAUScratchBlock@@PAV1@I@Z 08069680 f i cmsPermGen.obj
 0001:00068680       ?par_write_ref@StupidG1RemSet@@UAEXPAVHeapRegion@@PAPAVoopDesc@@H@Z 08069680 f i g1CollectedHeap.obj
 0001:00068680       ?do_unloading@RuntimeStub@@UAEXPAVBoolObjectClosure@@PAVOopClosure@@_N@Z 08069680 f i codeBlob.obj
 0001:00068680       ?oop_iterate_m@ProfileData@@UAEXPAVOopClosure@@VMemRegion@@@Z 08069680 f i ciMethodData.obj
 0001:00068680       ?oop_verify_old_oop@objArrayKlass@@UAEXPAVoopDesc@@PAPAV2@_N@Z 08069680 f i objArrayKlass.obj
 0001:00068680       ?oop_verify_old_oop@objArrayKlass@@UAEXPAVoopDesc@@PAI_N@Z 08069680 f i objArrayKlass.obj
 0001:00068680       ?par_write_ref@StupidG1RemSet@@UAEXPAVHeapRegion@@PAIH@Z 08069680 f i g1CollectedHeap.obj
 0001:00068680       ?do_unloading@BufferBlob@@UAEXPAVBoolObjectClosure@@PAVOopClosure@@_N@Z 08069680 f i codeBlob.obj
 0001:00068680       ?oop_verify_old_oop@Klass@@UAEXPAVoopDesc@@PAPAV2@_N@Z 08069680 f i klass.obj
 0001:00068690       ?print_data_on@ProfileData@@UAEXPAVoutputStream@@@Z 08069690 f i ciMethodData.obj
 0001:000686b0       ?cell_count@VirtualCallData@@UAEHXZ 080696b0 f i ciMethodData.obj
 0001:000686b0       ?cell_count@ReceiverTypeData@@UAEHXZ 080696b0 f i ciMethodData.obj
 0001:000686c0       ?cell_count@ArrayData@@UAEHXZ 080696c0 f i ciMethodData.obj
 0001:000686d0       ?data_at@ciMethodData@@QAEPAVProfileData@@H@Z 080696d0 f   ciMethodData.obj
 0001:00068850       ?offset_of_slot@ciMethodData@@QAEHPAVProfileData@@H@Z 08069850 f   ciMethodData.obj
 0001:00068870       ??0ciMethodData@@AAE@VmethodDataHandle@@@Z 08069870 f   ciMethodData.obj
 0001:000688f0       ?type_string@ciMethodData@@EAEPBDXZ 080698f0 f i ciMethodData.obj
 0001:00068900       ??0ciMethodData@@AAE@XZ    08069900 f   ciMethodData.obj
 0001:00068980       ?load_data@ciMethodData@@QAEXXZ 08069980 f   ciMethodData.obj
 0001:00068b10       ?translate_receiver_data_from@ciReceiverTypeData@@QAEXPAVProfileData@@@Z 08069b10 f   ciMethodData.obj
 0001:00068b80       ?translate_from@ciVirtualCallData@@UAEXPAVProfileData@@@Z 08069b80 f i ciMethodData.obj
 0001:00068b80       ?translate_from@ciReceiverTypeData@@UAEXPAVProfileData@@@Z 08069b80 f i ciMethodData.obj
 0001:00068b90       ?bci_to_data@ciMethodData@@QAEPAVProfileData@@H@Z 08069b90 f   ciMethodData.obj
 0001:00068c60       ?print_impl@ciMethodHandle@@MAEXPAVoutputStream@@@Z 08069c60 f   ciMethodHandle.obj
 0001:00068c90       ?make@ciMethodKlass@@SAPAV1@XZ 08069c90 f   ciMethodKlass.obj
 0001:00068cb0       ?print_impl@ciNullObject@@EAEXPAVoutputStream@@@Z 08069cb0 f   ciNullObject.obj
 0001:00068cd0       ?make@ciNullObject@@SAPAV1@XZ 08069cd0 f   ciNullObject.obj
 0001:00068cf0       ??0ciObjArrayKlass@@IAE@PAVciSymbol@@PAVciKlass@@H@Z 08069cf0 f   ciObjArrayKlass.obj
 0001:00068d30       ?type_string@ciObjArrayKlass@@MAEPBDXZ 08069d30 f i ciObjArrayKlass.obj
 0001:00068d40       ?loader@ciObjArrayKlass@@MAEPAVoopDesc@@XZ 08069d40 f i ciObjArrayKlass.obj
 0001:00068d50       ?loader_handle@ciObjArrayKlass@@MAEPAV_jobject@@XZ 08069d50 f i ciObjArrayKlass.obj
 0001:00068d60       ?protection_domain@ciObjArrayKlass@@MAEPAVoopDesc@@XZ 08069d60 f i ciObjArrayKlass.obj
 0001:00068d70       ?protection_domain_handle@ciObjArrayKlass@@MAEPAV_jobject@@XZ 08069d70 f i ciObjArrayKlass.obj
 0001:00068d80       ??0ciObjArrayKlass@@IAE@VKlassHandle@@@Z 08069d80 f   ciObjArrayKlass.obj
 0001:00068df0       ?construct_array_name@ciObjArrayKlass@@KAPAVciSymbol@@PAV2@H@Z 08069df0 f   ciObjArrayKlass.obj
 0001:00068f10       ?make_impl@ciObjArrayKlass@@KAPAV1@PAVciKlass@@@Z 08069f10 f   ciObjArrayKlass.obj
 0001:00068fd0       ?make@ciObjArrayKlass@@SAPAV1@PAVciKlass@@@Z 08069fd0 f   ciObjArrayKlass.obj
 0001:00069060       ?element_klass@ciObjArrayKlass@@QAEPAVciKlass@@XZ 0806a060 f   ciObjArrayKlass.obj
 0001:00069190       ?make@ciObjArrayKlassKlass@@SAPAV1@XZ 0806a190 f   ciObjArrayKlassKlass.obj
 0001:000691b0       ??0ciObject@@IAE@PAVciKlass@@@Z 0806a1b0 f   ciObject.obj
 0001:000691d0       ??0ciObject@@IAE@XZ        0806a1d0 f   ciObject.obj
 0001:000691f0       ?set_ident@ciObject@@IAEXI@Z 0806a1f0 f   ciObject.obj
 0001:00069210       ?ident@ciObject@@QAEIXZ    0806a210 f   ciObject.obj
 0001:00069220       ?equals@ciObject@@QAE_NPAV1@@Z 0806a220 f   ciObject.obj
 0001:00069240       ?hash@ciObject@@QAEHXZ     0806a240 f   ciObject.obj
 0001:00069250       ?type_string@ciObject@@MAEPBDXZ 0806a250 f i ciObject.obj
 0001:00069260       ?is_scavengable@oopDesc@@QBE_NXZ 0806a260 f i ciObject.obj
 0001:000692a0       ?constant_encoding@ciObject@@QAEPAV_jobject@@XZ 0806a2a0 f   ciObject.obj
 0001:000692a0       ?permanent_generation@CollectorPolicy@@UAEPAVPermanentGenerationSpec@@XZ 0806a2a0 f   cmsCollectorPolicy.obj
 0001:000692a0       ?klass@oopDesc@@QBEPAVklassOopDesc@@XZ 0806a2a0 f   arrayKlass.obj
 0001:000692b0       ?should_be_constant@ciObject@@QAE_NXZ 0806a2b0 f   ciObject.obj
 0001:000692e0       ?init_flags_from@ciObject@@IAEXPAVoopDesc@@@Z 0806a2e0 f i ciObject.obj
 0001:00069340       ??0ciObject@@IAE@VHandle@@@Z 0806a340 f   ciObject.obj
 0001:000693c0       ?klass@ciObject@@QAEPAVciKlass@@XZ 0806a3c0 f   ciObject.obj
 0001:000694b0       ?print@ciObject@@QAEXPAVoutputStream@@@Z 0806a4b0 f   ciObject.obj
 0001:00069590       ??0ciCPCache@@QAE@VconstantPoolCacheHandle@@@Z 0806a590 f i ciObjectFactory.obj
 0001:000695b0       ??0ciMethodKlass@@IAE@VKlassHandle@@@Z 0806a5b0 f i ciObjectFactory.obj
 0001:000695e0       ?type_string@ciMethodKlass@@MAEPBDXZ 0806a5e0 f i ciObjectFactory.obj
 0001:000695f0       ??0ciSymbolKlass@@IAE@VKlassHandle@@@Z 0806a5f0 f i ciObjectFactory.obj
 0001:00069620       ?type_string@ciSymbolKlass@@MAEPBDXZ 0806a620 f i ciObjectFactory.obj
 0001:00069630       ?vm_symbol_at@ciObjectFactory@@SAPAVciSymbol@@H@Z 0806a630 f   ciObjectFactory.obj
 0001:00069640       ?type2name@@YAPBDW4BasicType@@@Z 0806a640 f i ciObjectFactory.obj
 0001:00069660       ??0ciKlassKlass@@IAE@VKlassHandle@@@Z 0806a660 f i ciObjectFactory.obj
 0001:00069690       ?type_string@ciKlassKlass@@MAEPBDXZ 0806a690 f i ciObjectFactory.obj
 0001:000696a0       ??0ciInstanceKlassKlass@@AAE@VKlassHandle@@@Z 0806a6a0 f i ciObjectFactory.obj
 0001:000696d0       ?type_string@ciInstanceKlassKlass@@EAEPBDXZ 0806a6d0 f i ciObjectFactory.obj
 0001:000696e0       ?type_string@ciNullObject@@EAEPBDXZ 0806a6e0 f i ciObjectFactory.obj
 0001:000696f0       ??0ciInstance@@IAE@VinstanceHandle@@@Z 0806a6f0 f i ciObjectFactory.obj
 0001:00069710       ?type_string@ciInstance@@MAEPBDXZ 0806a710 f i ciObjectFactory.obj
 0001:00069720       ??0ciCallSite@@QAE@VinstanceHandle@@@Z 0806a720 f i ciObjectFactory.obj
 0001:00069740       ??0ciMethodHandle@@QAE@VinstanceHandle@@@Z 0806a740 f i ciObjectFactory.obj
 0001:00069760       ?type_string@ciArrayKlassKlass@@MAEPBDXZ 0806a760 f i ciObjectFactory.obj
 0001:00069770       ??0ciObjArrayKlassKlass@@AAE@VKlassHandle@@@Z 0806a770 f i ciObjectFactory.obj
 0001:000697a0       ?type_string@ciObjArrayKlassKlass@@EAEPBDXZ 0806a7a0 f i ciObjectFactory.obj
 0001:000697b0       ??0ciTypeArrayKlassKlass@@AAE@VKlassHandle@@@Z 0806a7b0 f i ciObjectFactory.obj
 0001:000697e0       ?type_string@ciTypeArrayKlassKlass@@EAEPBDXZ 0806a7e0 f i ciObjectFactory.obj
 0001:000697f0       ?get_empty_methodData@ciObjectFactory@@QAEPAVciMethodData@@XZ 0806a7f0 f   ciObjectFactory.obj
 0001:00069840       ?find@ciObjectFactory@@AAEHPAVoopDesc@@PAV?$GrowableArray@PAVciObject@@@@@Z 0806a840 f   ciObjectFactory.obj
 0001:00069890       ?insert_non_perm@ciObjectFactory@@AAEXAAPAUNonPermObject@1@PAVoopDesc@@PAVciObject@@@Z 0806a890 f   ciObjectFactory.obj
 0001:000698e0       ?type_string@ciArray@@MAEPBDXZ 0806a8e0 f i ciObjectFactory.obj
 0001:000698f0       ?is_instance@oopDesc@@QBE_NXZ 0806a8f0 f i ciObjectFactory.obj
 0001:00069900       ?is_klass@oopDesc@@QBE_NXZ 0806a900 f i ciObjectFactory.obj
 0001:00069910       ?is_method@oopDesc@@QBE_NXZ 0806a910 f i ciObjectFactory.obj
 0001:00069920       ?is_methodData@oopDesc@@QBE_NXZ 0806a920 f i ciObjectFactory.obj
 0001:00069930       ?is_instance@java_dyn_MethodHandle@@SA_NPAVoopDesc@@@Z 0806a930 f i ciObjectFactory.obj
 0001:00069960       ?is_instance@java_dyn_CallSite@@SA_NPAVoopDesc@@@Z 0806a960 f i ciObjectFactory.obj
 0001:00069990       ??0ciObjArray@@IAE@VobjArrayHandle@@@Z 0806a990 f i ciObjectFactory.obj
 0001:000699e0       ?type_string@ciObjArray@@MAEPBDXZ 0806a9e0 f i ciObjectFactory.obj
 0001:000699f0       ??0ciTypeArray@@IAE@VtypeArrayHandle@@@Z 0806a9f0 f i ciObjectFactory.obj
 0001:00069a40       ?type_string@ciTypeArray@@MAEPBDXZ 0806aa40 f i ciObjectFactory.obj
 0001:00069a50       ?create_new_object@ciObjectFactory@@AAEPAVciObject@@PAVoopDesc@@@Z 0806aa50 f   ciObjectFactory.obj
 0001:00069ee0       ?find_non_perm@ciObjectFactory@@AAEAAPAUNonPermObject@1@PAVoopDesc@@@Z 0806aee0 f   ciObjectFactory.obj
 0001:00069f70       ??0ciObjectFactory@@QAE@PAVArena@@H@Z 0806af70 f   ciObjectFactory.obj
 0001:0006a0a0       ?get_unloaded_method@ciObjectFactory@@QAEPAVciMethod@@PAVciInstanceKlass@@PAVciSymbol@@1@Z 0806b0a0 f   ciObjectFactory.obj
 0001:0006a170       ?insert@ciObjectFactory@@AAEXHPAVciObject@@PAV?$GrowableArray@PAVciObject@@@@@Z 0806b170 f   ciObjectFactory.obj
 0001:0006a200       ?get@ciObjectFactory@@QAEPAVciObject@@PAVoopDesc@@@Z 0806b200 f   ciObjectFactory.obj
 0001:0006a370       ?init_shared_objects@ciObjectFactory@@QAEXXZ 0806b370 f   ciObjectFactory.obj
 0001:0006aca0       ?get_unloaded_klass@ciObjectFactory@@QAEPAVciKlass@@PAV2@PAVciSymbol@@_N@Z 0806bca0 f   ciObjectFactory.obj
 0001:0006aed0       ?initialize@ciObjectFactory@@SAXXZ 0806bed0 f   ciObjectFactory.obj
 0001:0006af50       ?next@SignatureStream@@QAEXXZ 0806bf50 f i ciSignature.obj
 0001:0006b060       ?return_type@ciSignature@@QBEPAVciType@@XZ 0806c060 f   ciSignature.obj
 0001:0006b070       ?type_at@ciSignature@@QBEPAVciType@@H@Z 0806c070 f   ciSignature.obj
 0001:0006b090       ??0ciSignature@@AAE@PAVciKlass@@PAVciSymbol@@@Z 0806c090 f   ciSignature.obj
 0001:0006b240       ?wide@ciBytecodeStream@@AAE?AW4Code@Bytecodes@@XZ 0806c240 f   ciStreams.obj
 0001:0006b270       ?reset_to_bci@ciBytecodeStream@@QAEXH@Z 0806c270 f   ciStreams.obj
 0001:0006b290       ?table@ciBytecodeStream@@AAE?AW4Code@Bytecodes@@W423@@Z 0806c290 f   ciStreams.obj
 0001:0006b340       ?get_klass_index@ciBytecodeStream@@QBEHXZ 0806c340 f   ciStreams.obj
 0001:0006b460       ?get_constant_index@ciBytecodeStream@@QBEHXZ 0806c460 f   ciStreams.obj
 0001:0006b4e0       ?get_field@ciBytecodeStream@@QAEPAVciField@@AA_N@Z 0806c4e0 f   ciStreams.obj
 0001:0006b540       ?get_klass@ciBytecodeStream@@QAEPAVciKlass@@AA_N@Z 0806c540 f   ciStreams.obj
 0001:0006b5f0       ?get_constant@ciBytecodeStream@@QAE?AVciConstant@@XZ 0806c5f0 f   ciStreams.obj
 0001:0006b690       ?get_method@ciBytecodeStream@@QAEPAVciMethod@@AA_N@Z 0806c690 f   ciStreams.obj
 0001:0006b780       ?get_method_holder_index@ciBytecodeStream@@QAEHXZ 0806c780 f   ciStreams.obj
 0001:0006b7d0       ?get_declared_method_holder@ciBytecodeStream@@QAEPAVciKlass@@XZ 0806c7d0 f   ciStreams.obj
 0001:0006b8d0       ??0ciSymbol@@AAE@VsymbolHandle@@@Z 0806c8d0 f   ciSymbol.obj
 0001:0006b8f0       ?type_string@ciSymbol@@EAEPBDXZ 0806c8f0 f i ciSymbol.obj
 0001:0006b900       ?base@ciSymbol@@AAEPACXZ   0806c900 f   ciSymbol.obj
 0001:0006b990       ?byte_at@ciSymbol@@QAEHH@Z 0806c990 f   ciSymbol.obj
 0001:0006ba20       ?starts_with@ciSymbol@@QBE_NPBDH@Z 0806ca20 f   ciSymbol.obj
 0001:0006bab0       ?index_of_at@ciSymbol@@QBEHHPBDH@Z 0806cab0 f   ciSymbol.obj
 0001:0006bb40       ?utf8_length@ciSymbol@@QAEHXZ 0806cb40 f   ciSymbol.obj
 0001:0006bbd0       ?print_symbol_on@ciSymbol@@QAEXPAVoutputStream@@@Z 0806cbd0 f   ciSymbol.obj
 0001:0006bc60       ?make_impl@ciSymbol@@CAPAV1@PBD@Z 0806cc60 f   ciSymbol.obj
 0001:0006bce0       ?make@ciSymbol@@SAPAV1@PBD@Z 0806cce0 f   ciSymbol.obj
 0001:0006bd70       ?print_impl@ciSymbol@@EAEXPAVoutputStream@@@Z 0806cd70 f   ciSymbol.obj
 0001:0006bda0       ??0ciType@@AAE@W4BasicType@@@Z 0806cda0 f   ciType.obj
 0001:0006bdc0       ??0ciType@@AAE@PAVciKlass@@@Z 0806cdc0 f   ciType.obj
 0001:0006be00       ?print_impl@ciType@@EAEXPAVoutputStream@@@Z 0806ce00 f   ciType.obj
 0001:0006be30       ?make@ciType@@SAPAV1@W4BasicType@@@Z 0806ce30 f   ciType.obj
 0001:0006be50       ?print_impl@ciReturnAddress@@EAEXPAVoutputStream@@@Z 0806ce50 f   ciType.obj
 0001:0006be70       ?type_string@ciType@@EAEPBDXZ 0806ce70 f i ciType.obj
 0001:0006be80       ?type_string@ciReturnAddress@@EAEPBDXZ 0806ce80 f i ciType.obj
 0001:0006be90       ??0ciType@@AAE@VKlassHandle@@@Z 0806ce90 f   ciType.obj
 0001:0006bed0       ?is_subtype_of@ciType@@QAE_NPAV1@@Z 0806ced0 f   ciType.obj
 0001:0006bf20       ?print_name_on@ciType@@UAEXPAVoutputStream@@@Z 0806cf20 f   ciType.obj
 0001:0006bf60       ?java_mirror@ciType@@UAEPAVciInstance@@XZ 0806cf60 f   ciType.obj
 0001:0006bff0       ??0ciTypeArrayKlass@@IAE@VKlassHandle@@@Z 0806cff0 f   ciTypeArrayKlass.obj
 0001:0006c010       ?type_string@ciTypeArrayKlass@@MAEPBDXZ 0806d010 f i ciTypeArrayKlass.obj
 0001:0006c020       ?make@ciTypeArrayKlass@@SAPAV1@W4BasicType@@@Z 0806d020 f   ciTypeArrayKlass.obj
 0001:0006c100       ?classfile_parse_error@ClassFileParser@@AAEXPBDPAVThread@@@Z 0806d100 f   classFileError.obj
 0001:0006c170       ?classfile_parse_error@ClassFileParser@@AAEXPBDHPAVThread@@@Z 0806d170 f   classFileError.obj
 0001:0006c1e0       ?classfile_parse_error@ClassFileParser@@AAEXPBD0PAVThread@@@Z 0806d1e0 f   classFileError.obj
 0001:0006c250       ?classfile_parse_error@ClassFileParser@@AAEXPBDH0PAVThread@@@Z 0806d250 f   classFileError.obj
 0001:0006c2d0       ?stackmap_format_error@StackMapStream@@SAXPBDPAVThread@@@Z 0806d2d0 f   classFileError.obj
 0001:0006c330       ?valid_cp_range@@YA_NHH@Z  0806d330 f i classFileParser.obj
 0001:0006c350       ?hash@@YAIPAVLocalVariableTableElement@@@Z 0806d350 f   classFileParser.obj
 0001:0006c390       ?clear_hashtable@@YAXPAPAVLVT_Hash@@@Z 0806d390 f   classFileParser.obj
 0001:0006c3e0       ?LVT_lookup@@YAPAVLVT_Hash@@PAVLocalVariableTableElement@@HPAPAV1@@Z 0806d3e0 f   classFileParser.obj
 0001:0006c430       ?LVT_put_after_lookup@@YA_NPAVLocalVariableTableElement@@PAPAVLVT_Hash@@@Z 0806d430 f   classFileParser.obj
 0001:0006c4b0       ?set_has_miranda_methods@Klass@@QAEXXZ 0806d4b0 f i classFileParser.obj
 0001:0006c4c0       ?has_illegal_visibility@ClassFileParser@@AAE_NH@Z 0806d4c0 f   classFileParser.obj
 0001:0006c500       ??8Handle@@QBE_NPAVoopDesc@@@Z 0806d500 f i classFileParser.obj
 0001:0006c530       ?verify_unqualified_name@ClassFileParser@@AAE_NPADIH@Z 0806d530 f   classFileParser.obj
 0001:0006c5b0       ?field_type_should_be_aligned@Universe@@SA_NW4BasicType@@@Z 0806d5b0 f i classFileParser.obj
 0001:0006c5d0       ?equals@symbolOopDesc@@QBE_NPBD@Z 0806d5d0 f i classFileParser.obj
 0001:0006c600       ?write@CompressedWriteStream@@AAEXE@Z 0806d600 f i classFileParser.obj
 0001:0006c600       ?write_byte@CompressedWriteStream@@QAEXC@Z 0806d600 f i classFileParser.obj
 0001:0006c630       ?is_within_bounds@constantPoolOopDesc@@QBE_NH@Z 0806d630 f i classFileParser.obj
 0001:0006c650       ??0CompressedLineNumberWriteStream@@QAE@H@Z 0806d650 f i classFileParser.obj
 0001:0006c670       ?write_pair_inline@CompressedLineNumberWriteStream@@QAEXHH@Z 0806d670 f i classFileParser.obj
 0001:0006c6e0       ?write_terminator@CompressedLineNumberWriteStream@@QAEXXZ 0806d6e0 f i classFileParser.obj
 0001:0006c700       ?inc@PerfLongVariant@@QAEX_J@Z 0806d700 f i classFileParser.obj
 0001:0006c720       ?guarantee_more@ClassFileStream@@QAEXHPAVThread@@@Z 0806d720 f i classFileParser.obj
 0001:0006c740       ?long_field_put@oopDesc@@QAEXH_J@Z 0806d740 f i classFileParser.obj
 0001:0006c760       ?guarantee_property@ClassFileParser@@AAEX_NPBDPAVThread@@@Z 0806d760 f i classFileParser.obj
 0001:0006c780       ?guarantee_property@ClassFileParser@@AAEX_NPBDHPAVThread@@@Z 0806d780 f i classFileParser.obj
 0001:0006c7a0       ?guarantee_property@ClassFileParser@@AAEX_NPBDH1PAVThread@@@Z 0806d7a0 f i classFileParser.obj
 0001:0006c7d0       ?initialize@PerfClassTraceTime@@QAEXXZ 0806d7d0 f i classFileParser.obj
 0001:0006c870       ??1PerfClassTraceTime@@QAE@XZ 0806d870 f i classFileParser.obj
 0001:0006c940       ?is_gte_jdk16x_version@JDK_Version@@SA_NXZ 0806d940 f i classFileParser.obj
 0001:0006c980       ?push_int@JavaCallArguments@@QAEXH@Z 0806d980 f i classFileParser.obj
 0001:0006c9b0       ?add_class_method_size@ClassLoadingService@@SAXH@Z 0806d9b0 f i classFileParser.obj
 0001:0006c9e0       ?put_after_lookup@@YA_NPAVsymbolOopDesc@@0PAPAVNameSigHash@@@Z 0806d9e0 f   classFileParser.obj
 0001:0006ca60       ?compute_oop_map_count@ClassFileParser@@AAEIVinstanceKlassHandle@@IH@Z 0806da60 f   classFileParser.obj
 0001:0006cae0       ?fill_oop_maps@ClassFileParser@@AAEXVinstanceKlassHandle@@IPAHPAI@Z 0806dae0 f   classFileParser.obj
 0001:0006cbe0       ?set_precomputed_flags@ClassFileParser@@AAEXVinstanceKlassHandle@@@Z 0806dbe0 f   classFileParser.obj
 0001:0006cd60       ?is_supported_version@ClassFileParser@@AAE_NGG@Z 0806dd60 f   classFileParser.obj
 0001:0006cde0       ?verify_legal_utf8@ClassFileParser@@AAEXPBEHPAVThread@@@Z 0806dde0 f   classFileParser.obj
 0001:0006d010       ?set_code@methodOopDesc@@QAEXPAE@Z 0806e010 f i classFileParser.obj
 0001:0006d040       ?get_u2_fast@ClassFileStream@@QAEGXZ 0806e040 f i classFileParser.obj
 0001:0006d060       ?get_u8_fast@ClassFileStream@@QAE_KXZ 0806e060 f i classFileParser.obj
 0001:0006d090       ?check_property@ClassFileParser@@AAEX_NPBDHPAVThread@@@Z 0806e090 f i classFileParser.obj
 0001:0006d0c0       ?has_cp_patch_at@ClassFileParser@@AAE_NH@Z 0806e0c0 f i classFileParser.obj
 0001:0006d0f0       ??0PerfClassTraceTime@@QAE@PAVPerfLongCounter@@00PAHPAVelapsedTimer@@H@Z 0806e0f0 f i classFileParser.obj
 0001:0006d140       ?is_instance@java_lang_String@@SA_NPAVoopDesc@@@Z 0806e140 f i classFileParser.obj
 0001:0006d160       ?parse_linenumber_table@ClassFileParser@@AAEXIIPAPAVCompressedLineNumberWriteStream@@PAVThread@@@Z 0806e160 f   classFileParser.obj
 0001:0006d2d0       ?copy_lvt_element@@YAXPAVClassfile_LVT_Element@@PAVLocalVariableTableElement@@@Z 0806e2d0 f   classFileParser.obj
 0001:0006d340       ?check_super_class_access@ClassFileParser@@SAXVinstanceKlassHandle@@PAVThread@@@Z 0806e340 f   classFileParser.obj
 0001:0006d400       ?verify_legal_class_modifiers@ClassFileParser@@AAEXHPAVThread@@@Z 0806e400 f   classFileParser.obj
 0001:0006d500       ?verify_legal_field_modifiers@ClassFileParser@@AAEXH_NPAVThread@@@Z 0806e500 f   classFileParser.obj
 0001:0006d610       ?verify_legal_method_modifiers@ClassFileParser@@AAEXH_NVsymbolHandle@@PAVThread@@@Z 0806e610 f   classFileParser.obj
 0001:0006d7f0       ?skip_over_field_name@ClassFileParser@@AAEPADPAD_NI@Z 0806e7f0 f   classFileParser.obj
 0001:0006d9f0       ?skip_over_field_signature@ClassFileParser@@AAEPADPAD_NIPAVThread@@@Z 0806e9f0 f   classFileParser.obj
 0001:0006db20       ??$oop_store_without_check@PAVoopDesc@@@@YAXPCRAVoopDesc@@PAV0@@Z 0806eb20 f i classFileParser.obj
 0001:0006db80       ?verify_legal_class_name@ClassFileParser@@AAEXVsymbolHandle@@PAVThread@@@Z 0806eb80 f   classFileParser.obj
 0001:0006dca0       ?verify_legal_field_name@ClassFileParser@@AAEXVsymbolHandle@@PAVThread@@@Z 0806eca0 f   classFileParser.obj
 0001:0006dd90       ?verify_legal_method_name@ClassFileParser@@AAEXVsymbolHandle@@PAVThread@@@Z 0806ed90 f   classFileParser.obj
 0001:0006dea0       ?verify_legal_field_signature@ClassFileParser@@AAEXVsymbolHandle@@0PAVThread@@@Z 0806eea0 f   classFileParser.obj
 0001:0006df80       ?verify_legal_method_signature@ClassFileParser@@AAEHVsymbolHandle@@0PAVThread@@@Z 0806ef80 f   classFileParser.obj
 0001:0006e120       ?klass_at_put@constantPoolOopDesc@@QAEXHPAVklassOopDesc@@@Z 0806f120 f i classFileParser.obj
 0001:0006e170       ?long_at_put@constantPoolOopDesc@@QAEXH_J@Z 0806f170 f i classFileParser.obj
 0001:0006e190       ?double_at_put@constantPoolOopDesc@@QAEXHN@Z 0806f190 f i classFileParser.obj
 0001:0006e1b0       ?string_at_put@constantPoolOopDesc@@QAEXHPAVoopDesc@@@Z 0806f1b0 f i classFileParser.obj
 0001:0006e220       ?field_at_put@constantPoolOopDesc@@QAEXHHH@Z 0806f220 f i classFileParser.obj
 0001:0006e250       ?method_at_put@constantPoolOopDesc@@QAEXHHH@Z 0806f250 f i classFileParser.obj
 0001:0006e280       ?interface_method_at_put@constantPoolOopDesc@@QAEXHHH@Z 0806f280 f i classFileParser.obj
 0001:0006e2b0       ?name_and_type_at_put@constantPoolOopDesc@@QAEXHHH@Z 0806f2b0 f i classFileParser.obj
 0001:0006e2e0       ?pseudo_string_at_put@constantPoolOopDesc@@QAEXHPAVoopDesc@@@Z 0806f2e0 f i classFileParser.obj
 0001:0006e310       ?is_klass_reference@ClassFileParser@@AAE_NVconstantPoolHandle@@H@Z 0806f310 f i classFileParser.obj
 0001:0006e370       ?verify_constantvalue@ClassFileParser@@AAEXHHVconstantPoolHandle@@PAVThread@@@Z 0806f370 f   classFileParser.obj
 0001:0006e4c0       ?parse_exception_table@ClassFileParser@@AAE?AVtypeArrayHandle@@IIVconstantPoolHandle@@PAVThread@@@Z 0806f4c0 f   classFileParser.obj
 0001:0006e6e0       ?parse_localvariable_table@ClassFileParser@@AAEPAGIGIVconstantPoolHandle@@PAG_NPAVThread@@@Z 0806f6e0 f   classFileParser.obj
 0001:0006ea30       ?parse_stackmap_table@ClassFileParser@@AAEPAVtypeArrayOopDesc@@IPAVThread@@@Z 0806fa30 f   classFileParser.obj
 0001:0006eab0       ?parse_checked_exceptions@ClassFileParser@@AAEPAGPAGIVconstantPoolHandle@@PAVThread@@@Z 0806fab0 f   classFileParser.obj
 0001:0006ec10       ?assemble_annotations@ClassFileParser@@AAE?AVtypeArrayHandle@@PAEH0HPAVThread@@@Z 0806fc10 f   classFileParser.obj
 0001:0006ece0       ?java_lang_ref_Reference_fix_pre@ClassFileParser@@AAEXPAVtypeArrayHandle@@VconstantPoolHandle@@PAUFieldAllocationCount@@PAVThread@@@Z 0806fce0 f   classFileParser.obj
 0001:0006ee70       ?java_dyn_MethodHandle_fix_pre@ClassFileParser@@AAEXVconstantPoolHandle@@PAVtypeArrayHandle@@PAUFieldAllocationCount@@PAVThread@@@Z 0806fe70 f   classFileParser.obj
 0001:0006efa0       ?set_class_loader@instanceKlass@@QAEXPAVoopDesc@@@Z 0806ffa0 f i classFileParser.obj
 0001:0006f000       ?set_protection_domain@instanceKlass@@QAEXPAVoopDesc@@@Z 08070000 f i classFileParser.obj
 0001:0006f060       ?obj_field_put@oopDesc@@QAEXHPAV1@@Z 08070060 f i classFileParser.obj
 0001:0006f080       ?parse_interfaces@ClassFileParser@@AAE?AVobjArrayHandle@@VconstantPoolHandle@@HVHandle@@1VsymbolHandle@@PAVThread@@@Z 08070080 f   classFileParser.obj
 0001:0006f420       ?parse_field_attributes@ClassFileParser@@AAEXVconstantPoolHandle@@G_NGPAGPA_N2PAVtypeArrayHandle@@PAVThread@@@Z 08070420 f   classFileParser.obj
 0001:0006f6c0       ?parse_fields@ClassFileParser@@AAE?AVtypeArrayHandle@@VconstantPoolHandle@@_NPAUFieldAllocationCount@@PAVobjArrayHandle@@PAVThread@@@Z 080706c0 f   classFileParser.obj
 0001:0006fce0       ?sort_methods@ClassFileParser@@AAE?AVtypeArrayHandle@@VobjArrayHandle@@000PAVThread@@@Z 08070ce0 f   classFileParser.obj
 0001:00070030       ?append_interfaces@@YAXVobjArrayHandle@@AAHPAVobjArrayOopDesc@@@Z 08071030 f   classFileParser.obj
 0001:00070130       ?compute_transitive_interfaces@ClassFileParser@@AAE?AVobjArrayHandle@@VinstanceKlassHandle@@V2@PAVThread@@@Z 08071130 f   classFileParser.obj
 0001:000703d0       ?check_super_interface_access@ClassFileParser@@SAXVinstanceKlassHandle@@PAVThread@@@Z 080713d0 f   classFileParser.obj
 0001:000704e0       ?check_final_method_override@ClassFileParser@@SAXVinstanceKlassHandle@@PAVThread@@@Z 080714e0 f   classFileParser.obj
 0001:000706b0       ?check_illegal_static_method@ClassFileParser@@SAXVinstanceKlassHandle@@PAVThread@@@Z 080716b0 f   classFileParser.obj
 0001:000707d0       ?set_name@Klass@@QAEXPAVsymbolOopDesc@@@Z 080717d0 f i classFileParser.obj
 0001:00070800       ?set_stackmap_data@constMethodOopDesc@@QAEXPAVtypeArrayOopDesc@@@Z 08071800 f i classFileParser.obj
 0001:00070830       ?set_pool_holder@constantPoolOopDesc@@QAEXPAVklassOopDesc@@@Z 08071830 f i classFileParser.obj
 0001:00070860       ?unresolved_klass_at_put@constantPoolOopDesc@@QAEXHPAVsymbolOopDesc@@@Z 08071860 f i classFileParser.obj
 0001:000708a0       ?unresolved_string_at_put@constantPoolOopDesc@@QAEXHPAVsymbolOopDesc@@@Z 080718a0 f i classFileParser.obj
 0001:000708e0       ?symbol_at_put@constantPoolOopDesc@@QAEXHPAVsymbolOopDesc@@@Z 080718e0 f i classFileParser.obj
 0001:00070920       ?set_lower_dimension@arrayKlass@@QAEXPAVklassOopDesc@@@Z 08071920 f i arrayKlass.obj
 0001:00070920       ?set_method_ordering@instanceKlass@@QAEXPAVtypeArrayOopDesc@@@Z 08071920 f i classFileParser.obj
 0001:00070950       ?set_local_interfaces@instanceKlass@@QAEXPAVobjArrayOopDesc@@@Z 08071950 f i classFileParser.obj
 0001:00070980       ?set_transitive_interfaces@instanceKlass@@QAEXPAVobjArrayOopDesc@@@Z 08071980 f i classFileParser.obj
 0001:000709b0       ?set_fields@instanceKlass@@QAEXPAVtypeArrayOopDesc@@@Z 080719b0 f i classFileParser.obj
 0001:000709e0       ?set_class_annotations@instanceKlass@@QAEXPAVtypeArrayOopDesc@@@Z 080719e0 f i classFileParser.obj
 0001:00070a10       ?set_constants@methodOopDesc@@QAEXPAVconstantPoolOopDesc@@@Z 08071a10 f i classFileParser.obj
 0001:00070a40       ?set_exception_table@methodOopDesc@@QAEXPAVtypeArrayOopDesc@@@Z 08071a40 f i classFileParser.obj
 0001:00070a70       ?parse_constant_pool_entries@ClassFileParser@@AAEXVconstantPoolHandle@@HPAVThread@@@Z 08071a70 f   classFileParser.obj
 0001:00071160       ?patch_constant_pool@ClassFileParser@@AAEXVconstantPoolHandle@@HVHandle@@PAVThread@@@Z 08072160 f   classFileParser.obj
 0001:00071420       ?parse_method@ClassFileParser@@AAE?AVmethodHandle@@VconstantPoolHandle@@_NPAVAccessFlags@@PAVtypeArrayHandle@@33PAVThread@@@Z 08072420 f   classFileParser.obj
 0001:000726d0       ?parse_methods@ClassFileParser@@AAE?AVobjArrayHandle@@VconstantPoolHandle@@_NPAVAccessFlags@@PA_NPAPAVobjArrayOopDesc@@44PAVThread@@@Z 080736d0 f   classFileParser.obj
 0001:00072aa0       ?parse_classfile_sourcefile_attribute@ClassFileParser@@AAEXVconstantPoolHandle@@VinstanceKlassHandle@@PAVThread@@@Z 08073aa0 f   classFileParser.obj
 0001:00072b70       ?parse_classfile_source_debug_extension_attribute@ClassFileParser@@AAEXVconstantPoolHandle@@VinstanceKlassHandle@@HPAVThread@@@Z 08073b70 f   classFileParser.obj
 0001:00072bf0       ?parse_classfile_inner_classes_attribute@ClassFileParser@@AAEGVconstantPoolHandle@@VinstanceKlassHandle@@PAVThread@@@Z 08073bf0 f   classFileParser.obj
 0001:00073000       ?parse_classfile_signature_attribute@ClassFileParser@@AAEXVconstantPoolHandle@@VinstanceKlassHandle@@PAVThread@@@Z 08074000 f   classFileParser.obj
 0001:000730a0       ?parse_classfile_attributes@ClassFileParser@@AAEXVconstantPoolHandle@@VinstanceKlassHandle@@PAVThread@@@Z 080740a0 f   classFileParser.obj
 0001:000735a0       ?set_fields_annotations@instanceKlass@@QAEXPAVobjArrayOopDesc@@@Z 080745a0 f i classFileParser.obj
 0001:000735d0       ?set_methods_annotations@instanceKlass@@QAEXPAVobjArrayOopDesc@@@Z 080745d0 f i classFileParser.obj
 0001:00073600       ?set_methods_parameter_annotations@instanceKlass@@QAEXPAVobjArrayOopDesc@@@Z 08074600 f i classFileParser.obj
 0001:00073630       ?set_methods_default_annotations@instanceKlass@@QAEXPAVobjArrayOopDesc@@@Z 08074630 f i classFileParser.obj
 0001:00073660       ?parse_constant_pool@ClassFileParser@@AAE?AVconstantPoolHandle@@PAVThread@@@Z 08074660 f   classFileParser.obj
 0001:00073df0       ?parseClassFile@ClassFileParser@@QAE?AVinstanceKlassHandle@@VsymbolHandle@@VHandle@@1VKlassHandle@@PAV?$GrowableArray@VHandle@@@@AAV3@_NPAVThread@@@Z 08074df0 f   classFileParser.obj
 0001:00075670       ??0ClassFileStream@@QAE@PAEHPAD@Z 08076670 f   classFileStream.obj
 0001:000756a0       ?truncated_file_error@ClassFileStream@@AAEXPAVThread@@@Z 080766a0 f   classFileStream.obj
 0001:000756d0       ?get_u2@ClassFileStream@@QAEGPAVThread@@@Z 080766d0 f   classFileStream.obj
 0001:00075740       ?skip_u1@ClassFileStream@@QAEXHPAVThread@@@Z 08076740 f   classFileStream.obj
 0001:00075790       ?is_jar_file@LazyClassPathEntry@@UAE_NXZ 08076790 f   classLoader.obj
 0001:000757b0       ?new_entry@PackageHashtable@@QAEPAVPackageInfo@@PADH@Z 080767b0 f i classLoader.obj
 0001:000757e0       ?copy_package_info_buckets@ClassLoader@@SAXPAPADPAD@Z 080767e0 f   classLoader.obj
 0001:00075800       ?create_counter@PerfDataManager@@SAPAVPerfLongCounter@@W4CounterNS@@PBDW4Units@PerfData@@PAVThread@@@Z 08076800 f i classLoader.obj
 0001:00075830       ?classpath_entry@ClassLoader@@SAPAVClassPathEntry@@H@Z 08076830 f i classLoader.obj
 0001:00075850       ??0ThreadToNativeFromVM@@QAE@PAVJavaThread@@@Z 08076850 f i classLoader.obj
 0001:00075890       ??0BasicHashtable@@QAE@HH@Z 08076890 f i classLoader.obj
 0001:00075910       ??0MetaIndex@@QAE@PAPADH@Z 08076910 f   classLoader.obj
 0001:00075980       ?may_contain@MetaIndex@@QAE_NPBD@Z 08076980 f   classLoader.obj
 0001:00075a10       ??0ClassPathDirEntry@@QAE@PAD@Z 08076a10 f   classLoader.obj
 0001:00075a90       ?open_stream@ClassPathDirEntry@@UAEPAVClassFileStream@@PBD@Z 08076a90 f   classLoader.obj
 0001:00075b80       ??0ClassPathZipEntry@@QAE@PAPAXPBD@Z 08076b80 f   classLoader.obj
 0001:00075c00       ??1ClassPathZipEntry@@QAE@XZ 08076c00 f   classLoader.obj
 0001:00075c30       ??0LazyClassPathEntry@@QAE@PADUstat@@@Z 08076c30 f   classLoader.obj
 0001:00075c80       ?add_to_list@ClassLoader@@SAXPAVClassPathEntry@@@Z 08076c80 f   classLoader.obj
 0001:00075cb0       ?load_zip_library@ClassLoader@@CAXXZ 08076cb0 f   classLoader.obj
 0001:00075df0       ?create_package_info_table@ClassLoader@@SAXPAVHashtableBucket@@HH@Z 08076df0 f   classLoader.obj
 0001:00075e40       ?create_package_info_table@ClassLoader@@SAXXZ 08076e40 f   classLoader.obj
 0001:00075e70       ?classloader_time_ms@ClassLoader@@SA_JXZ 08076e70 f   classLoader.obj
 0001:00075ea0       ?class_init_count@ClassLoader@@SA_JXZ 08076ea0 f   classLoader.obj
 0001:00075ec0       ?class_init_time_ms@ClassLoader@@SA_JXZ 08076ec0 f   classLoader.obj
 0001:00075ef0       ?class_verify_time_ms@ClassLoader@@SA_JXZ 08076ef0 f   classLoader.obj
 0001:00075f20       ?open_stream@ClassPathZipEntry@@UAEPAVClassFileStream@@PBD@Z 08076f20 f   classLoader.obj
 0001:00076070       ?get_entry@PackageHashtable@@AAEPAVPackageInfo@@HIPBDI@Z 08077070 f i classLoader.obj
 0001:000760d0       ?get_entry@PackageHashtable@@QAEPAVPackageInfo@@PBDH@Z 080770d0 f i classLoader.obj
 0001:00076110       ?copy_pkgnames@PackageHashtable@@QAEXPAPBD@Z 08077110 f i classLoader.obj
 0001:00076150       ?copy_table@PackageHashtable@@QAEXPAPADPADPAV1@@Z 08077150 f   classLoader.obj
 0001:00076280       ?copy_package_info_table@ClassLoader@@SAXPAPADPAD@Z 08077280 f   classLoader.obj
 0001:000762a0       ?add_package@ClassLoader@@CA_NPBDHPAVThread@@@Z 080772a0 f   classLoader.obj
 0001:000763b0       ?get_system_package@ClassLoader@@SAPAVoopDesc@@PBDPAVThread@@@Z 080773b0 f   classLoader.obj
 0001:00076450       ?load_classfile@ClassLoader@@SA?AVinstanceKlassHandle@@VsymbolHandle@@PAVThread@@@Z 08077450 f   classLoader.obj
 0001:00076650       ?get_canonical_path@ClassLoader@@CA_NPAD0H@Z 08077650 f   classLoader.obj
 0001:000766c0       ??1?$GrowableArray@PAD@@QAE@XZ 080776c0 f i classLoader.obj
 0001:000766f0       ?setup_meta_index@ClassLoader@@CAXXZ 080776f0 f   classLoader.obj
 0001:00076a90       ?create_class_path_entry@ClassLoader@@CAXPADUstat@@PAPAVClassPathEntry@@_N@Z 08077a90 f   classLoader.obj
 0001:00076d10       ?create_class_path_zip_entry@ClassLoader@@SAPAVClassPathZipEntry@@PBD@Z 08077d10 f   classLoader.obj
 0001:00076e00       ?resolve_entry@LazyClassPathEntry@@AAEPAVClassPathEntry@@XZ 08077e00 f   classLoader.obj
 0001:00076e80       ?open_stream@LazyClassPathEntry@@UAEPAVClassFileStream@@PBD@Z 08077e80 f   classLoader.obj
 0001:00076ec0       ?setup_bootstrap_search_path@ClassLoader@@CAXXZ 08077ec0 f   classLoader.obj
 0001:00077000       ?initialize@ClassLoader@@SAXXZ 08078000 f   classLoader.obj
 0001:000774f0       ?classLoader_init@@YAXXZ   080784f0 f   classLoader.obj
 0001:00077500       ?get_system_packages@ClassLoader@@SAPAVobjArrayOopDesc@@PAVThread@@@Z 08078500 f   classLoader.obj
 0001:000776c0       ?loaded_class_count@ClassLoadingService@@SA_JXZ 080786c0 f i classLoadingService.obj
 0001:000776e0       ?init@ClassLoadingService@@SAXXZ 080786e0 f   classLoadingService.obj
 0001:00077860       ?reset_trace_class_unloading@ClassLoadingService@@SAXXZ 08078860 f   classLoadingService.obj
 0001:000778a0       ?compute_class_size@ClassLoadingService@@CAIPAVinstanceKlass@@@Z 080788a0 f   classLoadingService.obj
 0001:00077950       ?set_verbose@ClassLoadingService@@SA_N_N@Z 08078950 f   classLoadingService.obj
 0001:000779c0       ?notify_class_loaded@ClassLoadingService@@SAXPAVinstanceKlass@@_N@Z 080789c0 f   classLoadingService.obj
 0001:00077a30       ?notify_class_unloaded@ClassLoadingService@@SAXPAVinstanceKlass@@@Z 08078a30 f   classLoadingService.obj
 0001:00077b60       ?reset@ClassifyObjectClosure@@QAEXXZ 08078b60 f   classify.obj
 0001:00077b90       ?print@ClassifyObjectClosure@@QAEIXZ 08078b90 f   classify.obj
 0001:00077c20       ?print@ClassifyInstanceKlassClosure@@QAEXXZ 08078c20 f   classify.obj
 0001:00077c40       ?reset@ClassifyInstanceKlassClosure@@QAEXXZ 08078c40 f   classify.obj
 0001:00077c50       ?is_constantPool@oopDesc@@QBE_NXZ 08078c50 f i classify.obj
 0001:00077c60       ?is_compiledICHolder@oopDesc@@QBE_NXZ 08078c60 f i classify.obj
 0001:00077c70       ?classify_object@ClassifyObjectClosure@@SA?AW4oop_type@@PAVoopDesc@@_N@Z 08078c70 f   classify.obj
 0001:00077e10       ?do_object@ClassifyObjectClosure@@UAEXPAVoopDesc@@@Z 08078e10 f   classify.obj
 0001:00077e90       ?do_object@ClassifyInstanceKlassClosure@@UAEXPAVoopDesc@@@Z 08078e90 f   classify.obj
 0001:00078020       ?concurrent_marking_end@CMSAdaptiveSizePolicy@@QAEXXZ 08079020 f   cmsAdaptiveSizePolicy.obj
 0001:00078040       ?concurrent_precleaning_end@CMSAdaptiveSizePolicy@@QAEXXZ 08079040 f   cmsAdaptiveSizePolicy.obj
 0001:00078060       ?concurrent_sweeping_end@CMSAdaptiveSizePolicy@@QAEXXZ 08079060 f   cmsAdaptiveSizePolicy.obj
 0001:00078080       ?clear_internal_time_intervals@CMSAdaptiveSizePolicy@@QAEXXZ 08079080 f   cmsAdaptiveSizePolicy.obj
 0001:00078110       ?clear_generation_free_space_flags@CMSAdaptiveSizePolicy@@EAEXXZ 08079110 f   cmsAdaptiveSizePolicy.obj
 0001:00078130       ?concurrent_phases_resume@CMSAdaptiveSizePolicy@@QAEXXZ 08079130 f   cmsAdaptiveSizePolicy.obj
 0001:00078140       ?collection_cost@CMSAdaptiveSizePolicy@@IAENNN@Z 08079140 f   cmsAdaptiveSizePolicy.obj
 0001:00078180       ?scale_by_gen_gc_cost@CMSAdaptiveSizePolicy@@QAEIIN@Z 08079180 f   cmsAdaptiveSizePolicy.obj
 0001:00078200       ??0CMSAdaptiveSizePolicy@@QAE@IIINNI@Z 08079200 f   cmsAdaptiveSizePolicy.obj
 0001:000785e0       ?kind@CopyMemoryManager@@UAE?AW4Name@MemoryManager@@XZ 080795e0 f i memoryManager.obj
 0001:000785e0       ?type@VM_ThreadDump@@UBE?AW4VMOp_Type@VM_Operation@@XZ 080795e0 f i vm_operations.obj
 0001:000785e0       ?number_of_generations@TwoGenerationCollectorPolicy@@UAEHXZ 080795e0 f i cmsCollectorPolicy.obj
 0001:000785e0       ?type@virtual_call_Relocation@@EAE?AW4relocType@relocInfo@@XZ 080795e0 f i c1_LIRAssembler_x86.obj
 0001:000785e0       ?kind@DefNewGeneration@@UAE?AW4Name@Generation@@XZ 080795e0 f i defNewGeneration.obj
 0001:000785e0       ?cell_count@JumpData@@UAEHXZ 080795e0 f i ciMethodData.obj
 0001:000785e0       ?kind@CMSAdaptiveSizePolicy@@MBE?AW4GCPolicyKind@AdaptiveSizePolicy@@XZ 080795e0 f i cmsAdaptiveSizePolicy.obj
 0001:000785e0       ?kind@GCAdaptivePolicyCounters@@UBE?AW4Name@GCPolicyCounters@@XZ 080795e0 f i gcAdaptivePolicyCounters.obj
 0001:000785e0       ?kind@GenCollectedHeap@@UBE?AW4Name@CollectedHeap@@XZ 080795e0 f i genCollectedHeap.obj
 0001:000785f0       ?concurrent_collection_cost@CMSAdaptiveSizePolicy@@IAENN@Z 080795f0 f   cmsAdaptiveSizePolicy.obj
 0001:000786d0       ?concurrent_marking_begin@CMSAdaptiveSizePolicy@@QAEXXZ 080796d0 f   cmsAdaptiveSizePolicy.obj
 0001:00078710       ?concurrent_precleaning_begin@CMSAdaptiveSizePolicy@@QAEXXZ 08079710 f   cmsAdaptiveSizePolicy.obj
 0001:00078710       ?concurrent_sweeping_begin@CMSAdaptiveSizePolicy@@QAEXXZ 08079710 f   cmsAdaptiveSizePolicy.obj
 0001:00078730       ?concurrent_phases_end@CMSAdaptiveSizePolicy@@QAEXW4Cause@GCCause@@II@Z 08079730 f   cmsAdaptiveSizePolicy.obj
 0001:00078970       ?checkpoint_roots_initial_begin@CMSAdaptiveSizePolicy@@QAEXXZ 08079970 f   cmsAdaptiveSizePolicy.obj
 0001:000789b0       ?checkpoint_roots_initial_end@CMSAdaptiveSizePolicy@@QAEXW4Cause@GCCause@@@Z 080799b0 f   cmsAdaptiveSizePolicy.obj
 0001:00078a20       ?checkpoint_roots_final_begin@CMSAdaptiveSizePolicy@@QAEXXZ 08079a20 f   cmsAdaptiveSizePolicy.obj
 0001:00078a60       ?checkpoint_roots_final_end@CMSAdaptiveSizePolicy@@QAEXW4Cause@GCCause@@@Z 08079a60 f   cmsAdaptiveSizePolicy.obj
 0001:00078af0       ?msc_collection_begin@CMSAdaptiveSizePolicy@@QAEXXZ 08079af0 f   cmsAdaptiveSizePolicy.obj
 0001:00078b40       ?msc_collection_end@CMSAdaptiveSizePolicy@@QAEXW4Cause@GCCause@@@Z 08079b40 f   cmsAdaptiveSizePolicy.obj
 0001:00078cd0       ?ms_collection_begin@CMSAdaptiveSizePolicy@@QAEXXZ 08079cd0 f   cmsAdaptiveSizePolicy.obj
 0001:00078d20       ?ms_collection_end@CMSAdaptiveSizePolicy@@QAEXW4Cause@GCCause@@@Z 08079d20 f   cmsAdaptiveSizePolicy.obj
 0001:00078e70       ?time_since_major_gc@CMSAdaptiveSizePolicy@@MBENXZ 08079e70 f   cmsAdaptiveSizePolicy.obj
 0001:00078ee0       ?cms_gc_cost@CMSAdaptiveSizePolicy@@QBENXZ 08079ee0 f   cmsAdaptiveSizePolicy.obj
 0001:00078ef0       ?ms_collection_marking_begin@CMSAdaptiveSizePolicy@@QAEXXZ 08079ef0 f   cmsAdaptiveSizePolicy.obj
 0001:00078f10       ?ms_collection_marking_end@CMSAdaptiveSizePolicy@@QAEXW4Cause@GCCause@@@Z 08079f10 f   cmsAdaptiveSizePolicy.obj
 0001:00078f70       ?adjust_promo_for_pause_time@CMSAdaptiveSizePolicy@@QAEII@Z 08079f70 f   cmsAdaptiveSizePolicy.obj
 0001:00079020       ?print_adaptive_size_policy_on@CMSAdaptiveSizePolicy@@UBE_NPAVoutputStream@@@Z 0807a020 f   cmsAdaptiveSizePolicy.obj
 0001:00079070       ?major_gc_interval_average_for_decay@CMSAdaptiveSizePolicy@@MBENXZ 0807a070 f   cmsAdaptiveSizePolicy.obj
 0001:000790c0       ?gc_cost@CMSAdaptiveSizePolicy@@UBENXZ 0807a0c0 f   cmsAdaptiveSizePolicy.obj
 0001:00079100       ?adjust_eden_for_pause_time@CMSAdaptiveSizePolicy@@QAEII@Z 0807a100 f   cmsAdaptiveSizePolicy.obj
 0001:00079130       ?adjust_eden_for_throughput@CMSAdaptiveSizePolicy@@QAEII@Z 0807a130 f   cmsAdaptiveSizePolicy.obj
 0001:000791c0       ?compute_young_generation_free_space@CMSAdaptiveSizePolicy@@UAEXII@Z 0807a1c0 f   cmsAdaptiveSizePolicy.obj
 0001:00079360       ?adjust_promo_for_throughput@CMSAdaptiveSizePolicy@@QAEII@Z 0807a360 f   cmsAdaptiveSizePolicy.obj
 0001:000793f0       ?compute_tenured_generation_free_space@CMSAdaptiveSizePolicy@@UAEXIII@Z 0807a3f0 f   cmsAdaptiveSizePolicy.obj
 0001:00079500       ?compute_survivor_space_size_and_threshold@CMSAdaptiveSizePolicy@@UAEH_NHI@Z 0807a500 f   cmsAdaptiveSizePolicy.obj
 0001:000796d0       ?initialize_generations@ConcurrentMarkSweepPolicy@@MAEXXZ 0807a6d0 f   cmsCollectorPolicy.obj
 0001:00079840       ?initialize_size_policy@ConcurrentMarkSweepPolicy@@UAEXIII@Z 0807a840 f   cmsCollectorPolicy.obj
 0001:000798e0       ?initialize_gc_policy_counters@ConcurrentMarkSweepPolicy@@UAEXXZ 0807a8e0 f   cmsCollectorPolicy.obj
 0001:00079950       ?has_soft_ended_eden@ConcurrentMarkSweepPolicy@@UAE_NXZ 0807a950 f   cmsCollectorPolicy.obj
 0001:00079960       ?initialize_gc_policy_counters@CollectorPolicy@@UAEXXZ 0807a960 f i cmsCollectorPolicy.obj
 0001:00079980       ?initialize_all@GenCollectorPolicy@@UAEXXZ 0807a980 f i cmsCollectorPolicy.obj
 0001:000799a0       ?generations@GenCollectorPolicy@@UAEPAPAVGenerationSpec@@XZ 0807a9a0 f i cmsCollectorPolicy.obj
 0001:000799b0       ?initialize_gc_policy_counters@ASConcurrentMarkSweepPolicy@@UAEXXZ 0807a9b0 f   cmsCollectorPolicy.obj
 0001:00079a20       ?initialize_generations@TwoGenerationCollectorPolicy@@MAEXXZ 0807aa20 f i cmsCollectorPolicy.obj
 0001:00079a40       ??0ConcurrentMarkSweepPolicy@@QAE@XZ 0807aa40 f   cmsCollectorPolicy.obj
 0001:00079a80       ?update_counters@CMSGCAdaptivePolicyCounters@@UAEXXZ 0807aa80 f   cmsGCAdaptivePolicyCounters.obj
 0001:00079aa0       ?update_counters@CMSGCAdaptivePolicyCounters@@QAEXPAVCMSGCStats@@@Z 0807aaa0 f   cmsGCAdaptivePolicyCounters.obj
 0001:00079b30       ?update_counters_from_policy@CMSGCAdaptivePolicyCounters@@UAEXXZ 0807ab30 f   cmsGCAdaptivePolicyCounters.obj
 0001:0007a040       ??0CMSGCAdaptivePolicyCounters@@QAE@PBDHHPAVAdaptiveSizePolicy@@@Z 0807b040 f   cmsGCAdaptivePolicyCounters.obj
 0001:0007a8c0       ?compute_new_size@CMSPermGen@@UAEXXZ 0807b8c0 f   cmsPermGen.obj
 0001:0007a8d0       ?initialize_performance_counters@CMSPermGenGen@@QAEXXZ 0807b8d0 f   cmsPermGen.obj
 0001:0007a950       ?oop_iterate@PermGen@@UAEXPAVOopClosure@@@Z 0807b950 f i cmsPermGen.obj
 0001:0007a970       ?object_iterate@PermGen@@UAEXPAVObjectClosure@@@Z 0807b970 f i cmsPermGen.obj
 0001:0007a990       ?update_counters@PermGen@@UAEXXZ 0807b990 f i cmsPermGen.obj
 0001:0007a9a0       ?mem_allocate@CMSPermGen@@UAEPAVHeapWord@@I@Z 0807b9a0 f   cmsPermGen.obj
 0001:0007aa00       ?full_collects_younger_generations@ConcurrentMarkSweepGeneration@@UBE_NXZ 0807ba00 f i cmsPermGen.obj
 0001:0007aa20       ?block_start@Space@@UAEPAVHeapWord@@PBX@Z 0807ba20 f i compactibleFreeListSpace.obj
 0001:0007aa20       ?par_allocate@ConcurrentMarkSweepGeneration@@UAEPAVHeapWord@@I_N@Z 0807ba20 f i cmsPermGen.obj
 0001:0007aa30       ?time_of_last_gc@ConcurrentMarkSweepGeneration@@UAE_J_J@Z 0807ba30 f i cmsPermGen.obj
 0001:0007aa60       ?update_time_of_last_gc@ConcurrentMarkSweepGeneration@@UAEX_J@Z 0807ba60 f i cmsPermGen.obj
 0001:0007aa80       ?counters@ConcurrentMarkSweepGeneration@@UAEPAVCollectorCounters@@XZ 0807ba80 f i cmsPermGen.obj
 0001:0007aa90       ?get_data_recorder@ConcurrentMarkSweepGeneration@@UAEPAXH@Z 0807ba90 f i cmsPermGen.obj
 0001:0007aaa0       ?name@CMSPermGenGen@@UBEPBDXZ 0807baa0 f i cmsPermGen.obj
 0001:0007aab0       ?short_name@CMSPermGenGen@@UBEPBDXZ 0807bab0 f i cmsPermGen.obj
 0001:0007aac0       ?used@ConcurrentMarkSweepGeneration@@UBEIXZ 0807bac0 f i cmsPermGen.obj
 0001:0007aad0       ?free@ConcurrentMarkSweepGeneration@@UBEIXZ 0807bad0 f i cmsPermGen.obj
 0001:0007aae0       ?used_region@ConcurrentMarkSweepGeneration@@UBE?AVMemRegion@@XZ 0807bae0 f i cmsPermGen.obj
 0001:0007ab00       ?is_maximal_no_gc@Generation@@UBE_NXZ 0807bb00 f i cmsPermGen.obj
 0001:0007ab10       ?should_allocate@Generation@@UAE_NI_N@Z 0807bb10 f i cmsPermGen.obj
 0001:0007ab50       ?tlab_capacity@Generation@@UBEIXZ 0807bb50 f i cmsPermGen.obj
 0001:0007ab70       ?unsafe_max_tlab_alloc@Generation@@UBEIXZ 0807bb70 f i cmsPermGen.obj
 0001:0007ab90       ?capacity@ConcurrentMarkSweepGeneration@@UBEIXZ 0807bb90 f i cmsPermGen.obj
 0001:0007aba0       ??0CMSPermGen@@QAE@VReservedSpace@@IPAVCardTableRS@@W4DictionaryChoice@FreeBlockDictionary@@@Z 0807bba0 f   cmsPermGen.obj
 0001:0007ac30       ?do_unloading@CodeBlob@@UAEXPAVBoolObjectClosure@@PAVOopClosure@@_N@Z 0807bc30 f   codeBlob.obj
 0001:0007ac50       ?verify@CodeBlob@@UAEXXZ   0807bc50 f   codeBlob.obj
 0001:0007ac70       ?next@RelocIterator@@QAE_NXZ 0807bc70 f i codeBlob.obj
 0001:0007ace0       ?set_oop_maps@CodeBlob@@QAEXPAVOopMapSet@@@Z 0807bce0 f   codeBlob.obj
 0001:0007ad50       ?flush@CodeBlob@@QAEXXZ    0807bd50 f   codeBlob.obj
 0001:0007ad70       ?is_at_poll_return@CodeBlob@@QAE_NPAE@Z 0807bd70 f   codeBlob.obj
 0001:0007ae30       ?oop_map_for_return_address@CodeBlob@@QAEPAVOopMap@@PAE@Z 0807be30 f   codeBlob.obj
 0001:0007ae50       ?is_adapter_blob@BufferBlob@@UBE_NXZ 0807be50 f   codeBlob.obj
 0001:0007aeb0       ?oop_reloc@RelocIterator@@QAEPAVoop_Relocation@@XZ 0807beb0 f i codeBlob.obj
 0001:0007aee0       ?allocation_size@CodeBlob@@SAIPAVCodeBuffer@@H@Z 0807bee0 f   codeBlob.obj
 0001:0007af50       ??0CodeBlob@@QAE@PBDHHHH@Z 0807bf50 f   codeBlob.obj
 0001:0007afc0       ?preserve_callee_argument_oops@CodeBlob@@UAEXVframe@@PBVRegisterMap@@PAVOopClosure@@@Z 0807bfc0 f i codeBlob.obj
 0001:0007afe0       ??0CodeBlob@@QAE@PBDPAVCodeBuffer@@HHHHPAVOopMapSet@@@Z 0807bfe0 f   codeBlob.obj
 0001:0007b0a0       ?fix_oop_relocations@CodeBlob@@AAEXPAE0_N@Z 0807c0a0 f   codeBlob.obj
 0001:0007b1b0       ?preserve_callee_argument_oops@SafepointBlob@@UAEXVframe@@PBVRegisterMap@@PAVOopClosure@@@Z 0807c1b0 f i codeBlob.obj
 0001:0007b1b0       ?preserve_callee_argument_oops@DeoptimizationBlob@@UAEXVframe@@PBVRegisterMap@@PAVOopClosure@@@Z 0807c1b0 f i codeBlob.obj
 0001:0007b1b0       ?preserve_callee_argument_oops@RuntimeStub@@UAEXVframe@@PBVRegisterMap@@PAVOopClosure@@@Z 0807c1b0 f i codeBlob.obj
 0001:0007b1b0       ?preserve_callee_argument_oops@BufferBlob@@UAEXVframe@@PBVRegisterMap@@PAVOopClosure@@@Z 0807c1b0 f i codeBlob.obj
 0001:0007b1c0       ?create@BufferBlob@@SAPAV1@PBDH@Z 0807c1c0 f   codeBlob.obj
 0001:0007b290       ?create@BufferBlob@@SAPAV1@PBDPAVCodeBuffer@@@Z 0807c290 f   codeBlob.obj
 0001:0007b360       ?free@BufferBlob@@SAXPAV1@@Z 0807c360 f   codeBlob.obj
 0001:0007b3f0       ?caller_must_gc_arguments@RuntimeStub@@UBE_NPAVJavaThread@@@Z 0807c3f0 f i codeBlob.obj
 0001:0007b400       ?new_runtime_stub@RuntimeStub@@SAPAV1@PBDPAVCodeBuffer@@HHPAVOopMapSet@@_N@Z 0807c400 f   codeBlob.obj
 0001:0007b5a0       ?copy_oops@CodeBlob@@QAEXPAV?$GrowableArray@PAV_jobject@@@@@Z 0807c5a0 f   codeBlob.obj
 0001:0007b610       ?create@DeoptimizationBlob@@SAPAV1@PAVCodeBuffer@@PAVOopMapSet@@HHHH@Z 0807c610 f   codeBlob.obj
 0001:0007b7d0       ?create@SafepointBlob@@SAPAV1@PAVCodeBuffer@@PAVOopMapSet@@H@Z 0807c7d0 f   codeBlob.obj
 0001:0007b970       ?initialize_oop_recorder@CodeBuffer@@QAEXPAVOopRecorder@@@Z 0807c970 f   codeBuffer.obj
 0001:0007b980       ?initialize_shared_locs@CodeSection@@QAEXPAVrelocInfo@@H@Z 0807c980 f   codeBuffer.obj
 0001:0007b9c0       ??0CodeBuffer@@QAE@PAEH@Z  0807c9c0 f   codeBuffer.obj
 0001:0007baa0       ?section_index_of@CodeBuffer@@QBEHPAE@Z 0807caa0 f   codeBuffer.obj
 0001:0007bad0       ?locator_address@CodeBuffer@@QBEPAEH@Z 0807cad0 f   codeBuffer.obj
 0001:0007bb00       ?target@CodeSection@@QAEPAEAAVLabel@@PAE@Z 0807cb00 f   codeBuffer.obj
 0001:0007bb60       ?initialize_locs@CodeSection@@AAEXH@Z 0807cb60 f   codeBuffer.obj
 0001:0007bbb0       ?initialize_section_size@CodeBuffer@@AAEXPAVCodeSection@@H@Z 0807cbb0 f   codeBuffer.obj
 0001:0007bc20       ?free_blob@CodeBuffer@@QAEXXZ 0807cc20 f   codeBuffer.obj
 0001:0007bc50       ?create_patch_overflow@CodeBuffer@@QAEPAV?$GrowableArray@H@@XZ 0807cc50 f   codeBuffer.obj
 0001:0007bcd0       ?expand_locs@CodeSection@@AAEXH@Z 0807ccd0 f   codeBuffer.obj
 0001:0007bd70       ?total_code_size@CodeBuffer@@QBEHXZ 0807cd70 f   codeBuffer.obj
 0001:0007bdb0       ?compute_final_layout@CodeBuffer@@ABEXPAV1@@Z 0807cdb0 f   codeBuffer.obj
 0001:0007bea0       ?total_offset_of@CodeBuffer@@QBEHPAE@Z 0807cea0 f   codeBuffer.obj
 0001:0007bf00       ?copy_relocations_to@CodeBuffer@@ABEHPAVCodeBlob@@@Z 0807cf00 f   codeBuffer.obj
 0001:0007c090       ?relocate_code_to@CodeBuffer@@ABEXPAV1@@Z 0807d090 f   codeBuffer.obj
 0001:0007c250       ?figure_expanded_capacities@CodeBuffer@@AAEHPAVCodeSection@@HPAH@Z 0807d250 f   codeBuffer.obj
 0001:0007c3a0       ?take_over_code_from@CodeBuffer@@AAEXPAV1@@Z 0807d3a0 f   codeBuffer.obj
 0001:0007c450       ?initialize@CodeBuffer@@QAEXHH@Z 0807d450 f   codeBuffer.obj
 0001:0007c4f0       ??1CodeBuffer@@QAE@XZ      0807d4f0 f   codeBuffer.obj
 0001:0007c550       ?relocate@CodeSection@@QAEXPAEABVRelocationHolder@@H@Z 0807d550 f   codeBuffer.obj
 0001:0007c630       ?total_relocation_size@CodeBuffer@@QBEHXZ 0807d630 f   codeBuffer.obj
 0001:0007c690       ?copy_code_to@CodeBuffer@@AAEXPAVCodeBlob@@@Z 0807d690 f   codeBuffer.obj
 0001:0007c700       ??0CodeBuffer@@QAE@PBDHH@Z 0807d700 f i codeBuffer.obj
 0001:0007c7b0       ?expand@CodeBuffer@@AAEXPAVCodeSection@@H@Z 0807d7b0 f   codeBuffer.obj
 0001:0007c950       ?number_of_nmethods_with_dependencies@CodeCache@@SAHXZ 0807d950 f   codeCache.obj
 0001:0007c960       ?find_blob_unsafe@CodeCache@@SAPAVCodeBlob@@PAX@Z 0807d960 f i codeCache.obj
 0001:0007c990       ?first@CodeCache@@SAPAVCodeBlob@@XZ 0807d990 f   codeCache.obj
 0001:0007c9b0       ?next@CodeCache@@SAPAVCodeBlob@@PAV2@@Z 0807d9b0 f   codeCache.obj
 0001:0007c9e0       ?alive@CodeCache@@SAPAVCodeBlob@@PAV2@@Z 0807d9e0 f   codeCache.obj
 0001:0007ca30       ?alive_nmethod@CodeCache@@SAPAVnmethod@@PAVCodeBlob@@@Z 0807da30 f   codeCache.obj
 0001:0007ca80       ?free@CodeCache@@SAXPAVCodeBlob@@@Z 0807da80 f   codeCache.obj
 0001:0007cac0       ?commit@CodeCache@@SAXPAVCodeBlob@@@Z 0807dac0 f   codeCache.obj
 0001:0007cb00       ?contains@CodeCache@@SA_NPAX@Z 0807db00 f   codeCache.obj
 0001:0007cb30       ?find_blob@CodeCache@@SAPAVCodeBlob@@PAX@Z 0807db30 f   codeCache.obj
 0001:0007cba0       ?find_nmethod@CodeCache@@SAPAVnmethod@@PAX@Z 0807dba0 f   codeCache.obj
 0001:0007cbb0       ?blobs_do@CodeCache@@SAXP6AXPAVCodeBlob@@@Z@Z 0807dbb0 f   codeCache.obj
 0001:0007cc10       ?nmethods_do@CodeCache@@SAXP6AXPAVnmethod@@@Z@Z 0807dc10 f   codeCache.obj
 0001:0007cc70       ?do_unloading@CodeCache@@SAXPAVBoolObjectClosure@@PAVOopClosure@@_N@Z 0807dc70 f   codeCache.obj
 0001:0007ccf0       ?blobs_do@CodeCache@@SAXPAVCodeBlobClosure@@@Z 0807dcf0 f   codeCache.obj
 0001:0007cd60       ?scavenge_root_nmethods_do@CodeCache@@SAXPAVCodeBlobClosure@@@Z 0807dd60 f   codeCache.obj
 0001:0007cda0       ?add_scavenge_root_nmethod@CodeCache@@SAXPAVnmethod@@@Z 0807dda0 f   codeCache.obj
 0001:0007cdc0       ?drop_scavenge_root_nmethod@CodeCache@@SAXPAVnmethod@@@Z 0807ddc0 f   codeCache.obj
 0001:0007ce20       ?prune_scavenge_root_nmethods@CodeCache@@SAXXZ 0807de20 f   codeCache.obj
 0001:0007ce80       ?remove_saved_code@CodeCache@@SAXPAVnmethod@@@Z 0807de80 f   codeCache.obj
 0001:0007cf40       ?gc_epilogue@CodeCache@@SAXXZ 0807df40 f   codeCache.obj
 0001:0007cfd0       ?first_address@CodeCache@@SAPAEXZ 0807dfd0 f   codeCache.obj
 0001:0007cfe0       ?initialize@CodeCache@@SAXXZ 0807dfe0 f   codeCache.obj
 0001:0007d080       ?codeCache_init@@YAXXZ     0807e080 f   codeCache.obj
 0001:0007d090       ?mark_all_nmethods_for_deoptimization@CodeCache@@SAXXZ 0807e090 f   codeCache.obj
 0001:0007d120       ?make_marked_nmethods_zombies@CodeCache@@SAXXZ 0807e120 f   codeCache.obj
 0001:0007d1b0       ?make_marked_nmethods_not_entrant@CodeCache@@SAXXZ 0807e1b0 f   codeCache.obj
 0001:0007d220       ?verify@CodeCache@@SAXXZ   0807e220 f   codeCache.obj
 0001:0007d290       ?allocate@CodeCache@@SAPAVCodeBlob@@H@Z 0807e290 f   codeCache.obj
 0001:0007d300       ?mark_for_deoptimization@CodeCache@@SAHAAVDepChange@@@Z 0807e300 f   codeCache.obj
 0001:0007d390       ?mark_for_deoptimization@CodeCache@@SAHPAVmethodOopDesc@@@Z 0807e390 f   codeCache.obj
 0001:0007d490       ?find_and_remove_saved_code@CodeCache@@SAPAVnmethod@@PAVmethodOopDesc@@@Z 0807e490 f   codeCache.obj
 0001:0007d590       ?speculatively_disconnect@CodeCache@@SAXPAVnmethod@@@Z 0807e590 f   codeCache.obj
 0001:0007d630       ?mark_for_evol_deoptimization@CodeCache@@SAHVinstanceKlassHandle@@@Z 0807e630 f   codeCache.obj
 0001:0007d7d0       ?allocate_new_tlab@CollectedHeap@@MAEPAVHeapWord@@I@Z 0807e7d0 f   collectedHeap.obj
 0001:0007d7f0       ?accumulate_statistics_all_tlabs@CollectedHeap@@MAEXXZ 0807e7f0 f   collectedHeap.obj
 0001:0007d800       ?resize_all_tlabs@CollectedHeap@@MAEXXZ 0807e800 f   collectedHeap.obj
 0001:0007d810       ?flush_deferred_store_barrier@CollectedHeap@@UAEXPAVJavaThread@@@Z 0807e810 f   collectedHeap.obj
 0001:0007d860       ?ensure_parsability@CollectedHeap@@UAEX_N@Z 0807e860 f   collectedHeap.obj
 0001:0007d8a0       ?pre_full_gc_dump@CollectedHeap@@QAEXXZ 0807e8a0 f   collectedHeap.obj
 0001:0007d950       ?post_full_gc_dump@CollectedHeap@@QAEXXZ 0807e950 f   collectedHeap.obj
 0001:0007da00       ?new_store_pre_barrier@CollectedHeap@@UAEPAVoopDesc@@PAVJavaThread@@PAV2@@Z 0807ea00 f   collectedHeap.obj
 0001:0007da80       ?allocate_from_tlab_slow@CollectedHeap@@KAPAVHeapWord@@PAVThread@@I@Z 0807ea80 f   collectedHeap.obj
 0001:0007db50       ??0CollectedHeap@@IAE@XZ   0807eb50 f   collectedHeap.obj
 0001:0007dc40       ?is_in_closed_subset@CollectedHeap@@UBE_NPBX@Z 0807ec40 f i collectedHeap.obj
 0001:0007dc70       ?preload_and_dump@CollectedHeap@@UAEXPAVThread@@@Z 0807ec70 f i collectedHeap.obj
 0001:0007dc90       ?top_addr@CollectedHeap@@UBEPAPAVHeapWord@@XZ 0807ec90 f i collectedHeap.obj
 0001:0007dcb0       ?end_addr@CollectedHeap@@UBEPAPAVHeapWord@@XZ 0807ecb0 f i collectedHeap.obj
 0001:0007dcd0       ?tlab_capacity@CollectedHeap@@UBEIPAVThread@@@Z 0807ecd0 f i collectedHeap.obj
 0001:0007dcf0       ?unsafe_max_tlab_alloc@CollectedHeap@@UBEIPAVThread@@@Z 0807ecf0 f i collectedHeap.obj
 0001:0007dd10       ?fill_with_object_impl@CollectedHeap@@KAXPAVHeapWord@@I_N@Z 0807ed10 f i collectedHeap.obj
 0001:0007dd70       ?fill_with_objects@CollectedHeap@@SAXPAVHeapWord@@I_N@Z 0807ed70 f   collectedHeap.obj
 0001:0007dd70       ?fill_with_object@CollectedHeap@@SAXPAVHeapWord@@I_N@Z 0807ed70 f   collectedHeap.obj
 0001:0007ddb0       ?insert@CSetChooserCache@@QAEXPAVHeapRegion@@@Z 0807edb0 f   collectionSetChooser.obj
 0001:0007de60       ?remove_first@CSetChooserCache@@QAEPAVHeapRegion@@XZ 0807ee60 f   collectionSetChooser.obj
 0001:0007df00       ??0CSetChooserCache@@QAE@XZ 0807ef00 f   collectionSetChooser.obj
 0001:0007df70       ?fillCache@CollectionSetChooser@@QAEXXZ 0807ef70 f   collectionSetChooser.obj
 0001:0007dfc0       ?getParMarkedHeapRegionChunk@CollectionSetChooser@@QAEHH@Z 0807efc0 f   collectionSetChooser.obj
 0001:0007e000       ?setMarkedHeapRegion@CollectionSetChooser@@QAEXHPAVHeapRegion@@@Z 0807f000 f   collectionSetChooser.obj
 0001:0007e020       ?incNumMarkedHeapRegions@CollectionSetChooser@@QAEXH@Z 0807f020 f   collectionSetChooser.obj
 0001:0007e060       ?clearMarkedHeapRegions@CollectionSetChooser@@QAEXXZ 0807f060 f   collectionSetChooser.obj
 0001:0007e0c0       ?updateAfterFullCollection@CollectionSetChooser@@QAEXXZ 0807f0c0 f   collectionSetChooser.obj
 0001:0007e0d0       ?getNextMarkedRegion@CollectionSetChooser@@QAEPAVHeapRegion@@NN@Z 0807f0d0 f   collectionSetChooser.obj
 0001:0007e180       ?raw_at_put_grow@?$GrowableArray@PAVInstruction@@@@AAEXHABQAVInstruction@@0@Z 0807f180 f i c1_GraphBuilder.obj
 0001:0007e180       ?raw_at_put_grow@?$GrowableArray@PAVHeapRegion@@@@AAEXHABQAVHeapRegion@@0@Z 0807f180 f i collectionSetChooser.obj
 0001:0007e1d0       ?sortMarkedHeapRegions@CollectionSetChooser@@QAEXXZ 0807f1d0 f   collectionSetChooser.obj
 0001:0007e240       ??0CollectionSetChooser@@QAE@XZ 0807f240 f   collectionSetChooser.obj
 0001:0007e2a0       ?addMarkedHeapRegion@CollectionSetChooser@@QAEXPAVHeapRegion@@@Z 0807f2a0 f   collectionSetChooser.obj
 0001:0007e2e0       ?prepareForAddMarkedHeapRegionsPar@CollectionSetChooser@@QAEXII@Z 0807f2e0 f   collectionSetChooser.obj
 0001:0007e320       ??0CollectorCounters@@QAE@PBDH@Z 0807f320 f   collectorCounters.obj
 0001:0007e510       ?initialize_perm_generation@CollectorPolicy@@IAEXW4Name@PermGen@@@Z 0807f510 f   collectorPolicy.obj
 0001:0007e580       ?initialize_size_policy@GenCollectorPolicy@@UAEXIII@Z 0807f580 f   collectorPolicy.obj
 0001:0007e600       ?large_typearray_limit@GenCollectorPolicy@@UAEIXZ 0807f600 f   collectorPolicy.obj
 0001:0007e600       ?large_typearray_limit@ParallelScavengeHeap@@UAEIXZ 0807f600 f   universe.obj
 0001:0007e610       ?initialize_generations@MarkSweepPolicy@@MAEXXZ 0807f610 f   collectorPolicy.obj
 0001:0007e710       ?initialize_gc_policy_counters@MarkSweepPolicy@@UAEXXZ 0807f710 f   collectorPolicy.obj
 0001:0007e780       ?set_gc_cause@CollectedHeap@@QAEXW4Cause@GCCause@@@Z 0807f780 f i collectorPolicy.obj
 0001:0007e7e0       ?type@VM_GenCollectForAllocation@@UBE?AW4VMOp_Type@VM_Operation@@XZ 0807f7e0 f i collectorPolicy.obj
 0001:0007e7f0       ?initialize_flags@CollectorPolicy@@MAEXXZ 0807f7f0 f   collectorPolicy.obj
 0001:0007e8f0       ?initialize_size_info@CollectorPolicy@@MAEXXZ 0807f8f0 f   collectorPolicy.obj
 0001:0007ea00       ?create_rem_set@CollectorPolicy@@UAEPAVGenRemSet@@VMemRegion@@H@Z 0807fa00 f   collectorPolicy.obj
 0001:0007ea60       ?initialize_flags@GenCollectorPolicy@@MAEXXZ 0807fa60 f   collectorPolicy.obj
 0001:0007eb20       ?initialize_flags@TwoGenerationCollectorPolicy@@MAEXXZ 0807fb20 f   collectorPolicy.obj
 0001:0007eba0       ?initialize_size_info@GenCollectorPolicy@@MAEXXZ 0807fba0 f   collectorPolicy.obj
 0001:0007ed20       ?adjust_gen0_sizes@TwoGenerationCollectorPolicy@@QAE_NPAI0II@Z 0807fd20 f   collectorPolicy.obj
 0001:0007ed90       ?initialize_size_info@TwoGenerationCollectorPolicy@@MAEXXZ 0807fd90 f   collectorPolicy.obj
 0001:0007eec0       ?expand_heap_and_allocate@GenCollectorPolicy@@MAEPAVHeapWord@@I_N@Z 0807fec0 f   collectorPolicy.obj
 0001:0007ef50       ?satisfy_failed_allocation@GenCollectorPolicy@@UAEPAVHeapWord@@I_N@Z 0807ff50 f   collectorPolicy.obj
 0001:0007f0e0       ?should_try_older_generation_allocation@GenCollectorPolicy@@MBE_NI@Z 080800e0 f   collectorPolicy.obj
 0001:0007f150       ?mem_allocate_work@GenCollectorPolicy@@UAEPAVHeapWord@@I_NPA_N@Z 08080150 f   collectorPolicy.obj
 0001:0007f3e0       ??0MarkSweepPolicy@@QAE@XZ 080803e0 f   collectorPolicy.obj
 0001:0007f420       ?block_start_careful@CompactibleFreeListSpace@@QBEPAVHeapWord@@PBX@Z 08080420 f   compactibleFreeListSpace.obj
 0001:0007f430       ?object_iterate_since_last_GC@CompactibleFreeListSpace@@QAEXPAVObjectClosure@@@Z 08080430 f   compactibleFreeListSpace.obj
 0001:0007f450       ?print@CompactibleFreeListSpace@@UBEXXZ 08080450 f   compactibleFreeListSpace.obj
 0001:0007f470       ?startTrackingPromotions@PromotionInfo@@QAEXXZ 08080470 f   compactibleFreeListSpace.obj
 0001:0007f480       ?set_bottom@MutableSpace@@UAEXPAVHeapWord@@@Z 08080480 f i mutableNUMASpace.obj
 0001:0007f480       ?set_bottom@Space@@UAEXPAVHeapWord@@@Z 08080480 f i compactibleFreeListSpace.obj
 0001:0007f490       ?set_end@Space@@UAEXPAVHeapWord@@@Z 08080490 f i compactibleFreeListSpace.obj
 0001:0007f490       ?set_end@MutableSpace@@UAEXPAVHeapWord@@@Z 08080490 f i mutableNUMASpace.obj
 0001:0007f4a0       ?used_region@Space@@UBE?AVMemRegion@@XZ 080804a0 f i compactibleFreeListSpace.obj
 0001:0007f4c0       ?obj_allocated_since_save_marks@CompactibleFreeListSpace@@UBE_NQAVoopDesc@@@Z 080804c0 f i compactibleFreeListSpace.obj
 0001:0007f4c0       ?do_object_b@IsAliveClosure@MarkSweep@@UAE_NPAVoopDesc@@@Z 080804c0 f i markSweep.obj
 0001:0007f4e0       ?is_shared@oopDesc@@QBE_NXZ 080804e0 f i compactibleFreeListSpace.obj
 0001:0007f500       ?isMarked@CMBitMapRO@@QBE_NPAVHeapWord@@@Z 08080500 f i concurrentMark.obj
 0001:0007f500       ?isMarked@CMSBitMap@@QBE_NPAVHeapWord@@@Z 08080500 f i compactibleFreeListSpace.obj
 0001:0007f500       ?par_isMarked@CMSBitMap@@QBE_NPAVHeapWord@@@Z 08080500 f i compactibleFreeListSpace.obj
 0001:0007f540       ?cross_threshold@CompactibleFreeListSpace@@EAEPAVHeapWord@@PAV2@0@Z 08080540 f   compactibleFreeListSpace.obj
 0001:0007f560       ?initializeIndexedFreeListArray@CompactibleFreeListSpace@@AAEXXZ 08080560 f   compactibleFreeListSpace.obj
 0001:0007f590       ?find_chunk_at_end@CompactibleFreeListSpace@@QAEPAVFreeChunk@@XZ 08080590 f   compactibleFreeListSpace.obj
 0001:0007f5b0       ?is_free_block@CompactibleFreeListSpace@@UBE_NPBVHeapWord@@@Z 080805b0 f   compactibleFreeListSpace.obj
 0001:0007f5d0       ?used@CompactibleFreeListSpace@@UBEIXZ 080805d0 f   compactibleFreeListSpace.obj
 0001:0007f5f0       ?max_alloc_in_words@CompactibleFreeListSpace@@QBEIXZ 080805f0 f   compactibleFreeListSpace.obj
 0001:0007f650       ?blk_iterate_careful@CompactibleFreeListSpace@@QAEXPAVBlkClosureCareful@@@Z 08080650 f   compactibleFreeListSpace.obj
 0001:0007f680       ?blk_iterate@CompactibleFreeListSpace@@QAEXPAVBlkClosure@@@Z 08080680 f   compactibleFreeListSpace.obj
 0001:0007f6b0       ?object_iterate@CompactibleFreeListSpace@@UAEXPAVObjectClosure@@@Z 080806b0 f   compactibleFreeListSpace.obj
 0001:0007f700       ?safe_object_iterate@CompactibleFreeListSpace@@UAEXPAVObjectClosure@@@Z 08080700 f   compactibleFreeListSpace.obj
 0001:0007f760       ?object_iterate_mem@CompactibleFreeListSpace@@UAEXVMemRegion@@PAVUpwardsObjectClosure@@@Z 08080760 f   compactibleFreeListSpace.obj
 0001:0007f780       ?object_iterate_careful@CompactibleFreeListSpace@@UAEPAVHeapWord@@PAVObjectClosureCareful@@@Z 08080780 f   compactibleFreeListSpace.obj
 0001:0007f7d0       ?object_iterate_careful_m@CompactibleFreeListSpace@@UAEPAVHeapWord@@VMemRegion@@PAVObjectClosureCareful@@@Z 080807d0 f   compactibleFreeListSpace.obj
 0001:0007f830       ?block_start_const@CompactibleFreeListSpace@@UBEPAVHeapWord@@PBX@Z 08080830 f   compactibleFreeListSpace.obj
 0001:0007f860       ?obj_is_alive@CompactibleFreeListSpace@@UBE_NPBVHeapWord@@@Z 08080860 f   compactibleFreeListSpace.obj
 0001:0007f920       ?par_allocate@CompactibleFreeListSpace@@UAEPAVHeapWord@@I@Z 08080920 f   compactibleFreeListSpace.obj
 0001:0007f960       ?verifyChunkInFreeLists@CompactibleFreeListSpace@@QBE_NPAVFreeChunk@@@Z 08080960 f   compactibleFreeListSpace.obj
 0001:0007f9a0       ?save_marks@CompactibleFreeListSpace@@QAEXXZ 080809a0 f   compactibleFreeListSpace.obj
 0001:0007f9d0       ?no_allocs_since_save_marks@CompactibleFreeListSpace@@QAE_NXZ 080809d0 f   compactibleFreeListSpace.obj
 0001:0007fa10       ?repairLinearAllocBlock@CompactibleFreeListSpace@@AAEXPAVLinearAllocBlock@@@Z 08080a10 f   compactibleFreeListSpace.obj
 0001:0007fa30       ?should_concurrent_collect@CompactibleFreeListSpace@@QBE_NXZ 08080a30 f   compactibleFreeListSpace.obj
 0001:0007fa50       ?prepare_for_compaction@CompactibleFreeListSpace@@UAEXPAVCompactPoint@@@Z 08080a50 f   compactibleFreeListSpace.obj
 0001:0007fc30       ?flsFrag@CompactibleFreeListSpace@@QBENXZ 08080c30 f   compactibleFreeListSpace.obj
 0001:0007fd00       ?setFLSurplus@CompactibleFreeListSpace@@QAEXXZ 08080d00 f   compactibleFreeListSpace.obj
 0001:0007fd40       ?coalOverPopulated@CompactibleFreeListSpace@@QAE_NI@Z 08080d40 f   compactibleFreeListSpace.obj
 0001:0007fd90       ?coalBirth@CompactibleFreeListSpace@@QAEXI@Z 08080d90 f   compactibleFreeListSpace.obj
 0001:0007fdd0       ?coalDeath@CompactibleFreeListSpace@@QAEXI@Z 08080dd0 f   compactibleFreeListSpace.obj
 0001:0007fe10       ?splitBirth@CompactibleFreeListSpace@@QAEXI@Z 08080e10 f   compactibleFreeListSpace.obj
 0001:0007fe50       ?splitDeath@CompactibleFreeListSpace@@QAEXI@Z 08080e50 f   compactibleFreeListSpace.obj
 0001:0007fe90       ?split@CompactibleFreeListSpace@@QAEXII@Z 08080e90 f   compactibleFreeListSpace.obj
 0001:0007ff50       ?verifyIndexedFreeList@CompactibleFreeListSpace@@QBEXI@Z 08080f50 f   compactibleFreeListSpace.obj
 0001:00080080       ?printFLCensus@CompactibleFreeListSpace@@QBEXI@Z 08081080 f   compactibleFreeListSpace.obj
 0001:00080240       ?stopTrackingPromotions@PromotionInfo@@QAEXI@Z 08081240 f   compactibleFreeListSpace.obj
 0001:00080260       ?print_on@PromotionInfo@@QBEXPAVoutputStream@@@Z 08081260 f   compactibleFreeListSpace.obj
 0001:00080370       ??0CFLS_LAB@@QAE@PAVCompactibleFreeListSpace@@@Z 08081370 f   compactibleFreeListSpace.obj
 0001:000803d0       ?modify_initialization@CFLS_LAB@@SAXII@Z 080813d0 f   compactibleFreeListSpace.obj
 0001:00080420       ?compute_desired_plab_size@CFLS_LAB@@SAXXZ 08081420 f   compactibleFreeListSpace.obj
 0001:000804e0       ?retire@CFLS_LAB@@QAEXH@Z  080814e0 f   compactibleFreeListSpace.obj
 0001:000805f0       ?initialize_sequential_subtasks_for_rescan@CompactibleFreeListSpace@@QAEXH@Z 080815f0 f   compactibleFreeListSpace.obj
 0001:00080630       ?initialize_sequential_subtasks_for_marking@CompactibleFreeListSpace@@QAEXHPAVHeapWord@@@Z 08081630 f   compactibleFreeListSpace.obj
 0001:000806c0       ?allocated@BlockOffsetArrayNonContigSpace@@QAEXPAVHeapWord@@I@Z 080816c0 f i compactibleFreeListSpace.obj
 0001:000806f0       ?next_compaction_space@CompactibleSpace@@UBEPAV1@XZ 080816f0 f i compactibleFreeListSpace.obj
 0001:00080700       ?adjust_object_size_v@CompactibleSpace@@UBEII@Z 08081700 f i compactibleFreeListSpace.obj
 0001:00080710       ?cross_threshold@CompactibleSpace@@MAEPAVHeapWord@@PAV2@0@Z 08081710 f i compactibleFreeListSpace.obj
 0001:00080720       ?adjustObjectSize@CompactibleFreeListSpace@@SAII@Z 08081720 f i compactibleFreeListSpace.obj
 0001:00080740       ?is_parsable@oopDesc@@QAE_NXZ 08081740 f i compactibleFreeListSpace.obj
 0001:00080760       ?is_oop@oopDesc@@QBE_N_N@Z 08081760 f i compactibleFreeListSpace.obj
 0001:00080820       ?adjust_pointers@oopDesc@@QAEHXZ 08081820 f i compactibleFreeListSpace.obj
 0001:00080830       ??0CompactibleFreeListSpace@@QAE@PAVBlockOffsetSharedArray@@VMemRegion@@_NW4DictionaryChoice@FreeBlockDictionary@@@Z 08081830 f   compactibleFreeListSpace.obj
 0001:00080a90       ?used_region@CompactibleFreeListSpace@@UBE?AVMemRegion@@XZ 08081a90 f i compactibleFreeListSpace.obj
 0001:00080ad0       ?is_in@CompactibleFreeListSpace@@UBE_NPBX@Z 08081ad0 f i compactibleFreeListSpace.obj
 0001:00080b10       ?kind@TenuredGeneration@@UAE?AW4Name@Generation@@XZ 08081b10 f i tenuredGeneration.obj
 0001:00080b10       ?kind@G1CollectorPolicy@@UAE?AW4Name@CollectorPolicy@@XZ 08081b10 f i g1CollectorPolicy.obj
 0001:00080b10       ?kind@CMSGCAdaptivePolicyCounters@@UBE?AW4Name@GCPolicyCounters@@XZ 08081b10 f i cmsGCAdaptivePolicyCounters.obj
 0001:00080b10       ?type@static_call_Relocation@@EAE?AW4relocType@relocInfo@@XZ 08081b10 f i assembler_x86.obj
 0001:00080b10       ?kind@ParNewMemoryManager@@UAE?AW4Name@MemoryManager@@XZ 08081b10 f i memoryManager.obj
 0001:00080b10       ?barrier_set_name@G1CollectorPolicy@@UAE?AW4Name@BarrierSet@@XZ 08081b10 f i g1CollectorPolicy.obj
 0001:00080b10       ?pd_code_alignment@VtableStub@@CAHXZ 08081b10 f i vtableStubs_x86_32.obj
 0001:00080b10       ?kind@G1CollectedHeap@@UBE?AW4Name@CollectedHeap@@XZ 08081b10 f i g1CollectedHeap.obj
 0001:00080b10       ?minimum_free_block_size@CompactibleFreeListSpace@@UBEIXZ 08081b10 f i compactibleFreeListSpace.obj
 0001:00080b10       ?type@VM_FindDeadlocks@@UBE?AW4VMOp_Type@VM_Operation@@XZ 08081b10 f i attachListener.obj
 0001:00080b20       ?adjust_object_size_v@CompactibleFreeListSpace@@UBEII@Z 08081b20 f i compactibleFreeListSpace.obj
 0001:00080b40       ?free@CompactibleFreeListSpace@@UBEIXZ 08081b40 f   compactibleFreeListSpace.obj
 0001:00080b90       ?reportIndexedFreeListStatistics@CompactibleFreeListSpace@@ABEXXZ 08081b90 f   compactibleFreeListSpace.obj
 0001:00080c60       ?oop_iterate@CompactibleFreeListSpace@@UAEXPAVOopClosure@@@Z 08081c60 f   compactibleFreeListSpace.obj
 0001:00080cc0       ?oop_iterate@CompactibleFreeListSpace@@UAEXVMemRegion@@PAVOopClosure@@@Z 08081cc0 f   compactibleFreeListSpace.obj
 0001:00080e00       ?block_size@CompactibleFreeListSpace@@UBEIPBVHeapWord@@@Z 08081e00 f   compactibleFreeListSpace.obj
 0001:00080e40       ?block_size_no_stall@CompactibleFreeListSpace@@QBEIPAVHeapWord@@PBVCMSCollector@@@Z 08081e40 f   compactibleFreeListSpace.obj
 0001:00080ec0       ?block_is_obj@CompactibleFreeListSpace@@UBE_NPBVHeapWord@@@Z 08081ec0 f   compactibleFreeListSpace.obj
 0001:00080ee0       ?expansionSpaceRequired@CompactibleFreeListSpace@@QBEII@Z 08081ee0 f   compactibleFreeListSpace.obj
 0001:00080f10       ?getChunkFromLinearAllocBlockRemainder@CompactibleFreeListSpace@@AAEPAVHeapWord@@PAVLinearAllocBlock@@I@Z 08081f10 f   compactibleFreeListSpace.obj
 0001:00080fd0       ?returnChunkToDictionary@CompactibleFreeListSpace@@AAEXPAVFreeChunk@@@Z 08081fd0 f   compactibleFreeListSpace.obj
 0001:00081010       ?addChunkToFreeLists@CompactibleFreeListSpace@@AAEXPAVHeapWord@@I@Z 08082010 f   compactibleFreeListSpace.obj
 0001:00081090       ?addChunkAndRepairOffsetTable@CompactibleFreeListSpace@@QAEXPAVHeapWord@@I_N@Z 08082090 f   compactibleFreeListSpace.obj
 0001:000810d0       ?removeChunkFromDictionary@CompactibleFreeListSpace@@AAEXPAVFreeChunk@@@Z 080820d0 f   compactibleFreeListSpace.obj
 0001:00081110       ?splitChunkAndReturnRemainder@CompactibleFreeListSpace@@AAEPAVFreeChunk@@PAV2@I@Z 08082110 f   compactibleFreeListSpace.obj
 0001:00081230       ?adjust_pointers@CompactibleFreeListSpace@@UAEXXZ 08082230 f   compactibleFreeListSpace.obj
 0001:00081300       ?beginSweepFLCensus@CompactibleFreeListSpace@@QAEXMMM@Z 08082300 f   compactibleFreeListSpace.obj
 0001:000813b0       ?endSweepFLCensus@CompactibleFreeListSpace@@QAEXI@Z 080823b0 f   compactibleFreeListSpace.obj
 0001:00081480       ?prepare_for_verify@CompactibleFreeListSpace@@QAEXXZ 08082480 f   compactibleFreeListSpace.obj
 0001:000814a0       ?do_blk@VerifyAllBlksClosure@@UAEIPAVHeapWord@@@Z 080824a0 f i compactibleFreeListSpace.obj
 0001:00081570       ?verifyIndexedFreeLists@CompactibleFreeListSpace@@QBEXXZ 08082570 f   compactibleFreeListSpace.obj
 0001:000815d0       ?verify@PromotionInfo@@QBEXXZ 080825d0 f   compactibleFreeListSpace.obj
 0001:00081760       ?par_get_chunk_of_blocks@CompactibleFreeListSpace@@AAEXIIPAVFreeList@@@Z 08082760 f   compactibleFreeListSpace.obj
 0001:00081c10       ?init_mark@oopDesc@@QAEXXZ 08082c10 f i compactibleFreeListSpace.obj
 0001:00081c30       ?forward@CompactibleFreeListSpace@@EAEPAVHeapWord@@PAVoopDesc@@IPAVCompactPoint@@PAV2@@Z 08082c30 f   compactibleFreeListSpace.obj
 0001:00081d00       ?reset@CompactibleFreeListSpace@@IAEXVMemRegion@@@Z 08082d00 f   compactibleFreeListSpace.obj
 0001:00081de0       ?print_indexed_free_lists@CompactibleFreeListSpace@@QBEXPAVoutputStream@@@Z 08082de0 f   compactibleFreeListSpace.obj
 0001:00081ea0       ?do_blk@BlkPrintingClosure@@UAEIPAVHeapWord@@@Z 08082ea0 f   compactibleFreeListSpace.obj
 0001:00081fc0       ?dump_at_safepoint_with_locks@CompactibleFreeListSpace@@QAEXPAVCMSCollector@@PAVoutputStream@@@Z 08082fc0 f   compactibleFreeListSpace.obj
 0001:00082100       ?reportFreeListStatistics@CompactibleFreeListSpace@@ABEXXZ 08083100 f   compactibleFreeListSpace.obj
 0001:00082180       ?walk_mem_region_with_cl_par@FreeListSpace_DCTOC@@IAEXVMemRegion@@PAVHeapWord@@1PAVOopClosure@@@Z 08083180 f   compactibleFreeListSpace.obj
 0001:00082330       ?walk_mem_region_with_cl_nopar@FreeListSpace_DCTOC@@IAEXVMemRegion@@PAVHeapWord@@1PAVOopClosure@@@Z 08083330 f   compactibleFreeListSpace.obj
 0001:000824d0       ?walk_mem_region_with_cl_par@FreeListSpace_DCTOC@@IAEXVMemRegion@@PAVHeapWord@@1PAVFilteringClosure@@@Z 080834d0 f   compactibleFreeListSpace.obj
 0001:00082680       ?walk_mem_region_with_cl_nopar@FreeListSpace_DCTOC@@IAEXVMemRegion@@PAVHeapWord@@1PAVFilteringClosure@@@Z 08083680 f   compactibleFreeListSpace.obj
 0001:00082820       ?new_dcto_cl@CompactibleFreeListSpace@@UAEPAVDirtyCardToOopClosure@@PAVOopClosure@@W4PrecisionStyle@CardTableModRefBS@@PAVHeapWord@@@Z 08083820 f   compactibleFreeListSpace.obj
 0001:00082870       ?getChunkFromDictionary@CompactibleFreeListSpace@@AAEPAVFreeChunk@@I@Z 08083870 f   compactibleFreeListSpace.obj
 0001:000828d0       ?getChunkFromDictionaryExact@CompactibleFreeListSpace@@AAEPAVFreeChunk@@I@Z 080838d0 f   compactibleFreeListSpace.obj
 0001:00082970       ?addChunkToFreeListsAtEndRecordingStats@CompactibleFreeListSpace@@AAEXPAVHeapWord@@I@Z 08083970 f   compactibleFreeListSpace.obj
 0001:00082a90       ?removeFreeChunkFromFreeLists@CompactibleFreeListSpace@@QAEXPAVFreeChunk@@@Z 08083a90 f   compactibleFreeListSpace.obj
 0001:00082af0       ?gc_epilogue@CompactibleFreeListSpace@@QAEXXZ 08083af0 f   compactibleFreeListSpace.obj
 0001:00082b50       ?promoted_oops_iterate_nv@PromotionInfo@@QAEXPAVScanClosure@@@Z 08083b50 f   compactibleFreeListSpace.obj
 0001:00082c10       ?promoted_oops_iterate_nv@PromotionInfo@@QAEXPAVFastScanClosure@@@Z 08083c10 f   compactibleFreeListSpace.obj
 0001:00082cd0       ?promoted_oops_iterate_nv@PromotionInfo@@QAEXPAVParScanWithBarrierClosure@@@Z 08083cd0 f   compactibleFreeListSpace.obj
 0001:00082d90       ?promoted_oops_iterate_nv@PromotionInfo@@QAEXPAVParScanWithoutBarrierClosure@@@Z 08083d90 f   compactibleFreeListSpace.obj
 0001:00082e50       ?promoted_oops_iterate_v@PromotionInfo@@QAEXPAVOopsInGenClosure@@@Z 08083e50 f   compactibleFreeListSpace.obj
 0001:00082f10       ?compact@CompactibleFreeListSpace@@UAEXXZ 08083f10 f   compactibleFreeListSpace.obj
 0001:00083070       ?do_oop@VerifyAllOopsClosure@@UAEXPAPAVoopDesc@@@Z 08084070 f i compactibleFreeListSpace.obj
 0001:00083090       ?do_oop@VerifyAllOopsClosure@@IAEXPAXPAVoopDesc@@@Z 08084090 f i compactibleFreeListSpace.obj
 0001:000831c0       ?do_oop@VerifyAllOopsClosure@@UAEXPAI@Z 080841c0 f i compactibleFreeListSpace.obj
 0001:000831d0       ??$do_oop_work@I@VerifyAllOopsClosure@@IAEXPAI@Z 080841d0 f i compactibleFreeListSpace.obj
 0001:00083200       ?verify@CompactibleFreeListSpace@@UBEX_N@Z 08084200 f   compactibleFreeListSpace.obj
 0001:000833a0       ?get_from_global_pool@CFLS_LAB@@AAEXIPAVFreeList@@@Z 080843a0 f   compactibleFreeListSpace.obj
 0001:00083430       ?set_end@CompactibleFreeListSpace@@UAEXPAVHeapWord@@@Z 08084430 f   compactibleFreeListSpace.obj
 0001:00083500       ?walk_mem_region_with_cl@FreeListSpace_DCTOC@@MAEXVMemRegion@@PAVHeapWord@@1PAVOopClosure@@@Z 08084500 f   compactibleFreeListSpace.obj
 0001:00083560       ?walk_mem_region_with_cl@FreeListSpace_DCTOC@@MAEXVMemRegion@@PAVHeapWord@@1PAVFilteringClosure@@@Z 08084560 f   compactibleFreeListSpace.obj
 0001:000835c0       ?getChunkFromGreater@CompactibleFreeListSpace@@AAEPAVFreeChunk@@I@Z 080845c0 f   compactibleFreeListSpace.obj
 0001:00083670       ?allocateScratch@CompactibleFreeListSpace@@QAEPAVFreeChunk@@I@Z 08084670 f   compactibleFreeListSpace.obj
 0001:000836c0       ?bestFitSmall@CompactibleFreeListSpace@@AAEPAVFreeChunk@@I@Z 080846c0 f   compactibleFreeListSpace.obj
 0001:00083750       ?oop_since_save_marks_iterate_v@CompactibleFreeListSpace@@QAEXPAVOopsInGenClosure@@@Z 08084750 f   compactibleFreeListSpace.obj
 0001:00083760       ?oop_since_save_marks_iterate_nv@CompactibleFreeListSpace@@QAEXPAVScanClosure@@@Z 08084760 f   compactibleFreeListSpace.obj
 0001:00083770       ?oop_since_save_marks_iterate_nv@CompactibleFreeListSpace@@QAEXPAVFastScanClosure@@@Z 08084770 f   compactibleFreeListSpace.obj
 0001:00083780       ?oop_since_save_marks_iterate_nv@CompactibleFreeListSpace@@QAEXPAVParScanWithBarrierClosure@@@Z 08084780 f   compactibleFreeListSpace.obj
 0001:00083790       ?oop_since_save_marks_iterate_nv@CompactibleFreeListSpace@@QAEXPAVParScanWithoutBarrierClosure@@@Z 08084790 f   compactibleFreeListSpace.obj
 0001:000837a0       ?alloc@CFLS_LAB@@QAEPAVHeapWord@@I@Z 080847a0 f   compactibleFreeListSpace.obj
 0001:00083850       ?getChunkFromIndexedFreeListHelper@CompactibleFreeListSpace@@AAEPAVFreeChunk@@I_N@Z 08084850 f   compactibleFreeListSpace.obj
 0001:000839e0       ?saveDisplacedHeader@PromotionInfo@@QAEXPAVmarkOopDesc@@@Z 080849e0 f   compactibleFreeListSpace.obj
 0001:00083a60       ?ensure_spooling_space_work@PromotionInfo@@AAE_NXZ 08084a60 f   compactibleFreeListSpace.obj
 0001:00083ae0       ?refillLinearAllocBlock@CompactibleFreeListSpace@@AAEXPAVLinearAllocBlock@@@Z 08084ae0 f   compactibleFreeListSpace.obj
 0001:00083b40       ?track@PromotionInfo@@QAEXPAVPromotedObject@@PAVklassOopDesc@@@Z 08084b40 f   compactibleFreeListSpace.obj
 0001:00083bd0       ?getChunkFromLinearAllocBlock@CompactibleFreeListSpace@@AAEPAVHeapWord@@PAVLinearAllocBlock@@I@Z 08084bd0 f   compactibleFreeListSpace.obj
 0001:00083d00       ?promote@CompactibleFreeListSpace@@QAEPAVoopDesc@@PAV2@I@Z 08084d00 f   compactibleFreeListSpace.obj
 0001:00083d80       ?reset_after_compaction@CompactibleFreeListSpace@@UAEXXZ 08084d80 f   compactibleFreeListSpace.obj
 0001:00083e50       ?allocate_non_adaptive_freelists@CompactibleFreeListSpace@@AAEPAVHeapWord@@I@Z 08084e50 f   compactibleFreeListSpace.obj
 0001:00083eb0       ?allocate_adaptive_freelists@CompactibleFreeListSpace@@AAEPAVHeapWord@@I@Z 08084eb0 f   compactibleFreeListSpace.obj
 0001:00083f30       ?sweep_completed@CompactibleFreeListSpace@@QAEXXZ 08084f30 f   compactibleFreeListSpace.obj
 0001:00083f70       ?gc_prologue@CompactibleFreeListSpace@@QAEXXZ 08084f70 f   compactibleFreeListSpace.obj
 0001:00083fd0       ?allocate@CompactibleFreeListSpace@@UAEPAVHeapWord@@I@Z 08084fd0 f   compactibleFreeListSpace.obj
 0001:00084000       ?initialize_performance_counters@CompactingPermGenGen@@AAEXXZ 08085000 f   compactingPermGenGen.obj
 0001:00084080       ?contiguous_available@CompactingPermGenGen@@UBEIXZ 08085080 f   compactingPermGenGen.obj
 0001:00084090       ?max_capacity@CompactingPermGenGen@@UBEIXZ 08085090 f   compactingPermGenGen.obj
 0001:000840a0       ?invalidate_remembered_set@CompactingPermGenGen@@UAEXXZ 080850a0 f   compactingPermGenGen.obj
 0001:000840a0       ?invalidate_remembered_set@CardGeneration@@UAEXXZ 080850a0 f   generation.obj
 0001:000840d0       ?remap_shared_readonly_as_readwrite@CompactingPermGenGen@@SA_NXZ 080850d0 f   compactingPermGenGen.obj
 0001:000840f0       ?set_saved_mark@ContiguousSpace@@UAEXXZ 080850f0 f i compactingPermGenGen.obj
 0001:00084100       ?used@ContiguousSpace@@UBEIXZ 08085100 f i compactingPermGenGen.obj
 0001:00084110       ?free@ContiguousSpace@@UBEIXZ 08085110 f i compactingPermGenGen.obj
 0001:00084120       ?used_region@ContiguousSpace@@UBE?AVMemRegion@@XZ 08085120 f i compactingPermGenGen.obj
 0001:00084140       ?used_region_at_save_marks@ContiguousSpace@@UBE?AVMemRegion@@XZ 08085140 f i compactingPermGenGen.obj
 0001:00084140       ?used_region_at_save_marks@Space@@UBE?AVMemRegion@@XZ 08085140 f i compactibleFreeListSpace.obj
 0001:00084160       ?obj_allocated_since_save_marks@ContiguousSpace@@UBE_NQAVoopDesc@@@Z 08085160 f i compactingPermGenGen.obj
 0001:00084180       ?block_is_obj@ContiguousSpace@@UBE_NPBVHeapWord@@@Z 08085180 f i compactingPermGenGen.obj
 0001:000841a0       ?allocate@OffsetTableContigSpace@@UAEPAVHeapWord@@I@Z 080851a0 f i compactingPermGenGen.obj
 0001:000841d0       ?par_allocate@OffsetTableContigSpace@@UAEPAVHeapWord@@I@Z 080851d0 f i compactingPermGenGen.obj
 0001:00084220       ?block_start_const@OffsetTableContigSpace@@UBEPAVHeapWord@@PBX@Z 08085220 f i compactingPermGenGen.obj
 0001:00084220       ?block_start@G1OffsetTableContigSpace@@UAEPAVHeapWord@@PBX@Z 08085220 f i heapRegion.obj
 0001:00084250       ?update_counters@CompactingPermGenGen@@UAEXXZ 08085250 f   compactingPermGenGen.obj
 0001:000842a0       ?space_iterate@CompactingPermGenGen@@UAEXPAVSpaceClosure@@_N@Z 080852a0 f   compactingPermGenGen.obj
 0001:000842f0       ?print_on@CompactingPermGenGen@@UBEXPAVoutputStream@@@Z 080852f0 f   compactingPermGenGen.obj
 0001:00084370       ?younger_refs_iterate@CompactingPermGenGen@@UAEXPAVOopsInGenClosure@@@Z 08085370 f   compactingPermGenGen.obj
 0001:000843d0       ?adjust_pointers@CompactingPermGenGen@@UAEXXZ 080853d0 f   compactingPermGenGen.obj
 0001:000843e0       ?compact@CompactingPermGenGen@@UAEXXZ 080853e0 f   compactingPermGenGen.obj
 0001:000843f0       ?clear_remembered_set@CompactingPermGenGen@@UAEXXZ 080853f0 f   compactingPermGenGen.obj
 0001:00084420       ?verify@CompactingPermGenGen@@UAEX_N@Z 08085420 f   compactingPermGenGen.obj
 0001:00084480       ?reset_after_compaction@ContiguousSpace@@UAEXXZ 08085480 f i compactingPermGenGen.obj
 0001:00084490       ?pre_adjust_pointers@CompactingPermGenGen@@UAEXXZ 08085490 f   compactingPermGenGen.obj
 0001:00084520       ??0OneContigSpaceCardGeneration@@QAE@VReservedSpace@@IIHPAVGenRemSet@@PAVContiguousSpace@@@Z 08085520 f i compactingPermGenGen.obj
 0001:00084590       ?kind@Generation@@UAE?AW4Name@1@XZ 08085590 f i compactingPermGenGen.obj
 0001:00084590       ?type@runtime_call_Relocation@@EAE?AW4relocType@relocInfo@@XZ 08085590 f i assembler_x86.obj
 0001:00084590       ?type@VM_ForceAsyncSafepoint@@UBE?AW4VMOp_Type@VM_Operation@@XZ 08085590 f i synchronizer.obj
 0001:00084590       ?kind@PSScavengeMemoryManager@@UAE?AW4Name@MemoryManager@@XZ 08085590 f i memoryManager.obj
 0001:000845a0       ?is_in@OneContigSpaceCardGeneration@@UBE_NPBX@Z 080855a0 f i compactingPermGenGen.obj
 0001:000845b0       ?first_compaction_space@OneContigSpaceCardGeneration@@UBEPAVCompactibleSpace@@XZ 080855b0 f i compactingPermGenGen.obj
 0001:000845c0       ?allocate@OneContigSpaceCardGeneration@@UAEPAVHeapWord@@I_N@Z 080855c0 f i compactingPermGenGen.obj
 0001:000845e0       ?par_allocate@OneContigSpaceCardGeneration@@UAEPAVHeapWord@@I_N@Z 080855e0 f i compactingPermGenGen.obj
 0001:00084600       ?block_is_obj@OneContigSpaceCardGeneration@@UBE_NPBVHeapWord@@@Z 08085600 f i compactingPermGenGen.obj
 0001:00084620       ?block_size@OneContigSpaceCardGeneration@@UBEIPBVHeapWord@@@Z 08085620 f i compactingPermGenGen.obj
 0001:00084650       ?do_object@AdjustSharedObjectClosure@@UAEXPAVoopDesc@@@Z 08085650 f i compactingPermGenGen.obj
 0001:00084690       ??0CompactingPermGenGen@@QAE@VReservedSpace@@0IHPAVGenRemSet@@PAVContiguousSpace@@PAVPermanentGenerationSpec@@@Z 08085690 f   compactingPermGenGen.obj
 0001:00084df0       ?name@CompactingPermGenGen@@UBEPBDXZ 08085df0 f i compactingPermGenGen.obj
 0001:00084e00       ?short_name@CompactingPermGenGen@@UBEPBDXZ 08085e00 f i compactingPermGenGen.obj
 0001:00084e10       ?is_in@CompactingPermGenGen@@UBE_NPBX@Z 08085e10 f i compactingPermGenGen.obj
 0001:00084e50       ?block_is_obj@CompactingPermGenGen@@UBE_NPBVHeapWord@@@Z 08085e50 f i compactingPermGenGen.obj
 0001:00084ea0       ?block_size@CompactingPermGenGen@@UBEIPBVHeapWord@@@Z 08085ea0 f i compactingPermGenGen.obj
 0001:00084fc0       ?do_oop@RecursiveAdjustSharedObjectClosure@@UAEXPAPAVoopDesc@@@Z 08085fc0 f i compactingPermGenGen.obj
 0001:00084fd0       ??$do_oop_work@PAVoopDesc@@@RecursiveAdjustSharedObjectClosure@@IAEXPAPAVoopDesc@@@Z 08085fd0 f i compactingPermGenGen.obj
 0001:00085050       ?do_oop@RecursiveAdjustSharedObjectClosure@@UAEXPAI@Z 08086050 f i compactingPermGenGen.obj
 0001:00085060       ??$do_oop_work@I@RecursiveAdjustSharedObjectClosure@@IAEXPAI@Z 08086060 f i compactingPermGenGen.obj
 0001:000850f0       ?do_oop@TraversePlaceholdersClosure@@UAEXPAPAVoopDesc@@@Z 080860f0 f i compactingPermGenGen.obj
 0001:00085100       ??$do_oop_work@PAVoopDesc@@@TraversePlaceholdersClosure@@IAEXPAPAVoopDesc@@@Z 08086100 f i compactingPermGenGen.obj
 0001:00085180       ?do_oop@TraversePlaceholdersClosure@@UAEXPAI@Z 08086180 f i compactingPermGenGen.obj
 0001:00085190       ??$do_oop_work@I@TraversePlaceholdersClosure@@IAEXPAI@Z 08086190 f i compactingPermGenGen.obj
 0001:00085220       ?should_compile_new_jobs@CompileBroker@@SA_NXZ 08086220 f i compilationPolicy.obj
 0001:00085240       ?completed_vm_startup@CompilationPolicy@@SAXXZ 08086240 f   compilationPolicy.obj
 0001:00085250       ?compilation_level@SimpleCompPolicy@@UAEHVmethodHandle@@H@Z 08086250 f   compilationPolicy.obj
 0001:00085260       ?is_not_osr_compilable@methodOopDesc@@QBE_NXZ 08086260 f i compilationPolicy.obj
 0001:00085290       ?canBeCompiled@CompilationPolicy@@SA_NVmethodHandle@@@Z 08086290 f   compilationPolicy.obj
 0001:000852e0       ?reset_counter_for_invocation_event@CompilationPolicy@@QAEXVmethodHandle@@@Z 080862e0 f   compilationPolicy.obj
 0001:00085300       ?reset_counter_for_back_branch_event@CompilationPolicy@@QAEXVmethodHandle@@@Z 08086300 f   compilationPolicy.obj
 0001:00085340       ?method_invocation_event@SimpleCompPolicy@@UAEXVmethodHandle@@PAVThread@@@Z 08086340 f   compilationPolicy.obj
 0001:000853c0       ?method_back_branch_event@SimpleCompPolicy@@UAEXVmethodHandle@@HHPAVThread@@@Z 080863c0 f   compilationPolicy.obj
 0001:00085430       ?compilationPolicy_init@@YAXXZ 08086430 f   compilationPolicy.obj
 0001:00085490       ?mustBeCompiled@CompilationPolicy@@SA_NVmethodHandle@@@Z 08086490 f   compilationPolicy.obj
 0001:000854f0       ?set_should_block@CompileBroker@@SAXXZ 080864f0 f   compileBroker.obj
 0001:00085500       ?print_times@CompileBroker@@SAXXZ 08086500 f   compileBroker.obj
 0001:000856c0       ??8Handle@@QBE_NABV0@@Z    080866c0 f i compileBroker.obj
 0001:000856f0       ?decay@InvocationCounter@@QAEXXZ 080866f0 f i compileBroker.obj
 0001:00085720       ?lookup_osr_nmethod_for@methodOopDesc@@QAEPAVnmethod@@H@Z 08086720 f i compileBroker.obj
 0001:00085740       ??1PerfTraceTime@@QAE@XZ   08086740 f i compileBroker.obj
 0001:00085780       ?unallocated_capacity@CodeCache@@SAIXZ 08086780 f i compileBroker.obj
 0001:000857a0       ?needs_flushing@CodeCache@@SA_NXZ 080867a0 f i compileBroker.obj
 0001:000857d0       ?initialize@CompileTask@@QAEXHVmethodHandle@@HH0HPBD_N@Z 080867d0 f   compileBroker.obj
 0001:00085880       ?set_code@CompileTask@@QAEXPAVnmethod@@@Z 08086880 f   compileBroker.obj
 0001:000858e0       ?free@CompileTask@@QAEXXZ  080868e0 f   compileBroker.obj
 0001:00085930       ?compilation_is_complete@CompileBroker@@CA_NVmethodHandle@@HH@Z 08086930 f   compileBroker.obj
 0001:000859b0       ?assign_compile_id@CompileBroker@@CAIVmethodHandle@@H@Z 080869b0 f   compileBroker.obj
 0001:000859f0       ?allocate_task@CompileBroker@@CAPAVCompileTask@@XZ 080869f0 f   compileBroker.obj
 0001:00085a90       ?resolve_string_constants@constantPoolOopDesc@@QAEXPAVThread@@@Z 08086a90 f i compileBroker.obj
 0001:00085b00       ?print_line_on_error@CompileTask@@QAEXPAVoutputStream@@PADH@Z 08086b00 f   compileBroker.obj
 0001:00085c50       ?print_line@CompileTask@@QAEXXZ 08086c50 f   compileBroker.obj
 0001:00085e00       ?log_task@CompileTask@@QAEXPAVxmlStream@@@Z 08086e00 f   compileBroker.obj
 0001:00085f20       ?log_task_queued@CompileTask@@QAEXXZ 08086f20 f   compileBroker.obj
 0001:00086090       ?log_task_done@CompileTask@@QAEXPAVCompileLog@@@Z 08087090 f   compileBroker.obj
 0001:000861f0       ??0CompilerCounters@@QAE@PBDHPAVThread@@@Z 080871f0 f   compileBroker.obj
 0001:00086370       ?make_compiler_thread@CompileBroker@@CAPAVCompilerThread@@PBDPAVCompileQueue@@PAVCompilerCounters@@PAVThread@@@Z 08087370 f   compileBroker.obj
 0001:00086550       ?compilation_is_prohibited@CompileBroker@@CA_NVmethodHandle@@HH@Z 08087550 f   compileBroker.obj
 0001:00086670       ?wait_for_completion@CompileBroker@@CAXPAVCompileTask@@@Z 08087670 f   compileBroker.obj
 0001:00086720       ?init_compiler_thread_log@CompileBroker@@SAXXZ 08087720 f   compileBroker.obj
 0001:00086890       ?handle_full_code_cache@CompileBroker@@SAXXZ 08087890 f   compileBroker.obj
 0001:00086900       ?set_last_compile@CompileBroker@@CAXPAVCompilerThread@@VmethodHandle@@_NH@Z 08087900 f   compileBroker.obj
 0001:00086a80       ?collect_statistics@CompileBroker@@CAXPAVCompilerThread@@VelapsedTimer@@PAVCompileTask@@@Z 08087a80 f   compileBroker.obj
 0001:00086ea0       ?jmethod_id@methodOopDesc@@QAEPAU_jmethodID@@XZ 08087ea0 f i compileBroker.obj
 0001:00086ed0       ??1CompileTaskWrapper@@QAE@XZ 08087ed0 f   compileBroker.obj
 0001:00086f60       ?add@CompileQueue@@QAEXPAVCompileTask@@@Z 08087f60 f   compileBroker.obj
 0001:00086fc0       ?init_compiler_threads@CompileBroker@@CAXH@Z 08087fc0 f   compileBroker.obj
 0001:00087140       ?create_compile_task@CompileBroker@@CAPAVCompileTask@@PAVCompileQueue@@HVmethodHandle@@HH1HPBD_N@Z 08088140 f   compileBroker.obj
 0001:00087180       ?invoke_compiler_on_method@CompileBroker@@CAXPAVCompileTask@@@Z 08088180 f   compileBroker.obj
 0001:000875e0       ?compilation_init@CompileBroker@@SAXXZ 080885e0 f   compileBroker.obj
 0001:00087990       ?compile_method_base@CompileBroker@@CAXVmethodHandle@@HH0HPBDPAVThread@@@Z 08088990 f   compileBroker.obj
 0001:00087aa0       ?compile_method@CompileBroker@@SAPAVnmethod@@VmethodHandle@@H0HPBDPAVThread@@@Z 08088aa0 f   compileBroker.obj
 0001:00087c60       ?compiler_thread_loop@CompileBroker@@SAXXZ 08088c60 f   compileBroker.obj
 0001:00087f60       ?name@CompileLog@@QAEXPAVciSymbol@@@Z 08088f60 f   compileLog.obj
 0001:00087fa0       ?clear_identities@CompileLog@@QAEXXZ 08088fa0 f   compileLog.obj
 0001:00087fb0       ?print_raw_cr@outputStream@@QAEXPBD@Z 08088fb0 f i compileLog.obj
 0001:00087fe0       ??_GfileStream@@UAEPAXI@Z  08088fe0 f i compileLog.obj
 0001:00087fe0       ??_EfileStream@@UAEPAXI@Z  08088fe0 f i compileLog.obj
 0001:00088010       ??0CompileLog@@QAE@PBDPAU_iobuf@@H@Z 08089010 f   compileLog.obj
 0001:00088120       ?see_tag@CompileLog@@UAEXPBD_N@Z 08089120 f   compileLog.obj
 0001:00088170       ?pop_tag@CompileLog@@UAEXPBD@Z 08089170 f   compileLog.obj
 0001:00088190       ?identify@CompileLog@@QAEHPAVciObject@@@Z 08089190 f   compileLog.obj
 0001:00088510       ?finish_log_on_error@CompileLog@@SAXPAVoutputStream@@PADH@Z 08089510 f   compileLog.obj
 0001:00088790       ?finish_log@CompileLog@@SAXPAVoutputStream@@@Z 08089790 f   compileLog.obj
 0001:000887c0       ??_GxmlStream@@UAEPAXI@Z   080897c0 f i compileLog.obj
 0001:000887c0       ??_ExmlStream@@UAEPAXI@Z   080897c0 f i compileLog.obj
 0001:000887f0       ??_ECompileLog@@UAEPAXI@Z  080897f0 f i compileLog.obj
 0001:000887f0       ??_GCompileLog@@UAEPAXI@Z  080897f0 f i compileLog.obj
 0001:00088850       ?is_in_transition_state@CompiledIC@@ABE_NXZ 08089850 f   compiledIC.obj
 0001:00088870       ?stub_address@CompiledIC@@ABEPAEXZ 08089870 f   compiledIC.obj
 0001:00088880       ?opt_virtual_call_reloc@RelocIterator@@QAEPAVopt_virtual_call_Relocation@@XZ 08089880 f i compiledIC.obj
 0001:000888a0       ?static_call_reloc@RelocIterator@@QAEPAVstatic_call_Relocation@@XZ 080898a0 f i compiledIC.obj
 0001:000888c0       ?instructions_contains@CodeBlob@@QBE_NPAE@Z 080898c0 f i compiledIC.obj
 0001:000888f0       ?cached_oop@CompiledIC@@QBEPAVoopDesc@@XZ 080898f0 f   compiledIC.obj
 0001:00088930       ?set_ic_destination@CompiledIC@@AAEXPAE@Z 08089930 f   compiledIC.obj
 0001:00088970       ?ic_destination@CompiledIC@@QBEPAEXZ 08089970 f   compiledIC.obj
 0001:000889a0       ?is_megamorphic@CompiledIC@@QBE_NXZ 080899a0 f   compiledIC.obj
 0001:000889e0       ?is_clean@CompiledIC@@QBE_NXZ 080899e0 f   compiledIC.obj
 0001:00088a30       ?compute_monomorphic_entry@CompiledIC@@SAXVmethodHandle@@VKlassHandle@@_N2AAVCompiledICInfo@@PAVThread@@@Z 08089a30 f   compiledIC.obj
 0001:00088ae0       ??0CompiledIC@@AAE@PAVNativeCall@@@Z 08089ae0 f   compiledIC.obj
 0001:00088b30       ??0CompiledIC@@AAE@PAVRelocation@@@Z 08089b30 f   compiledIC.obj
 0001:00088b90       ?set_to_clean@CompiledStaticCall@@QAEXXZ 08089b90 f   compiledIC.obj
 0001:00088bd0       ?is_clean@CompiledStaticCall@@QBE_NXZ 08089bd0 f   compiledIC.obj
 0001:00088bf0       ?compute_entry@CompiledStaticCall@@SAXVmethodHandle@@AAVStaticCallInfo@@@Z 08089bf0 f   compiledIC.obj
 0001:00088c30       ?set_stub_to_clean@CompiledStaticCall@@SAXPAVstatic_stub_Relocation@@@Z 08089c30 f   compiledIC.obj
 0001:00088c70       ?find_stub@CompiledStaticCall@@QAEPAEXZ 08089c70 f   compiledIC.obj
 0001:00088d60       ?set_cached_oop@CompiledIC@@AAEXPAVoopDesc@@@Z 08089d60 f   compiledIC.obj
 0001:00088e40       ?set_to_megamorphic@CompiledIC@@QAEXPAVCallInfo@@W4Code@Bytecodes@@PAVThread@@@Z 08089e40 f   compiledIC.obj
 0001:00088ee0       ?set_to_clean@CompiledIC@@QAEXXZ 08089ee0 f   compiledIC.obj
 0001:00088f80       ?set_to_interpreted@CompiledStaticCall@@AAEXVmethodHandle@@PAE@Z 08089f80 f   compiledIC.obj
 0001:00088fe0       ?set@CompiledStaticCall@@QAEXABVStaticCallInfo@@@Z 08089fe0 f   compiledIC.obj
 0001:00089030       ?set_to_monomorphic@CompiledIC@@QAEXABVCompiledICInfo@@@Z 0808a030 f   compiledIC.obj
 0001:000891b0       ?oop_print_value_on@klassKlass@@UAEXPAVoopDesc@@PAVoutputStream@@@Z 0808a1b0 f   klassKlass.obj
 0001:000891b0       ?oop_print_value_on@compiledICHolderKlass@@UAEXPAVoopDesc@@PAVoutputStream@@@Z 0808a1b0 f   compiledICHolderKlass.obj
 0001:000891c0       ?internal_name@compiledICHolderKlass@@UBEPBDXZ 0808a1c0 f   compiledICHolderKlass.obj
 0001:000891d0       ?common_permanent_mem_allocate_noinit@CollectedHeap@@KAPAVHeapWord@@IPAVThread@@@Z 0808a1d0 f i compiledICHolderKlass.obj
 0001:00089240       ?oop_size@compiledICHolderKlass@@UBEHPAVoopDesc@@@Z 0808a240 f   compiledICHolderKlass.obj
 0001:00089250       ?oop_oop_iterate@compiledICHolderKlass@@UAEHPAVoopDesc@@PAVOopClosure@@@Z 0808a250 f   compiledICHolderKlass.obj
 0001:00089290       ?oop_oop_iterate_m@compiledICHolderKlass@@UAEHPAVoopDesc@@PAVOopClosure@@VMemRegion@@@Z 0808a290 f   compiledICHolderKlass.obj
 0001:00089300       ?create_klass@compiledICHolderKlass@@SAPAVklassOopDesc@@PAVThread@@@Z 0808a300 f   compiledICHolderKlass.obj
 0001:000893a0       ?oop_adjust_pointers@compiledICHolderKlass@@UAEHPAVoopDesc@@@Z 0808a3a0 f   compiledICHolderKlass.obj
 0001:00089420       ?oop_update_pointers@compiledICHolderKlass@@UAEHPAVParCompactionManager@@PAVoopDesc@@@Z 0808a420 f   compiledICHolderKlass.obj
 0001:00089470       ?oop_verify_on@compiledICHolderKlass@@UAEXPAVoopDesc@@PAVoutputStream@@@Z 0808a470 f   compiledICHolderKlass.obj
 0001:00089590       ?permanent_obj_allocate_no_klass_install@CollectedHeap@@SAPAVoopDesc@@VKlassHandle@@HPAVThread@@@Z 0808a590 f i compiledICHolderKlass.obj
 0001:00089610       ?allocate_permanent@compiledICHolderKlass@@UBEPAXAAVKlassHandle@@HPAVThread@@@Z 0808a610 f i compiledICHolderKlass.obj
 0001:00089680       ?oop_update_pointers@compiledICHolderKlass@@UAEHPAVParCompactionManager@@PAVoopDesc@@PAVHeapWord@@2@Z 0808a680 f   compiledICHolderKlass.obj
 0001:000896e0       ??$mark_and_push@I@PSParallelCompact@@SAXPAVParCompactionManager@@PAI@Z 0808a6e0 f i compiledICHolderKlass.obj
 0001:00089740       ?oop_follow_contents@compiledICHolderKlass@@UAEXPAVParCompactionManager@@PAVoopDesc@@@Z 0808a740 f   compiledICHolderKlass.obj
 0001:000897f0       ??$mark_and_push@I@MarkSweep@@SAXPAI@Z 0808a7f0 f i compiledICHolderKlass.obj
 0001:00089850       ?oop_follow_contents@compiledICHolderKlass@@UAEXPAVoopDesc@@@Z 0808a850 f   compiledICHolderKlass.obj
 0001:00089880       ?permanent_obj_allocate@CollectedHeap@@SAPAVoopDesc@@VKlassHandle@@HPAVThread@@@Z 0808a880 f i compiledICHolderKlass.obj
 0001:000898e0       ?allocate@compiledICHolderKlass@@QAEPAVcompiledICHolderOopDesc@@PAVThread@@@Z 0808a8e0 f   compiledICHolderKlass.obj
 0001:00089cb0       ?parse_from_string@CompilerOracle@@SAXPBDP6AXPAD@Z@Z 0808acb0 f   compilerOracle.obj
 0001:00089d20       ?new_symbol_handle@oopFactory@@SA?AVsymbolHandle@@PADPAVThread@@@Z 0808ad20 f i compilerOracle.obj
 0001:00089d20       ?new_symbol_handle@oopFactory@@SA?AVsymbolHandle@@PBDPAVThread@@@Z 0808ad20 f i compilerOracle.obj
 0001:00089d60       ??0MethodMatcher@@QAE@VsymbolHandle@@W4Mode@0@010PAV0@@Z 0808ad60 f   compilerOracle.obj
 0001:00089de0       ?match@MethodMatcher@@KA_NVsymbolHandle@@0W4Mode@1@@Z 0808ade0 f   compilerOracle.obj
 0001:0008a030       ?parse_from_line@CompilerOracle@@SAXPAD@Z 0808b030 f   compilerOracle.obj
 0001:0008a360       ?parse_from_file@CompilerOracle@@SAXXZ 0808b360 f   compilerOracle.obj
 0001:0008a400       ?parse_compile_only@CompilerOracle@@SAXPAD@Z 0808b400 f   compilerOracle.obj
 0001:0008a750       ??0symbolHandle@@QAE@PAVsymbolOopDesc@@@Z 0808b750 f i compilerOracle.obj
 0001:0008a750       ??0methodHandle@@QAE@PAVmethodOopDesc@@@Z 0808b750 f i ciMethod.obj
 0001:0008a770       ?find@MethodMatcher@@QAEPAV1@VmethodHandle@@@Z 0808b770 f i compilerOracle.obj
 0001:0008a8d0       ?print@MethodMatcher@@UAEXXZ 0808b8d0 f i compilerOracle.obj
 0001:0008a8e0       ?print_base@MethodMatcher@@QAEXXZ 0808b8e0 f i compilerOracle.obj
 0001:0008a990       ?print_symbol@MethodMatcher@@SAXVsymbolHandle@@W4Mode@1@@Z 0808b990 f i compilerOracle.obj
 0001:0008aa40       ?match@MethodOptionMatcher@@QAE_NVmethodHandle@@PBD@Z 0808ba40 f i compilerOracle.obj
 0001:0008aab0       ?print@MethodOptionMatcher@@UAEXXZ 0808bab0 f i compilerOracle.obj
 0001:0008aae0       ?has_option_string@CompilerOracle@@SA_NVmethodHandle@@PBD@Z 0808bae0 f   compilerOracle.obj
 0001:0008ab10       ?should_exclude@CompilerOracle@@SA_NVmethodHandle@@AA_N@Z 0808bb10 f   compilerOracle.obj
 0001:0008ab60       ?should_print@CompilerOracle@@SA_NVmethodHandle@@@Z 0808bb60 f   compilerOracle.obj
 0001:0008ab90       ?should_log@CompilerOracle@@SA_NVmethodHandle@@@Z 0808bb90 f   compilerOracle.obj
 0001:0008abd0       ?should_break_at@CompilerOracle@@SA_NVmethodHandle@@@Z 0808bbd0 f   compilerOracle.obj
 0001:0008ac00       ?compilerOracle_init@@YAXXZ 0808bc00 f   compilerOracle.obj
 0001:0008ac70       ?reverse_int@CompressedStream@@KAII@Z 0808bc70 f i compressedStream.obj
 0001:0008ace0       ?grow@CompressedWriteStream@@AAEXXZ 0808bce0 f   compressedStream.obj
 0001:0008ad20       ??0CompressedWriteStream@@QAE@H@Z 0808bd20 f   compressedStream.obj
 0001:0008ad60       ?read_int_mb@CompressedReadStream@@AAEHH@Z 0808bd60 f   compressedStream.obj
 0001:0008ade0       ?write_int_mb@CompressedWriteStream@@AAEXH@Z 0808bde0 f   compressedStream.obj
 0001:0008ae90       ?read_signed_int@CompressedReadStream@@QAEHXZ 0808be90 f   compressedStream.obj
 0001:0008aec0       ?read_double@CompressedReadStream@@QAENXZ 0808bec0 f   compressedStream.obj
 0001:0008af40       ?read_long@CompressedReadStream@@QAE_JXZ 0808bf40 f   compressedStream.obj
 0001:0008afb0       ?write_signed_int@CompressedWriteStream@@QAEXH@Z 0808bfb0 f   compressedStream.obj
 0001:0008aff0       ?write_double@CompressedWriteStream@@QAEXN@Z 0808bff0 f   compressedStream.obj
 0001:0008b080       ?write_long@CompressedWriteStream@@QAEX_J@Z 0808c080 f   compressedStream.obj
 0001:0008b0f0       ?reinitialize_threads@ConcurrentG1Refine@@QAEXXZ 0808c0f0 f   concurrentG1Refine.obj
 0001:0008b150       ?threads_do@ConcurrentG1Refine@@QAEXPAVThreadClosure@@@Z 0808c150 f   concurrentG1Refine.obj
 0001:0008b190       ?print_worker_threads_on@ConcurrentG1Refine@@QBEXPAVoutputStream@@@Z 0808c190 f   concurrentG1Refine.obj
 0001:0008b1d0       ?cmpxchg@Atomic@@SA_J_JPC_J0@Z 0808c1d0 f i concurrentG1Refine.obj
 0001:0008b230       ?addr_to_region@HeapRegionSeq@@QAEPAVHeapRegion@@PBX@Z 0808c230 f i concurrentG1Refine.obj
 0001:0008b260       ?thread_num@ConcurrentG1Refine@@SAHXZ 0808c260 f   concurrentG1Refine.obj
 0001:0008b280       ?clean_up_cache@ConcurrentG1Refine@@QAEXHPAVG1RemSet@@@Z 0808c280 f   concurrentG1Refine.obj
 0001:0008b320       ?expand_card_count_cache@ConcurrentG1Refine@@AAEXXZ 0808c320 f   concurrentG1Refine.obj
 0001:0008b3d0       ?heap_region_containing@G1CollectedHeap@@QBEPAVHeapRegion@@PBX@Z 0808c3d0 f i concurrentG1Refine.obj
 0001:0008b420       ??0ConcurrentG1Refine@@QAE@XZ 0808c420 f   concurrentG1Refine.obj
 0001:0008b5b0       ?init@ConcurrentG1Refine@@QAEXXZ 0808c5b0 f   concurrentG1Refine.obj
 0001:0008b790       ?is_young_card@ConcurrentG1Refine@@AAE_NPAC@Z 0808c790 f   concurrentG1Refine.obj
 0001:0008b800       ?add_card_count@ConcurrentG1Refine@@AAEPACPACPAHPA_N@Z 0808c800 f   concurrentG1Refine.obj
 0001:0008b9d0       ?cache_insert@ConcurrentG1Refine@@QAEPACPACPA_N@Z 0808c9d0 f   concurrentG1Refine.obj
 0001:0008ba90       ?clear_and_record_card_counts@ConcurrentG1Refine@@QAEXXZ 0808ca90 f   concurrentG1Refine.obj
 0001:0008bad0       ?sample_young_list_rs_lengths@ConcurrentG1RefineThread@@AAEXXZ 0808cad0 f   concurrentG1RefineThread.obj
 0001:0008bb70       ?yield@ConcurrentG1RefineThread@@UAEXXZ 0808cb70 f   concurrentG1RefineThread.obj
 0001:0008bbc0       ?print_on@ConcurrentG1RefineThread@@QBEXPAVoutputStream@@@Z 0808cbc0 f   concurrentG1RefineThread.obj
 0001:0008bc00       ?name@NamedThread@@UBEPADXZ 0808cc00 f i concurrentG1RefineThread.obj
 0001:0008bc10       ?initialize@ConcurrentG1RefineThread@@QAEXXZ 0808cc10 f   concurrentG1RefineThread.obj
 0001:0008bc60       ?run_young_rs_sampling@ConcurrentG1RefineThread@@AAEXXZ 0808cc60 f   concurrentG1RefineThread.obj
 0001:0008bd20       ?activate@ConcurrentG1RefineThread@@AAEXXZ 0808cd20 f   concurrentG1RefineThread.obj
 0001:0008bda0       ?deactivate@ConcurrentG1RefineThread@@AAEXXZ 0808cda0 f   concurrentG1RefineThread.obj
 0001:0008be10       ??0ConcurrentG1RefineThread@@QAE@PAVConcurrentG1Refine@@PAV0@HH@Z 0808ce10 f   concurrentG1RefineThread.obj
 0001:0008bf10       ?wait_for_completed_buffers@ConcurrentG1RefineThread@@AAEXXZ 0808cf10 f   concurrentG1RefineThread.obj
 0001:0008bf80       ?run@ConcurrentG1RefineThread@@UAEXXZ 0808cf80 f   concurrentG1RefineThread.obj
 0001:0008c0f0       ?create_and_start@ConcurrentGCThread@@IAEXXZ 0808d0f0 f   concurrentGCThread.obj
 0001:0008c130       ?initialize_in_thread@ConcurrentGCThread@@IAEXXZ 0808d130 f   concurrentGCThread.obj
 0001:0008c150       ?wait_for_universe_init@ConcurrentGCThread@@IAEXXZ 0808d150 f   concurrentGCThread.obj
 0001:0008c1b0       ?terminate@ConcurrentGCThread@@IAEXXZ 0808d1b0 f   concurrentGCThread.obj
 0001:0008c1f0       ?initialize_work@SuspendibleThreadSet@@AAEXXZ 0808d1f0 f   concurrentGCThread.obj
 0001:0008c250       ?leave@SuspendibleThreadSet@@QAEXXZ 0808d250 f   concurrentGCThread.obj
 0001:0008c290       ?yield@SuspendibleThreadSet@@QAEXPBD@Z 0808d290 f   concurrentGCThread.obj
 0001:0008c300       ?manipulatePLL@SurrogateLockerThread@@QAEXW4SLT_msg_type@1@@Z 0808d300 f   concurrentGCThread.obj
 0001:0008c360       ?loop@SurrogateLockerThread@@QAEXXZ 0808d360 f   concurrentGCThread.obj
 0001:0008c410       ?stsLeave@ConcurrentGCThread@@SAXXZ 0808d410 f   concurrentGCThread.obj
 0001:0008c460       ??0ConcurrentGCThread@@QAE@XZ 0808d460 f   concurrentGCThread.obj
 0001:0008c4a0       ?safepoint_desynchronize@ConcurrentGCThread@@SAXXZ 0808d4a0 f   concurrentGCThread.obj
 0001:0008c4e0       ?join@SuspendibleThreadSet@@QAEXXZ 0808d4e0 f   concurrentGCThread.obj
 0001:0008c530       ?suspend_all@SuspendibleThreadSet@@QAEXXZ 0808d530 f   concurrentGCThread.obj
 0001:0008c5a0       ??0SurrogateLockerThread@@QAE@XZ 0808d5a0 f   concurrentGCThread.obj
 0001:0008c5e0       ?name@JavaThread@@UBEPADXZ 0808d5e0 f i concurrentGCThread.obj
 0001:0008c5f0       ??_ESurrogateLockerThread@@UAEPAXI@Z 0808d5f0 f i concurrentGCThread.obj
 0001:0008c5f0       ??_GSurrogateLockerThread@@UAEPAXI@Z 0808d5f0 f i concurrentGCThread.obj
 0001:0008c620       ?make@SurrogateLockerThread@@SAPAV1@PAVThread@@@Z 0808d620 f   concurrentGCThread.obj
 0001:0008c7f0       ?stsJoin@ConcurrentGCThread@@SAXXZ 0808d7f0 f   concurrentGCThread.obj
 0001:0008c800       ?safepoint_synchronize@ConcurrentGCThread@@SAXXZ 0808d800 f   concurrentGCThread.obj
 0001:0008c810       ?insert_before_head@EmptyNonHRegionList@@UAEXPAVHeapRegion@@@Z 0808d810 f i concurrentMark.obj
 0001:0008c820       ?get_next@UncleanRegionList@@UAEPAVHeapRegion@@PAV2@@Z 0808d820 f i concurrentMark.obj
 0001:0008c830       ?set_next@UncleanRegionList@@UAEXPAVHeapRegion@@0@Z 0808d830 f i concurrentMark.obj
 0001:0008c850       ?insert_before_head@UncleanRegionList@@UAEXPAVHeapRegion@@@Z 0808d850 f i concurrentMark.obj
 0001:0008c880       ?pop@UncleanRegionList@@UAEPAVHeapRegion@@XZ 0808d880 f i concurrentMark.obj
 0001:0008c8a0       ?all_task_accum_vtime@ConcurrentMark@@QAENXZ 0808d8a0 f i concurrentMark.obj
 0001:0008c900       ?set_known_garbage_bytes@G1CollectorPolicy@@QAEXI@Z 0808d900 f i concurrentMark.obj
 0001:0008c950       ?decrease_known_garbage_bytes@G1CollectorPolicy@@QAEXI@Z 0808d950 f i concurrentMark.obj
 0001:0008c9d0       ?oops_do@CMMarkStack@@QAEXPAVOopClosure@@@Z 0808d9d0 f   concurrentMark.obj
 0001:0008ca20       ?work@G1ParScrubRemSetTask@@UAEXH@Z 0808da20 f i concurrentMark.obj
 0001:0008ca60       ?newCSet@ConcurrentMark@@QAEXXZ 0808da60 f   concurrentMark.obj
 0001:0008cad0       ?print_worker_threads_on@ConcurrentMark@@QBEXPAVoutputStream@@@Z 0808dad0 f   concurrentMark.obj
 0001:0008cae0       ?note_end_of_marking@HeapRegion@@QAEXXZ 0808dae0 f i concurrentMark.obj
 0001:0008cb30       ?mark@CMBitMap@@QAEXPAVHeapWord@@@Z 0808db30 f i concurrentMark.obj
 0001:0008cb60       ?get_new_prediction@G1CollectorPolicy@@QAENPAVTruncatedSeq@@@Z 0808db60 f i concurrentMark.obj
 0001:0008cbe0       ??0CMBitMapRO@@QAE@VReservedSpace@@H@Z 0808dbe0 f   concurrentMark.obj
 0001:0008ccb0       ?iterate@CMBitMapRO@@QAE_NPAVBitMapClosure@@VMemRegion@@@Z 0808dcb0 f   concurrentMark.obj
 0001:0008cd10       ?mostly_disjoint_range_union@CMBitMapRO@@QAEXPAVBitMap@@IPAVHeapWord@@I@Z 0808dd10 f   concurrentMark.obj
 0001:0008cd40       ?clearRange@CMBitMap@@QAEXVMemRegion@@@Z 0808dd40 f   concurrentMark.obj
 0001:0008cda0       ?allocate@CMMarkStack@@QAEXI@Z 0808dda0 f   concurrentMark.obj
 0001:0008ce10       ?par_push@CMMarkStack@@QAEXPAVoopDesc@@@Z 0808de10 f   concurrentMark.obj
 0001:0008ce90       ?par_push_arr@CMMarkStack@@QAEXPAPAVoopDesc@@H@Z 0808de90 f   concurrentMark.obj
 0001:0008cf00       ?par_pop_arr@CMMarkStack@@QAE_NPAPAVoopDesc@@HPAH@Z 0808df00 f   concurrentMark.obj
 0001:0008cfa0       ?allocate@CMRegionStack@@QAEXI@Z 0808dfa0 f   concurrentMark.obj
 0001:0008d010       ?push@CMRegionStack@@QAEXVMemRegion@@@Z 0808e010 f   concurrentMark.obj
 0001:0008d0a0       ?pop_with_lock@CMRegionStack@@QAE?AVMemRegion@@XZ 0808e0a0 f   concurrentMark.obj
 0001:0008d110       ?update_g1_committed@ConcurrentMark@@QAEX_N@Z 0808e110 f   concurrentMark.obj
 0001:0008d150       ?set_phase@ConcurrentMark@@IAEXI_N@Z 0808e150 f   concurrentMark.obj
 0001:0008d220       ?checkpointRootsInitialPost@ConcurrentMark@@QAEXXZ 0808e220 f   concurrentMark.obj
 0001:0008d270       ??0CalcLiveObjectsClosure@@QAE@_NPAVCMBitMapRO@@PAVConcurrentMark@@PAVBitMap@@3@Z 0808e270 f i concurrentMark.obj
 0001:0008d2e0       ?calcDesiredRegions@ConcurrentMark@@QAEXXZ 0808e2e0 f   concurrentMark.obj
 0001:0008d380       ??0G1ParFinalCountTask@@QAE@PAVG1CollectedHeap@@PAVCMBitMap@@PAVBitMap@@2@Z 0808e380 f i concurrentMark.obj
 0001:0008d430       ?work@G1ParFinalCountTask@@UAEXH@Z 0808e430 f i concurrentMark.obj
 0001:0008d4a0       ??_EG1ParFinalCountTask@@UAEPAXI@Z 0808e4a0 f i concurrentMark.obj
 0001:0008d4a0       ??_GG1ParFinalCountTask@@UAEPAXI@Z 0808e4a0 f i concurrentMark.obj
 0001:0008d4e0       ?work@G1ParNoteEndTask@@UAEXH@Z 0808e4e0 f i concurrentMark.obj
 0001:0008d5b0       ?doHeapRegion@G1NoteEndOfConcMarkClosure@@UAE_NPAVHeapRegion@@@Z 0808e5b0 f   concurrentMark.obj
 0001:0008d680       ?completeCleanup@ConcurrentMark@@QAEXXZ 0808e680 f   concurrentMark.obj
 0001:0008d720       ?drainAllSATBBuffers@ConcurrentMark@@QAEXXZ 0808e720 f   concurrentMark.obj
 0001:0008d780       ?markPrev@ConcurrentMark@@QAEXPAVoopDesc@@@Z 0808e780 f   concurrentMark.obj
 0001:0008d7b0       ?clearRangeBothMaps@ConcurrentMark@@QAEXVMemRegion@@@Z 0808e7b0 f   concurrentMark.obj
 0001:0008d7f0       ?clear_marking_state@ConcurrentMark@@IAEXXZ 0808e7f0 f   concurrentMark.obj
 0001:0008d860       ??0CSMarkOopClosure@@QAE@PAVConcurrentMark@@H@Z 0808e860 f i concurrentMark.obj
 0001:0008d920       ?doHeapRegion@CompleteMarkingInCSHRClosure@@UAE_NPAVHeapRegion@@@Z 0808e920 f i concurrentMark.obj
 0001:0008d970       ?doHeapRegion@ClearMarksInHRClosure@@UAE_NPAVHeapRegion@@@Z 0808e970 f i concurrentMark.obj
 0001:0008d9d0       ?complete_marking_in_collection_set@ConcurrentMark@@QAEXXZ 0808e9d0 f   concurrentMark.obj
 0001:0008db10       ?registerCSetRegion@ConcurrentMark@@QAEXPAVHeapRegion@@@Z 0808eb10 f   concurrentMark.obj
 0001:0008db40       ?abort@ConcurrentMark@@QAEXXZ 0808eb40 f   concurrentMark.obj
 0001:0008dc50       ?print_summary_info@ConcurrentMark@@QAEXXZ 0808ec50 f   concurrentMark.obj
 0001:0008dde0       ?regular_clock_call@CMTask@@AAEXXZ 0808ede0 f   concurrentMark.obj
 0001:0008de80       ?drain_satb_buffers@CMTask@@QAEXXZ 0808ee80 f   concurrentMark.obj
 0001:0008dfb0       ?print_stats@CMTask@@QAEXXZ 0808efb0 f   concurrentMark.obj
 0001:0008e060       ??0CMTask@@QAE@HPAVConcurrentMark@@PAV?$GenericTaskQueue@PAVoopDesc@@@@PAV?$GenericTaskQueueSet@PAVoopDesc@@@@@Z 0808f060 f   concurrentMark.obj
 0001:0008e130       ?peek@?$GenericTaskQueueSet@PAVoopDesc@@@@UAE_NXZ 0808f130 f i concurrentMark.obj
 0001:0008e130       ?peek@?$GenericTaskQueueSet@VStarTask@@@@UAE_NXZ 0808f130 f i g1CollectedHeap.obj
 0001:0008e130       ?peek@?$GenericTaskQueueSet@I@@UAE_NXZ 0808f130 f i psCompactionManager.obj
 0001:0008e170       ?initialize@?$GenericTaskQueue@VStarTask@@@@QAEXXZ 0808f170 f i g1CollectedHeap.obj
 0001:0008e170       ?initialize@?$GenericTaskQueue@I@@QAEXXZ 0808f170 f i psCompactionManager.obj
 0001:0008e170       ?initialize@?$GenericTaskQueue@PAVoopDesc@@@@QAEXXZ 0808f170 f i concurrentMark.obj
 0001:0008e1d0       ?oops_do@?$GenericTaskQueue@PAVoopDesc@@@@QAEXPAVOopClosure@@@Z 0808f1d0 f i concurrentMark.obj
 0001:0008e230       ?get_next_zero_offset_inline@BitMap@@QBEIII@Z 0808f230 f i concurrentMark.obj
 0001:0008e310       ?mark_stack_push@ConcurrentMark@@QAE_NPAVoopDesc@@@Z 0808f310 f i concurrentMark.obj
 0001:0008e350       ?region_stack_push@ConcurrentMark@@QAE_NVMemRegion@@@Z 0808f350 f i concurrentMark.obj
 0001:0008e390       ?region_stack_push_with_lock@ConcurrentMark@@QAE_NVMemRegion@@@Z 0808f390 f i concurrentMark.obj
 0001:0008e410       ?isMarkedNext@G1CollectedHeap@@QBE_NPAVoopDesc@@@Z 0808f410 f i concurrentMark.obj
 0001:0008e460       ?getNextMarkedWordAddress@CMBitMapRO@@QBEPAVHeapWord@@PAV2@0@Z 0808f460 f   concurrentMark.obj
 0001:0008e4c0       ?invalidate_entries_into_cset@CMRegionStack@@QAE_NXZ 0808f4c0 f   concurrentMark.obj
 0001:0008e560       ?reset@ConcurrentMark@@IAEXXZ 0808f560 f   concurrentMark.obj
 0001:0008e630       ?clearNextBitmap@ConcurrentMark@@QAEXXZ 0808f630 f   concurrentMark.obj
 0001:0008e7c0       ?doHeapRegion@NoteStartOfMarkHRClosure@@UAE_NPAVHeapRegion@@@Z 0808f7c0 f i concurrentMark.obj
 0001:0008e7e0       ?note_start_of_marking@HeapRegion@@QAEX_N@Z 0808f7e0 f i concurrentMark.obj
 0001:0008e830       ?checkpointRootsInitialPre@ConcurrentMark@@QAEXXZ 0808f830 f   concurrentMark.obj
 0001:0008e850       ?checkpointRootsInitial@ConcurrentMark@@QAEXXZ 0808f850 f   concurrentMark.obj
 0001:0008e9c0       ?enter_first_sync_barrier@ConcurrentMark@@IAEXH@Z 0808f9c0 f   concurrentMark.obj
 0001:0008ea50       ?grayRoot@ConcurrentMark@@QAEXPAVoopDesc@@@Z 0808fa50 f   concurrentMark.obj
 0001:0008eab0       ?grayRegionIfNecessary@ConcurrentMark@@QAEXVMemRegion@@@Z 0808fab0 f   concurrentMark.obj
 0001:0008eaf0       ?markAndGrayObjectIfNecessary@ConcurrentMark@@QAEXPAVoopDesc@@@Z 0808faf0 f   concurrentMark.obj
 0001:0008eb80       ?doHeapRegion@CalcLiveObjectsClosure@@UAE_NPAVHeapRegion@@@Z 0808fb80 f i concurrentMark.obj
 0001:0008eef0       ?set_bit_for_region@CalcLiveObjectsClosure@@QAEXPAVHeapRegion@@@Z 0808fef0 f i concurrentMark.obj
 0001:0008ef70       ?cleanup@ConcurrentMark@@QAEXXZ 0808ff70 f   concurrentMark.obj
 0001:0008f2f0       ?weakRefsWork@ConcurrentMark@@IAEX_N@Z 080902f0 f   concurrentMark.obj
 0001:0008f430       ??_GParNewGenTask@@UAEPAXI@Z 08090430 f i parNewGeneration.obj
 0001:0008f430       ??_EParNewGenTask@@UAEPAXI@Z 08090430 f i parNewGeneration.obj
 0001:0008f430       ??_GCMSConcMarkingTask@@UAEPAXI@Z 08090430 f i concurrentMarkSweepGeneration.obj
 0001:0008f430       ??_ECMSRefEnqueueTaskProxy@@UAEPAXI@Z 08090430 f i concurrentMarkSweepGeneration.obj
 0001:0008f430       ??_GCMSRefEnqueueTaskProxy@@UAEPAXI@Z 08090430 f i concurrentMarkSweepGeneration.obj
 0001:0008f430       ??_ECMSRefProcTaskProxy@@UAEPAXI@Z 08090430 f i concurrentMarkSweepGeneration.obj
 0001:0008f430       ??_ECMSConcMarkingTask@@UAEPAXI@Z 08090430 f i concurrentMarkSweepGeneration.obj
 0001:0008f430       ??_EParNewRefProcTaskProxy@@UAEPAXI@Z 08090430 f i parNewGeneration.obj
 0001:0008f430       ??_EParRebuildRSTask@@UAEPAXI@Z 08090430 f i g1CollectedHeap.obj
 0001:0008f430       ??_GAbstractGangTask@@MAEPAXI@Z 08090430 f i concurrentMark.obj
 0001:0008f430       ??_ECMConcurrentMarkingTask@@UAEPAXI@Z 08090430 f i concurrentMark.obj
 0001:0008f430       ??_GG1ParVerifyTask@@UAEPAXI@Z 08090430 f i g1CollectedHeap.obj
 0001:0008f430       ??_EAbstractGangTask@@MAEPAXI@Z 08090430 f i concurrentMark.obj
 0001:0008f430       ??_GParKnownGarbageTask@@UAEPAXI@Z 08090430 f i g1CollectorPolicy.obj
 0001:0008f430       ??_GYieldingFlexibleGangTask@@MAEPAXI@Z 08090430 f i concurrentMarkSweepGeneration.obj
 0001:0008f430       ??_ECMSParRemarkTask@@UAEPAXI@Z 08090430 f i concurrentMarkSweepGeneration.obj
 0001:0008f430       ??_EYieldingFlexibleGangTask@@MAEPAXI@Z 08090430 f i concurrentMarkSweepGeneration.obj
 0001:0008f430       ??_EG1ParCleanupCTTask@@UAEPAXI@Z 08090430 f i g1CollectedHeap.obj
 0001:0008f430       ??_GCMRemarkTask@@UAEPAXI@Z 08090430 f i concurrentMark.obj
 0001:0008f430       ??_EParKnownGarbageTask@@UAEPAXI@Z 08090430 f i g1CollectorPolicy.obj
 0001:0008f430       ??_GCMConcurrentMarkingTask@@UAEPAXI@Z 08090430 f i concurrentMark.obj
 0001:0008f430       ??_EG1ParScrubRemSetTask@@UAEPAXI@Z 08090430 f i concurrentMark.obj
 0001:0008f430       ??_GCMSRefProcTaskProxy@@UAEPAXI@Z 08090430 f i concurrentMarkSweepGeneration.obj
 0001:0008f430       ??_GG1ParScrubRemSetTask@@UAEPAXI@Z 08090430 f i concurrentMark.obj
 0001:0008f430       ??_EParNewRefEnqueueTaskProxy@@UAEPAXI@Z 08090430 f i parNewGeneration.obj
 0001:0008f430       ??_GParNewRefEnqueueTaskProxy@@UAEPAXI@Z 08090430 f i parNewGeneration.obj
 0001:0008f430       ??_GG1ParCleanupCTTask@@UAEPAXI@Z 08090430 f i g1CollectedHeap.obj
 0001:0008f430       ??_GParRebuildRSTask@@UAEPAXI@Z 08090430 f i g1CollectedHeap.obj
 0001:0008f430       ??_GCMSParRemarkTask@@UAEPAXI@Z 08090430 f i concurrentMarkSweepGeneration.obj
 0001:0008f430       ??_EG1ParNoteEndTask@@UAEPAXI@Z 08090430 f i concurrentMark.obj
 0001:0008f430       ??_GParNewRefProcTaskProxy@@UAEPAXI@Z 08090430 f i parNewGeneration.obj
 0001:0008f430       ??_GG1ParNoteEndTask@@UAEPAXI@Z 08090430 f i concurrentMark.obj
 0001:0008f430       ??_ECMRemarkTask@@UAEPAXI@Z 08090430 f i concurrentMark.obj
 0001:0008f430       ??_EG1ParVerifyTask@@UAEPAXI@Z 08090430 f i g1CollectedHeap.obj
 0001:0008f460       ?claim_region@ConcurrentMark@@IAEPAVHeapRegion@@H@Z 08090460 f   concurrentMark.obj
 0001:0008f560       ?oops_do@ConcurrentMark@@QAEXPAVOopClosure@@@Z 08090560 f   concurrentMark.obj
 0001:0008f5c0       ?print_stats@ConcurrentMark@@IAEXXZ 080905c0 f   concurrentMark.obj
 0001:0008f620       ?should_exit_termination@CMTask@@UAE_NXZ 08090620 f   concurrentMark.obj
 0001:0008f650       ?drain_region_stack@CMTask@@QAEXPAVBitMapClosure@@@Z 08090650 f   concurrentMark.obj
 0001:0008f780       ?pop_local@?$GenericTaskQueue@I@@QAE_NAAI@Z 08090780 f i taskqueue.obj
 0001:0008f780       ?pop_local@?$GenericTaskQueue@PAVoopDesc@@@@QAE_NAAPAVoopDesc@@@Z 08090780 f i concurrentMark.obj
 0001:0008f800       ?scan_object@CMTask@@QAEXPAVoopDesc@@@Z 08090800 f i concurrentMark.obj
 0001:0008f880       ?is_obj_ill@G1CollectedHeap@@QBE_NQAVoopDesc@@PBVHeapRegion@@@Z 08090880 f i concurrentMark.obj
 0001:0008f8e0       ??0ConcurrentMark@@QAE@VReservedSpace@@H@Z 080908e0 f   concurrentMark.obj
 0001:0008fe10       ?do_oop@CMMarkRootsClosure@@UAEXPAI@Z 08090e10 f i concurrentMark.obj
 0001:0008fe20       ??$do_oop_work@I@CMMarkRootsClosure@@QAEXPAI@Z 08090e20 f i concurrentMark.obj
 0001:0008fe80       ??$do_barrier@I@OopsInGenClosure@@IAEXPAI@Z 08090e80 f i concurrentMark.obj
 0001:0008fec0       ?do_oop@CMMarkRootsClosure@@UAEXPAPAVoopDesc@@@Z 08090ec0 f i concurrentMark.obj
 0001:0008fed0       ??$do_oop_work@PAVoopDesc@@@CMMarkRootsClosure@@QAEXPAPAVoopDesc@@@Z 08090ed0 f i concurrentMark.obj
 0001:0008ff20       ??$do_barrier@PAVoopDesc@@@OopsInGenClosure@@IAEXPAPAVoopDesc@@@Z 08090f20 f i concurrentMark.obj
 0001:0008ff50       ?do_object_b@G1CMIsAliveClosure@@UAE_NPAVoopDesc@@@Z 08090f50 f i concurrentMark.obj
 0001:0008ff90       ?is_obj_ill@G1CollectedHeap@@QAE_NQAVoopDesc@@@Z 08090f90 f i concurrentMark.obj
 0001:00090010       ?do_void@G1CMDrainMarkingStackClosure@@UAEXXZ 08091010 f i concurrentMark.obj
 0001:00090030       ??$drain@VOopClosure@@@CMMarkStack@@QAE_NPAVOopClosure@@PAVCMBitMap@@_N@Z 08091030 f i concurrentMark.obj
 0001:000900c0       ?deal_with_reference@ConcurrentMark@@QAEXPAVoopDesc@@@Z 080910c0 f   concurrentMark.obj
 0001:00090140       ?move_entries_to_global_stack@CMTask@@QAEXXZ 08091140 f   concurrentMark.obj
 0001:000901c0       ?get_entries_from_global_stack@CMTask@@QAEXXZ 080911c0 f   concurrentMark.obj
 0001:00090270       ?drain_local_queue@CMTask@@QAEX_N@Z 08091270 f   concurrentMark.obj
 0001:00090320       ?drain_global_stack@CMTask@@QAEX_N@Z 08091320 f   concurrentMark.obj
 0001:00090390       ?steal_best_of_2@?$GenericTaskQueueSet@I@@QAE_NIPAHAAI@Z 08091390 f i pcTasks.obj
 0001:00090390       ?steal_best_of_2@?$GenericTaskQueueSet@PAVoopDesc@@@@QAE_NIPAHAAPAVoopDesc@@@Z 08091390 f i concurrentMark.obj
 0001:00090470       ?do_oop@G1CMKeepAliveClosure@@UAEXPAI@Z 08091470 f i concurrentMark.obj
 0001:00090480       ??$do_oop_work@I@G1CMKeepAliveClosure@@QAEXPAI@Z 08091480 f i concurrentMark.obj
 0001:00090510       ?do_oop@G1CMKeepAliveClosure@@UAEXPAPAVoopDesc@@@Z 08091510 f i concurrentMark.obj
 0001:00090520       ??$do_oop_work@PAVoopDesc@@@G1CMKeepAliveClosure@@QAEXPAPAVoopDesc@@@Z 08091520 f i concurrentMark.obj
 0001:000905a0       ?do_object@CMGlobalObjectClosure@@UAEXPAVoopDesc@@@Z 080915a0 f i concurrentMark.obj
 0001:000905b0       ?do_oop@CSMarkOopClosure@@UAEXPAI@Z 080915b0 f i concurrentMark.obj
 0001:000905c0       ??$do_oop_work@I@CSMarkOopClosure@@QAEXPAI@Z 080915c0 f i concurrentMark.obj
 0001:00090680       ?push@CSMarkOopClosure@@AAE_NPAVoopDesc@@H@Z 08091680 f i concurrentMark.obj
 0001:000906d0       ?do_oop@CSMarkOopClosure@@UAEXPAPAVoopDesc@@@Z 080916d0 f i concurrentMark.obj
 0001:000906e0       ??$do_oop_work@PAVoopDesc@@@CSMarkOopClosure@@QAEXPAPAVoopDesc@@@Z 080916e0 f i concurrentMark.obj
 0001:00090790       ?do_bit@CMBitMapClosure@@UAE_NI@Z 08091790 f i concurrentMark.obj
 0001:000907f0       ?push@CMTask@@QAEXPAVoopDesc@@@Z 080917f0 f   concurrentMark.obj
 0001:00090820       ?do_marking_step@CMTask@@QAEXN@Z 08091820 f   concurrentMark.obj
 0001:00090da0       ?work@CMConcurrentMarkingTask@@UAEXH@Z 08091da0 f i concurrentMark.obj
 0001:00090f50       ?markFromRoots@ConcurrentMark@@QAEXXZ 08091f50 f   concurrentMark.obj
 0001:00090fd0       ?work@CMRemarkTask@@UAEXH@Z 08091fd0 f i concurrentMark.obj
 0001:00091050       ?checkpointRootsFinalWork@ConcurrentMark@@QAEXXZ 08092050 f   concurrentMark.obj
 0001:000911c0       ?do_bit@CSMarkBitMapClosure@@UAE_NI@Z 080921c0 f i concurrentMark.obj
 0001:00091210       ??$drain@PAVoopDesc@@@CSMarkOopClosure@@AAE_NXZ 08092210 f i concurrentMark.obj
 0001:00091300       ?deal_with_reference@CMTask@@QAEXPAVoopDesc@@@Z 08092300 f   concurrentMark.obj
 0001:000913a0       ?checkpointRootsFinal@ConcurrentMark@@QAEX_N@Z 080923a0 f   concurrentMark.obj
 0001:00091550       ?do_object@CMObjectClosure@@UAEXPAVoopDesc@@@Z 08092550 f i concurrentMark.obj
 0001:00091560       ?do_oop@CMOopClosure@@UAEXPAI@Z 08092560 f i concurrentMark.obj
 0001:00091570       ??$do_oop_work@I@CMOopClosure@@QAEXPAI@Z 08092570 f i concurrentMark.obj
 0001:000915b0       ?do_oop@CMOopClosure@@UAEXPAPAVoopDesc@@@Z 080925b0 f i concurrentMark.obj
 0001:000915c0       ??$do_oop_work@PAVoopDesc@@@CMOopClosure@@QAEXPAPAVoopDesc@@@Z 080925c0 f i concurrentMark.obj
 0001:000915e0       ?occupancy@ConcurrentMarkSweepGeneration@@QBENXZ 080925e0 f i concurrentMarkSweepGeneration.obj
 0001:00091620       ?fabsd@@YANN@Z             08092620 f i concurrentMarkSweepGeneration.obj
 0001:00091630       ?init_initiating_occupancy@ConcurrentMarkSweepGeneration@@IAEXHH@Z 08092630 f   concurrentMarkSweepGeneration.obj
 0001:000916a0       ?initialize_performance_counters@ConcurrentMarkSweepGeneration@@QAEXXZ 080926a0 f   concurrentMarkSweepGeneration.obj
 0001:00091720       ?name@ConcurrentMarkSweepGeneration@@UBEPBDXZ 08092720 f   concurrentMarkSweepGeneration.obj
 0001:00091730       ?print@ConcurrentMarkSweepGeneration@@UBEXXZ 08092730 f   concurrentMarkSweepGeneration.obj
 0001:00091750       ?unsafe_max_alloc_nogc@ConcurrentMarkSweepGeneration@@UBEIXZ 08092750 f   concurrentMarkSweepGeneration.obj
 0001:00091760       ?promotion_failure_occurred@ConcurrentMarkSweepGeneration@@UAEXXZ 08092760 f   concurrentMarkSweepGeneration.obj
 0001:00091790       ?first_compaction_space@ConcurrentMarkSweepGeneration@@UBEPAVCompactibleSpace@@XZ 08092790 f   concurrentMarkSweepGeneration.obj
 0001:000917a0       ?space_iterate@ConcurrentMarkSweepGeneration@@UAEXPAVSpaceClosure@@_N@Z 080927a0 f   concurrentMarkSweepGeneration.obj
 0001:000917c0       ?par_promote_alloc_undo@ConcurrentMarkSweepGeneration@@UAEXHPAVHeapWord@@I@Z 080927c0 f   concurrentMarkSweepGeneration.obj
 0001:000917e0       ?par_promote_alloc_done@ConcurrentMarkSweepGeneration@@UAEXH@Z 080927e0 f   concurrentMarkSweepGeneration.obj
 0001:00091800       ?par_oop_since_save_marks_iterate_done@ConcurrentMarkSweepGeneration@@UAEXH@Z 08092800 f   concurrentMarkSweepGeneration.obj
 0001:00091820       ?should_concurrent_collect@ConcurrentMarkSweepGeneration@@UBE_NXZ 08092820 f   concurrentMarkSweepGeneration.obj
 0001:000918b0       ?save_marks@ConcurrentMarkSweepGeneration@@UAEXXZ 080928b0 f   concurrentMarkSweepGeneration.obj
 0001:00091900       ?no_allocs_since_save_marks@ConcurrentMarkSweepGeneration@@UAE_NXZ 08092900 f   concurrentMarkSweepGeneration.obj
 0001:00091910       ?object_iterate_since_last_GC@ConcurrentMarkSweepGeneration@@UAEXPAVObjectClosure@@@Z 08092910 f   concurrentMarkSweepGeneration.obj
 0001:00091920       ?update_should_unload_classes@CMSCollector@@QAE_NXZ 08092920 f   concurrentMarkSweepGeneration.obj
 0001:00091990       ?is_too_full@ConcurrentMarkSweepGeneration@@UBE_NXZ 08092990 f   concurrentMarkSweepGeneration.obj
 0001:00091a00       ?expand@ConcurrentMarkSweepGeneration@@UAE_NII@Z 08092a00 f   concurrentMarkSweepGeneration.obj
 0001:00091a10       ?shrink_by@ConcurrentMarkSweepGeneration@@MAEXI@Z 08092a10 f   concurrentMarkSweepGeneration.obj
 0001:00091a20       ??1CMSPhaseAccounting@@QAE@XZ 08092a20 f   concurrentMarkSweepGeneration.obj
 0001:00091b30       ?do_oop@FalseClosure@@UAEXPAPAVoopDesc@@@Z 08092b30 f i concurrentMarkSweepGeneration.obj
 0001:00091b50       ?do_oop@FalseClosure@@UAEXPAI@Z 08092b50 f i concurrentMarkSweepGeneration.obj
 0001:00091b70       ?yield@CMSConcMarkingTerminator@@MAEXXZ 08092b70 f   concurrentMarkSweepGeneration.obj
 0001:00091ba0       ?get_data_recorder@CMSCollector@@QAEPAXH@Z 08092ba0 f   concurrentMarkSweepGeneration.obj
 0001:00091be0       ?reset_survivor_plab_arrays@CMSCollector@@AAEXXZ 08092be0 f   concurrentMarkSweepGeneration.obj
 0001:00091c10       ?should_remember_klasses@KlassRememberingOopClosure@@UBE?B_NXZ 08092c10 f i concurrentMarkSweepGeneration.obj
 0001:00091c20       ?do_MemRegion@MarkFromDirtyCardsClosure@@UAEXVMemRegion@@@Z 08092c20 f   concurrentMarkSweepGeneration.obj
 0001:00091c60       ?do_blk@BlkClosureCareful@@UAEIPAVHeapWord@@@Z 08092c60 f i concurrentMarkSweepGeneration.obj
 0001:00091c80       ?is_user_requested_gc@GCCause@@SA_NW4Cause@1@@Z 08092c80 f i concurrentMarkSweepGeneration.obj
 0001:00091ca0       ?is_serviceability_requested_gc@GCCause@@SA_NW4Cause@1@@Z 08092ca0 f i concurrentMarkSweepGeneration.obj
 0001:00091cc0       ?print_test@AdaptiveSizePolicyOutput@@AAE_NI@Z 08092cc0 f i concurrentMarkSweepGeneration.obj
 0001:00091d10       ?push@CMSMarkStack@@QAE_NPAVoopDesc@@@Z 08092d10 f i concurrentMarkSweepGeneration.obj
 0001:00091d40       ?par_push@CMSMarkStack@@QAE_NPAVoopDesc@@@Z 08092d40 f i concurrentMarkSweepGeneration.obj
 0001:00091d90       ?do_object@SurvivorSpacePrecleanClosure@@UAEXPAVoopDesc@@@Z 08092d90 f i concurrentMarkSweepGeneration.obj
 0001:00091db0       ?do_object_careful_m@SurvivorSpacePrecleanClosure@@UAEIPAVoopDesc@@VMemRegion@@@Z 08092db0 f i concurrentMarkSweepGeneration.obj
 0001:00091dd0       ?remember_klass@KlassRememberingOopClosure@@UAEXPAVKlass@@@Z 08092dd0 f   concurrentMarkSweepGeneration.obj
 0001:00091e10       ?remember_klass@Par_KlassRememberingOopClosure@@UAEXPAVKlass@@@Z 08092e10 f   concurrentMarkSweepGeneration.obj
 0001:00091e70       ?acknowledge_yield_request@ConcurrentMarkSweepThread@@SAXXZ 08092e70 f i concurrentMarkSweepGeneration.obj
 0001:00091ee0       ?mark@CMSBitMap@@QAEXPAVHeapWord@@@Z 08092ee0 f i concurrentMarkSweepGeneration.obj
 0001:00091f10       ?par_mark@CMSBitMap@@QAE_NPAVHeapWord@@@Z 08092f10 f i concurrentMarkSweepGeneration.obj
 0001:00091f40       ?mark_range@CMSBitMap@@QAEXVMemRegion@@@Z 08092f40 f i concurrentMarkSweepGeneration.obj
 0001:00091fa0       ?clear_range@CMSBitMap@@QAEXVMemRegion@@@Z 08092fa0 f i concurrentMarkSweepGeneration.obj
 0001:00092000       ?par_mark_range@CMSBitMap@@QAEXVMemRegion@@@Z 08093000 f i concurrentMarkSweepGeneration.obj
 0001:00092050       ?should_abort_preclean@CMSCollector@@QBE_NXZ 08093050 f i concurrentMarkSweepGeneration.obj
 0001:00092090       ?record_gc0_begin@CMSStats@@QAEXXZ 08093090 f i concurrentMarkSweepGeneration.obj
 0001:00092120       ?record_gc0_end@CMSStats@@QAEXI@Z 08093120 f i concurrentMarkSweepGeneration.obj
 0001:00092220       ?record_cms_begin@CMSStats@@QAEXXZ 08093220 f i concurrentMarkSweepGeneration.obj
 0001:000922b0       ?record_cms_end@CMSStats@@QAEXXZ 080932b0 f i concurrentMarkSweepGeneration.obj
 0001:00092390       ?do_MemRegion@ModUnionClosure@@UAEXVMemRegion@@@Z 08093390 f i concurrentMarkSweepGeneration.obj
 0001:000923d0       ?do_MemRegion@ModUnionClosurePar@@UAEXVMemRegion@@@Z 080933d0 f i concurrentMarkSweepGeneration.obj
 0001:00092430       ?type@VM_CMS_Initial_Mark@@UBE?AW4VMOp_Type@VM_Operation@@XZ 08093430 f i concurrentMarkSweepGeneration.obj
 0001:00092440       ?type@VM_CMS_Final_Remark@@UBE?AW4VMOp_Type@VM_Operation@@XZ 08093440 f i concurrentMarkSweepGeneration.obj
 0001:00092450       ??0CMSParGCThreadState@@QAE@PAVCompactibleFreeListSpace@@@Z 08093450 f i concurrentMarkSweepGeneration.obj
 0001:000924b0       ?ref_processor_init@CMSCollector@@QAEXXZ 080934b0 f   concurrentMarkSweepGeneration.obj
 0001:00092590       ??0CMSStats@@QAE@PAVConcurrentMarkSweepGeneration@@I@Z 08093590 f   concurrentMarkSweepGeneration.obj
 0001:00092640       ?time_until_cms_gen_full@CMSStats@@QBENXZ 08093640 f   concurrentMarkSweepGeneration.obj
 0001:00092710       ?time_until_cms_start@CMSStats@@QBENXZ 08093710 f   concurrentMarkSweepGeneration.obj
 0001:00092750       ?icms_damped_duty_cycle@CMSStats@@KAIII@Z 08093750 f   concurrentMarkSweepGeneration.obj
 0001:000927a0       ?icms_update_duty_cycle_impl@CMSStats@@IAEIXZ 080937a0 f   concurrentMarkSweepGeneration.obj
 0001:00092890       ?update_counters@ConcurrentMarkSweepGeneration@@UAEXXZ 08093890 f   concurrentMarkSweepGeneration.obj
 0001:000928e0       ?update_counters@ConcurrentMarkSweepGeneration@@UAEXI@Z 080938e0 f   concurrentMarkSweepGeneration.obj
 0001:00092940       ?printOccupancy@ConcurrentMarkSweepGeneration@@QAEXPBD@Z 08093940 f   concurrentMarkSweepGeneration.obj
 0001:000929d0       ?contiguous_available@ConcurrentMarkSweepGeneration@@UBEIXZ 080939d0 f   concurrentMarkSweepGeneration.obj
 0001:000929f0       ?promotion_attempt_is_safe@ConcurrentMarkSweepGeneration@@UBE_NI_N@Z 080939f0 f   concurrentMarkSweepGeneration.obj
 0001:00092aa0       ?reset_after_compaction@ConcurrentMarkSweepGeneration@@QAEXXZ 08093aa0 f   concurrentMarkSweepGeneration.obj
 0001:00092af0       ?freelistLock@ConcurrentMarkSweepGeneration@@QBEPAVMutex@@XZ 08093af0 f   concurrentMarkSweepGeneration.obj
 0001:00092b00       ?direct_allocated@CMSCollector@@QAEXPAVHeapWord@@I@Z 08093b00 f   concurrentMarkSweepGeneration.obj
 0001:00092be0       ?allocation_limit_reached@CMSCollector@@QAEPAVHeapWord@@PAVSpace@@PAV2@I@Z 08093be0 f   concurrentMarkSweepGeneration.obj
 0001:00092c40       ?allocation_limit_reached@ConcurrentMarkSweepGeneration@@UAEPAVHeapWord@@PAVSpace@@PAV2@I@Z 08093c40 f   concurrentMarkSweepGeneration.obj
 0001:00092c50       ?request_full_gc@CMSCollector@@SAXI@Z 08093c50 f   concurrentMarkSweepGeneration.obj
 0001:00092ca0       ?getFreelistLocks@CMSCollector@@QBEXXZ 08093ca0 f   concurrentMarkSweepGeneration.obj
 0001:00092ce0       ?releaseFreelistLocks@CMSCollector@@QBEXXZ 08093ce0 f   concurrentMarkSweepGeneration.obj
 0001:00092d20       ??0ReleaseForegroundGC@@QAE@PAVCMSCollector@@@Z 08093d20 f i concurrentMarkSweepGeneration.obj
 0001:00092d70       ?do_bit@VerifyMarkedClosure@@UAE_NI@Z 08093d70 f i concurrentMarkSweepGeneration.obj
 0001:00092df0       ?oop_since_save_marks_iterate_v@ConcurrentMarkSweepGeneration@@UAEXPAVOopsInGenClosure@@@Z 08093df0 f   concurrentMarkSweepGeneration.obj
 0001:00092e40       ?oop_since_save_marks_iterate_nv@ConcurrentMarkSweepGeneration@@UAEXPAVScanClosure@@@Z 08093e40 f   concurrentMarkSweepGeneration.obj
 0001:00092e90       ?oop_since_save_marks_iterate_nv@ConcurrentMarkSweepGeneration@@UAEXPAVFastScanClosure@@@Z 08093e90 f   concurrentMarkSweepGeneration.obj
 0001:00092ee0       ?oop_since_save_marks_iterate_nv@ConcurrentMarkSweepGeneration@@UAEXPAVParScanWithBarrierClosure@@@Z 08093ee0 f   concurrentMarkSweepGeneration.obj
 0001:00092f30       ?oop_since_save_marks_iterate_nv@ConcurrentMarkSweepGeneration@@UAEXPAVParScanWithoutBarrierClosure@@@Z 08093f30 f   concurrentMarkSweepGeneration.obj
 0001:00092f80       ?younger_refs_iterate@ConcurrentMarkSweepGeneration@@UAEXPAVOopsInGenClosure@@@Z 08093f80 f   concurrentMarkSweepGeneration.obj
 0001:00092fc0       ?oop_iterate@ConcurrentMarkSweepGeneration@@UAEXVMemRegion@@PAVOopClosure@@@Z 08093fc0 f   concurrentMarkSweepGeneration.obj
 0001:00093040       ?oop_iterate@ConcurrentMarkSweepGeneration@@UAEXPAVOopClosure@@@Z 08094040 f   concurrentMarkSweepGeneration.obj
 0001:000930a0       ?object_iterate@ConcurrentMarkSweepGeneration@@UAEXPAVObjectClosure@@@Z 080940a0 f   concurrentMarkSweepGeneration.obj
 0001:00093100       ?safe_object_iterate@ConcurrentMarkSweepGeneration@@UAEXPAVObjectClosure@@@Z 08094100 f   concurrentMarkSweepGeneration.obj
 0001:00093160       ?prepare_for_verify@ConcurrentMarkSweepGeneration@@UAEXXZ 08094160 f   concurrentMarkSweepGeneration.obj
 0001:000931c0       ?verify@ConcurrentMarkSweepGeneration@@UAEX_N@Z 080941c0 f   concurrentMarkSweepGeneration.obj
 0001:00093230       ?grow_by@ConcurrentMarkSweepGeneration@@UAE_NI@Z 08094230 f   concurrentMarkSweepGeneration.obj
 0001:000932e0       ??0CMSPhaseAccounting@@QAE@PAVCMSCollector@@PBD_N@Z 080942e0 f   concurrentMarkSweepGeneration.obj
 0001:000933b0       ??1CMSTokenSyncWithLocks@@QAE@XZ 080943b0 f i concurrentMarkSweepGeneration.obj
 0001:000933f0       ??0CMSConcMarkingTask@@QAE@PAVCMSCollector@@PAVCompactibleFreeListSpace@@1_NHPAVYieldingFlexibleWorkGang@@PAV?$GenericTaskQueueSet@PAVoopDesc@@@@@Z 080943f0 f i concurrentMarkSweepGeneration.obj
 0001:00093480       ?bump_global_finger@CMSConcMarkingTask@@AAEXPAVHeapWord@@@Z 08094480 f   concurrentMarkSweepGeneration.obj
 0001:000934e0       ?do_scan_and_mark@CMSConcMarkingTask@@AAEXHPAVCompactibleFreeListSpace@@@Z 080944e0 f   concurrentMarkSweepGeneration.obj
 0001:000936e0       ?sample_eden@CMSCollector@@IAEXXZ 080946e0 f   concurrentMarkSweepGeneration.obj
 0001:000937b0       ?merge_survivor_plab_arrays@CMSCollector@@AAEXPAVContiguousSpace@@@Z 080947b0 f   concurrentMarkSweepGeneration.obj
 0001:000938b0       ?initialize_sequential_subtasks_for_young_gen_rescan@CMSCollector@@AAEXH@Z 080948b0 f   concurrentMarkSweepGeneration.obj
 0001:00093920       ?execute@CMSRefProcTaskExecutor@@UAEXAAVProcessTask@AbstractRefProcTaskExecutor@@@Z 08094920 f   concurrentMarkSweepGeneration.obj
 0001:00093990       ?setNearLargestChunk@ConcurrentMarkSweepGeneration@@QAEXXZ 08094990 f   concurrentMarkSweepGeneration.obj
 0001:00093a40       ?update_gc_stats@ConcurrentMarkSweepGeneration@@MAEXH_N@Z 08094a40 f   concurrentMarkSweepGeneration.obj
 0001:00093a80       ?allocate@CMSBitMap@@QAE_NVMemRegion@@@Z 08094a80 f   concurrentMarkSweepGeneration.obj
 0001:00093b30       ?allocate@CMSMarkStack@@QAE_NI@Z 08094b30 f   concurrentMarkSweepGeneration.obj
 0001:00093bd0       ?expand@CMSMarkStack@@QAEXXZ 08094bd0 f   concurrentMarkSweepGeneration.obj
 0001:00093d10       ?do_oop@MarkRefsIntoVerifyClosure@@IAEXPAVoopDesc@@@Z 08094d10 f   concurrentMarkSweepGeneration.obj
 0001:00093dc0       ??0MarkRefsIntoAndScanClosure@@QAE@VMemRegion@@PAVReferenceProcessor@@PAVCMSBitMap@@2PAVCMSMarkStack@@3PAVCMSCollector@@_N5@Z 08094dc0 f   concurrentMarkSweepGeneration.obj
 0001:00093e60       ?should_remember_klasses@MarkRefsIntoAndScanClosure@@UBE?B_NXZ 08094e60 f i concurrentMarkSweepGeneration.obj
 0001:00093e70       ?remember_klass@MarkRefsIntoAndScanClosure@@UAEXPAVKlass@@@Z 08094e70 f i concurrentMarkSweepGeneration.obj
 0001:00093e80       ??0MarkFromRootsVerifyClosure@@QAE@PAVCMSCollector@@VMemRegion@@PAVCMSBitMap@@2PAVCMSMarkStack@@@Z 08094e80 f   concurrentMarkSweepGeneration.obj
 0001:00093ef0       ??0Par_PushOrMarkClosure@@QAE@PAVCMSCollector@@VMemRegion@@PAVCMSBitMap@@PAV?$GenericTaskQueue@PAVoopDesc@@@@PAVCMSMarkStack@@4PAVHeapWord@@PAPAV6@PAVPar_MarkFromRootsClosure@@@Z 08094ef0 f   concurrentMarkSweepGeneration.obj
 0001:00093f70       ?handle_stack_overflow@PushOrMarkClosure@@QAEXPAVHeapWord@@@Z 08094f70 f   concurrentMarkSweepGeneration.obj
 0001:00093fd0       ?handle_stack_overflow@Par_PushOrMarkClosure@@QAEXPAVHeapWord@@@Z 08094fd0 f   concurrentMarkSweepGeneration.obj
 0001:00094050       ??0SweepClosure@@QAE@PAVCMSCollector@@PAVConcurrentMarkSweepGeneration@@PAVCMSBitMap@@_N@Z 08095050 f   concurrentMarkSweepGeneration.obj
 0001:000940c0       ?flushCurFreeChunk@SweepClosure@@AAEXPAVHeapWord@@I@Z 080950c0 f   concurrentMarkSweepGeneration.obj
 0001:00094110       ?do_object_b@CMSIsAliveClosure@@UAE_NPAVoopDesc@@@Z 08095110 f   concurrentMarkSweepGeneration.obj
 0001:00094170       ?take_from_overflow_list@CMSCollector@@AAE_NIPAVCMSMarkStack@@@Z 08095170 f   concurrentMarkSweepGeneration.obj
 0001:000941d0       ?resize@ASConcurrentMarkSweepGeneration@@AAEXII@Z 080951d0 f   concurrentMarkSweepGeneration.obj
 0001:00094230       ?update_counters@ASConcurrentMarkSweepGeneration@@UAEXXZ 08095230 f   concurrentMarkSweepGeneration.obj
 0001:000942a0       ?update_counters@ASConcurrentMarkSweepGeneration@@UAEXI@Z 080952a0 f   concurrentMarkSweepGeneration.obj
 0001:00094310       ?compute_new_size@ASConcurrentMarkSweepGeneration@@UAEXXZ 08095310 f   concurrentMarkSweepGeneration.obj
 0001:00094440       ?do_blk@MarkDeadObjectsClosure@@UAEIPAVHeapWord@@@Z 08095440 f   concurrentMarkSweepGeneration.obj
 0001:00094520       ??0TraceCollectorStats@@QAE@PAVCollectorCounters@@@Z 08095520 f i concurrentMarkSweepGeneration.obj
 0001:000945a0       ??1TraceCollectorStats@@QAE@XZ 080955a0 f i concurrentMarkSweepGeneration.obj
 0001:00094600       ?oop_iterate@oopDesc@@QAEHPAVMarkRefsIntoAndScanClosure@@@Z 08095600 f i concurrentMarkSweepGeneration.obj
 0001:00094620       ?oop_iterate@oopDesc@@QAEHPAVMarkRefsIntoAndScanClosure@@VMemRegion@@@Z 08095620 f i concurrentMarkSweepGeneration.obj
 0001:00094650       ?oop_iterate@oopDesc@@QAEHPAVPar_MarkRefsIntoAndScanClosure@@VMemRegion@@@Z 08095650 f i concurrentMarkSweepGeneration.obj
 0001:00094680       ??$do_oop_work@I@MarkRefsIntoClosure@@IAEXPAI@Z 08095680 f i concurrentMarkSweepGeneration.obj
 0001:000946e0       ?compacting_gc_cost@CMSAdaptiveSizePolicy@@QBENXZ 080956e0 f i concurrentMarkSweepGeneration.obj
 0001:00094740       ?do_object@ScanMarkedObjectsAgainClosure@@UAEXPAVoopDesc@@@Z 08095740 f i concurrentMarkSweepGeneration.obj
 0001:00094760       ?do_object_b@ScanMarkedObjectsAgainClosure@@UAE_NPAVoopDesc@@@Z 08095760 f i concurrentMarkSweepGeneration.obj
 0001:00094780       ?do_object@ScanMarkedObjectsAgainCarefullyClosure@@UAEXPAVoopDesc@@@Z 08095780 f i concurrentMarkSweepGeneration.obj
 0001:000947a0       ?do_object_careful@ScanMarkedObjectsAgainCarefullyClosure@@UAEIPAVoopDesc@@@Z 080957a0 f i concurrentMarkSweepGeneration.obj
 0001:000947c0       ??0CMSParDrainMarkingStackClosure@@QAE@PAVCMSCollector@@VMemRegion@@PAVCMSBitMap@@PAVCMSMarkStack@@PAV?$GenericTaskQueue@PAVoopDesc@@@@@Z 080957c0 f i concurrentMarkSweepGeneration.obj
 0001:00094830       ??1FreelistLocker@@QAE@XZ  08095830 f i concurrentMarkSweepGeneration.obj
 0001:00094870       ?do_yield_check@Par_PushOrMarkClosure@@AAEXXZ 08095870 f i concurrentMarkSweepGeneration.obj
 0001:000948a0       ?save_sweep_limits@CMSCollector@@AAEXXZ 080958a0 f i concurrentMarkSweepGeneration.obj
 0001:000948f0       ??_GVM_GetCurrentContendedMonitor@@UAEPAXI@Z 080958f0 f i jvmtiEnv.obj
 0001:000948f0       ??_EVM_BulkRevokeBias@@UAEPAXI@Z 080958f0 f i biasedLocking.obj
 0001:000948f0       ??_GVM_ThreadDump@@UAEPAXI@Z 080958f0 f i vm_operations.obj
 0001:000948f0       ??_EVM_EnterInterpOnlyMode@@UAEPAXI@Z 080958f0 f i jvmtiEventController.obj
 0001:000948f0       ??_EVM_ReportJavaOutOfMemory@@UAEPAXI@Z 080958f0 f i vmError.obj
 0001:000948f0       ??_GVM_HandleFullCodeCache@@UAEPAXI@Z 080958f0 f i sweeper.obj
 0001:000948f0       ??_GVM_ForceSafepoint@@UAEPAXI@Z 080958f0 f i icBuffer.obj
 0001:000948f0       ??_EVM_ChangeSingleStep@@UAEPAXI@Z 080958f0 f i jvmtiEventController.obj
 0001:000948f0       ??_GVM_Exit@@UAEPAXI@Z     080958f0 f i java.obj
 0001:000948f0       ??_EVM_PrintJNI@@UAEPAXI@Z 080958f0 f i attachListener.obj
 0001:000948f0       ??_EVM_Exit@@UAEPAXI@Z     080958f0 f i java.obj
 0001:000948f0       ??_GVM_ParallelGCFailedPermanentAllocation@@UAEPAXI@Z 080958f0 f i vmPSOperations.obj
 0001:000948f0       ??_GVM_CMS_Operation@@UAEPAXI@Z 080958f0 f i concurrentMarkSweepGeneration.obj
 0001:000948f0       ??_EVM_GetOrSetLocal@@UAEPAXI@Z 080958f0 f i jvmtiImpl.obj
 0001:000948f0       ??_EVM_RevokeBias@@UAEPAXI@Z 080958f0 f i biasedLocking.obj
 0001:000948f0       ??_EVM_GenCollectFullConcurrent@@UAEPAXI@Z 080958f0 f i genCollectedHeap.obj
 0001:000948f0       ??_GVM_RevokeBias@@UAEPAXI@Z 080958f0 f i biasedLocking.obj
 0001:000948f0       ??_EVM_GetMultipleStackTraces@@UAEPAXI@Z 080958f0 f i jvmtiEnv.obj
 0001:000948f0       ??_GVM_GetAllStackTraces@@UAEPAXI@Z 080958f0 f i jvmtiEnv.obj
 0001:000948f0       ??_EVM_PrintThreads@@UAEPAXI@Z 080958f0 f i attachListener.obj
 0001:000948f0       ??_GVM_GetMultipleStackTraces@@UAEPAXI@Z 080958f0 f i jvmtiEnv.obj
 0001:000948f0       ??_GVM_G1IncCollectionPause@@UAEPAXI@Z 080958f0 f i g1CollectedHeap.obj
 0001:000948f0       ??_EVM_GetThreadListStackTraces@@UAEPAXI@Z 080958f0 f i jvmtiEnv.obj
 0001:000948f0       ??_EVM_HeapIterateOperation@@UAEPAXI@Z 080958f0 f i jvmtiTagMap.obj
 0001:000948f0       ??_EVM_EnableBiasedLocking@@UAEPAXI@Z 080958f0 f i biasedLocking.obj
 0001:000948f0       ??_EVM_ParallelGCFailedPermanentAllocation@@UAEPAXI@Z 080958f0 f i vmPSOperations.obj
 0001:000948f0       ??_GVM_GetObjectMonitorUsage@@UAEPAXI@Z 080958f0 f i jvmtiEnv.obj
 0001:000948f0       ??_GVM_GetFrameCount@@UAEPAXI@Z 080958f0 f i jvmtiEnv.obj
 0001:000948f0       ??_GVM_CGC_Operation@@UAEPAXI@Z 080958f0 f i concurrentMarkThread.obj
 0001:000948f0       ??_EVM_GenCollectFull@@UAEPAXI@Z 080958f0 f i genCollectedHeap.obj
 0001:000948f0       ??_GVM_GetCurrentLocation@@UAEPAXI@Z 080958f0 f i jvmtiEnvThreadState.obj
 0001:000948f0       ??_GVM_G1CollectForAllocation@@UAEPAXI@Z 080958f0 f i g1CollectedHeap.obj
 0001:000948f0       ??_EVM_ParallelGCFailedAllocation@@UAEPAXI@Z 080958f0 f i vmPSOperations.obj
 0001:000948f0       ??_GVM_ParallelGCFailedAllocation@@UAEPAXI@Z 080958f0 f i vmPSOperations.obj
 0001:000948f0       ??_EVM_ParallelGCSystemGC@@UAEPAXI@Z 080958f0 f i vmPSOperations.obj
 0001:000948f0       ??_GVM_PopulateDumpSharedSpace@@UAEPAXI@Z 080958f0 f i dump.obj
 0001:000948f0       ??_GVM_GetFrameLocation@@UAEPAXI@Z 080958f0 f i jvmtiEnv.obj
 0001:000948f0       ??_EVM_Operation@@UAEPAXI@Z 080958f0 f i attachListener.obj
 0001:000948f0       ??_GVM_ChangeBreakpoints@@UAEPAXI@Z 080958f0 f i jvmtiImpl.obj
 0001:000948f0       ??_EVM_GC_HeapInspection@@UAEPAXI@Z 080958f0 f i attachListener.obj
 0001:000948f0       ??_EVM_GetStackTrace@@UAEPAXI@Z 080958f0 f i jvmtiEnv.obj
 0001:000948f0       ??_EVM_GC_Operation@@UAEPAXI@Z 080958f0 f i attachListener.obj
 0001:000948f0       ??_EVM_DeoptimizeFrame@@UAEPAXI@Z 080958f0 f i vm_operations.obj
 0001:000948f0       ??_EVM_HandleFullCodeCache@@UAEPAXI@Z 080958f0 f i sweeper.obj
 0001:000948f0       ??_GVM_Dummy@@UAEPAXI@Z    080958f0 f i vmThread.obj
 0001:000948f0       ??_GVM_Operation@@UAEPAXI@Z 080958f0 f i attachListener.obj
 0001:000948f0       ??_GVM_CMS_Initial_Mark@@UAEPAXI@Z 080958f0 f i concurrentMarkSweepGeneration.obj
 0001:000948f0       ??_EVM_GetOwnedMonitorInfo@@UAEPAXI@Z 080958f0 f i jvmtiEnv.obj
 0001:000948f0       ??_GVM_CMS_Final_Remark@@UAEPAXI@Z 080958f0 f i concurrentMarkSweepGeneration.obj
 0001:000948f0       ??_GVM_BulkRevokeBias@@UAEPAXI@Z 080958f0 f i biasedLocking.obj
 0001:000948f0       ??_EVM_G1CollectForAllocation@@UAEPAXI@Z 080958f0 f i g1CollectedHeap.obj
 0001:000948f0       ??_GVM_GenCollectFull@@UAEPAXI@Z 080958f0 f i genCollectedHeap.obj
 0001:000948f0       ??_EVM_Dummy@@UAEPAXI@Z    080958f0 f i vmThread.obj
 0001:000948f0       ??_GVM_Deoptimize@@UAEPAXI@Z 080958f0 f i jvmtiEventController.obj
 0001:000948f0       ??_GVM_GetThreadListStackTraces@@UAEPAXI@Z 080958f0 f i jvmtiEnv.obj
 0001:000948f0       ??_EVM_GetObjectMonitorUsage@@UAEPAXI@Z 080958f0 f i jvmtiEnv.obj
 0001:000948f0       ??_EVM_CGC_Operation@@UAEPAXI@Z 080958f0 f i concurrentMarkThread.obj
 0001:000948f0       ??_GVM_ParallelGCSystemGC@@UAEPAXI@Z 080958f0 f i vmPSOperations.obj
 0001:000948f0       ??_EVM_PopulateDumpSharedSpace@@UAEPAXI@Z 080958f0 f i dump.obj
 0001:000948f0       ??_GVM_ReportJavaOutOfMemory@@UAEPAXI@Z 080958f0 f i vmError.obj
 0001:000948f0       ??_EVM_ThreadDump@@UAEPAXI@Z 080958f0 f i vm_operations.obj
 0001:000948f0       ??_EVM_CMS_Final_Remark@@UAEPAXI@Z 080958f0 f i concurrentMarkSweepGeneration.obj
 0001:000948f0       ??_GVM_EnterInterpOnlyMode@@UAEPAXI@Z 080958f0 f i jvmtiEventController.obj
 0001:000948f0       ??_EVM_G1CollectFull@@UAEPAXI@Z 080958f0 f i g1CollectedHeap.obj
 0001:000948f0       ??_GVM_ChangeSingleStep@@UAEPAXI@Z 080958f0 f i jvmtiEventController.obj
 0001:000948f0       ??_EVM_GetCurrentLocation@@UAEPAXI@Z 080958f0 f i jvmtiEnvThreadState.obj
 0001:000948f0       ??_GVM_PrintThreads@@UAEPAXI@Z 080958f0 f i attachListener.obj
 0001:000948f0       ??_GVM_GetOwnedMonitorInfo@@UAEPAXI@Z 080958f0 f i jvmtiEnv.obj
 0001:000948f0       ??_GVM_GenCollectForPermanentAllocation@@UAEPAXI@Z 080958f0 f i permGen.obj
 0001:000948f0       ??_GVM_G1CollectFull@@UAEPAXI@Z 080958f0 f i g1CollectedHeap.obj
 0001:000948f0       ??_EVM_ThreadStop@@UAEPAXI@Z 080958f0 f i thread.obj
 0001:000948f0       ??_EVM_CMS_Initial_Mark@@UAEPAXI@Z 080958f0 f i concurrentMarkSweepGeneration.obj
 0001:000948f0       ??_EVM_GetFrameLocation@@UAEPAXI@Z 080958f0 f i jvmtiEnv.obj
 0001:000948f0       ??_GVM_ThreadStop@@UAEPAXI@Z 080958f0 f i thread.obj
 0001:000948f0       ??_GVM_GetOrSetLocal@@UAEPAXI@Z 080958f0 f i jvmtiImpl.obj
 0001:000948f0       ??_GVM_GenCollectFullConcurrent@@UAEPAXI@Z 080958f0 f i genCollectedHeap.obj
 0001:000948f0       ??_GVM_GC_Operation@@UAEPAXI@Z 080958f0 f i attachListener.obj
 0001:000948f0       ??_EVM_ChangeBreakpoints@@UAEPAXI@Z 080958f0 f i jvmtiImpl.obj
 0001:000948f0       ??_EVM_JNIFunctionTableCopier@@UAEPAXI@Z 080958f0 f i jvmtiEnv.obj
 0001:000948f0       ??_EVM_ForceSafepoint@@UAEPAXI@Z 080958f0 f i icBuffer.obj
 0001:000948f0       ??_GVM_EnableBiasedLocking@@UAEPAXI@Z 080958f0 f i biasedLocking.obj
 0001:000948f0       ??_EVM_GetAllStackTraces@@UAEPAXI@Z 080958f0 f i jvmtiEnv.obj
 0001:000948f0       ??_EVM_GetCurrentContendedMonitor@@UAEPAXI@Z 080958f0 f i jvmtiEnv.obj
 0001:000948f0       ??_GVM_HeapIterateOperation@@UAEPAXI@Z 080958f0 f i jvmtiTagMap.obj
 0001:000948f0       ??_EVM_GetFrameCount@@UAEPAXI@Z 080958f0 f i jvmtiEnv.obj
 0001:000948f0       ??_GVM_ForceAsyncSafepoint@@UAEPAXI@Z 080958f0 f i synchronizer.obj
 0001:000948f0       ??_GVM_JNIFunctionTableCopier@@UAEPAXI@Z 080958f0 f i jvmtiEnv.obj
 0001:000948f0       ??_GVM_GC_HeapInspection@@UAEPAXI@Z 080958f0 f i attachListener.obj
 0001:000948f0       ??_EVM_Deoptimize@@UAEPAXI@Z 080958f0 f i jvmtiEventController.obj
 0001:000948f0       ??_EVM_ForceAsyncSafepoint@@UAEPAXI@Z 080958f0 f i synchronizer.obj
 0001:000948f0       ??_GVM_PrintJNI@@UAEPAXI@Z 080958f0 f i attachListener.obj
 0001:000948f0       ??_GVM_RedefineClasses@@UAEPAXI@Z 080958f0 f i jvmtiRedefineClasses.obj
 0001:000948f0       ??_EVM_CMS_Operation@@UAEPAXI@Z 080958f0 f i concurrentMarkSweepGeneration.obj
 0001:000948f0       ??_EVM_GenCollectForPermanentAllocation@@UAEPAXI@Z 080958f0 f i permGen.obj
 0001:000948f0       ??_EVM_G1IncCollectionPause@@UAEPAXI@Z 080958f0 f i g1CollectedHeap.obj
 0001:000948f0       ??_GVM_DeoptimizeFrame@@UAEPAXI@Z 080958f0 f i vm_operations.obj
 0001:000948f0       ??_GVM_GenCollectForAllocation@@UAEPAXI@Z 080958f0 f i collectorPolicy.obj
 0001:000948f0       ??_EVM_GenCollectForAllocation@@UAEPAXI@Z 080958f0 f i collectorPolicy.obj
 0001:000948f0       ??_GVM_GetStackTrace@@UAEPAXI@Z 080958f0 f i jvmtiEnv.obj
 0001:000948f0       ??_EVM_RedefineClasses@@UAEPAXI@Z 080958f0 f i jvmtiRedefineClasses.obj
 0001:00094920       ??0ConcurrentMarkSweepGeneration@@QAE@VReservedSpace@@IHPAVCardTableRS@@_NW4DictionaryChoice@FreeBlockDictionary@@@Z 08095920 f   concurrentMarkSweepGeneration.obj
 0001:00094ae0       ?short_name@ConcurrentMarkSweepGeneration@@UBEPBDXZ 08095ae0 f i concurrentMarkSweepGeneration.obj
 0001:00094af0       ?ref_processor_init@ConcurrentMarkSweepGeneration@@UAEXXZ 08095af0 f   concurrentMarkSweepGeneration.obj
 0001:00094b00       ?compute_new_size@ConcurrentMarkSweepGeneration@@UAEXXZ 08095b00 f   concurrentMarkSweepGeneration.obj
 0001:00094bf0       ?icms_update_allocation_limits@CMSCollector@@AAEXXZ 08095bf0 f   concurrentMarkSweepGeneration.obj
 0001:00094d30       ?promote@ConcurrentMarkSweepGeneration@@UAEPAVoopDesc@@PAV2@I@Z 08095d30 f   concurrentMarkSweepGeneration.obj
 0001:00094e40       ?shouldConcurrentCollect@CMSCollector@@QAE_NXZ 08095e40 f   concurrentMarkSweepGeneration.obj
 0001:000950e0       ?check_gc_time_limit@CMSCollector@@AAEXXZ 080960e0 f   concurrentMarkSweepGeneration.obj
 0001:00095280       ?compute_new_size@CMSCollector@@AAEXXZ 08096280 f   concurrentMarkSweepGeneration.obj
 0001:00095300       ?waitForForegroundGC@CMSCollector@@AAE_NXZ 08096300 f   concurrentMarkSweepGeneration.obj
 0001:00095390       ?gc_prologue@CMSCollector@@QAEX_N@Z 08096390 f   concurrentMarkSweepGeneration.obj
 0001:00095470       ?gc_prologue@ConcurrentMarkSweepGeneration@@UAEX_N@Z 08096470 f   concurrentMarkSweepGeneration.obj
 0001:00095480       ?gc_epilogue@CMSCollector@@QAEX_N@Z 08096480 f   concurrentMarkSweepGeneration.obj
 0001:00095580       ?gc_epilogue@ConcurrentMarkSweepGeneration@@UAEX_N@Z 08096580 f   concurrentMarkSweepGeneration.obj
 0001:000955d0       ?verify_after_remark_work_1@CMSCollector@@AAEXXZ 080965d0 f   concurrentMarkSweepGeneration.obj
 0001:00095810       ?verify_after_remark_work_2@CMSCollector@@AAEXXZ 08096810 f   concurrentMarkSweepGeneration.obj
 0001:00095a00       ?setup_cms_unloading_and_verification_state@CMSCollector@@AAEXXZ 08096a00 f   concurrentMarkSweepGeneration.obj
 0001:00095ae0       ?expand_and_allocate@ConcurrentMarkSweepGeneration@@UAEPAVHeapWord@@I_N0@Z 08096ae0 f   concurrentMarkSweepGeneration.obj
 0001:00095b80       ?expand_and_par_lab_allocate@ConcurrentMarkSweepGeneration@@QAEPAVHeapWord@@PAVCMSParGCThreadState@@I@Z 08096b80 f   concurrentMarkSweepGeneration.obj
 0001:00095c20       ?expand_and_ensure_spooling_space@ConcurrentMarkSweepGeneration@@QAE_NPAVPromotionInfo@@@Z 08096c20 f   concurrentMarkSweepGeneration.obj
 0001:00095cb0       ?checkpointRootsInitialWork@CMSCollector@@AAEX_N@Z 08096cb0 f   concurrentMarkSweepGeneration.obj
 0001:00095e10       ?handle_stack_overflow@Par_ConcMarkingClosure@@QAEXPAVHeapWord@@@Z 08096e10 f   concurrentMarkSweepGeneration.obj
 0001:00095e90       ?coordinator_yield@CMSConcMarkingTask@@UAEXXZ 08096e90 f   concurrentMarkSweepGeneration.obj
 0001:00095f50       ?do_marking_mt@CMSCollector@@QAE_N_N@Z 08096f50 f   concurrentMarkSweepGeneration.obj
 0001:000960c0       ?do_marking_st@CMSCollector@@QAE_N_N@Z 080970c0 f   concurrentMarkSweepGeneration.obj
 0001:00096290       ?do_young_space_rescan@CMSParRemarkTask@@AAEXHPAVPar_MarkRefsIntoAndScanClosure@@PAVContiguousSpace@@PAPAVHeapWord@@I@Z 08097290 f   concurrentMarkSweepGeneration.obj
 0001:00096390       ??0CMSParKeepAliveClosure@@QAE@PAVCMSCollector@@VMemRegion@@PAVCMSBitMap@@PAVCMSMarkStack@@PAV?$GenericTaskQueue@PAVoopDesc@@@@@Z 08097390 f   concurrentMarkSweepGeneration.obj
 0001:00096430       ?reset@CMSCollector@@AAEX_N@Z 08097430 f   concurrentMarkSweepGeneration.obj
 0001:000966d0       ?do_oop@MarkRefsIntoClosure@@UAEXPAPAVoopDesc@@@Z 080976d0 f   concurrentMarkSweepGeneration.obj
 0001:00096720       ?do_oop@MarkRefsIntoClosure@@UAEXPAI@Z 08097720 f   concurrentMarkSweepGeneration.obj
 0001:00096730       ?do_oop@MarkRefsIntoVerifyClosure@@UAEXPAPAVoopDesc@@@Z 08097730 f   concurrentMarkSweepGeneration.obj
 0001:00096750       ?do_oop@MarkRefsIntoVerifyClosure@@UAEXPAI@Z 08097750 f   concurrentMarkSweepGeneration.obj
 0001:00096780       ?do_yield_work@MarkRefsIntoAndScanClosure@@AAEXXZ 08097780 f   concurrentMarkSweepGeneration.obj
 0001:00096880       ??0Par_MarkRefsIntoAndScanClosure@@QAE@PAVCMSCollector@@VMemRegion@@PAVReferenceProcessor@@PAVCMSBitMap@@PAV?$GenericTaskQueue@PAVoopDesc@@@@PAVCMSMarkStack@@@Z 08097880 f   concurrentMarkSweepGeneration.obj
 0001:00096920       ?should_remember_klasses@Par_MarkRefsIntoAndScanClosure@@UBE?B_NXZ 08097920 f i concurrentMarkSweepGeneration.obj
 0001:00096930       ?remember_klass@Par_MarkRefsIntoAndScanClosure@@UAEXPAVKlass@@@Z 08097930 f i concurrentMarkSweepGeneration.obj
 0001:00096940       ?do_yield_work@ScanMarkedObjectsAgainCarefullyClosure@@AAEXXZ 08097940 f   concurrentMarkSweepGeneration.obj
 0001:00096a40       ?do_yield_work@SurvivorSpacePrecleanClosure@@AAEXXZ 08097a40 f   concurrentMarkSweepGeneration.obj
 0001:00096b20       ?do_object_bm@ScanMarkedObjectsAgainClosure@@UAE_NPAVoopDesc@@VMemRegion@@@Z 08097b20 f   concurrentMarkSweepGeneration.obj
 0001:00096bd0       ?do_yield_work@MarkFromRootsClosure@@AAEXXZ 08097bd0 f   concurrentMarkSweepGeneration.obj
 0001:00096cb0       ?do_bit@MarkFromRootsVerifyClosure@@UAE_NI@Z 08097cb0 f   concurrentMarkSweepGeneration.obj
 0001:00096d70       ?handle_stack_overflow@PushAndMarkVerifyClosure@@QAEXPAVHeapWord@@@Z 08097d70 f   concurrentMarkSweepGeneration.obj
 0001:00096dd0       ?do_oop@PushAndMarkVerifyClosure@@IAEXPAVoopDesc@@@Z 08097dd0 f   concurrentMarkSweepGeneration.obj
 0001:00096f00       ?do_yield_work@CMSPrecleanRefsYieldClosure@@AAEXXZ 08097f00 f   concurrentMarkSweepGeneration.obj
 0001:00096ff0       ?should_return@CMSPrecleanRefsYieldClosure@@UAE_NXZ 08097ff0 f   concurrentMarkSweepGeneration.obj
 0001:00097010       ??1SweepClosure@@QAE@XZ    08098010 f   concurrentMarkSweepGeneration.obj
 0001:00097060       ?doPostIsFreeOrGarbageChunk@SweepClosure@@AAEXPAVFreeChunk@@I@Z 08098060 f   concurrentMarkSweepGeneration.obj
 0001:000971a0       ?do_yield_work@SweepClosure@@AAEXPAVHeapWord@@@Z 080981a0 f   concurrentMarkSweepGeneration.obj
 0001:000972e0       ?do_void@CMSDrainMarkingStackClosure@@UAEXXZ 080982e0 f   concurrentMarkSweepGeneration.obj
 0001:00097340       ?shrink_by@ASConcurrentMarkSweepGeneration@@EAEXI@Z 08098340 f   concurrentMarkSweepGeneration.obj
 0001:00097480       ?trim_queue@Par_MarkRefsIntoAndScanClosure@@QAEXI@Z 08098480 f i concurrentMarkSweepGeneration.obj
 0001:00097500       ?getAndClearMarkedRegion@CMSBitMap@@QAE?AVMemRegion@@PAVHeapWord@@0@Z 08098500 f i concurrentMarkSweepGeneration.obj
 0001:00097590       ?getNextMarkedWordAddress@CMSBitMap@@QBEPAVHeapWord@@PAV2@@Z 08098590 f i concurrentMarkSweepGeneration.obj
 0001:000975d0       ?allocate@ConcurrentMarkSweepGeneration@@UAEPAVHeapWord@@I_N@Z 080985d0 f   concurrentMarkSweepGeneration.obj
 0001:00097680       ?decide_foreground_collection_type@CMSCollector@@AAEX_NPA_N1@Z 08098680 f   concurrentMarkSweepGeneration.obj
 0001:00097730       ?do_compaction_work@CMSCollector@@AAEX_N@Z 08098730 f   concurrentMarkSweepGeneration.obj
 0001:00097960       ?verify_after_remark@CMSCollector@@QAE_NXZ 08098960 f   concurrentMarkSweepGeneration.obj
 0001:00097a80       ?get_work_from_overflow_stack@CMSConcMarkingTask@@SA_NPAVCMSMarkStack@@PAV?$GenericTaskQueue@PAVoopDesc@@@@@Z 08098a80 f   concurrentMarkSweepGeneration.obj
 0001:00097b80       ?do_oop@Par_ConcMarkingClosure@@IAEXPAVoopDesc@@@Z 08098b80 f   concurrentMarkSweepGeneration.obj
 0001:00097c40       ?trim_queue@Par_ConcMarkingClosure@@QAEXI@Z 08098c40 f   concurrentMarkSweepGeneration.obj
 0001:00097cc0       ?sweepWork@CMSCollector@@AAEXPAVConcurrentMarkSweepGeneration@@_N@Z 08098cc0 f   concurrentMarkSweepGeneration.obj
 0001:00097d90       ?block_size_using_printezis_bits@CMSCollector@@ABEIPAVHeapWord@@@Z 08098d90 f   concurrentMarkSweepGeneration.obj
 0001:00097df0       ?block_size_if_printezis_bits@CMSCollector@@ABEIPAVHeapWord@@@Z 08098df0 f   concurrentMarkSweepGeneration.obj
 0001:00097e90       ?next_card_start_after_block@CMSCollector@@ABEPAVHeapWord@@PAV2@@Z 08098e90 f   concurrentMarkSweepGeneration.obj
 0001:00097f00       ?dirty_range_iterate_clear@CMSBitMap@@QAEXVMemRegion@@PAVMemRegionClosure@@@Z 08098f00 f   concurrentMarkSweepGeneration.obj
 0001:00097f50       ?do_oop@Par_MarkRefsIntoAndScanClosure@@IAEXPAVoopDesc@@@Z 08098f50 f   concurrentMarkSweepGeneration.obj
 0001:00097fe0       ?do_object_careful_m@ScanMarkedObjectsAgainCarefullyClosure@@UAEIPAVoopDesc@@VMemRegion@@@Z 08098fe0 f   concurrentMarkSweepGeneration.obj
 0001:00098170       ?do_object_careful@SurvivorSpacePrecleanClosure@@UAEIPAVoopDesc@@@Z 08099170 f   concurrentMarkSweepGeneration.obj
 0001:000982a0       ?scanOopsInOop@MarkFromRootsClosure@@AAEXPAVHeapWord@@@Z 080992a0 f   concurrentMarkSweepGeneration.obj
 0001:000983f0       ?scan_oops_in_oop@Par_MarkFromRootsClosure@@AAEXPAVHeapWord@@@Z 080993f0 f   concurrentMarkSweepGeneration.obj
 0001:00098550       ?do_oop@PushAndMarkVerifyClosure@@UAEXPAPAVoopDesc@@@Z 08099550 f   concurrentMarkSweepGeneration.obj
 0001:00098570       ?do_oop@PushAndMarkVerifyClosure@@UAEXPAI@Z 08099570 f   concurrentMarkSweepGeneration.obj
 0001:000985a0       ?do_oop@Par_PushOrMarkClosure@@IAEXPAVoopDesc@@@Z 080995a0 f   concurrentMarkSweepGeneration.obj
 0001:00098690       ?doAlreadyFreeChunk@SweepClosure@@AAEXPAVFreeChunk@@@Z 08099690 f   concurrentMarkSweepGeneration.obj
 0001:00098730       ?doGarbageChunk@SweepClosure@@AAEIPAVFreeChunk@@@Z 08099730 f   concurrentMarkSweepGeneration.obj
 0001:000987f0       ?doLiveChunk@SweepClosure@@AAEIPAVFreeChunk@@@Z 080997f0 f   concurrentMarkSweepGeneration.obj
 0001:000988d0       ?trim_queue@CMSParKeepAliveClosure@@AAEXI@Z 080998d0 f   concurrentMarkSweepGeneration.obj
 0001:00098950       ?trim_queue@CMSParDrainMarkingStackClosure@@QAEXI@Z 08099950 f   concurrentMarkSweepGeneration.obj
 0001:000989d0       ?par_take_from_overflow_list@CMSCollector@@AAE_NIPAV?$GenericTaskQueue@PAVoopDesc@@@@@Z 080999d0 f   concurrentMarkSweepGeneration.obj
 0001:00098c50       ?markFromRoots@CMSCollector@@QAE_N_N@Z 08099c50 f   concurrentMarkSweepGeneration.obj
 0001:00098e00       ?do_oop@Par_ConcMarkingClosure@@UAEXPAPAVoopDesc@@@Z 08099e00 f   concurrentMarkSweepGeneration.obj
 0001:00098e20       ?do_oop@Par_ConcMarkingClosure@@UAEXPAI@Z 08099e20 f   concurrentMarkSweepGeneration.obj
 0001:00098e50       ?do_work_steal@CMSConcMarkingTask@@AAEXH@Z 08099e50 f   concurrentMarkSweepGeneration.obj
 0001:00098f30       ?preclean_mod_union_table@CMSCollector@@AAEIPAVConcurrentMarkSweepGeneration@@PAVScanMarkedObjectsAgainCarefullyClosure@@@Z 08099f30 f   concurrentMarkSweepGeneration.obj
 0001:00099210       ?preclean_card_table@CMSCollector@@AAEIPAVConcurrentMarkSweepGeneration@@PAVScanMarkedObjectsAgainCarefullyClosure@@@Z 0809a210 f   concurrentMarkSweepGeneration.obj
 0001:00099500       ?do_dirty_card_rescan_tasks@CMSParRemarkTask@@AAEXPAVCompactibleFreeListSpace@@HPAVPar_MarkRefsIntoAndScanClosure@@@Z 0809a500 f   concurrentMarkSweepGeneration.obj
 0001:00099690       ?do_work_steal@CMSParRemarkTask@@AAEXHPAVPar_MarkRefsIntoAndScanClosure@@PAH@Z 0809a690 f   concurrentMarkSweepGeneration.obj
 0001:00099740       ?do_work_steal@CMSRefProcTaskProxy@@QAEXHPAVCMSParDrainMarkingStackClosure@@PAVCMSParKeepAliveClosure@@PAH@Z 0809a740 f   concurrentMarkSweepGeneration.obj
 0001:000997f0       ?sweep@CMSCollector@@QAEX_N@Z 0809a7f0 f   concurrentMarkSweepGeneration.obj
 0001:00099b60       ?do_oop@Par_MarkRefsIntoAndScanClosure@@UAEXPAPAVoopDesc@@@Z 0809ab60 f   concurrentMarkSweepGeneration.obj
 0001:00099b80       ?do_oop@Par_MarkRefsIntoAndScanClosure@@UAEXPAI@Z 0809ab80 f   concurrentMarkSweepGeneration.obj
 0001:00099bb0       ?do_bit@MarkFromRootsClosure@@UAE_NI@Z 0809abb0 f   concurrentMarkSweepGeneration.obj
 0001:00099c90       ?do_bit@Par_MarkFromRootsClosure@@UAE_NI@Z 0809ac90 f   concurrentMarkSweepGeneration.obj
 0001:00099d20       ?do_oop@PushOrMarkClosure@@IAEXPAVoopDesc@@@Z 0809ad20 f   concurrentMarkSweepGeneration.obj
 0001:00099e10       ?do_oop@Par_PushOrMarkClosure@@UAEXPAPAVoopDesc@@@Z 0809ae10 f   concurrentMarkSweepGeneration.obj
 0001:00099e30       ?do_oop@Par_PushOrMarkClosure@@UAEXPAI@Z 0809ae30 f   concurrentMarkSweepGeneration.obj
 0001:00099e60       ?do_blk_careful@SweepClosure@@UAEIPAVHeapWord@@@Z 0809ae60 f   concurrentMarkSweepGeneration.obj
 0001:00099f10       ?do_oop@CMSParKeepAliveClosure@@IAEXPAVoopDesc@@@Z 0809af10 f   concurrentMarkSweepGeneration.obj
 0001:00099f90       ?do_void@CMSParDrainMarkingStackClosure@@UAEXXZ 0809af90 f   concurrentMarkSweepGeneration.obj
 0001:00099fa0       ?preserve_mark_work@CMSCollector@@AAEXPAVoopDesc@@PAVmarkOopDesc@@@Z 0809afa0 f   concurrentMarkSweepGeneration.obj
 0001:0009a000       ?par_preserve_mark_if_necessary@CMSCollector@@AAEXPAVoopDesc@@@Z 0809b000 f   concurrentMarkSweepGeneration.obj
 0001:0009a070       ?restore_preserved_marks_if_any@CMSCollector@@AAEXXZ 0809b070 f   concurrentMarkSweepGeneration.obj
 0001:0009a1a0       ??0CMSCollector@@QAE@PAVConcurrentMarkSweepGeneration@@0PAVCardTableRS@@PAVConcurrentMarkSweepPolicy@@@Z 0809b1a0 f   concurrentMarkSweepGeneration.obj
 0001:0009ab70       ?work@CMSConcMarkingTask@@UAEXH@Z 0809bb70 f   concurrentMarkSweepGeneration.obj
 0001:0009ace0       ?preclean_work@CMSCollector@@AAEI_N0@Z 0809bce0 f   concurrentMarkSweepGeneration.obj
 0001:0009b130       ?work@CMSParRemarkTask@@UAEXH@Z 0809c130 f   concurrentMarkSweepGeneration.obj
 0001:0009b420       ?do_remark_parallel@CMSCollector@@AAEXXZ 0809c420 f   concurrentMarkSweepGeneration.obj
 0001:0009b520       ?do_remark_non_parallel@CMSCollector@@AAEXXZ 0809c520 f   concurrentMarkSweepGeneration.obj
 0001:0009b820       ?work@CMSRefProcTaskProxy@@UAEXH@Z 0809c820 f   concurrentMarkSweepGeneration.obj
 0001:0009b910       ?refProcessingWork@CMSCollector@@AAEX_N0@Z 0809c910 f   concurrentMarkSweepGeneration.obj
 0001:0009bba0       ?do_oop@MarkRefsIntoAndScanClosure@@IAEXPAVoopDesc@@@Z 0809cba0 f   concurrentMarkSweepGeneration.obj
 0001:0009bcd0       ?do_oop@PushOrMarkClosure@@UAEXPAPAVoopDesc@@@Z 0809ccd0 f   concurrentMarkSweepGeneration.obj
 0001:0009bcf0       ?do_oop@PushOrMarkClosure@@UAEXPAI@Z 0809ccf0 f   concurrentMarkSweepGeneration.obj
 0001:0009bd20       ?do_oop@CMSParKeepAliveClosure@@UAEXPAPAVoopDesc@@@Z 0809cd20 f   concurrentMarkSweepGeneration.obj
 0001:0009bd40       ?do_oop@CMSParKeepAliveClosure@@UAEXPAI@Z 0809cd40 f   concurrentMarkSweepGeneration.obj
 0001:0009bd70       ?push_on_overflow_list@CMSCollector@@AAEXPAVoopDesc@@@Z 0809cd70 f   concurrentMarkSweepGeneration.obj
 0001:0009bdc0       ?par_push_on_overflow_list@CMSCollector@@AAEXPAVoopDesc@@@Z 0809cdc0 f   concurrentMarkSweepGeneration.obj
 0001:0009be40       ?par_promote@ConcurrentMarkSweepGeneration@@UAEPAVoopDesc@@HPAV2@PAVmarkOopDesc@@I@Z 0809ce40 f   concurrentMarkSweepGeneration.obj
 0001:0009bfd0       ?preclean@CMSCollector@@QAEXXZ 0809cfd0 f   concurrentMarkSweepGeneration.obj
 0001:0009c0f0       ?abortable_preclean@CMSCollector@@AAEXXZ 0809d0f0 f   concurrentMarkSweepGeneration.obj
 0001:0009c2e0       ?checkpointRootsFinalWork@CMSCollector@@AAEX_N00@Z 0809d2e0 f   concurrentMarkSweepGeneration.obj
 0001:0009c580       ?do_oop@MarkRefsIntoAndScanClosure@@UAEXPAPAVoopDesc@@@Z 0809d580 f   concurrentMarkSweepGeneration.obj
 0001:0009c5a0       ?do_oop@MarkRefsIntoAndScanClosure@@UAEXPAI@Z 0809d5a0 f   concurrentMarkSweepGeneration.obj
 0001:0009c5d0       ?do_oop@PushAndMarkClosure@@IAEXPAVoopDesc@@@Z 0809d5d0 f   concurrentMarkSweepGeneration.obj
