 heapViewer

 Timestamp is 4cfae5d1 (Sat Dec 04 17:07:29 2010)

 Preferred load address is 10000000

 Start         Length     Name                   Class
 0001:00000000 00001138H .text                   CODE
 0002:00000000 00000068H .idata$5                DATA
 0002:00000070 00000098H .rdata                  DATA
 0002:00000108 00000077H .rdata$debug            DATA
 0002:00000180 00000004H .rdata$sxdata           DATA
 0002:00000184 00000004H .rtc$IAA                DATA
 0002:00000188 00000004H .rtc$IZZ                DATA
 0002:0000018c 00000004H .rtc$TAA                DATA
 0002:00000190 00000004H .rtc$TZZ                DATA
 0002:00000194 00000028H .idata$2                DATA
 0002:000001bc 00000014H .idata$3                DATA
 0002:000001d0 00000068H .idata$4                DATA
 0002:00000238 00000134H .idata$6                DATA
 0002:00000370 0000006eH .edata                  DATA
 0003:00000000 00000004H .CRT$XCA                DATA
 0003:00000004 00000004H .CRT$XCZ                DATA
 0003:00000008 00000004H .CRT$XIA                DATA
 0003:0000000c 00000004H .CRT$XIZ                DATA
 0003:00000010 000003f8H .data                   DATA
 0003:00000408 00000020H .bss                    DATA
 0004:00000000 00000058H .rsrc$01                DATA
 0004:00000060 00000370H .rsrc$02                DATA

  Address         Publics by Value              Rva+Base     Lib:Object

 0000:00000001       ___safe_se_handler_count   00000001     <absolute>
 0001:00000000       _Agent_OnLoad@12           10001000 f   heapViewer.obj
 0001:00000710       _Agent_OnUnload@4          10001710 f   heapViewer.obj
 0001:00000720       _stdout_message            10001720 f   agent_util.obj
 0001:00000750       _fatal_error               10001750 f   agent_util.obj
 0001:000007a0       _get_token                 100017a0 f   agent_util.obj
 0001:00000830       _interested                10001830 f   agent_util.obj
 0001:00000a80       _check_jvmti_error         10001a80 f   agent_util.obj
 0001:00000b00       _deallocate                10001b00 f   agent_util.obj
 0001:00000b40       _allocate                  10001b40 f   agent_util.obj
 0001:00000b80       _add_demo_jar_to_bootclasspath 10001b80 f   agent_util.obj
 0001:00000e38       _memset                    10001e38 f   MSVCRT:MSVCR71.dll
 0001:00000e3e       _strlen                    10001e3e f   MSVCRT:MSVCR71.dll
 0001:00000e44       _strcat                    10001e44 f   MSVCRT:MSVCR71.dll
 0001:00000e4a       _strcpy                    10001e4a f   MSVCRT:MSVCR71.dll
 0001:00000e50       __CRT_INIT@12              10001e50 f   MSVCRT:crtdll.obj
 0001:00000f0e       __DllMainCRTStartup@12     10001f0e f   MSVCRT:crtdll.obj
 0001:00000ff2       __initterm                 10001ff2 f   MSVCRT:MSVCR71.dll
 0001:00000ff8       __onexit                   10001ff8 f   MSVCRT:atonexit.obj
 0001:0000101e       _atexit                    1000201e f   MSVCRT:atonexit.obj
 0001:00001030       __RTC_Initialize           10002030 f   MSVCRT:initsect.obj
 0001:00001074       __RTC_Terminate            10002074 f   MSVCRT:initsect.obj
 0001:000010b8       ___CppXcptFilter           100020b8 f   MSVCRT:MSVCR71.dll
 0001:000010be       _DllMain@12                100020be f   MSVCRT:dllmain.obj
 0001:000010e0       __SEH_prolog               100020e0 f   MSVCRT:sehprolg.obj
 0001:0000111b       __SEH_epilog               1000211b f   MSVCRT:sehprolg.obj
 0001:0000112c       __except_handler3          1000212c f   MSVCRT:MSVCR71.dll
 0001:00001132       ___dllonexit               10002132 f   MSVCRT:MSVCR71.dll
 0002:00000000       __imp__DisableThreadLibraryCalls@4 10003000     kernel32:KERNEL32.dll
 0002:00000004       \177KERNEL32_NULL_THUNK_DATA 10003004     kernel32:KERNEL32.dll
 0002:00000008       __imp__qsort               10003008     MSVCRT:MSVCR71.dll
 0002:0000000c       __imp__calloc              1000300c     MSVCRT:MSVCR71.dll
 0002:00000010       __imp__vfprintf            10003010     MSVCRT:MSVCR71.dll
 0002:00000014       __imp___iob                10003014     MSVCRT:MSVCR71.dll
 0002:00000018       __imp__exit                10003018     MSVCRT:MSVCR71.dll
 0002:0000001c       __imp__fflush              1000301c     MSVCRT:MSVCR71.dll
 0002:00000020       __imp__strncpy             10003020     MSVCRT:MSVCR71.dll
 0002:00000024       __imp__strcspn             10003024     MSVCRT:MSVCR71.dll
 0002:00000028       __imp__strspn              10003028     MSVCRT:MSVCR71.dll
 0002:0000002c       __imp__strncmp             1000302c     MSVCRT:MSVCR71.dll
 0002:00000030       __imp__free                10003030     MSVCRT:MSVCR71.dll
 0002:00000034       __imp__strcat              10003034     MSVCRT:MSVCR71.dll
 0002:00000038       __imp__strcpy              10003038     MSVCRT:MSVCR71.dll
 0002:0000003c       __imp___initterm           1000303c     MSVCRT:MSVCR71.dll
 0002:00000040       __imp__malloc              10003040     MSVCRT:MSVCR71.dll
 0002:00000044       __imp___adjust_fdiv        10003044     MSVCRT:MSVCR71.dll
 0002:00000048       __imp____CppXcptFilter     10003048     MSVCRT:MSVCR71.dll
 0002:0000004c       __imp___except_handler3    1000304c     MSVCRT:MSVCR71.dll
 0002:00000050       __imp____dllonexit         10003050     MSVCRT:MSVCR71.dll
 0002:00000054       __imp___onexit             10003054     MSVCRT:MSVCR71.dll
 0002:00000058       __imp__strlen              10003058     MSVCRT:MSVCR71.dll
 0002:0000005c       __imp__memset              1000305c     MSVCRT:MSVCR71.dll
 0002:00000060       __imp___strdup             10003060     MSVCRT:MSVCR71.dll
 0002:00000060       __imp__strdup              10003060     MSVCRT:MSVCR71.dll
 0002:00000064       \177MSVCR71_NULL_THUNK_DATA 10003064     MSVCRT:MSVCR71.dll
 0002:000000c0       __load_config_used         100030c0     MSVCRT:loadcfg.obj
 0002:00000180       ___safe_se_handler_table   10003180     <linker-defined>
 0002:00000184       ___rtc_iaa                 10003184     MSVCRT:initsect.obj
 0002:00000188       ___rtc_izz                 10003188     MSVCRT:initsect.obj
 0002:0000018c       ___rtc_taa                 1000318c     MSVCRT:initsect.obj
 0002:00000190       ___rtc_tzz                 10003190     MSVCRT:initsect.obj
 0002:00000194       __IMPORT_DESCRIPTOR_MSVCR71 10003194     MSVCRT:MSVCR71.dll
 0002:000001a8       __IMPORT_DESCRIPTOR_KERNEL32 100031a8     kernel32:KERNEL32.dll
 0002:000001bc       __NULL_IMPORT_DESCRIPTOR   100031bc     MSVCRT:MSVCR71.dll
 0003:00000000       ___xc_a                    10004000     MSVCRT:cinitexe.obj
 0003:00000004       ___xc_z                    10004004     MSVCRT:cinitexe.obj
 0003:00000008       ___xi_a                    10004008     MSVCRT:cinitexe.obj
 0003:0000000c       ___xi_z                    1000400c     MSVCRT:cinitexe.obj
 0003:00000404       ___security_cookie         10004404     MSVCRT:seccook.obj
 0003:00000418       __adjust_fdiv              10004418     <common>
 0003:0000041c       ___onexitend               1000441c     <common>
 0003:00000420       ___onexitbegin             10004420     <common>
 0003:00000424       __pRawDllMain              10004424     <common>

 entry point at        0001:00000f0e

 Static symbols

 0001:00000200       _dataDumpRequest@4         10001200 f   heapViewer.obj
 0001:00000540       _enterAgentMonitor         10001540 f   heapViewer.obj
 0001:00000580       _exitAgentMonitor          10001580 f   heapViewer.obj
 0001:000005c0       _cbHeapObject@28           100015c0 f   heapViewer.obj
 0001:00000610       _compareDetails            10001610 f   heapViewer.obj
 0001:00000630       _vmInit@12                 10001630 f   heapViewer.obj
 0001:00000680       _vmDeath@8                 10001680 f   heapViewer.obj
 0001:000008a0       _covered_by_list           100018a0 f   agent_util.obj
 0001:00000940       _covered_by_list_item      10001940 f   agent_util.obj
