 jvm

 Timestamp is 4cfad4f3 (Sat Dec 04 15:55:31 2010)

 Preferred load address is 08000000

 Start         Length     Name                   Class
 0001:00000000 00375c82H .text                   CODE
 0001:00375c90 0000139dH .text$yc                CODE
 0001:00377030 00000274H .text$yd                CODE
 0002:00000000 000002f8H .idata$5                DATA
 0002:00000300 000f8c00H .rdata                  DATA
 0002:000f8f00 0000007eH .rdata$debug            DATA
 0002:000f8f80 000000a4H .rdata$r                DATA
 0002:000f9030 00000004H .rdata$sxdata           DATA
 0002:000f9034 00000004H .rtc$IAA                DATA
 0002:000f9038 00000004H .rtc$IZZ                DATA
 0002:000f903c 00000004H .rtc$TAA                DATA
 0002:000f9040 00000004H .rtc$TZZ                DATA
 0002:000f9044 00000054H .xdata$x                DATA
 0002:000f9098 00000064H .idata$2                DATA
 0002:000f90fc 00000014H .idata$3                DATA
 0002:000f9110 000002f8H .idata$4                DATA
 0002:000f9408 00000b52H .idata$6                DATA
 0002:000f9f60 0000fe40H .edata                  DATA
 0003:00000000 00000004H .CRT$XCA                DATA
 0003:00000004 00000098H .CRT$XCU                DATA
 0003:0000009c 00000004H .CRT$XCZ                DATA
 0003:000000a0 00000004H .CRT$XIA                DATA
 0003:000000a4 00000004H .CRT$XIZ                DATA
 0003:000000b0 00011d0cH .data                   DATA
 0003:00011dc0 00061eb8H .bss                    DATA
 0004:00000000 00000058H .rsrc$01                DATA
 0004:00000060 00000340H .rsrc$02                DATA

  Address         Publics by Value              Rva+Base     Lib:Object

 0000:00000000       __except_list              00000000     <absolute>
 0000:00000001       ___safe_se_handler_count   00000001     <absolute>
 0000:00009876       __ldused                   00009876     <absolute>
 0000:00009876       __fltused                  00009876     <absolute>
 0001:00000000       ?is_MP@os@@SA_NXZ          08001000 f i abstractCompiler.obj
 0001:00000030       ?write_memory_serialize_page@os@@SAXPAVJavaThread@@@Z 08001030 f i abstractCompiler.obj
 0001:00000050       ?fence@OrderAccess@@SAXXZ  08001050 f i abstractCompiler.obj
 0001:00000050       ?storeload@OrderAccess@@SAXXZ 08001050 f i g1RemSet.obj
 0001:00000080       ??0MutexLocker@@QAE@PAVMonitor@@PAVThread@@@Z 08001080 f i abstractCompiler.obj
 0001:000000d0       ?serialize_memory@InterfaceSupport@@SAXPAVJavaThread@@@Z 080010d0 f i abstractCompiler.obj
 0001:00000130       ?transition_and_fence@ThreadStateTransition@@SAXPAVJavaThread@@W4JavaThreadState@@1@Z 08001130 f i abstractCompiler.obj
 0001:00000220       ?transition_from_native@ThreadStateTransition@@SAXPAVJavaThread@@W4JavaThreadState@@@Z 08001220 f i abstractCompiler.obj
 0001:00000310       ??0ThreadInVMfromNative@@QAE@PAVJavaThread@@@Z 08001310 f i abstractCompiler.obj
 0001:00000360       ??1ThreadInVMfromNative@@QAE@XZ 08001360 f i abstractCompiler.obj
 0001:00000380       ?current@JavaThread@@SAPAV1@XZ 08001380 f i abstractCompiler.obj
 0001:000003c0       ?current@CompilerThread@@SAPAV1@XZ 080013c0 f i abstractCompiler.obj
 0001:00000420       ?initialize_runtimes@AbstractCompiler@@IAEXP6AXXZPCH@Z 08001420 f   abstractCompiler.obj
 0001:00000530       ?cmpxchg@Atomic@@SAHHPCHH@Z 08001530 f i accessFlags.obj
 0001:00000530       ?cmpxchg_ptr@Atomic@@SAPAXPAXPCX0@Z 08001530 f i assembler.obj
 0001:00000530       ?cmpxchg_ptr@Atomic@@SAHHPCHH@Z 08001530 f i bitMap.obj
 0001:00000580       ?atomic_set_bits@AccessFlags@@QAEXH@Z 08001580 f   accessFlags.obj
 0001:000005f0       ?atomic_clear_bits@AccessFlags@@QAEXH@Z 080015f0 f   accessFlags.obj
 0001:00000660       ?print_on@AccessFlags@@QBEXPAVoutputStream@@@Z 08001660 f   accessFlags.obj
 0001:000007d0       ?eden_increment@PSAdaptiveSizePolicy@@EAEIII@Z 080017d0 f   psAdaptiveSizePolicy.obj
 0001:000007d0       ?promo_increment@AdaptiveSizePolicy@@MAEIII@Z 080017d0 f   adaptiveSizePolicy.obj
 0001:000007d0       ?eden_increment@AdaptiveSizePolicy@@MAEIII@Z 080017d0 f   adaptiveSizePolicy.obj
 0001:000007d0       ?promo_increment@PSAdaptiveSizePolicy@@EAEIII@Z 080017d0 f   psAdaptiveSizePolicy.obj
 0001:000007f0       ?eden_increment@AdaptiveSizePolicy@@MAEII@Z 080017f0 f   adaptiveSizePolicy.obj
 0001:000007f0       ?eden_increment@PSAdaptiveSizePolicy@@UAEII@Z 080017f0 f   psAdaptiveSizePolicy.obj
 0001:00000810       ?promo_increment@AdaptiveSizePolicy@@MAEII@Z 08001810 f   adaptiveSizePolicy.obj
 0001:00000810       ?promo_increment@PSAdaptiveSizePolicy@@UAEII@Z 08001810 f   psAdaptiveSizePolicy.obj
 0001:00000830       ?time_since_major_gc@AdaptiveSizePolicy@@MBENXZ 08001830 f   adaptiveSizePolicy.obj
 0001:00000860       ?tenuring_threshold_change@AdaptiveSizePolicy@@IBE_NXZ 08001860 f   adaptiveSizePolicy.obj
 0001:00000890       ?minor_collection_begin@AdaptiveSizePolicy@@UAEXXZ 08001890 f   adaptiveSizePolicy.obj
 0001:000008d0       ?minor_collection_end@AdaptiveSizePolicy@@UAEXW4Cause@GCCause@@@Z 080018d0 f   adaptiveSizePolicy.obj
 0001:00000a90       ?clear_generation_free_space_flags@AdaptiveSizePolicy@@MAEXXZ 08001a90 f   adaptiveSizePolicy.obj
 0001:00000ac0       ?print_adaptive_size_policy_on@AdaptiveSizePolicy@@UBE_NPAVoutputStream@@@Z 08001ac0 f   adaptiveSizePolicy.obj
 0001:00000c20       ?print_adaptive_size_policy_on@AdaptiveSizePolicy@@QBE_NPAVoutputStream@@H@Z 08001c20 f   adaptiveSizePolicy.obj
 0001:00000cc0       ?major_gc_cost@AdaptiveSizePolicy@@IBENXZ 08001cc0 f i adaptiveSizePolicy.obj
 0001:00000ce0       ?minor_gc_cost@AdaptiveSizePolicy@@IBENXZ 08001ce0 f i adaptiveSizePolicy.obj
 0001:00000d00       ??0AdaptiveSizePolicy@@QAE@IIINI@Z 08001d00 f   adaptiveSizePolicy.obj
 0001:00001000       ?major_gc_interval_average_for_decay@AdaptiveSizePolicy@@MBENXZ 08002000 f i adaptiveSizePolicy.obj
 0001:00001010       ?mutator_cost@AdaptiveSizePolicy@@MBENXZ 08002010 f i adaptiveSizePolicy.obj
 0001:00001060       ?gc_cost@AdaptiveSizePolicy@@MBENXZ 08002060 f i adaptiveSizePolicy.obj
 0001:000010f0       ?decaying_major_gc_cost@AdaptiveSizePolicy@@IBENXZ 080020f0 f   adaptiveSizePolicy.obj
 0001:000011a0       ?decaying_gc_cost@AdaptiveSizePolicy@@IBENXZ 080021a0 f   adaptiveSizePolicy.obj
 0001:000012e0       ??0MutexLocker@@QAE@PAVMonitor@@@Z 080022e0 f i adjoiningGenerations.obj
 0001:00001320       ??0AdjoiningGenerations@@QAE@VReservedSpace@@IIIIIII@Z 08002320 f   adjoiningGenerations.obj
 0001:00001690       ?request_old_gen_expansion@AdjoiningGenerations@@AAEXI@Z 08002690 f   adjoiningGenerations.obj
 0001:00001850       ?request_young_gen_expansion@AdjoiningGenerations@@AAE_NI@Z 08002850 f   adjoiningGenerations.obj
 0001:00001a40       ?adjust_boundary_for_old_gen_needs@AdjoiningGenerations@@QAEXI@Z 08002a40 f   adjoiningGenerations.obj
 0001:00001b20       ?adjust_boundary_for_young_gen_needs@AdjoiningGenerations@@QAEXII@Z 08002b20 f   adjoiningGenerations.obj
 0001:00001bc0       ??0AdjoiningVirtualSpaces@@QAE@VReservedSpace@@III@Z 08002bc0 f   adjoiningVirtualSpaces.obj
 0001:00001c10       ?adjust_boundary_up@AdjoiningVirtualSpaces@@QAE_NI@Z 08002c10 f   adjoiningVirtualSpaces.obj
 0001:00001c60       ?adjust_boundary_down@AdjoiningVirtualSpaces@@QAE_NI@Z 08002c60 f   adjoiningVirtualSpaces.obj
 0001:00001cb0       ?initialize@AdjoiningVirtualSpaces@@QAEXIII@Z 08002cb0 f   adjoiningVirtualSpaces.obj
 0001:00001db0       ?clear@ageTable@@QAEXXZ    08002db0 f   ageTable.obj
 0001:00001dd0       ?merge@ageTable@@QAEXPAV1@@Z 08002dd0 f   ageTable.obj
 0001:00001e10       ?add@Atomic@@SAHHPCH@Z     08002e10 f i ageTable.obj
 0001:00001e10       ?add_ptr@Atomic@@SAPAXHPCX@Z 08002e10 f i ageTable.obj
 0001:00001e60       ?create_constant@PerfDataManager@@SAPAVPerfLongConstant@@W4CounterNS@@PBDW4Units@PerfData@@_JPAVThread@@@Z 08002e60 f i ageTable.obj
 0001:00001e90       ?create_variable@PerfDataManager@@SAPAVPerfLongVariable@@W4CounterNS@@PBDW4Units@PerfData@@PAVThread@@@Z 08002e90 f i ageTable.obj
 0001:00001ec0       ?initialize@ResourceMark@@IAEXPAVThread@@@Z 08002ec0 f i ageTable.obj
 0001:00001f10       ?merge_par@ageTable@@QAEXPAV1@@Z 08002f10 f   ageTable.obj
 0001:00001f90       ?compute_tenuring_threshold@ageTable@@QAEHI@Z 08002f90 f   ageTable.obj
 0001:00002140       ?current@Thread@@SAPAV1@XZ 08003140 f i ageTable.obj
 0001:00002170       ??0ResourceMark@@QAE@XZ    08003170 f i ageTable.obj
 0001:00002200       ??0ageTable@@QAE@_N@Z      08003200 f   ageTable.obj
 0001:000023a0       ??3_ValueObj@@SAXPAX@Z     080033a0 f   allocation.obj
 0001:000023c0       ?trace_heap_malloc@@YAXIPBDPAX@Z 080033c0 f   allocation.obj
 0001:000023f0       ?trace_heap_free@@YAXPAX@Z 080033f0 f   allocation.obj
 0001:00002410       ?large_pool@ChunkPool@@SAPAV1@XZ 08003410 f i allocation.obj
 0001:00002440       ?print_value@AllocatedObj@@QBEXXZ 08003440 f   allocation.obj
 0001:00002450       ?print_on@AllocatedObj@@UBEXPAVoutputStream@@@Z 08003450 f   allocation.obj
 0001:00002470       ?print_value_on@AllocatedObj@@UBEXPAVoutputStream@@@Z 08003470 f   allocation.obj
 0001:00002490       ?print@AllocStats@@QAEXXZ  08003490 f   allocation.obj
 0001:000024e0       ?free_all@Arena@@SAXPAPAD0@Z 080034e0 f i allocation.obj
 0001:00002510       ?is_power_of_2@@YA_NH@Z    08003510 f i allocation.obj
 0001:00002530       ?Afree@Arena@@QAEXPAXI@Z   08003530 f i allocation.obj
 0001:00002580       ??2ResourceObj@@SAPAXI@Z   08003580 f i allocation.obj
 0001:000025a0       ?AllocateHeap@@YAPADIPBD@Z 080035a0 f i allocation.obj
 0001:00002600       ??2CHeapObj@@SAPAXI@Z      08003600 f   allocation.obj
 0001:00002620       ?FreeHeap@@YAXPAX@Z        08003620 f   allocation.obj
 0001:00002620       ??3CHeapObj@@SAXPAX@Z      08003620 f   allocation.obj
 0001:00002650       ??2ResourceObj@@SAPAXIW4allocation_type@0@@Z 08003650 f   allocation.obj
 0001:000026b0       ??3ResourceObj@@SAXPAX@Z   080036b0 f   allocation.obj
 0001:00002700       ?allocate@ChunkPool@@QAEPAXI@Z 08003700 f i allocation.obj
 0001:00002780       ?free@ChunkPool@@QAEXPAVChunk@@@Z 08003780 f i allocation.obj
 0001:000027e0       ?initialize@ChunkPool@@SAXXZ 080037e0 f i allocation.obj
 0001:00002870       ?chunkpool_init@@YAXXZ     08003870 f   allocation.obj
 0001:00002880       ?task@ChunkPoolCleaner@@UAEXXZ 08003880 f i allocation.obj
 0001:00002910       ?free_all_but@ChunkPool@@QAEXI@Z 08003910 f i allocation.obj
 0001:00002980       ??2Chunk@@SAPAXII@Z        08003980 f   allocation.obj
 0001:00002a70       ??3Chunk@@SAXPAX@Z         08003a70 f   allocation.obj
 0001:00002b10       ?chop@Chunk@@QAEXXZ        08003b10 f   allocation.obj
 0001:00002b60       ?next_chop@Chunk@@QAEXXZ   08003b60 f   allocation.obj
 0001:00002b80       ?start_chunk_pool_cleaner_task@Chunk@@SAXXZ 08003b80 f   allocation.obj
 0001:00002be0       ?contains@Arena@@QBE_NPBX@Z 08003be0 f   allocation.obj
 0001:00002ca0       ??0AllocStats@@QAE@XZ      08003ca0 f   allocation.obj
 0001:00002cd0       ?free_malloced_objects@Arena@@SAXPAVChunk@@PAD11@Z 08003cd0 f   allocation.obj
 0001:00002e50       ??0ReallocMark@@QAE@XZ     08003e50 f   allocation.obj
 0001:00002e70       ??0Arena@@QAE@I@Z          08003e70 f   allocation.obj
 0001:00002ed0       ??0Arena@@QAE@XZ           08003ed0 f   allocation.obj
 0001:00002f50       ?destruct_contents@Arena@@QAEXXZ 08003f50 f   allocation.obj
 0001:00002fa0       ?grow@Arena@@IAEPAXI@Z     08003fa0 f   allocation.obj
 0001:00003040       ?internal_malloc_4@Arena@@IAEPAXI@Z 08004040 f   allocation.obj
 0001:00003090       ?check@ReallocMark@@QAEXXZ 08004090 f   allocation.obj
 0001:000030f0       ??1Arena@@QAE@XZ           080040f0 f   allocation.obj
 0001:00003100       ?malloc@Arena@@IAEPAXI@Z   08004100 f   allocation.obj
 0001:00003160       ?Amalloc@Arena@@QAEPAXI@Z  08004160 f i allocation.obj
 0001:000031b0       ?Arealloc@Arena@@QAEPAXPAXII@Z 080041b0 f   allocation.obj
 0001:000032a0       ?engage@AllocationProfiler@@SAXXZ 080042a0 f   aprofiler.obj
 0001:000032b0       ?disengage@AllocationProfiler@@SAXXZ 080042b0 f   aprofiler.obj
 0001:000032c0       ?compare_classes@AllocationProfiler@@CAHPAPAVklassOopDesc@@0@Z 080042c0 f   aprofiler.obj
 0001:000032f0       ?sort_and_print_array@AllocationProfiler@@CAXI@Z 080042f0 f   aprofiler.obj
 0001:00003480       ??0GenericGrowableArray@@IAE@HH_N@Z 08004480 f i aprofiler.obj
 0001:00003500       ?do_object@AllocProfClosure@@UAEXPAVoopDesc@@@Z 08004500 f i aprofiler.obj
 0001:00003550       ?size_given_klass@oopDesc@@QAEHPAVKlass@@@Z 08004550 f i aprofiler.obj
 0001:00003680       ?round_to@@YAHHI@Z         08004680 f i aprofiler.obj
 0001:000036b0       ?layout_helper_header_size@Klass@@SAHH@Z 080046b0 f i aprofiler.obj
 0001:00003700       ?layout_helper_log2_element_size@Klass@@SAHH@Z 08004700 f i aprofiler.obj
 0001:00003750       ?oop_is_objArray@Klass@@QBE_NXZ 08004750 f i aprofiler.obj
 0001:00003790       ?oop_is_typeArray@Klass@@QBE_NXZ 08004790 f i aprofiler.obj
 0001:000037d0       ?blueprint@oopDesc@@QBEPAVKlass@@XZ 080047d0 f i aprofiler.obj
 0001:000037e0       ?iterate_since_last_gc@AllocationProfiler@@CAXXZ 080047e0 f   aprofiler.obj
 0001:00003820       ?do_object@AllocProfResetClosure@@UAEXPAVoopDesc@@@Z 08004820 f i aprofiler.obj
 0001:00003870       ?is_klass@oopDesc@@QBE_NXZ 08004870 f i aprofiler.obj
 0001:00003880       ?add_class_to_array@AllocationProfiler@@CAXPAVklassOopDesc@@@Z 08004880 f   aprofiler.obj
 0001:000038c0       ?add_classes_to_array@AllocationProfiler@@CAXPAVklassOopDesc@@@Z 080048c0 f   aprofiler.obj
 0001:000038e0       ?print@AllocationProfiler@@SAXI@Z 080048e0 f   aprofiler.obj
 0001:00003b10       ?output_stream@defaultStream@@SAPAU_iobuf@@XZ 08004b10 f i arguments.obj
 0001:00003b30       ?error_stream@defaultStream@@SAPAU_iobuf@@XZ 08004b30 f i arguments.obj
 0001:00003b90       ?describe_range_error@Arguments@@CAXW4ArgsRange@1@@Z 08004b90 f   arguments.obj
 0001:00003bf0       ?build_resource_string@Arguments@@CAPBDPAPADH@Z 08004bf0 f   arguments.obj
 0001:00003ce0       ?print_jvm_flags_on@Arguments@@SAXPAVoutputStream@@@Z 08004ce0 f   arguments.obj
 0001:00003d30       ?print_jvm_args_on@Arguments@@SAXPAVoutputStream@@@Z 08004d30 f   arguments.obj
 0001:00003dc0       ?set_parnew_gc_flags@Arguments@@CAXXZ 08004dc0 f   arguments.obj
 0001:00003ef0       ?should_auto_select_low_pause_collector@Arguments@@CA_NXZ 08004ef0 f   arguments.obj
 0001:00003f40       ?set_ergonomics_flags@Arguments@@CAXXZ 08004f40 f   arguments.obj
 0001:00003fe0       ?set_parallel_gc_flags@Arguments@@CAXXZ 08004fe0 f   arguments.obj
 0001:000040f0       ?verify_percentage@Arguments@@CA_NIPBD@Z 080050f0 f   arguments.obj
 0001:00004130       ?check_gc_consistency@Arguments@@SA_NXZ 08005130 f   arguments.obj
 0001:00004220       ?is_ccstr@Flag@@QBE_NXZ    08005220 f i arguments.obj
 0001:00004260       ?boolAtPut@CommandLineFlags@@SA_NPADPA_NW4FlagValueOrigin@@@Z 08005260 f i arguments.obj
 0001:00004290       ?intxAtPut@CommandLineFlags@@SA_NPADPAHW4FlagValueOrigin@@@Z 08005290 f i arguments.obj
 0001:000042c0       ?uintxAtPut@CommandLineFlags@@SA_NPADPAIW4FlagValueOrigin@@@Z 080052c0 f i arguments.obj
 0001:000042f0       ?uint64_tAtPut@CommandLineFlags@@SA_NPADPA_KW4FlagValueOrigin@@@Z 080052f0 f i arguments.obj
 0001:00004320       ?ccstrAtPut@CommandLineFlags@@SA_NPADPAPBDW4FlagValueOrigin@@@Z 08005320 f i arguments.obj
 0001:00004350       ?copy_expand_pid@Arguments@@SA_NPBDIPADI@Z 08005350 f   arguments.obj
 0001:00004410       ??$MIN2@_K@@YA_K_K0@Z      08005410 f i arguments.obj
 0001:00004440       ?ReallocateHeap@@YAPADPADIPBD@Z 08005440 f i arguments.obj
 0001:00004490       ?set_value@SystemProperty@@QAE_NPAD@Z 08005490 f i arguments.obj
 0001:00004540       ?append_value@SystemProperty@@QAEXPBD@Z 08005540 f i arguments.obj
 0001:00004670       ?process_sun_java_launcher_properties@Arguments@@SAXPAUJavaVMInitArgs@@@Z 08005670 f   arguments.obj
 0001:00004700       ?is_newly_obsolete@Arguments@@CA_NPBDPAVJDK_Version@@@Z 08005700 f   arguments.obj
 0001:000047e0       ?reset_path@SysClassPath@@QAEXPBD@Z 080057e0 f i arguments.obj
 0001:00004860       ?combined_path@SysClassPath@@QAEPADXZ 08005860 f   arguments.obj
 0001:00004990       ?add_to_path@SysClassPath@@CAPADPBD0_N@Z 08005990 f   arguments.obj
 0001:00004af0       ?add_jars_to_path@SysClassPath@@CAPADPADPBD@Z 08005af0 f   arguments.obj
 0001:00005140       ?parse_argument@Arguments@@CA_NPBDW4FlagValueOrigin@@@Z 08006140 f   arguments.obj
 0001:000053c0       ?add_string@Arguments@@CAXPAPAPADPAHPBD@Z 080063c0 f   arguments.obj
 0001:00005440       ?print_on@Arguments@@SAXPAVoutputStream@@@Z 08006440 f   arguments.obj
 0001:000054c0       ?process_argument@Arguments@@CA_NPBDEW4FlagValueOrigin@@@Z 080064c0 f   arguments.obj
 0001:000055a0       ?process_settings_file@Arguments@@SA_NPBD_NE@Z 080065a0 f   arguments.obj
 0001:000057a0       ?set_cms_and_parnew_gc_flags@Arguments@@CAXXZ 080067a0 f   arguments.obj
 0001:00005cc0       ?set_g1_gc_flags@Arguments@@CAXXZ 08006cc0 f   arguments.obj
 0001:00005df0       ?set_heap_size@Arguments@@CAXXZ 08006df0 f   arguments.obj
 0001:00006060       ?check_vm_args_consistency@Arguments@@SA_NXZ 08007060 f   arguments.obj
 0001:000066c0       ?is_bad_option@Arguments@@CA_NPBUJavaVMOption@@EPBD@Z 080076c0 f   arguments.obj
 0001:00006720       ?parse_uintx@Arguments@@CA_NPBDPAII@Z 08007720 f   arguments.obj
 0001:00006780       ?parse_memory_size@Arguments@@CA?AW4ArgsRange@1@PBDPA_K_K@Z 08007780 f   arguments.obj
 0001:000067d0       ?PropertyList_count@Arguments@@SAHPAVSystemProperty@@@Z 080077d0 f   arguments.obj
 0001:000067f0       ?PropertyList_get_value@Arguments@@SAPBDPAVSystemProperty@@PBD@Z 080077f0 f   arguments.obj
 0001:00006870       ??0SystemProperty@@QAE@PBD0_N@Z 08007870 f i arguments.obj
 0001:00006980       ??0AgentLibrary@@QAE@PBD0_NPAX@Z 08007980 f i arguments.obj
 0001:00006a80       ?add_init_library@Arguments@@CAXPBDPAD@Z 08007a80 f i arguments.obj
 0001:00006ae0       ?add_init_agent@Arguments@@CAXPBDPAD_N@Z 08007ae0 f i arguments.obj
 0001:00006b40       ?is_bad_option@Arguments@@CA_NPBUJavaVMOption@@E@Z 08007b40 f i arguments.obj
 0001:00006b90       ?init_system_properties@Arguments@@SAXXZ 08007b90 f   arguments.obj
 0001:00007020       ??1SysClassPath@@QAE@XZ    08008020 f   arguments.obj
 0001:000070a0       ?PropertyList_unique_add@Arguments@@SAXPAPAVSystemProperty@@PBDPADE@Z 080080a0 f   arguments.obj
 0001:00007170       ?expand_endorsed@SysClassPath@@QAEXXZ 08008170 f   arguments.obj
 0001:00007300       ?add_property@Arguments@@CA_NPBD@Z 08008300 f   arguments.obj
 0001:00007570       ?set_mode_flags@Arguments@@CAXW4Mode@1@@Z 08008570 f   arguments.obj
 0001:00007640       ?parse_each_vm_init_arg@Arguments@@CAHPBUJavaVMInitArgs@@PAVSysClassPath@@PA_NW4FlagValueOrigin@@@Z 08008640 f   arguments.obj
 0001:00008f10       ?finalize_vm_init_args@Arguments@@CAHPAVSysClassPath@@_N@Z 08009f10 f   arguments.obj
 0001:00008fb0       ?parse_options_environment_variable@Arguments@@CAHPBDPAVSysClassPath@@PA_N@Z 08009fb0 f   arguments.obj
 0001:000091a0       ?parse_vm_init_args@Arguments@@CAHPBUJavaVMInitArgs@@@Z 0800a1a0 f   arguments.obj
 0001:00009360       ?parse@Arguments@@SAHPBUJavaVMInitArgs@@@Z 0800a360 f   arguments.obj
 0001:00009820       ?sort@ResourceArray@@IAEXIP6AHPBX0@Z@Z 0800a820 f   array.obj
 0001:00009850       ?remove_at@ResourceArray@@IAEXIH@Z 0800a850 f   array.obj
 0001:000098b0       ?init_nesting@ResourceArray@@IAEXXZ 0800a8b0 f   array.obj
 0001:000098f0       ?expand@ResourceArray@@IAEXIHAAH@Z 0800a8f0 f   array.obj
 0001:000099a0       ?multi_allocate@arrayKlass@@UAEPAVoopDesc@@HPAHPAVThread@@@Z 0800a9a0 f   arrayKlass.obj
 0001:000099c0       ?with_array_klasses_do@arrayKlass@@UAEXP6AXPAVklassOopDesc@@@Z@Z 0800a9c0 f   arrayKlass.obj
 0001:000099d0       ?compute_modifier_flags@arrayKlass@@UBEHPAVThread@@@Z 0800a9d0 f   arrayKlass.obj
 0001:000099e0       ?jvmti_class_status@arrayKlass@@UBEHXZ 0800a9e0 f   arrayKlass.obj
 0001:000099e0       ?type@VM_GC_HeapInspection@@UBE?AW4VMOp_Type@VM_Operation@@XZ 0800a9e0 f   attachListener.obj
 0001:000099f0       ?contains@MemRegion@@QBE_NPBX@Z 0800a9f0 f i arrayKlass.obj
 0001:00009a20       ??CKlassHandle@@QBEPAVKlass@@XZ 0800aa20 f i arrayKlass.obj
 0001:00009a50       ?array_size@objArrayOopDesc@@CAHH@Z 0800aa50 f i arrayKlass.obj
 0001:00009ae0       ?cast@arrayKlass@@SAPAV1@PAVklassOopDesc@@@Z 0800aae0 f i arrayKlass.obj
 0001:00009b20       ?is_in_reserved@CollectedHeap@@QBE_NPBX@Z 0800ab20 f i arrayKlass.obj
 0001:00009b20       ?is_in_closed_subset@CollectedHeap@@UBE_NPBX@Z 0800ab20 f i collectedHeap.obj
 0001:00009b50       ?byte_for@CardTableModRefBS@@IBEPACPBX@Z 0800ab50 f i arrayKlass.obj
 0001:00009bc0       ?post_allocation_setup_no_klass_install@CollectedHeap@@KAXVKlassHandle@@PAVHeapWord@@I@Z 0800abc0 f i arrayKlass.obj
 0001:00009c20       ?decode_heap_oop_not_null@oopDesc@@SAPAV1@I@Z 0800ac20 f i arrayKlass.obj
 0001:00009c60       ?decode_heap_oop@oopDesc@@SAPAV1@I@Z 0800ac60 f i arrayKlass.obj
 0001:00009c80       ?Object_klass@SystemDictionary@@SAPAVklassOopDesc@@XZ 0800ac80 f i arrayKlass.obj
 0001:00009cb0       ?Cloneable_klass@SystemDictionary@@SAPAVklassOopDesc@@XZ 0800acb0 f i arrayKlass.obj
 0001:00009ce0       ?Serializable_klass@SystemDictionary@@SAPAVklassOopDesc@@XZ 0800ace0 f i arrayKlass.obj
 0001:00009d10       ?object_size@arrayKlass@@QBEHH@Z 0800ad10 f   arrayKlass.obj
 0001:00009d40       ?java_super@arrayKlass@@UBEPAVklassOopDesc@@XZ 0800ad40 f   arrayKlass.obj
 0001:00009d80       ?compute_secondary_supers@arrayKlass@@UAEPAVobjArrayOopDesc@@HPAVThread@@@Z 0800ad80 f   arrayKlass.obj
 0001:00009db0       ?compute_is_subtype_of@arrayKlass@@UAE_NPAVklassOopDesc@@@Z 0800adb0 f   arrayKlass.obj
 0001:00009e40       ?array_klasses_do@arrayKlass@@UAEXP6AXPAVklassOopDesc@@@Z@Z 0800ae40 f   arrayKlass.obj
 0001:00009e90       ?write_ref_field@BarrierSet@@QAEXPAXPAVoopDesc@@@Z 0800ae90 f i arrayKlass.obj
 0001:00009eb0       ?fill_to_words@Copy@@SAXPAVHeapWord@@II@Z 0800aeb0 f i arrayKlass.obj
 0001:00009ee0       ?get_memory_pool@MemoryService@@SAPAVMemoryPool@@H@Z 0800aee0 f i arrayKlass.obj
 0001:00009f30       ?detect_low_memory_for_collected_pools@LowMemoryDetector@@SAXXZ 0800af30 f i arrayKlass.obj
 0001:00009ff0       ?allocate@ThreadLocalAllocBuffer@@QAEPAVHeapWord@@I@Z 0800aff0 f i arrayKlass.obj
 0001:0000a090       ?allocate_from_tlab@CollectedHeap@@KAPAVHeapWord@@PAVThread@@I@Z 0800b090 f i arrayKlass.obj
 0001:0000a0e0       ?init_obj@CollectedHeap@@KAXPAVHeapWord@@I@Z 0800b0e0 f i arrayKlass.obj
 0001:0000a150       ?is_objArray@oopDesc@@QBE_NXZ 0800b150 f i arrayKlass.obj
 0001:0000a190       ?is_typeArray@oopDesc@@QBE_NXZ 0800b190 f i arrayKlass.obj
 0001:0000a1d0       ?encode_heap_oop_not_null@oopDesc@@SAIPAV1@@Z 0800b1d0 f i arrayKlass.obj
 0001:0000a2c0       ?size@oopDesc@@QAEHXZ      0800b2c0 f i arrayKlass.obj
 0001:0000a2d0       ?is_parsable@oopDesc@@QAE_NXZ 0800b2d0 f i arrayKlass.obj
 0001:0000a2f0       ?update_barrier_set@@YAXPAXPAVoopDesc@@@Z 0800b2f0 f i arrayKlass.obj
 0001:0000a340       ??0No_Safepoint_Verifier@@QAE@_N0@Z 0800b340 f i arrayKlass.obj
 0001:0000a3b0       ?complete_create_array_klass@arrayKlass@@SAXVarrayKlassHandle@@VKlassHandle@@PAVThread@@@Z 0800b3b0 f   arrayKlass.obj
 0001:0000a490       ?oop_print_on@arrayKlass@@UAEXPAVoopDesc@@PAVoutputStream@@@Z 0800b490 f   arrayKlass.obj
 0001:0000a4f0       ?oop_verify_on@arrayKlass@@UAEXPAVoopDesc@@PAVoutputStream@@@Z 0800b4f0 f   arrayKlass.obj
 0001:0000a550       ?cast@Klass@@SAPAV1@PAVklassOopDesc@@@Z 0800b550 f i arrayKlass.obj
 0001:0000a590       ??0KlassHandle@@QAE@PAVThread@@PAVoopDesc@@@Z 0800b590 f i arrayKlass.obj
 0001:0000a5f0       ??0arrayKlassHandle@@QAE@PAVThread@@PAVklassOopDesc@@@Z 0800b5f0 f i arrayKlass.obj
 0001:0000a650       ?header_size@arrayOopDesc@@SAHW4BasicType@@@Z 0800b650 f i arrayKlass.obj
 0001:0000a6a0       ?max_array_length@arrayOopDesc@@SAHW4BasicType@@@Z 0800b6a0 f i arrayKlass.obj
 0001:0000a730       ?object_size@objArrayOopDesc@@SAHH@Z 0800b730 f i arrayKlass.obj
 0001:0000a7b0       ?common_mem_allocate_noinit@CollectedHeap@@KAPAVHeapWord@@I_NPAVThread@@@Z 0800b7b0 f i arrayKlass.obj
 0001:0000a900       ??$oop_store@PAVoopDesc@@@@YAXPCRAVoopDesc@@PAV0@@Z 0800b900 f i arrayKlass.obj
 0001:0000a970       ?uncached_lookup_method@arrayKlass@@UBEPAVmethodOopDesc@@PAVsymbolOopDesc@@0@Z 0800b970 f   arrayKlass.obj
 0001:0000a9d0       ?vtable@arrayKlass@@UBEPAVklassVtable@@XZ 0800b9d0 f   arrayKlass.obj
 0001:0000aa60       ??$oop_store@PAVoopDesc@@@@YAXPAPAVoopDesc@@PAV0@@Z 0800ba60 f i arrayKlass.obj
 0001:0000aaa0       ?set_component_mirror@arrayKlass@@QAEXPAVoopDesc@@@Z 0800baa0 f i arrayKlass.obj
 0001:0000aaf0       ??$oop_store_without_check@PAVoopDesc@@@@YAXPAPAVoopDesc@@PAV0@@Z 0800baf0 f i arrayKlass.obj
 0001:0000ab40       ?set_super@Klass@@QAEXPAVklassOopDesc@@@Z 0800bb40 f i arrayKlass.obj
 0001:0000aba0       ?set_method_ordering@instanceKlass@@QAEXPAVtypeArrayOopDesc@@@Z 0800bba0 f i classFileParser.obj
 0001:0000aba0       ?set_lower_dimension@arrayKlass@@QAEXPAVklassOopDesc@@@Z 0800bba0 f i arrayKlass.obj
 0001:0000ac00       ?set_klass@oopDesc@@QAEXPAVklassOopDesc@@@Z 0800bc00 f i arrayKlass.obj
 0001:0000ac70       ?base_create_array_klass@arrayKlass@@SA?AVarrayKlassHandle@@ABVKlass_vtbl@@HVKlassHandle@@PAVThread@@@Z 0800bc70 f   arrayKlass.obj
 0001:0000aea0       ?post_allocation_install_obj_klass@CollectedHeap@@SAXVKlassHandle@@PAVoopDesc@@H@Z 0800bea0 f i arrayKlass.obj
 0001:0000af80       ?post_allocation_setup_array@CollectedHeap@@KAXVKlassHandle@@PAVHeapWord@@IH@Z 0800bf80 f i arrayKlass.obj
 0001:0000b030       ?array_allocate@CollectedHeap@@SAPAVoopDesc@@VKlassHandle@@HHPAVThread@@@Z 0800c030 f i arrayKlass.obj
 0001:0000b0e0       ?allocate_arrayArray@arrayKlass@@QAEPAVobjArrayOopDesc@@HHPAVThread@@@Z 0800c0e0 f   arrayKlass.obj
 0001:0000b210       ?internal_name@arrayKlassKlass@@UBEPBDXZ 0800c210 f   arrayKlassKlass.obj
 0001:0000b220       ?decode_pointer@markOopDesc@@QAEPAXXZ 0800c220 f i arrayKlassKlass.obj
 0001:0000b240       ?verify_addr@ParMarkBitMap@@QBEXPAVHeapWord@@@Z 0800c240 f i arrayKlassKlass.obj
 0001:0000b2a0       ?is_shared@oopDesc@@QBE_NXZ 0800c2a0 f i arrayKlassKlass.obj
 0001:0000b2c0       ??$adjust_pointer@PAVoopDesc@@@MarkSweep@@SAXPAPAVoopDesc@@_N@Z 0800c2c0 f i arrayKlassKlass.obj
 0001:0000b380       ??$adjust_pointer@PAVoopDesc@@@PSParallelCompact@@CAXPAPAVoopDesc@@_N@Z 0800c380 f i arrayKlassKlass.obj
 0001:0000b420       ?is_leaf_class@Klass@@UBE_NXZ 0800c420 f i arrayKlassKlass.obj
 0001:0000b440       ?oop_oop_iterate_v_m@Klass@@UAEHPAVoopDesc@@PAVOopClosure@@VMemRegion@@@Z 0800c440 f i arrayKlassKlass.obj
 0001:0000b440       ?oop_oop_iterate_nv_m@Klass@@UAEHPAVoopDesc@@PAVCMSInnerParMarkAndPushClosure@@VMemRegion@@@Z 0800c440 f i arrayKlassKlass.obj
 0001:0000b440       ?oop_oop_iterate_nv_m@Klass@@UAEHPAVoopDesc@@PAVFilterAndMarkInHeapRegionAndIntoCSClosure@@VMemRegion@@@Z 0800c440 f i arrayKlassKlass.obj
 0001:0000b440       ?oop_oop_iterate_nv_m@Klass@@UAEHPAVoopDesc@@PAVPushOrMarkClosure@@VMemRegion@@@Z 0800c440 f i arrayKlassKlass.obj
 0001:0000b440       ?oop_oop_iterate_nv_m@Klass@@UAEHPAVoopDesc@@PAVPar_PushOrMarkClosure@@VMemRegion@@@Z 0800c440 f i arrayKlassKlass.obj
 0001:0000b440       ?oop_oop_iterate_nv_m@Klass@@UAEHPAVoopDesc@@PAVG1ParScanClosure@@VMemRegion@@@Z 0800c440 f i arrayKlassKlass.obj
 0001:0000b440       ?oop_oop_iterate_nv_m@Klass@@UAEHPAVoopDesc@@PAVParScanWithoutBarrierClosure@@VMemRegion@@@Z 0800c440 f i arrayKlassKlass.obj
 0001:0000b440       ?oop_oop_iterate_nv_m@Klass@@UAEHPAVoopDesc@@PAVG1ParPushHeapRSClosure@@VMemRegion@@@Z 0800c440 f i arrayKlassKlass.obj
 0001:0000b440       ?oop_oop_iterate_nv_m@Klass@@UAEHPAVoopDesc@@PAVFilteringClosure@@VMemRegion@@@Z 0800c440 f i arrayKlassKlass.obj
 0001:0000b440       ?oop_oop_iterate_nv_m@Klass@@UAEHPAVoopDesc@@PAVMarkRefsIntoAndScanClosure@@VMemRegion@@@Z 0800c440 f i arrayKlassKlass.obj
 0001:0000b440       ?oop_oop_iterate_nv_m@Klass@@UAEHPAVoopDesc@@PAVFilterInHeapRegionAndIntoCSClosure@@VMemRegion@@@Z 0800c440 f i arrayKlassKlass.obj
 0001:0000b440       ?oop_oop_iterate_nv_m@Klass@@UAEHPAVoopDesc@@PAVPushAndMarkClosure@@VMemRegion@@@Z 0800c440 f i arrayKlassKlass.obj
 0001:0000b440       ?oop_oop_iterate_nv_m@Klass@@UAEHPAVoopDesc@@PAVPar_PushAndMarkClosure@@VMemRegion@@@Z 0800c440 f i arrayKlassKlass.obj
 0001:0000b440       ?oop_oop_iterate_nv_m@Klass@@UAEHPAVoopDesc@@PAVParScanWithBarrierClosure@@VMemRegion@@@Z 0800c440 f i arrayKlassKlass.obj
 0001:0000b440       ?oop_oop_iterate_nv_m@Klass@@UAEHPAVoopDesc@@PAV?$G1ParCopyClosure@$0A@$01$0A@@@VMemRegion@@@Z 0800c440 f i arrayKlassKlass.obj
 0001:0000b440       ?oop_oop_iterate_nv_m@Klass@@UAEHPAVoopDesc@@PAVFastScanClosure@@VMemRegion@@@Z 0800c440 f i arrayKlassKlass.obj
 0001:0000b440       ?oop_oop_iterate_nv_m@Klass@@UAEHPAVoopDesc@@PAVFilterOutOfRegionClosure@@VMemRegion@@@Z 0800c440 f i arrayKlassKlass.obj
 0001:0000b440       ?oop_oop_iterate_nv_m@Klass@@UAEHPAVoopDesc@@PAVFilterIntoCSClosure@@VMemRegion@@@Z 0800c440 f i arrayKlassKlass.obj
 0001:0000b440       ?oop_oop_iterate_nv_m@Klass@@UAEHPAVoopDesc@@PAVScanClosure@@VMemRegion@@@Z 0800c440 f i arrayKlassKlass.obj
 0001:0000b440       ?oop_oop_iterate_nv_m@Klass@@UAEHPAVoopDesc@@PAVCMSKeepAliveClosure@@VMemRegion@@@Z 0800c440 f i arrayKlassKlass.obj
 0001:0000b440       ?oop_oop_iterate_nv_m@Klass@@UAEHPAVoopDesc@@PAVPar_MarkRefsIntoAndScanClosure@@VMemRegion@@@Z 0800c440 f i arrayKlassKlass.obj
 0001:0000b470       ?oop_oop_iterate_nv@Klass@@UAEHPAVoopDesc@@PAVFilterIntoCSClosure@@@Z 0800c470 f i arrayKlassKlass.obj
 0001:0000b470       ?oop_oop_iterate_nv@Klass@@UAEHPAVoopDesc@@PAVFilterInHeapRegionAndIntoCSClosure@@@Z 0800c470 f i arrayKlassKlass.obj
 0001:0000b470       ?oop_oop_iterate_nv@Klass@@UAEHPAVoopDesc@@PAVPar_MarkRefsIntoAndScanClosure@@@Z 0800c470 f i arrayKlassKlass.obj
 0001:0000b470       ?oop_oop_iterate_nv@Klass@@UAEHPAVoopDesc@@PAVFilterOutOfRegionClosure@@@Z 0800c470 f i arrayKlassKlass.obj
 0001:0000b470       ?oop_oop_iterate_nv@Klass@@UAEHPAVoopDesc@@PAVPar_PushAndMarkClosure@@@Z 0800c470 f i arrayKlassKlass.obj
 0001:0000b470       ?oop_oop_iterate_nv@Klass@@UAEHPAVoopDesc@@PAVFastScanClosure@@@Z 0800c470 f i arrayKlassKlass.obj
 0001:0000b470       ?oop_oop_iterate_nv@Klass@@UAEHPAVoopDesc@@PAVMarkRefsIntoAndScanClosure@@@Z 0800c470 f i arrayKlassKlass.obj
 0001:0000b470       ?oop_oop_iterate_nv@Klass@@UAEHPAVoopDesc@@PAVFilteringClosure@@@Z 0800c470 f i arrayKlassKlass.obj
 0001:0000b470       ?oop_oop_iterate_nv@Klass@@UAEHPAVoopDesc@@PAVCMSKeepAliveClosure@@@Z 0800c470 f i arrayKlassKlass.obj
 0001:0000b470       ?oop_oop_iterate_nv@Klass@@UAEHPAVoopDesc@@PAVFilterAndMarkInHeapRegionAndIntoCSClosure@@@Z 0800c470 f i arrayKlassKlass.obj
 0001:0000b470       ?oop_oop_iterate_nv@Klass@@UAEHPAVoopDesc@@PAVPushOrMarkClosure@@@Z 0800c470 f i arrayKlassKlass.obj
 0001:0000b470       ?oop_oop_iterate_nv@Klass@@UAEHPAVoopDesc@@PAVG1ParScanClosure@@@Z 0800c470 f i arrayKlassKlass.obj
 0001:0000b470       ?oop_oop_iterate_nv@Klass@@UAEHPAVoopDesc@@PAV?$G1ParCopyClosure@$0A@$01$0A@@@@Z 0800c470 f i arrayKlassKlass.obj
 0001:0000b470       ?oop_oop_iterate_nv@Klass@@UAEHPAVoopDesc@@PAVPar_PushOrMarkClosure@@@Z 0800c470 f i arrayKlassKlass.obj
 0001:0000b470       ?oop_oop_iterate_nv@Klass@@UAEHPAVoopDesc@@PAVPushAndMarkClosure@@@Z 0800c470 f i arrayKlassKlass.obj
 0001:0000b470       ?oop_oop_iterate_nv@Klass@@UAEHPAVoopDesc@@PAVParScanWithBarrierClosure@@@Z 0800c470 f i arrayKlassKlass.obj
 0001:0000b470       ?oop_oop_iterate_nv@Klass@@UAEHPAVoopDesc@@PAVCMSInnerParMarkAndPushClosure@@@Z 0800c470 f i arrayKlassKlass.obj
 0001:0000b470       ?oop_oop_iterate_nv@Klass@@UAEHPAVoopDesc@@PAVParScanWithoutBarrierClosure@@@Z 0800c470 f i arrayKlassKlass.obj
 0001:0000b470       ?oop_oop_iterate_nv@Klass@@UAEHPAVoopDesc@@PAVScanClosure@@@Z 0800c470 f i arrayKlassKlass.obj
 0001:0000b470       ?oop_oop_iterate_v@Klass@@UAEHPAVoopDesc@@PAVOopClosure@@@Z 0800c470 f i arrayKlassKlass.obj
 0001:0000b470       ?oop_oop_iterate_nv@Klass@@UAEHPAVoopDesc@@PAVG1ParPushHeapRSClosure@@@Z 0800c470 f i arrayKlassKlass.obj
 0001:0000b480       ?oop_oop_iterate_backwards_nv@Klass@@UAEHPAVoopDesc@@PAVFilterAndMarkInHeapRegionAndIntoCSClosure@@@Z 0800c480 f i arrayKlassKlass.obj
 0001:0000b480       ?oop_oop_iterate_backwards_nv@Klass@@UAEHPAVoopDesc@@PAVPar_MarkRefsIntoAndScanClosure@@@Z 0800c480 f i arrayKlassKlass.obj
 0001:0000b480       ?oop_oop_iterate_backwards_nv@Klass@@UAEHPAVoopDesc@@PAVG1ParScanClosure@@@Z 0800c480 f i arrayKlassKlass.obj
 0001:0000b480       ?oop_oop_iterate_backwards_nv@Klass@@UAEHPAVoopDesc@@PAVPushAndMarkClosure@@@Z 0800c480 f i arrayKlassKlass.obj
 0001:0000b480       ?oop_oop_iterate_backwards_nv@Klass@@UAEHPAVoopDesc@@PAVPar_PushAndMarkClosure@@@Z 0800c480 f i arrayKlassKlass.obj
 0001:0000b480       ?oop_oop_iterate_backwards_nv@Klass@@UAEHPAVoopDesc@@PAV?$G1ParCopyClosure@$0A@$01$0A@@@@Z 0800c480 f i arrayKlassKlass.obj
 0001:0000b480       ?oop_oop_iterate_backwards_nv@Klass@@UAEHPAVoopDesc@@PAVCMSInnerParMarkAndPushClosure@@@Z 0800c480 f i arrayKlassKlass.obj
 0001:0000b480       ?oop_oop_iterate_backwards_nv@Klass@@UAEHPAVoopDesc@@PAVMarkRefsIntoAndScanClosure@@@Z 0800c480 f i arrayKlassKlass.obj
 0001:0000b480       ?oop_oop_iterate_backwards_nv@Klass@@UAEHPAVoopDesc@@PAVG1ParPushHeapRSClosure@@@Z 0800c480 f i arrayKlassKlass.obj
 0001:0000b480       ?oop_oop_iterate_backwards_nv@Klass@@UAEHPAVoopDesc@@PAVFilterIntoCSClosure@@@Z 0800c480 f i arrayKlassKlass.obj
 0001:0000b480       ?oop_oop_iterate_backwards_nv@Klass@@UAEHPAVoopDesc@@PAVFilterInHeapRegionAndIntoCSClosure@@@Z 0800c480 f i arrayKlassKlass.obj
 0001:0000b480       ?oop_oop_iterate_backwards_nv@Klass@@UAEHPAVoopDesc@@PAVPar_PushOrMarkClosure@@@Z 0800c480 f i arrayKlassKlass.obj
 0001:0000b480       ?oop_oop_iterate_backwards_nv@Klass@@UAEHPAVoopDesc@@PAVFastScanClosure@@@Z 0800c480 f i arrayKlassKlass.obj
 0001:0000b480       ?oop_oop_iterate_backwards_nv@Klass@@UAEHPAVoopDesc@@PAVParScanWithBarrierClosure@@@Z 0800c480 f i arrayKlassKlass.obj
 0001:0000b480       ?oop_oop_iterate_backwards_nv@Klass@@UAEHPAVoopDesc@@PAVParScanWithoutBarrierClosure@@@Z 0800c480 f i arrayKlassKlass.obj
 0001:0000b480       ?oop_oop_iterate_backwards_nv@Klass@@UAEHPAVoopDesc@@PAVScanClosure@@@Z 0800c480 f i arrayKlassKlass.obj
 0001:0000b480       ?oop_oop_iterate_backwards_nv@Klass@@UAEHPAVoopDesc@@PAVPushOrMarkClosure@@@Z 0800c480 f i arrayKlassKlass.obj
 0001:0000b480       ?oop_oop_iterate_backwards_nv@Klass@@UAEHPAVoopDesc@@PAVFilterOutOfRegionClosure@@@Z 0800c480 f i arrayKlassKlass.obj
 0001:0000b480       ?oop_oop_iterate_backwards_nv@Klass@@UAEHPAVoopDesc@@PAVFilteringClosure@@@Z 0800c480 f i arrayKlassKlass.obj
 0001:0000b480       ?oop_oop_iterate_backwards_nv@Klass@@UAEHPAVoopDesc@@PAVCMSKeepAliveClosure@@@Z 0800c480 f i arrayKlassKlass.obj
 0001:0000b490       ?at@BitMap@@QBE_NI@Z       0800c490 f i arrayKlassKlass.obj
 0001:0000b4e0       ??0HandleMark@@QAE@XZ      0800c4e0 f i arrayKlassKlass.obj
 0001:0000b520       ?oop_is_parsable@arrayKlassKlass@@UBE_NPAVoopDesc@@@Z 0800c520 f   arrayKlassKlass.obj
 0001:0000b5a0       ?oop_adjust_pointers@arrayKlassKlass@@UAEHPAVoopDesc@@@Z 0800c5a0 f   arrayKlassKlass.obj
 0001:0000b690       ?oop_oop_iterate@arrayKlassKlass@@UAEHPAVoopDesc@@PAVOopClosure@@@Z 0800c690 f   arrayKlassKlass.obj
 0001:0000b740       ?oop_oop_iterate_m@arrayKlassKlass@@UAEHPAVoopDesc@@PAVOopClosure@@VMemRegion@@@Z 0800c740 f   arrayKlassKlass.obj
 0001:0000b810       ?oop_copy_contents@arrayKlassKlass@@UAEXPAVPSPromotionManager@@PAVoopDesc@@@Z 0800c810 f   arrayKlassKlass.obj
 0001:0000b850       ?oop_push_contents@arrayKlassKlass@@UAEXPAVPSPromotionManager@@PAVoopDesc@@@Z 0800c850 f   arrayKlassKlass.obj
 0001:0000b890       ?oop_update_pointers@arrayKlassKlass@@UAEHPAVParCompactionManager@@PAVoopDesc@@@Z 0800c890 f   arrayKlassKlass.obj
 0001:0000b980       ?oop_print_on@arrayKlassKlass@@UAEXPAVoopDesc@@PAVoutputStream@@@Z 0800c980 f   arrayKlassKlass.obj
 0001:0000b9d0       ?oop_print_value_on@arrayKlassKlass@@UAEXPAVoopDesc@@PAVoutputStream@@@Z 0800c9d0 f   arrayKlassKlass.obj
 0001:0000ba60       ?oop_verify_on@arrayKlassKlass@@UAEXPAVoopDesc@@PAVoutputStream@@@Z 0800ca60 f   arrayKlassKlass.obj
 0001:0000bb20       ?verify@?$Stack@I@@IBEX_N@Z 0800cb20 f i taskqueue.obj
 0001:0000bb20       ?verify@?$Stack@PAVKlass@@@@IBEX_N@Z 0800cb20 f i markSweep.obj
 0001:0000bb20       ?verify@?$Stack@PAVmarkOopDesc@@@@IBEX_N@Z 0800cb20 f i concurrentMarkSweepGeneration.obj
 0001:0000bb20       ?verify@?$Stack@PAVDataLayout@@@@IBEX_N@Z 0800cb20 f i markSweep.obj
 0001:0000bb20       ?verify@?$Stack@PAVoopDesc@@@@IBEX_N@Z 0800cb20 f i arrayKlassKlass.obj
 0001:0000bb20       ?verify@?$Stack@VStarTask@@@@IBEX_N@Z 0800cb20 f i constantPoolKlass.obj
 0001:0000bc60       ?prototype_for_object@markOopDesc@@SAPAV1@PAVoopDesc@@@Z 0800cc60 f i arrayKlassKlass.obj
 0001:0000bcb0       ?is_marked@ParMarkBitMap@@QBE_NPAVHeapWord@@@Z 0800ccb0 f i arrayKlassKlass.obj
 0001:0000bd10       ?mark_obj@PSParallelCompact@@SA_NPAVoopDesc@@@Z 0800cd10 f i arrayKlassKlass.obj
 0001:0000bd50       ?allocate_permanent@klassKlass@@UBEPAXAAVKlassHandle@@HPAVThread@@@Z 0800cd50 f i arrayKlassKlass.obj
 0001:0000bdc0       ?allocate_permanent@arrayKlassKlass@@UBEPAXAAVKlassHandle@@HPAVThread@@@Z 0800cdc0 f i arrayKlassKlass.obj
 0001:0000be30       ?create_klass@arrayKlassKlass@@SAPAVklassOopDesc@@PAVThread@@@Z 0800ce30 f   arrayKlassKlass.obj
 0001:0000bed0       ?oop_update_pointers@arrayKlassKlass@@UAEHPAVParCompactionManager@@PAVoopDesc@@PAVHeapWord@@2@Z 0800ced0 f   arrayKlassKlass.obj
 0001:0000bff0       ?must_be_preserved_with_bias@markOopDesc@@QBE_NPAVoopDesc@@@Z 0800cff0 f i arrayKlassKlass.obj
 0001:0000c070       ?mark_object@MarkSweep@@SAXPAVoopDesc@@@Z 0800d070 f i arrayKlassKlass.obj
 0001:0000c0c0       ?oop_follow_contents@arrayKlassKlass@@UAEXPAVParCompactionManager@@PAVoopDesc@@@Z 0800d0c0 f   arrayKlassKlass.obj
 0001:0000c210       ?push@?$Stack@I@@QAEXI@Z   0800d210 f i taskqueue.obj
 0001:0000c210       ?push@?$Stack@PAVmarkOopDesc@@@@QAEXPAVmarkOopDesc@@@Z 0800d210 f i concurrentMarkSweepGeneration.obj
 0001:0000c210       ?push@?$Stack@PAVoopDesc@@@@QAEXPAVoopDesc@@@Z 0800d210 f i arrayKlassKlass.obj
 0001:0000c260       ?oop_follow_contents@arrayKlassKlass@@UAEXPAVoopDesc@@@Z 0800d260 f   arrayKlassKlass.obj
 0001:0000c390       ??0MemRegion@@QAE@PAVHeapWord@@0@Z 0800d390 f i asPSOldGen.obj
 0001:0000c3d0       ??0ASPSOldGen@@QAE@PAVPSVirtualSpace@@IIIPBDH@Z 0800d3d0 f   asPSOldGen.obj
 0001:0000c410       ?gen_size_limit@ASPSOldGen@@UAEIXZ 0800d410 f i asPSOldGen.obj
 0001:0000c420       ?short_name@ASPSOldGen@@UBEPBDXZ 0800d420 f i asPSOldGen.obj
 0001:0000c430       ?name@PSOldGen@@UBEPBDXZ   0800d430 f i asPSOldGen.obj
 0001:0000c440       ?max_gen_size@ASPSOldGen@@UAEIXZ 0800d440 f i asPSOldGen.obj
 0001:0000c450       ?reset_after_change@ASPSOldGen@@UAEXXZ 0800d450 f   asPSOldGen.obj
 0001:0000c490       ?available_for_expansion@ASPSOldGen@@UAEIXZ 0800d490 f   asPSOldGen.obj
 0001:0000c520       ?available_for_contraction@ASPSOldGen@@UAEIXZ 0800d520 f   asPSOldGen.obj
 0001:0000c720       ?short_name@ASPSYoungGen@@UBEPBDXZ 0800d720 f i asPSYoungGen.obj
 0001:0000c730       ?initialize_virtual_space@ASPSYoungGen@@UAEXVReservedSpace@@I@Z 0800d730 f   asPSYoungGen.obj
 0001:0000c7c0       ?initialize@ASPSYoungGen@@UAEXVReservedSpace@@I@Z 0800d7c0 f   asPSYoungGen.obj
 0001:0000c7c0       ?initialize@PSYoungGen@@UAEXVReservedSpace@@I@Z 0800d7c0 f   psYoungGen.obj
 0001:0000c800       ?name@PSYoungGen@@UBEPBDXZ 0800d800 f i asPSYoungGen.obj
 0001:0000c810       ??0ASPSYoungGen@@QAE@PAVPSVirtualSpace@@III@Z 0800d810 f   asPSYoungGen.obj
 0001:0000c870       ?available_for_expansion@ASPSYoungGen@@UAEIXZ 0800d870 f   asPSYoungGen.obj
 0001:0000c8b0       ?resize_generation@ASPSYoungGen@@UAE_NII@Z 0800d8b0 f   asPSYoungGen.obj
 0001:0000cae0       ?reset_after_change@ASPSYoungGen@@UAEXXZ 0800dae0 f   asPSYoungGen.obj
 0001:0000cc00       ?available_for_contraction@ASPSYoungGen@@UAEIXZ 0800dc00 f   asPSYoungGen.obj
 0001:0000cd90       ?available_to_live@ASPSYoungGen@@MAEIXZ 0800dd90 f   asPSYoungGen.obj
 0001:0000cdd0       ?resize_spaces@ASPSYoungGen@@UAEXII@Z 0800ddd0 f   asPSYoungGen.obj
 0001:0000d550       ?name@ASParNewGeneration@@UBEPBDXZ 0800e550 f   asParNewGeneration.obj
 0001:0000d560       ?adjust_desired_tenuring_threshold@ASParNewGeneration@@EAEXXZ 0800e560 f   asParNewGeneration.obj
 0001:0000d580       ?reset_survivors_after_shrink@ASParNewGeneration@@AAEXXZ 0800e580 f   asParNewGeneration.obj
 0001:0000d650       ?resize_spaces@ASParNewGeneration@@AAEXII@Z 0800e650 f   asParNewGeneration.obj
 0001:0000de60       ?space_invariants@ASParNewGeneration@@QAEXXZ 0800ee60 f   asParNewGeneration.obj
 0001:0000e170       ?limit_gen_shrink@ASParNewGeneration@@AAEII@Z 0800f170 f   asParNewGeneration.obj
 0001:0000e210       ?resize_generation@ASParNewGeneration@@AAE_NII@Z 0800f210 f   asParNewGeneration.obj
 0001:0000e460       ?free_segments@?$Stack@PAVoopDesc@@@@IAEXPAPAVoopDesc@@@Z 0800f460 f i asParNewGeneration.obj
 0001:0000e460       ?free_segments@?$Stack@PAVmarkOopDesc@@@@IAEXPAPAVmarkOopDesc@@@Z 0800f460 f i asParNewGeneration.obj
 0001:0000e460       ?free_segments@?$Stack@PAVKlass@@@@IAEXPAPAVKlass@@@Z 0800f460 f i genMarkSweep.obj
 0001:0000e460       ?free_segments@?$Stack@PAVDataLayout@@@@IAEXPAPAVDataLayout@@@Z 0800f460 f i genMarkSweep.obj
 0001:0000e4b0       ?resize@ASParNewGeneration@@QAEXII@Z 0800f4b0 f   asParNewGeneration.obj
 0001:0000e530       ?compute_new_size@ASParNewGeneration@@UAEXXZ 0800f530 f   asParNewGeneration.obj
 0001:0000e730       ?alloc@?$Stack@PAVoopDesc@@@@MAEPAPAVoopDesc@@I@Z 0800f730 f i asParNewGeneration.obj
 0001:0000e750       ?refs_discovery_is_mt@ParNewGeneration@@UBE_NXZ 0800f750 f i asParNewGeneration.obj
 0001:0000e790       ?used_region@Generation@@UBE?AVMemRegion@@XZ 0800f790 f i asParNewGeneration.obj
 0001:0000e7b0       ?save_used_region@Generation@@UAEXXZ 0800f7b0 f i asParNewGeneration.obj
 0001:0000e7e0       ?allocation_limit_reached@Generation@@UAEPAVHeapWord@@PAVSpace@@PAV2@I@Z 0800f7e0 f i asParNewGeneration.obj
 0001:0000e7f0       ?should_collect@ConcurrentMarkSweepGeneration@@UAE_N_NI0@Z 0800f7f0 f i concurrentMarkSweepGeneration.obj
 0001:0000e7f0       ?should_collect@Generation@@UAE_N_NI0@Z 0800f7f0 f i asParNewGeneration.obj
 0001:0000e820       ?time_of_last_gc@Generation@@UAE_J_J@Z 0800f820 f i asParNewGeneration.obj
 0001:0000e870       ?update_time_of_last_gc@Generation@@UAEX_J@Z 0800f870 f i asParNewGeneration.obj
 0001:0000e890       ?pre_adjust_pointers@Generation@@UAEXXZ 0800f890 f i asParNewGeneration.obj
 0001:0000e8b0       ?post_compact@Generation@@UAEXXZ 0800f8b0 f i asParNewGeneration.obj
 0001:0000e8d0       ?compute_modifier_flags@Klass@@UBEHPAVThread@@@Z 0800f8d0 f i klass.obj
 0001:0000e8d0       ?get_data_recorder@Generation@@UAEPAXH@Z 0800f8d0 f i asParNewGeneration.obj
 0001:0000e8e0       ?counters@Generation@@UAEPAVCollectorCounters@@XZ 0800f8e0 f i asParNewGeneration.obj
 0001:0000e8f0       ?should_allocate@DefNewGeneration@@UAE_NI_N@Z 0800f8f0 f i asParNewGeneration.obj
 0001:0000e970       ??0ASParNewGeneration@@QAE@VReservedSpace@@IIH@Z 0800f970 f   asParNewGeneration.obj
 0001:0000e9c0       ?short_name@ASParNewGeneration@@UBEPBDXZ 0800f9c0 f i asParNewGeneration.obj
 0001:0000e9d0       ?generate_stack_overflow_check@AbstractAssembler@@QAEXH@Z 0800f9d0 f   assembler.obj
 0001:0000ea20       ?update_all@DelayedConstant@@SAXXZ 0800fa20 f   assembler.obj
 0001:0000ea50       ?update_delayed_values@AbstractAssembler@@SAXXZ 0800fa50 f   assembler.obj
 0001:0000ea60       ?needs_explicit_null_check@MacroAssembler@@SA_NH@Z 0800fa60 f   assembler.obj
 0001:0000ea90       ?sync@AbstractAssembler@@QAEXXZ 0800fa90 f i assembler.obj
 0001:0000eae0       ?emit_byte@AbstractAssembler@@IAEXH@Z 0800fae0 f i assembler.obj
 0001:0000eae0       ?a_byte@AbstractAssembler@@QAEXH@Z 0800fae0 f i assembler.obj
 0001:0000eb30       ?pd_patch_instruction@MacroAssembler@@QAEXPAE0@Z 0800fb30 f i assembler.obj
 0001:0000ebe0       ??0AbstractAssembler@@QAE@PAVCodeBuffer@@@Z 0800fbe0 f   assembler.obj
 0001:0000ec50       ?set_code_section@AbstractAssembler@@QAEXPAVCodeSection@@@Z 0800fc50 f   assembler.obj
 0001:0000ecc0       ?start_a_stub@AbstractAssembler@@QAEPAEH@Z 0800fcc0 f   assembler.obj
 0001:0000ed40       ?end_a_stub@AbstractAssembler@@QAEXXZ 0800fd40 f   assembler.obj
 0001:0000ed80       ?start_a_const@AbstractAssembler@@QAEPAEHH@Z 0800fd80 f   assembler.obj
 0001:0000ee60       ?end_a_const@AbstractAssembler@@QAEXXZ 0800fe60 f   assembler.obj
 0001:0000eea0       ?flush@AbstractAssembler@@QAEXXZ 0800fea0 f   assembler.obj
 0001:0000eec0       ?a_long@AbstractAssembler@@QAEXH@Z 0800fec0 f   assembler.obj
 0001:0000eee0       ?patch_instructions@Label@@QAEXPAVMacroAssembler@@@Z 0800fee0 f   assembler.obj
 0001:0000f070       ?add@DelayedConstant@@SAPAU1@W4BasicType@@P6AXXZ@Z 08010070 f   assembler.obj
 0001:0000f120       ?delayed_value_addr@AbstractAssembler@@SAPAHP6AHXZ@Z 08010120 f   assembler.obj
 0001:0000f140       ?block_comment@AbstractAssembler@@QAEXPBD@Z 08010140 f   assembler.obj
 0001:0000f170       ?bind@AbstractAssembler@@QAEXAAVLabel@@@Z 08010170 f   assembler.obj
 0001:0000f210       ?add_patch_at@Label@@QAEXPAVCodeBuffer@@H@Z 08010210 f   assembler.obj
 0001:0000f2a0       ??0RelocationHolder@@QAE@XZ 080102a0 f i assembler_windows_x86.obj
 0001:0000f2c0       ??0Address@@QAE@PAVRegisterImpl@@VByteSize@@@Z 080102c0 f i assembler_x86.obj
 0001:0000f2c0       ??0Address@@QAE@PAVRegisterImpl@@H@Z 080102c0 f i assembler_windows_x86.obj
 0001:0000f300       ?int3@MacroAssembler@@QAEXXZ 08010300 f   assembler_windows_x86.obj
 0001:0000f310       ?get_thread@MacroAssembler@@QAEXPAVRegisterImpl@@@Z 08010310 f   assembler_windows_x86.obj
 0001:0000f3c0       ?unpack_data@Relocation@@UAEXXZ 080103c0 f i assembler_windows_x86.obj
 0001:0000f420       ?log2_intptr@@YAHH@Z       08010420 f i assembler_x86.obj
 0001:0000f440       ?code_fill_byte@AbstractAssembler@@SAHXZ 08010440 f   assembler_x86.obj
 0001:0000f450       ?prefix@Assembler@@IAEXW4Prefix@1@@Z 08010450 f   assembler_x86.obj
 0001:0000f460       ?call_VM_leaf@MacroAssembler@@QAEXPAEH@Z 08010460 f   assembler_x86.obj
 0001:0000f470       ?print@ControlWord@@QBEXXZ 08010470 f i assembler_x86.obj
 0001:0000f5a0       ?print@StatusWord@@QBEXXZ  080105a0 f i assembler_x86.obj
 0001:0000f6e0       ?print@FPU_State@@QBEXXZ   080106e0 f i assembler_x86.obj
 0001:0000f860       ?print@Flag_Register@@QBEXXZ 08010860 f i assembler_x86.obj
 0001:0000f920       ?print@IU_State@@QBEXXZ    08010920 f i assembler_x86.obj
 0001:0000fa30       ?print@CPU_State@@QBEXXZ   08010a30 f i assembler_x86.obj
 0001:0000fbe0       ?negate_condition@MacroAssembler@@QAE?AW4Condition@Assembler@@W423@@Z 08010be0 f   assembler_x86.obj
 0001:0000fce0       ??1SkipIfEqual@@QAE@XZ     08010ce0 f   assembler_x86.obj
 0001:0000fcf0       ?assert_different_registers@@YAXPAVAbstractRegisterImpl@@000@Z 08010cf0 f i assembler_x86.obj
 0001:0000fd40       ?assert_different_registers@@YAXPAVAbstractRegisterImpl@@00000@Z 08010d40 f i assembler_x86.obj
 0001:0000fdc0       ?has_byte_register@RegisterImpl@@QBE_NXZ 08010dc0 f i assembler_x86.obj
 0001:0000fde0       ?value@CallRelocation@@UAEPAEXZ 08010de0 f i assembler_x86.obj
 0001:0000fdf0       ?set_value@CallRelocation@@UAEXPAE@Z 08010df0 f i assembler_x86.obj
 0001:0000fe00       ?value@external_word_Relocation@@UAEPAEXZ 08010e00 f i assembler_x86.obj
 0001:0000fe00       ?value@internal_word_Relocation@@UAEPAEXZ 08010e00 f i assembler_x86.obj
 0001:0000fe10       ?times@Address@@SA?AW4ScaleFactor@1@H@Z 08010e10 f i assembler_x86.obj
 0001:0000fe70       ??0Address@@QAE@PAVRegisterImpl@@0W4ScaleFactor@0@H@Z 08010e70 f i assembler_x86.obj
 0001:0000fef0       ??0Address@@QAE@PAVRegisterImpl@@VRegisterOrConstant@@W4ScaleFactor@0@H@Z 08010ef0 f i assembler_x86.obj
 0001:0000ffb0       ?uses@Address@@QBE_NPAVRegisterImpl@@@Z 08010fb0 f i assembler_x86.obj
 0001:0000ffd0       ??0ArrayAddress@@QAE@VAddressLiteral@@VAddress@@@Z 08010fd0 f i assembler_x86.obj
 0001:00010000       ?type_offset_in_bytes@java_dyn_MethodHandle@@SAHXZ 08011000 f i assembler_x86.obj
 0001:00010010       ?vmentry_offset_in_bytes@java_dyn_MethodHandle@@SAHXZ 08011010 f i assembler_x86.obj
 0001:00010020       ?vmslots_offset_in_bytes@java_dyn_MethodHandle@@SAHXZ 08011020 f i assembler_x86.obj
 0001:00010030       ?form_offset_in_bytes@java_dyn_MethodType@@SAHXZ 08011030 f i assembler_x86.obj
 0001:00010040       ?vmslots_offset_in_bytes@java_dyn_MethodTypeForm@@SAHXZ 08011040 f i assembler_x86.obj
 0001:00010050       ?transition@ThreadStateTransition@@SAXPAVJavaThread@@W4JavaThreadState@@1@Z 08011050 f i assembler_x86.obj
 0001:00010180       ?make_array@Address@@SA?AV1@VArrayAddress@@@Z 08011180 f   assembler_x86.obj
 0001:00010210       ??0Address@@AAE@PAEVRelocationHolder@@@Z 08011210 f   assembler_x86.obj
 0001:00010270       ??0ttyLocker@@QAE@XZ       08011270 f i assembler_x86.obj
 0001:00010290       ?locate_operand@Assembler@@SAPAEPAEW4WhichOperand@1@@Z 08011290 f   assembler_x86.obj
 0001:00010970       ?locate_next_instruction@Assembler@@SAPAEPAE@Z 08011970 f   assembler_x86.obj
 0001:00010990       ?check_relocation@Assembler@@IAEXABVRelocationHolder@@H@Z 08011990 f   assembler_x86.obj
 0001:00010a80       ?cdql@Assembler@@QAEXXZ    08011a80 f   assembler_x86.obj
 0001:00010a90       ?emms@Assembler@@QAEXXZ    08011a90 f   assembler_x86.obj
 0001:00010ae0       ?hlt@Assembler@@QAEXXZ     08011ae0 f   assembler_x86.obj
 0001:00010af0       ?lock@Assembler@@QAEXXZ    08011af0 f   assembler_x86.obj
 0001:00010b20       ?nop@Assembler@@QAEXH@Z    08011b20 f   assembler_x86.obj
 0001:00010bc0       ?popf@Assembler@@QAEXXZ    08011bc0 f   assembler_x86.obj
 0001:00010bd0       ?push@Assembler@@QAEXH@Z   08011bd0 f   assembler_x86.obj
 0001:00010c10       ?pushf@Assembler@@QAEXXZ   08011c10 f   assembler_x86.obj
 0001:00010c20       ?rep_mov@Assembler@@QAEXXZ 08011c20 f   assembler_x86.obj
 0001:00010c50       ?ret@Assembler@@QAEXH@Z    08011c50 f   assembler_x86.obj
 0001:00010ca0       ?sahf@Assembler@@QAEXXZ    08011ca0 f   assembler_x86.obj
 0001:00010cb0       ?fabs@Assembler@@QAEXXZ    08011cb0 f   assembler_x86.obj
 0001:00010ce0       ?fadd@Assembler@@QAEXH@Z   08011ce0 f   assembler_x86.obj
 0001:00010d60       ?fadda@Assembler@@QAEXH@Z  08011d60 f   assembler_x86.obj
 0001:00010de0       ?faddp@Assembler@@QAEXH@Z  08011de0 f   assembler_x86.obj
 0001:00010e60       ?fchs@Assembler@@QAEXXZ    08011e60 f   assembler_x86.obj
 0001:00010e90       ?fcom@Assembler@@QAEXH@Z   08011e90 f   assembler_x86.obj
 0001:00010f10       ?fcomp@Assembler@@QAEXH@Z  08011f10 f   assembler_x86.obj
 0001:00010f90       ?fdiv@Assembler@@QAEXH@Z   08011f90 f   assembler_x86.obj
 0001:00011010       ?fdiva@Assembler@@QAEXH@Z  08012010 f   assembler_x86.obj
 0001:00011090       ?fdivp@Assembler@@QAEXH@Z  08012090 f   assembler_x86.obj
 0001:00011110       ?fdivr@Assembler@@QAEXH@Z  08012110 f   assembler_x86.obj
 0001:00011190       ?fdivra@Assembler@@QAEXH@Z 08012190 f   assembler_x86.obj
 0001:00011210       ?fdivrp@Assembler@@QAEXH@Z 08012210 f   assembler_x86.obj
 0001:00011290       ?ffree@Assembler@@QAEXH@Z  08012290 f   assembler_x86.obj
 0001:00011310       ?fld1@Assembler@@QAEXXZ    08012310 f   assembler_x86.obj
 0001:00011340       ?fld_s@Assembler@@QAEXH@Z  08012340 f   assembler_x86.obj
 0001:000113c0       ?fldz@Assembler@@QAEXXZ    080123c0 f   assembler_x86.obj
 0001:000113f0       ?fmul@Assembler@@QAEXH@Z   080123f0 f   assembler_x86.obj
 0001:00011470       ?fmula@Assembler@@QAEXH@Z  08012470 f   assembler_x86.obj
 0001:000114f0       ?fmulp@Assembler@@QAEXH@Z  080124f0 f   assembler_x86.obj
 0001:00011570       ?fnstsw_ax@Assembler@@QAEXXZ 08012570 f   assembler_x86.obj
 0001:000115a0       ?fsqrt@Assembler@@QAEXXZ   080125a0 f   assembler_x86.obj
 0001:000115d0       ?fstp_d@Assembler@@QAEXH@Z 080125d0 f   assembler_x86.obj
 0001:00011650       ?fsub@Assembler@@QAEXH@Z   08012650 f   assembler_x86.obj
 0001:000116d0       ?fsuba@Assembler@@QAEXH@Z  080126d0 f   assembler_x86.obj
 0001:00011750       ?fsubp@Assembler@@QAEXH@Z  08012750 f   assembler_x86.obj
 0001:000117d0       ?fsubr@Assembler@@QAEXH@Z  080127d0 f   assembler_x86.obj
 0001:00011850       ?fsubra@Assembler@@QAEXH@Z 08012850 f   assembler_x86.obj
 0001:000118d0       ?fsubrp@Assembler@@QAEXH@Z 080128d0 f   assembler_x86.obj
 0001:00011950       ?ftan@Assembler@@QAEXXZ    08012950 f   assembler_x86.obj
 0001:000119a0       ?ftst@Assembler@@QAEXXZ    080129a0 f   assembler_x86.obj
 0001:000119d0       ?fucomi@Assembler@@QAEXH@Z 080129d0 f   assembler_x86.obj
 0001:00011a70       ?fucomip@Assembler@@QAEXH@Z 08012a70 f   assembler_x86.obj
 0001:00011b10       ?fwait@Assembler@@QAEXXZ   08012b10 f   assembler_x86.obj
 0001:00011b20       ?fxch@Assembler@@QAEXH@Z   08012b20 f   assembler_x86.obj
 0001:00011ba0       ?popa@Assembler@@QAEXXZ    08012ba0 f   assembler_x86.obj
 0001:00011bb0       ?pusha@Assembler@@QAEXXZ   08012bb0 f   assembler_x86.obj
 0001:00011bc0       ?as_Address@MacroAssembler@@IAE?AVAddress@@VAddressLiteral@@@Z 08012bc0 f   assembler_x86.obj
 0001:00011c00       ?as_Address@MacroAssembler@@IAE?AVAddress@@VArrayAddress@@@Z 08012c00 f   assembler_x86.obj
 0001:00011c30       ?fat_nop@MacroAssembler@@QAEXXZ 08012c30 f   assembler_x86.obj
 0001:00011c90       ?align@MacroAssembler@@QAEXH@Z 08012c90 f   assembler_x86.obj
 0001:00011cc0       ?empty_FPU_stack@MacroAssembler@@QAEXXZ 08012cc0 f   assembler_x86.obj
 0001:00011cf0       ?fpop@MacroAssembler@@QAEXXZ 08012cf0 f   assembler_x86.obj
 0001:00011d40       ?encoding@XMMRegisterImpl@@QBEHXZ 08012d40 f i assembler_x86.obj
 0001:00011d70       ?name@ClassPathZipEntry@@UAEPBDXZ 08012d70 f i classLoader.obj
 0001:00011d70       ?offset@oop_Relocation@@UAEHXZ 08012d70 f i assembler_x86.obj
 0001:00011d70       ?constant_value@ArrayConstant@@UBEPAVciObject@@XZ 08012d70 f i c1_ValueType.obj
 0001:00011d70       ?constant_value@ClassConstant@@UBEPAVciObject@@XZ 08012d70 f i c1_ValueType.obj
 0001:00011d70       ?saved_mark_word@Space@@UBEPAVHeapWord@@XZ 08012d70 f i compactibleFreeListSpace.obj
 0001:00011d70       ?constant_value@InstanceConstant@@UBEPAVciObject@@XZ 08012d70 f i c1_ValueType.obj
 0001:00011d70       ?constant_value@ObjectConstant@@UBEPAVciObject@@XZ 08012d70 f i c1_ValueType.obj
 0001:00011d70       ?length@HeapRegionSeq@@QAEIXZ 08012d70 f i heapRegionSeq.obj
 0001:00011d80       ?value@oop_Relocation@@UAEPAEXZ 08012d80 f i assembler_x86.obj
 0001:00011d90       ?spec@opt_virtual_call_Relocation@@SA?AVRelocationHolder@@XZ 08012d90 f i assembler_x86.obj
 0001:00011dc0       ?spec@static_call_Relocation@@SA?AVRelocationHolder@@XZ 08012dc0 f i assembler_x86.obj
 0001:00011df0       ?spec@runtime_call_Relocation@@SA?AVRelocationHolder@@XZ 08012df0 f i assembler_x86.obj
 0001:00011e20       ?spec@external_word_Relocation@@SA?AVRelocationHolder@@PAE@Z 08012e20 f i assembler_x86.obj
 0001:00011e70       ?spec@internal_word_Relocation@@SA?AVRelocationHolder@@PAE@Z 08012e70 f i assembler_x86.obj
 0001:00011ec0       ?relocate@AbstractAssembler@@QAEXW4relocType@relocInfo@@H@Z 08012ec0 f i assembler_x86.obj
 0001:00011f20       ??0AddressLiteral@@QAE@PAEW4relocType@relocInfo@@@Z 08012f20 f   assembler_x86.obj
 0001:00012040       ?emit_data@Assembler@@IAEXHABVRelocationHolder@@H@Z 08013040 f   assembler_x86.obj
 0001:000120c0       ?emit_arith_b@Assembler@@AAEXHHPAVRegisterImpl@@H@Z 080130c0 f   assembler_x86.obj
 0001:00012230       ?emit_arith@Assembler@@AAEXHHPAVRegisterImpl@@H@Z 08013230 f   assembler_x86.obj
 0001:00012440       ?emit_operand@Assembler@@AAEXPAVRegisterImpl@@00W4ScaleFactor@Address@@HABVRelocationHolder@@H@Z 08013440 f   assembler_x86.obj
 0001:00012890       ?emit_operand32@Assembler@@AAEXPAVRegisterImpl@@VAddress@@@Z 08013890 f   assembler_x86.obj
 0001:00012980       ?emit_operand@Assembler@@AAEXPAVMMXRegisterImpl@@VAddress@@@Z 08013980 f   assembler_x86.obj
 0001:00012a30       ?emit_operand@Assembler@@AAEXVAddress@@PAVMMXRegisterImpl@@@Z 08013a30 f   assembler_x86.obj
 0001:00012ae0       ?adcl@Assembler@@QAEXPAVRegisterImpl@@H@Z 08013ae0 f   assembler_x86.obj
 0001:00012b00       ?adcl@Assembler@@QAEXPAVRegisterImpl@@0@Z 08013b00 f   assembler_x86.obj
 0001:00012bf0       ?addl@Assembler@@QAEXVAddress@@PAVRegisterImpl@@@Z 08013bf0 f   assembler_x86.obj
 0001:00012c80       ?addl@Assembler@@QAEXPAVRegisterImpl@@VAddress@@@Z 08013c80 f   assembler_x86.obj
 0001:00012d10       ?addl@Assembler@@QAEXPAVRegisterImpl@@0@Z 08013d10 f   assembler_x86.obj
 0001:00012e00       ?addsd@Assembler@@QAEXPAVXMMRegisterImpl@@0@Z 08013e00 f   assembler_x86.obj
 0001:00012ef0       ?addsd@Assembler@@QAEXPAVXMMRegisterImpl@@VAddress@@@Z 08013ef0 f   assembler_x86.obj
 0001:00012fd0       ?addss@Assembler@@QAEXPAVXMMRegisterImpl@@0@Z 08013fd0 f   assembler_x86.obj
 0001:000130c0       ?addss@Assembler@@QAEXPAVXMMRegisterImpl@@VAddress@@@Z 080140c0 f   assembler_x86.obj
 0001:000131a0       ?andl@Assembler@@QAEXPAVRegisterImpl@@VAddress@@@Z 080141a0 f   assembler_x86.obj
 0001:00013230       ?andl@Assembler@@QAEXPAVRegisterImpl@@0@Z 08014230 f   assembler_x86.obj
 0001:00013320       ?andpd@Assembler@@QAEXPAVXMMRegisterImpl@@VAddress@@@Z 08014320 f   assembler_x86.obj
 0001:00013400       ?bswapl@Assembler@@QAEXPAVRegisterImpl@@@Z 08014400 f   assembler_x86.obj
 0001:00013480       ?call@Assembler@@QAEXPAVRegisterImpl@@@Z 08014480 f   assembler_x86.obj
 0001:00013500       ?call_literal@Assembler@@IAEXPAEABVRelocationHolder@@@Z 08014500 f   assembler_x86.obj
 0001:00013590       ?cmovl@Assembler@@QAEXW4Condition@1@PAVRegisterImpl@@1@Z 08014590 f   assembler_x86.obj
 0001:00013690       ?cmovl@Assembler@@QAEXW4Condition@1@PAVRegisterImpl@@VAddress@@@Z 08014690 f   assembler_x86.obj
 0001:00013750       ?cmpb@Assembler@@QAEXVAddress@@H@Z 08014750 f   assembler_x86.obj
 0001:00013820       ?cmpl@Assembler@@QAEXVAddress@@H@Z 08014820 f   assembler_x86.obj
 0001:000138d0       ?cmpl@Assembler@@QAEXPAVRegisterImpl@@H@Z 080148d0 f   assembler_x86.obj
 0001:000138f0       ?cmpl@Assembler@@QAEXPAVRegisterImpl@@0@Z 080148f0 f   assembler_x86.obj
 0001:000139e0       ?cmpl@Assembler@@QAEXPAVRegisterImpl@@VAddress@@@Z 080149e0 f   assembler_x86.obj
 0001:00013a70       ?cmpw@Assembler@@QAEXVAddress@@H@Z 08014a70 f   assembler_x86.obj
 0001:00013ba0       ?comiss@Assembler@@QAEXPAVXMMRegisterImpl@@VAddress@@@Z 08014ba0 f   assembler_x86.obj
 0001:00013c60       ?cvtsd2ss@Assembler@@QAEXPAVXMMRegisterImpl@@0@Z 08014c60 f   assembler_x86.obj
 0001:00013d50       ?cvtsi2sdl@Assembler@@QAEXPAVXMMRegisterImpl@@PAVRegisterImpl@@@Z 08014d50 f   assembler_x86.obj
 0001:00013e40       ?cvtsi2ssl@Assembler@@QAEXPAVXMMRegisterImpl@@PAVRegisterImpl@@@Z 08014e40 f   assembler_x86.obj
 0001:00013f30       ?cvtss2sd@Assembler@@QAEXPAVXMMRegisterImpl@@0@Z 08014f30 f   assembler_x86.obj
 0001:00014020       ?cvttsd2sil@Assembler@@QAEXPAVRegisterImpl@@PAVXMMRegisterImpl@@@Z 08015020 f   assembler_x86.obj
 0001:00014110       ?cvttss2sil@Assembler@@QAEXPAVRegisterImpl@@PAVXMMRegisterImpl@@@Z 08015110 f   assembler_x86.obj
 0001:00014200       ?decl@Assembler@@IAEXVAddress@@@Z 08015200 f   assembler_x86.obj
 0001:00014290       ?divsd@Assembler@@QAEXPAVXMMRegisterImpl@@VAddress@@@Z 08015290 f   assembler_x86.obj
 0001:00014370       ?divsd@Assembler@@QAEXPAVXMMRegisterImpl@@0@Z 08015370 f   assembler_x86.obj
 0001:00014460       ?divss@Assembler@@QAEXPAVXMMRegisterImpl@@VAddress@@@Z 08015460 f   assembler_x86.obj
 0001:00014540       ?divss@Assembler@@QAEXPAVXMMRegisterImpl@@0@Z 08015540 f   assembler_x86.obj
 0001:00014630       ?idivl@Assembler@@QAEXPAVRegisterImpl@@@Z 08015630 f   assembler_x86.obj
 0001:000146b0       ?imull@Assembler@@QAEXPAVRegisterImpl@@0@Z 080156b0 f   assembler_x86.obj
 0001:00014770       ?incl@Assembler@@IAEXVAddress@@@Z 08015770 f   assembler_x86.obj
 0001:00014800       ?jcc@Assembler@@QAEXW4Condition@1@AAVLabel@@W4relocType@relocInfo@@@Z 08015800 f   assembler_x86.obj
 0001:000149c0       ?jccb@Assembler@@QAEXW4Condition@1@AAVLabel@@@Z 080159c0 f   assembler_x86.obj
 0001:00014b30       ?jmp@Assembler@@QAEXVAddress@@@Z 08015b30 f   assembler_x86.obj
 0001:00014bc0       ?jmp@Assembler@@QAEXAAVLabel@@W4relocType@relocInfo@@@Z 08015bc0 f   assembler_x86.obj
 0001:00014d20       ?jmp@Assembler@@QAEXPAVRegisterImpl@@@Z 08015d20 f   assembler_x86.obj
 0001:00014da0       ?jmp_literal@Assembler@@IAEXPAEABVRelocationHolder@@@Z 08015da0 f   assembler_x86.obj
 0001:00014eb0       ?jmpb@Assembler@@QAEXAAVLabel@@@Z 08015eb0 f   assembler_x86.obj
 0001:00014ff0       ?ldmxcsr@Assembler@@QAEXVAddress@@@Z 08015ff0 f   assembler_x86.obj
 0001:000150b0       ?leal@Assembler@@QAEXPAVRegisterImpl@@VAddress@@@Z 080160b0 f   assembler_x86.obj
 0001:00015140       ?movapd@Assembler@@IAEXPAVXMMRegisterImpl@@0@Z 08016140 f   assembler_x86.obj
 0001:00015280       ?movaps@Assembler@@IAEXPAVXMMRegisterImpl@@0@Z 08016280 f   assembler_x86.obj
 0001:000153a0       ?movb@Assembler@@QAEXPAVRegisterImpl@@VAddress@@@Z 080163a0 f   assembler_x86.obj
 0001:00015450       ?movb@Assembler@@QAEXVAddress@@H@Z 08016450 f   assembler_x86.obj
 0001:00015520       ?movb@Assembler@@QAEXVAddress@@PAVRegisterImpl@@@Z 08016520 f   assembler_x86.obj
 0001:000155d0       ?movdl@Assembler@@QAEXPAVRegisterImpl@@PAVXMMRegisterImpl@@@Z 080165d0 f   assembler_x86.obj
 0001:000156c0       ?movdqu@Assembler@@QAEXPAVXMMRegisterImpl@@VAddress@@@Z 080166c0 f   assembler_x86.obj
 0001:000157a0       ?movdqu@Assembler@@QAEXVAddress@@PAVXMMRegisterImpl@@@Z 080167a0 f   assembler_x86.obj
 0001:00015880       ?movl@Assembler@@QAEXPAVRegisterImpl@@H@Z 08016880 f   assembler_x86.obj
 0001:00015900       ?movl@Assembler@@QAEXPAVRegisterImpl@@0@Z 08016900 f   assembler_x86.obj
 0001:000159b0       ?movl@Assembler@@QAEXPAVRegisterImpl@@VAddress@@@Z 080169b0 f   assembler_x86.obj
 0001:00015a40       ?movl@Assembler@@QAEXVAddress@@H@Z 08016a40 f   assembler_x86.obj
 0001:00015af0       ?movl@Assembler@@QAEXVAddress@@PAVRegisterImpl@@@Z 08016af0 f   assembler_x86.obj
 0001:00015b80       ?movlpd@Assembler@@IAEXPAVXMMRegisterImpl@@VAddress@@@Z 08016b80 f   assembler_x86.obj
 0001:00015c60       ?movq@Assembler@@QAEXPAVMMXRegisterImpl@@VAddress@@@Z 08016c60 f   assembler_x86.obj
 0001:00015ce0       ?movq@Assembler@@QAEXVAddress@@PAVMMXRegisterImpl@@@Z 08016ce0 f   assembler_x86.obj
 0001:00015d60       ?movq@Assembler@@QAEXPAVXMMRegisterImpl@@VAddress@@@Z 08016d60 f   assembler_x86.obj
 0001:00015e40       ?movq@Assembler@@QAEXVAddress@@PAVXMMRegisterImpl@@@Z 08016e40 f   assembler_x86.obj
 0001:00015f20       ?movsbl@Assembler@@QAEXPAVRegisterImpl@@VAddress@@@Z 08016f20 f   assembler_x86.obj
 0001:00015fc0       ?movsbl@Assembler@@QAEXPAVRegisterImpl@@0@Z 08016fc0 f   assembler_x86.obj
 0001:000160a0       ?movsd@Assembler@@IAEXPAVXMMRegisterImpl@@0@Z 080170a0 f   assembler_x86.obj
 0001:00016190       ?movsd@Assembler@@IAEXPAVXMMRegisterImpl@@VAddress@@@Z 08017190 f   assembler_x86.obj
 0001:00016270       ?movsd@Assembler@@IAEXVAddress@@PAVXMMRegisterImpl@@@Z 08017270 f   assembler_x86.obj
 0001:00016350       ?movss@Assembler@@IAEXPAVXMMRegisterImpl@@0@Z 08017350 f   assembler_x86.obj
 0001:00016440       ?movss@Assembler@@IAEXPAVXMMRegisterImpl@@VAddress@@@Z 08017440 f   assembler_x86.obj
 0001:00016520       ?movss@Assembler@@IAEXVAddress@@PAVXMMRegisterImpl@@@Z 08017520 f   assembler_x86.obj
 0001:00016600       ?movswl@Assembler@@QAEXPAVRegisterImpl@@VAddress@@@Z 08017600 f   assembler_x86.obj
 0001:000166a0       ?movswl@Assembler@@QAEXPAVRegisterImpl@@0@Z 080176a0 f   assembler_x86.obj
 0001:00016760       ?movw@Assembler@@QAEXVAddress@@H@Z 08017760 f   assembler_x86.obj
 0001:00016820       ?movw@Assembler@@QAEXPAVRegisterImpl@@VAddress@@@Z 08017820 f   assembler_x86.obj
 0001:000168c0       ?movw@Assembler@@QAEXVAddress@@PAVRegisterImpl@@@Z 080178c0 f   assembler_x86.obj
 0001:00016960       ?movzbl@Assembler@@QAEXPAVRegisterImpl@@VAddress@@@Z 08017960 f   assembler_x86.obj
 0001:00016a00       ?movzwl@Assembler@@QAEXPAVRegisterImpl@@VAddress@@@Z 08017a00 f   assembler_x86.obj
 0001:00016aa0       ?mull@Assembler@@QAEXVAddress@@@Z 08017aa0 f   assembler_x86.obj
 0001:00016b30       ?mull@Assembler@@QAEXPAVRegisterImpl@@@Z 08017b30 f   assembler_x86.obj
 0001:00016bb0       ?mulsd@Assembler@@QAEXPAVXMMRegisterImpl@@VAddress@@@Z 08017bb0 f   assembler_x86.obj
 0001:00016c90       ?mulsd@Assembler@@QAEXPAVXMMRegisterImpl@@0@Z 08017c90 f   assembler_x86.obj
 0001:00016d80       ?mulss@Assembler@@QAEXPAVXMMRegisterImpl@@VAddress@@@Z 08017d80 f   assembler_x86.obj
 0001:00016e60       ?mulss@Assembler@@QAEXPAVXMMRegisterImpl@@0@Z 08017e60 f   assembler_x86.obj
 0001:00016f50       ?negl@Assembler@@QAEXPAVRegisterImpl@@@Z 08017f50 f   assembler_x86.obj
 0001:00016fd0       ?notl@Assembler@@QAEXPAVRegisterImpl@@@Z 08017fd0 f   assembler_x86.obj
 0001:00017050       ?orl@Assembler@@QAEXVAddress@@H@Z 08018050 f   assembler_x86.obj
 0001:00017100       ?orl@Assembler@@QAEXPAVRegisterImpl@@H@Z 08018100 f   assembler_x86.obj
 0001:00017120       ?orl@Assembler@@QAEXPAVRegisterImpl@@VAddress@@@Z 08018120 f   assembler_x86.obj
 0001:000171b0       ?orl@Assembler@@QAEXPAVRegisterImpl@@0@Z 080181b0 f   assembler_x86.obj
 0001:000172a0       ?pop@Assembler@@QAEXPAVRegisterImpl@@@Z 080182a0 f   assembler_x86.obj
 0001:00017310       ?popl@Assembler@@QAEXVAddress@@@Z 08018310 f   assembler_x86.obj
 0001:000173a0       ?prefetchnta@Assembler@@QAEXVAddress@@@Z 080183a0 f   assembler_x86.obj
 0001:00017470       ?prefetchr@Assembler@@QAEXVAddress@@@Z 08018470 f   assembler_x86.obj
 0001:00017540       ?prefetcht0@Assembler@@QAEXVAddress@@@Z 08018540 f   assembler_x86.obj
 0001:00017610       ?prefetcht2@Assembler@@QAEXVAddress@@@Z 08018610 f   assembler_x86.obj
 0001:000176e0       ?prefetchw@Assembler@@QAEXVAddress@@@Z 080186e0 f   assembler_x86.obj
 0001:000177b0       ?psrlq@Assembler@@QAEXPAVXMMRegisterImpl@@H@Z 080187b0 f   assembler_x86.obj
 0001:000178e0       ?push@Assembler@@QAEXPAVRegisterImpl@@@Z 080188e0 f   assembler_x86.obj
 0001:00017950       ?pushl@Assembler@@QAEXVAddress@@@Z 08018950 f   assembler_x86.obj
 0001:000179e0       ?sarl@Assembler@@QAEXPAVRegisterImpl@@H@Z 080189e0 f   assembler_x86.obj
 0001:00017b00       ?sarl@Assembler@@QAEXPAVRegisterImpl@@@Z 08018b00 f   assembler_x86.obj
 0001:00017b80       ?sbbl@Assembler@@QAEXPAVRegisterImpl@@H@Z 08018b80 f   assembler_x86.obj
 0001:00017ba0       ?sbbl@Assembler@@QAEXPAVRegisterImpl@@0@Z 08018ba0 f   assembler_x86.obj
 0001:00017c90       ?setb@Assembler@@QAEXW4Condition@1@PAVRegisterImpl@@@Z 08018c90 f   assembler_x86.obj
 0001:00017d70       ?shll@Assembler@@QAEXPAVRegisterImpl@@H@Z 08018d70 f   assembler_x86.obj
 0001:00017e90       ?shll@Assembler@@QAEXPAVRegisterImpl@@@Z 08018e90 f   assembler_x86.obj
 0001:00017f10       ?shrl@Assembler@@QAEXPAVRegisterImpl@@H@Z 08018f10 f   assembler_x86.obj
 0001:00017ff0       ?shrl@Assembler@@QAEXPAVRegisterImpl@@@Z 08018ff0 f   assembler_x86.obj
 0001:00018070       ?sqrtsd@Assembler@@QAEXPAVXMMRegisterImpl@@0@Z 08019070 f   assembler_x86.obj
 0001:00018160       ?stmxcsr@Assembler@@QAEXVAddress@@@Z 08019160 f   assembler_x86.obj
 0001:00018220       ?subl@Assembler@@QAEXVAddress@@H@Z 08019220 f   assembler_x86.obj
 0001:00018370       ?subptr@MacroAssembler@@QAEXPAVRegisterImpl@@H@Z 08019370 f   assembler_x86.obj
 0001:00018370       ?subl@Assembler@@QAEXPAVRegisterImpl@@H@Z 08019370 f   assembler_x86.obj
 0001:00018390       ?subl@Assembler@@QAEXVAddress@@PAVRegisterImpl@@@Z 08019390 f   assembler_x86.obj
 0001:00018420       ?subl@Assembler@@QAEXPAVRegisterImpl@@VAddress@@@Z 08019420 f   assembler_x86.obj
 0001:000184b0       ?subl@Assembler@@QAEXPAVRegisterImpl@@0@Z 080194b0 f   assembler_x86.obj
 0001:000185a0       ?subsd@Assembler@@QAEXPAVXMMRegisterImpl@@0@Z 080195a0 f   assembler_x86.obj
 0001:00018690       ?subsd@Assembler@@QAEXPAVXMMRegisterImpl@@VAddress@@@Z 08019690 f   assembler_x86.obj
 0001:00018770       ?subss@Assembler@@QAEXPAVXMMRegisterImpl@@0@Z 08019770 f   assembler_x86.obj
 0001:00018860       ?subss@Assembler@@QAEXPAVXMMRegisterImpl@@VAddress@@@Z 08019860 f   assembler_x86.obj
 0001:00018940       ?testb@Assembler@@QAEXPAVRegisterImpl@@H@Z 08019940 f   assembler_x86.obj
 0001:000189b0       ?testl@Assembler@@QAEXPAVRegisterImpl@@H@Z 080199b0 f   assembler_x86.obj
 0001:00018a60       ?testl@Assembler@@QAEXPAVRegisterImpl@@0@Z 08019a60 f   assembler_x86.obj
 0001:00018b50       ?testl@Assembler@@QAEXPAVRegisterImpl@@VAddress@@@Z 08019b50 f   assembler_x86.obj
 0001:00018be0       ?ucomiss@Assembler@@QAEXPAVXMMRegisterImpl@@VAddress@@@Z 08019be0 f   assembler_x86.obj
 0001:00018ca0       ?ucomiss@Assembler@@QAEXPAVXMMRegisterImpl@@0@Z 08019ca0 f   assembler_x86.obj
 0001:00018d80       ?xchgl@Assembler@@QAEXPAVRegisterImpl@@VAddress@@@Z 08019d80 f   assembler_x86.obj
 0001:00018e10       ?xchgl@Assembler@@QAEXPAVRegisterImpl@@0@Z 08019e10 f   assembler_x86.obj
 0001:00018ec0       ?xorl@Assembler@@QAEXPAVRegisterImpl@@H@Z 08019ec0 f   assembler_x86.obj
 0001:00018ee0       ?xorl@Assembler@@QAEXPAVRegisterImpl@@VAddress@@@Z 08019ee0 f   assembler_x86.obj
 0001:00018f70       ?xorl@Assembler@@QAEXPAVRegisterImpl@@0@Z 08019f70 f   assembler_x86.obj
 0001:00019060       ?xorpd@Assembler@@QAEXPAVXMMRegisterImpl@@VAddress@@@Z 0801a060 f   assembler_x86.obj
 0001:00019140       ?xorps@Assembler@@QAEXPAVXMMRegisterImpl@@0@Z 0801a140 f   assembler_x86.obj
 0001:00019220       ?xorps@Assembler@@QAEXPAVXMMRegisterImpl@@VAddress@@@Z 0801a220 f   assembler_x86.obj
 0001:000192e0       ?cmp_literal32@Assembler@@IAEXPAVRegisterImpl@@HABVRelocationHolder@@@Z 0801a2e0 f   assembler_x86.obj
 0001:000193f0       ?cmp_literal32@Assembler@@IAEXVAddress@@HABVRelocationHolder@@@Z 0801a3f0 f   assembler_x86.obj
 0001:000194e0       ?cmpxchg8@Assembler@@QAEXVAddress@@@Z 0801a4e0 f   assembler_x86.obj
 0001:00019580       ?decl@Assembler@@IAEXPAVRegisterImpl@@@Z 0801a580 f   assembler_x86.obj
 0001:000195f0       ?fadd_d@Assembler@@QAEXVAddress@@@Z 0801a5f0 f   assembler_x86.obj
 0001:00019670       ?fadd_s@Assembler@@QAEXVAddress@@@Z 0801a670 f   assembler_x86.obj
 0001:000196f0       ?fcomp_d@Assembler@@QAEXVAddress@@@Z 0801a6f0 f   assembler_x86.obj
 0001:00019770       ?fdiv_d@Assembler@@QAEXVAddress@@@Z 0801a770 f   assembler_x86.obj
 0001:000197f0       ?fdiv_s@Assembler@@QAEXVAddress@@@Z 0801a7f0 f   assembler_x86.obj
 0001:00019870       ?fdivr_d@Assembler@@QAEXVAddress@@@Z 0801a870 f   assembler_x86.obj
 0001:000198f0       ?fdivr_s@Assembler@@QAEXVAddress@@@Z 0801a8f0 f   assembler_x86.obj
 0001:00019970       ?fild_d@Assembler@@QAEXVAddress@@@Z 0801a970 f   assembler_x86.obj
 0001:000199f0       ?fild_s@Assembler@@QAEXVAddress@@@Z 0801a9f0 f   assembler_x86.obj
 0001:00019a70       ?fist_s@Assembler@@QAEXVAddress@@@Z 0801aa70 f   assembler_x86.obj
 0001:00019af0       ?fistp_d@Assembler@@QAEXVAddress@@@Z 0801aaf0 f   assembler_x86.obj
 0001:00019b70       ?fld_d@Assembler@@QAEXVAddress@@@Z 0801ab70 f   assembler_x86.obj
 0001:00019bf0       ?fld_s@Assembler@@QAEXVAddress@@@Z 0801abf0 f   assembler_x86.obj
 0001:00019c70       ?fld_x@Assembler@@QAEXVAddress@@@Z 0801ac70 f   assembler_x86.obj
 0001:00019cf0       ?fldcw@Assembler@@QAEXVAddress@@@Z 0801acf0 f   assembler_x86.obj
 0001:00019d70       ?flog@Assembler@@QAEXXZ    0801ad70 f   assembler_x86.obj
 0001:00019de0       ?flog10@Assembler@@QAEXXZ  0801ade0 f   assembler_x86.obj
 0001:00019e50       ?fmul_d@Assembler@@QAEXVAddress@@@Z 0801ae50 f   assembler_x86.obj
 0001:00019ed0       ?fmul_s@Assembler@@QAEXVAddress@@@Z 0801aed0 f   assembler_x86.obj
 0001:00019f50       ?fnsave@Assembler@@QAEXVAddress@@@Z 0801af50 f   assembler_x86.obj
 0001:00019fd0       ?fnstcw@Assembler@@QAEXVAddress@@@Z 0801afd0 f   assembler_x86.obj
 0001:0001a060       ?frstor@Assembler@@QAEXVAddress@@@Z 0801b060 f   assembler_x86.obj
 0001:0001a0e0       ?fst_d@Assembler@@QAEXVAddress@@@Z 0801b0e0 f   assembler_x86.obj
 0001:0001a160       ?fst_s@Assembler@@QAEXVAddress@@@Z 0801b160 f   assembler_x86.obj
 0001:0001a1e0       ?fstp_d@Assembler@@QAEXVAddress@@@Z 0801b1e0 f   assembler_x86.obj
 0001:0001a260       ?fstp_s@Assembler@@QAEXVAddress@@@Z 0801b260 f   assembler_x86.obj
 0001:0001a2e0       ?fsub_d@Assembler@@QAEXVAddress@@@Z 0801b2e0 f   assembler_x86.obj
 0001:0001a360       ?fsub_s@Assembler@@QAEXVAddress@@@Z 0801b360 f   assembler_x86.obj
 0001:0001a3e0       ?fsubr_d@Assembler@@QAEXVAddress@@@Z 0801b3e0 f   assembler_x86.obj
 0001:0001a460       ?fsubr_s@Assembler@@QAEXVAddress@@@Z 0801b460 f   assembler_x86.obj
 0001:0001a4e0       ?incl@Assembler@@IAEXPAVRegisterImpl@@@Z 0801b4e0 f   assembler_x86.obj
 0001:0001a550       ?mov_literal32@Assembler@@IAEXVAddress@@HABVRelocationHolder@@@Z 0801b550 f   assembler_x86.obj
 0001:0001a640       ?mov_literal32@Assembler@@IAEXPAVRegisterImpl@@HABVRelocationHolder@@@Z 0801b640 f   assembler_x86.obj
 0001:0001a740       ?push_literal32@Assembler@@IAEXHABVRelocationHolder@@@Z 0801b740 f   assembler_x86.obj
 0001:0001a800       ?shldl@Assembler@@QAEXPAVRegisterImpl@@0@Z 0801b800 f   assembler_x86.obj
 0001:0001a8b0       ?shrdl@Assembler@@QAEXPAVRegisterImpl@@0@Z 0801b8b0 f   assembler_x86.obj
 0001:0001a960       ?extend_sign@MacroAssembler@@QAEXPAVRegisterImpl@@0@Z 0801b960 f   assembler_x86.obj
 0001:0001aa30       ?jump@MacroAssembler@@QAEXVArrayAddress@@@Z 0801ba30 f   assembler_x86.obj
 0001:0001aa70       ?lea@MacroAssembler@@QAEXPAVRegisterImpl@@VAddressLiteral@@@Z 0801ba70 f   assembler_x86.obj
 0001:0001aa90       ?lea@MacroAssembler@@QAEXVAddress@@VAddressLiteral@@@Z 0801ba90 f   assembler_x86.obj
 0001:0001aac0       ?lmul@MacroAssembler@@QAEXHH@Z 0801bac0 f   assembler_x86.obj
 0001:0001aca0       ?lneg@MacroAssembler@@QAEXPAVRegisterImpl@@0@Z 0801bca0 f   assembler_x86.obj
 0001:0001ad50       ?lshl@MacroAssembler@@QAEXPAVRegisterImpl@@0@Z 0801bd50 f   assembler_x86.obj
 0001:0001af10       ?lshr@MacroAssembler@@QAEXPAVRegisterImpl@@0_N@Z 0801bf10 f   assembler_x86.obj
 0001:0001b170       ?movptr@MacroAssembler@@QAEXPAVRegisterImpl@@VAddressLiteral@@@Z 0801c170 f   assembler_x86.obj
 0001:0001b200       ?movptr@MacroAssembler@@QAEXPAVRegisterImpl@@VArrayAddress@@@Z 0801c200 f   assembler_x86.obj
 0001:0001b250       ?movptr@MacroAssembler@@QAEXVAddress@@H@Z 0801c250 f   assembler_x86.obj
 0001:0001b280       ?push_fTOS@MacroAssembler@@QAEXXZ 0801c280 f   assembler_x86.obj
 0001:0001b360       ?pushptr@MacroAssembler@@QAEXVAddressLiteral@@@Z 0801c360 f   assembler_x86.obj
 0001:0001b3f0       ?debug32@MacroAssembler@@SAXHHHHHHHHHPAD@Z 0801c3f0 f   assembler_x86.obj
 0001:0001b620       ?addptr@MacroAssembler@@QAEXPAVRegisterImpl@@H@Z 0801c620 f   assembler_x86.obj
 0001:0001b620       ?addl@Assembler@@QAEXPAVRegisterImpl@@H@Z 0801c620 f   assembler_x86.obj
 0001:0001b640       ?addptr@MacroAssembler@@QAEXPAVRegisterImpl@@0@Z 0801c640 f   assembler_x86.obj
 0001:0001b650       ?andl@Assembler@@QAEXPAVRegisterImpl@@H@Z 0801c650 f   assembler_x86.obj
 0001:0001b650       ?andptr@MacroAssembler@@QAEXPAVRegisterImpl@@H@Z 0801c650 f   assembler_x86.obj
 0001:0001b670       ?c2bool@MacroAssembler@@QAEXPAVRegisterImpl@@@Z 0801c670 f   assembler_x86.obj
 0001:0001b720       ?call@MacroAssembler@@QAEXPAVRegisterImpl@@@Z 0801c720 f   assembler_x86.obj
 0001:0001b730       ?call@MacroAssembler@@QAEXVAddressLiteral@@@Z 0801c730 f   assembler_x86.obj
 0001:0001b750       ?call_VM_leaf@MacroAssembler@@QAEXPAEPAVRegisterImpl@@@Z 0801c750 f   assembler_x86.obj
 0001:0001b780       ?call_VM_leaf@MacroAssembler@@QAEXPAEPAVRegisterImpl@@1@Z 0801c780 f   assembler_x86.obj
 0001:0001b7b0       ?call_VM_leaf@MacroAssembler@@QAEXPAEPAVRegisterImpl@@11@Z 0801c7b0 f   assembler_x86.obj
 0001:0001b7f0       ?cmp32@MacroAssembler@@QAEXVAddressLiteral@@H@Z 0801c7f0 f   assembler_x86.obj
 0001:0001b860       ?cmp32@MacroAssembler@@QAEXPAVRegisterImpl@@VAddressLiteral@@@Z 0801c860 f   assembler_x86.obj
 0001:0001b8f0       ?cmp8@MacroAssembler@@QAEXVAddressLiteral@@H@Z 0801c8f0 f   assembler_x86.obj
 0001:0001b960       ?cmpptr@MacroAssembler@@QAEXPAVRegisterImpl@@VAddressLiteral@@@Z 0801c960 f   assembler_x86.obj
 0001:0001b9f0       ?cmpptr@MacroAssembler@@QAEXVAddress@@VAddressLiteral@@@Z 0801c9f0 f   assembler_x86.obj
 0001:0001ba40       ?corrected_idivl@MacroAssembler@@QAEHPAVRegisterImpl@@@Z 0801ca40 f   assembler_x86.obj
 0001:0001bc20       ?decrementl@MacroAssembler@@QAEXPAVRegisterImpl@@H@Z 0801cc20 f   assembler_x86.obj
 0001:0001bc90       ?decrementl@MacroAssembler@@QAEXVAddress@@H@Z 0801cc90 f   assembler_x86.obj
 0001:0001bd20       ?fld_x@MacroAssembler@@QAEXVAddressLiteral@@@Z 0801cd20 f   assembler_x86.obj
 0001:0001bd90       ?fldcw@MacroAssembler@@QAEXVAddressLiteral@@@Z 0801cd90 f   assembler_x86.obj
 0001:0001be00       ?incrementl@MacroAssembler@@QAEXPAVRegisterImpl@@H@Z 0801ce00 f   assembler_x86.obj
 0001:0001be70       ?jump@MacroAssembler@@QAEXVAddressLiteral@@@Z 0801ce70 f   assembler_x86.obj
 0001:0001be90       ?jump_cc@MacroAssembler@@QAEXW4Condition@Assembler@@VAddressLiteral@@@Z 0801ce90 f   assembler_x86.obj
 0001:0001bf80       ?ldmxcsr@MacroAssembler@@QAEXVAddressLiteral@@@Z 0801cf80 f   assembler_x86.obj
 0001:0001bff0       ?load_unsigned_byte@MacroAssembler@@QAEHPAVRegisterImpl@@VAddress@@@Z 0801cff0 f   assembler_x86.obj
 0001:0001c080       ?load_unsigned_short@MacroAssembler@@QAEHPAVRegisterImpl@@VAddress@@@Z 0801d080 f   assembler_x86.obj
 0001:0001c110       ?mov32@MacroAssembler@@QAEXVAddressLiteral@@PAVRegisterImpl@@@Z 0801d110 f   assembler_x86.obj
 0001:0001c180       ?mov32@MacroAssembler@@QAEXPAVRegisterImpl@@VAddressLiteral@@@Z 0801d180 f   assembler_x86.obj
 0001:0001c1f0       ?movbool@MacroAssembler@@QAEXPAVRegisterImpl@@VAddress@@@Z 0801d1f0 f   assembler_x86.obj
 0001:0001c220       ?movbool@MacroAssembler@@QAEXVAddress@@_N@Z 0801d220 f   assembler_x86.obj
 0001:0001c250       ?movptr@MacroAssembler@@QAEXPAVRegisterImpl@@VAddress@@@Z 0801d250 f   assembler_x86.obj
 0001:0001c280       ?movptr@MacroAssembler@@QAEXPAVRegisterImpl@@H@Z 0801d280 f   assembler_x86.obj
 0001:0001c290       ?movptr@MacroAssembler@@QAEXVAddress@@PAVRegisterImpl@@@Z 0801d290 f   assembler_x86.obj
 0001:0001c2c0       ?pop_FPU_state@MacroAssembler@@QAEXXZ 0801d2c0 f   assembler_x86.obj
 0001:0001c3a0       ?reset_last_Java_frame@MacroAssembler@@QAEXPAVRegisterImpl@@_N1@Z 0801d3a0 f   assembler_x86.obj
 0001:0001c4a0       ?shlptr@MacroAssembler@@QAEXPAVRegisterImpl@@H@Z 0801d4a0 f   assembler_x86.obj
 0001:0001c4b0       ?shrptr@MacroAssembler@@QAEXPAVRegisterImpl@@H@Z 0801d4b0 f   assembler_x86.obj
 0001:0001c4c0       ?sign_extend_byte@MacroAssembler@@QAEXPAVRegisterImpl@@@Z 0801d4c0 f   assembler_x86.obj
 0001:0001c5f0       ?sign_extend_short@MacroAssembler@@QAEXPAVRegisterImpl@@@Z 0801d5f0 f   assembler_x86.obj
 0001:0001c710       ?store_check_part_1@MacroAssembler@@QAEXPAVRegisterImpl@@@Z 0801d710 f   assembler_x86.obj
 0001:0001c7c0       ?subptr@MacroAssembler@@QAEXPAVRegisterImpl@@0@Z 0801d7c0 f   assembler_x86.obj
 0001:0001c7d0       ?test32@MacroAssembler@@QAEXPAVRegisterImpl@@VAddressLiteral@@@Z 0801d7d0 f   assembler_x86.obj
 0001:0001c840       ?testbool@MacroAssembler@@QAEXPAVRegisterImpl@@@Z 0801d840 f   assembler_x86.obj
 0001:0001c860       ?testptr@MacroAssembler@@QAEXPAVRegisterImpl@@0@Z 0801d860 f   assembler_x86.obj
 0001:0001c870       ?argument_address@MacroAssembler@@QAE?AVAddress@@VRegisterOrConstant@@H@Z 0801d870 f   assembler_x86.obj
 0001:0001c900       ?load_klass@MacroAssembler@@QAEXPAVRegisterImpl@@0@Z 0801d900 f   assembler_x86.obj
 0001:0001c960       ?store_klass@MacroAssembler@@QAEXPAVRegisterImpl@@0@Z 0801d960 f   assembler_x86.obj
 0001:0001c9c0       ?set_value@DataRelocation@@UAEXPAE@Z 0801d9c0 f i assembler_x86.obj
 0001:0001c9e0       ?set_value@DataRelocation@@QAEXPAEH@Z 0801d9e0 f i assembler_x86.obj
 0001:0001ca60       ?addr_in_const@RelocIterator@@QBE_NXZ 0801da60 f i assembler_x86.obj
 0001:0001ca80       ??0RuntimeAddress@@QAE@PAE@Z 0801da80 f i assembler_x86.obj
 0001:0001cae0       ??0ExternalAddress@@QAE@PAE@Z 0801dae0 f i assembler_x86.obj
 0001:0001cb40       ??0InternalAddress@@QAE@PAE@Z 0801db40 f i assembler_x86.obj
 0001:0001cba0       ?cmpptr@MacroAssembler@@QAEXPAVRegisterImpl@@VAddress@@@Z 0801dba0 f i assembler_x86.obj
 0001:0001cba0       ?cmp32@MacroAssembler@@QAEXPAVRegisterImpl@@VAddress@@@Z 0801dba0 f i assembler_x86.obj
 0001:0001cbd0       ?lea@MacroAssembler@@QAEXPAVRegisterImpl@@VAddress@@@Z 0801dbd0 f i assembler_x86.obj
 0001:0001cbd0       ?lea@Assembler@@QAEXPAVRegisterImpl@@VAddress@@@Z 0801dbd0 f i assembler_x86.obj
 0001:0001cc00       ?fld_s@MacroAssembler@@QAEXVAddress@@@Z 0801dc00 f i assembler_x86.obj
 0001:0001cc30       ?fld_d@MacroAssembler@@QAEXVAddress@@@Z 0801dc30 f i assembler_x86.obj
 0001:0001cc60       ?ucomiss@MacroAssembler@@QAEXPAVXMMRegisterImpl@@VAddress@@@Z 0801dc60 f i assembler_x86.obj
 0001:0001cc90       ?pushptr@MacroAssembler@@QAEXVAddress@@@Z 0801dc90 f i assembler_x86.obj
 0001:0001ccc0       ?emit_data@Assembler@@IAEXHW4relocType@relocInfo@@H@Z 0801dcc0 f   assembler_x86.obj
 0001:0001cd20       ?emit_arith_operand@Assembler@@AAEXHPAVRegisterImpl@@VAddress@@H@Z 0801dd20 f   assembler_x86.obj
 0001:0001cec0       ?addl@Assembler@@QAEXVAddress@@H@Z 0801dec0 f   assembler_x86.obj
 0001:0001cf30       ?call@Assembler@@QAEXAAVLabel@@W4relocType@relocInfo@@@Z 0801df30 f   assembler_x86.obj
 0001:0001d060       ?cmpxchgl@Assembler@@QAEXPAVRegisterImpl@@VAddress@@@Z 0801e060 f   assembler_x86.obj
 0001:0001d1a0       ?comisd@Assembler@@QAEXPAVXMMRegisterImpl@@VAddress@@@Z 0801e1a0 f   assembler_x86.obj
 0001:0001d210       ?movptr@MacroAssembler@@QAEXPAVRegisterImpl@@0@Z 0801e210 f   assembler_x86.obj
 0001:0001d210       ?mov@Assembler@@QAEXPAVRegisterImpl@@0@Z 0801e210 f   assembler_x86.obj
 0001:0001d220       ?sbbl@Assembler@@QAEXVAddress@@H@Z 0801e220 f   assembler_x86.obj
 0001:0001d290       ?ucomisd@Assembler@@QAEXPAVXMMRegisterImpl@@VAddress@@@Z 0801e290 f   assembler_x86.obj
 0001:0001d300       ?ucomisd@Assembler@@QAEXPAVXMMRegisterImpl@@0@Z 0801e300 f   assembler_x86.obj
 0001:0001d350       ?xorpd@Assembler@@QAEXPAVXMMRegisterImpl@@0@Z 0801e350 f   assembler_x86.obj
 0001:0001d3a0       ?call_VM_leaf_base@MacroAssembler@@MAEXPAEH@Z 0801e3a0 f   assembler_x86.obj
 0001:0001d400       ?cmpoop@MacroAssembler@@QAEXVAddress@@PAV_jobject@@@Z 0801e400 f   assembler_x86.obj
 0001:0001d450       ?cmpoop@MacroAssembler@@QAEXPAVRegisterImpl@@PAV_jobject@@@Z 0801e450 f   assembler_x86.obj
 0001:0001d490       ?lcmp2int@MacroAssembler@@QAEXPAVRegisterImpl@@000@Z 0801e490 f   assembler_x86.obj
 0001:0001d6a0       ?leave@MacroAssembler@@QAEXXZ 0801e6a0 f   assembler_x86.obj
 0001:0001d6d0       ?movoop@MacroAssembler@@QAEXPAVRegisterImpl@@PAV_jobject@@@Z 0801e6d0 f   assembler_x86.obj
 0001:0001d710       ?movoop@MacroAssembler@@QAEXVAddress@@PAV_jobject@@@Z 0801e710 f   assembler_x86.obj
 0001:0001d760       ?pop_fTOS@MacroAssembler@@QAEXXZ 0801e760 f   assembler_x86.obj
 0001:0001d840       ?pushoop@MacroAssembler@@QAEXPAV_jobject@@@Z 0801e840 f   assembler_x86.obj
 0001:0001d880       ?andpd@MacroAssembler@@QAEXPAVXMMRegisterImpl@@VAddressLiteral@@@Z 0801e880 f   assembler_x86.obj
 0001:0001d8f0       ?bang_stack_size@MacroAssembler@@QAEXPAVRegisterImpl@@0@Z 0801e8f0 f   assembler_x86.obj
 0001:0001da30       ?biased_locking_exit@MacroAssembler@@QAEXPAVRegisterImpl@@0AAVLabel@@@Z 0801ea30 f   assembler_x86.obj
 0001:0001dbd0       ?base_offset_in_bytes@arrayOopDesc@@SAHW4BasicType@@@Z 0801ebd0 f i assembler_x86.obj
 0001:0001dbf0       ?call_VM_helper@MacroAssembler@@IAEXPAVRegisterImpl@@PAEH_N@Z 0801ebf0 f   assembler_x86.obj
 0001:0001dc80       ?cmpss2int@MacroAssembler@@QAEXPAVXMMRegisterImpl@@0PAVRegisterImpl@@_N@Z 0801ec80 f   assembler_x86.obj
 0001:0001de80       ?cmpxchgptr@MacroAssembler@@QAEXPAVRegisterImpl@@VAddress@@@Z 0801ee80 f   assembler_x86.obj
 0001:0001deb0       ?comiss@MacroAssembler@@QAEXPAVXMMRegisterImpl@@VAddressLiteral@@@Z 0801eeb0 f   assembler_x86.obj
 0001:0001df20       ?enter@MacroAssembler@@QAEXXZ 0801ef20 f   assembler_x86.obj
 0001:0001df50       ?fld_d@MacroAssembler@@QAEXVAddressLiteral@@@Z 0801ef50 f   assembler_x86.obj
 0001:0001dfc0       ?fld_s@MacroAssembler@@QAEXVAddressLiteral@@@Z 0801efc0 f   assembler_x86.obj
 0001:0001e030       ?incrementl@MacroAssembler@@QAEXVAddress@@H@Z 0801f030 f   assembler_x86.obj
 0001:0001e0c0       ?load_signed_byte@MacroAssembler@@QAEHPAVRegisterImpl@@VAddress@@@Z 0801f0c0 f   assembler_x86.obj
 0001:0001e220       ?load_signed_short@MacroAssembler@@QAEHPAVRegisterImpl@@VAddress@@@Z 0801f220 f   assembler_x86.obj
 0001:0001e380       ?load_sized_value@MacroAssembler@@QAEXPAVRegisterImpl@@VAddress@@H_N@Z 0801f380 f   assembler_x86.obj
 0001:0001e4c0       ?movdbl@MacroAssembler@@QAEXPAVXMMRegisterImpl@@VAddressLiteral@@@Z 0801f4c0 f   assembler_x86.obj
 0001:0001e580       ?movflt@MacroAssembler@@QAEXPAVXMMRegisterImpl@@VAddressLiteral@@@Z 0801f580 f   assembler_x86.obj
 0001:0001e5f0       ?null_check@MacroAssembler@@QAEXPAVRegisterImpl@@H@Z 0801f5f0 f   assembler_x86.obj
 0001:0001e660       ?push_FPU_state@MacroAssembler@@QAEXXZ 0801f660 f   assembler_x86.obj
 0001:0001e760       ?serialize_memory@MacroAssembler@@QAEXPAVRegisterImpl@@0@Z 0801f760 f   assembler_x86.obj
 0001:0001e8d0       ?set_last_Java_frame@MacroAssembler@@QAEXPAVRegisterImpl@@00PAE@Z 0801f8d0 f   assembler_x86.obj
 0001:0001ea10       ?g1_write_barrier_pre@MacroAssembler@@QAEXPAVRegisterImpl@@000_N@Z 0801fa10 f   assembler_x86.obj
 0001:0001ecf0       ?g1_write_barrier_post@MacroAssembler@@QAEXPAVRegisterImpl@@0000@Z 0801fcf0 f   assembler_x86.obj
 0001:0001f150       ?store_check_part_2@MacroAssembler@@QAEXPAVRegisterImpl@@@Z 08020150 f   assembler_x86.obj
 0001:0001f200       ?lookup_interface_method@MacroAssembler@@QAEXPAVRegisterImpl@@0VRegisterOrConstant@@00AAVLabel@@@Z 08020200 f   assembler_x86.obj
 0001:0001f4c0       ?check_klass_subtype_fast_path@MacroAssembler@@QAEXPAVRegisterImpl@@00PAVLabel@@11VRegisterOrConstant@@@Z 080204c0 f   assembler_x86.obj
 0001:0001f790       ?ucomiss@MacroAssembler@@QAEXPAVXMMRegisterImpl@@VAddressLiteral@@@Z 08020790 f   assembler_x86.obj
 0001:0001f800       ?xorpd@MacroAssembler@@QAEXPAVXMMRegisterImpl@@VAddressLiteral@@@Z 08020800 f   assembler_x86.obj
 0001:0001f870       ?xorps@MacroAssembler@@QAEXPAVXMMRegisterImpl@@VAddressLiteral@@@Z 08020870 f   assembler_x86.obj
 0001:0001f8e0       ?verify_oop@MacroAssembler@@QAEXPAVRegisterImpl@@PBD@Z 080208e0 f   assembler_x86.obj
 0001:0001f9d0       ?delayed_value_impl@MacroAssembler@@UAE?AVRegisterOrConstant@@PAHPAVRegisterImpl@@H@Z 080209d0 f   assembler_x86.obj
 0001:0001fa90       ?verify_oop_addr@MacroAssembler@@QAEXVAddress@@PBD@Z 08020a90 f   assembler_x86.obj
 0001:0001fbe0       ??0SkipIfEqual@@QAE@PAVMacroAssembler@@PB_N_N@Z 08020be0 f   assembler_x86.obj
 0001:0001fc40       ?ucomisd@MacroAssembler@@QAEXPAVXMMRegisterImpl@@VAddress@@@Z 08020c40 f i assembler_x86.obj
 0001:0001fc70       ?stop@MacroAssembler@@QAEXPBD@Z 08020c70 f   assembler_x86.obj
 0001:0001fd60       ?call_VM@MacroAssembler@@QAEXPAVRegisterImpl@@PAE_N@Z 08020d60 f   assembler_x86.obj
 0001:0001fde0       ?call_VM@MacroAssembler@@QAEXPAVRegisterImpl@@PAE0_N@Z 08020de0 f   assembler_x86.obj
 0001:0001fe70       ?call_VM@MacroAssembler@@QAEXPAVRegisterImpl@@PAE00_N@Z 08020e70 f   assembler_x86.obj
 0001:0001ff10       ?call_VM@MacroAssembler@@QAEXPAVRegisterImpl@@PAE000_N@Z 08020f10 f   assembler_x86.obj
 0001:0001ffb0       ?call_VM_base@MacroAssembler@@MAEXPAVRegisterImpl@@00PAEH_N@Z 08020fb0 f   assembler_x86.obj
 0001:00020280       ?cmpsd2int@MacroAssembler@@QAEXPAVXMMRegisterImpl@@0PAVRegisterImpl@@_N@Z 08021280 f   assembler_x86.obj
 0001:000204b0       ?locked_cmpxchgptr@MacroAssembler@@QAEXPAVRegisterImpl@@VAddressLiteral@@@Z 080214b0 f   assembler_x86.obj
 0001:00020570       ?comisd@MacroAssembler@@QAEXPAVXMMRegisterImpl@@VAddressLiteral@@@Z 08021570 f   assembler_x86.obj
 0001:000205e0       ?eden_allocate@MacroAssembler@@QAEXPAVRegisterImpl@@0H0AAVLabel@@@Z 080215e0 f   assembler_x86.obj
 0001:000207a0       ?fcmp@MacroAssembler@@QAEXPAVRegisterImpl@@H_N1@Z 080217a0 f   assembler_x86.obj
 0001:00020950       ?fcmp2int@MacroAssembler@@QAEXPAVRegisterImpl@@_NH11@Z 08021950 f   assembler_x86.obj
 0001:00020b60       ?fremr@MacroAssembler@@QAEXPAVRegisterImpl@@@Z 08021b60 f   assembler_x86.obj
 0001:00020cd0       ?incrementl@MacroAssembler@@QAEXVAddressLiteral@@@Z 08021cd0 f   assembler_x86.obj
 0001:00020d60       ?incrementl@MacroAssembler@@QAEXVArrayAddress@@@Z 08021d60 f   assembler_x86.obj
 0001:00020dc0       ?store_check@MacroAssembler@@QAEXPAVRegisterImpl@@@Z 08021dc0 f   assembler_x86.obj
 0001:00020de0       ?check_klass_subtype_slow_path@MacroAssembler@@QAEXPAVRegisterImpl@@000PAVLabel@@1_N@Z 08021de0 f   assembler_x86.obj
 0001:00021160       ?ucomisd@MacroAssembler@@QAEXPAVXMMRegisterImpl@@VAddressLiteral@@@Z 08022160 f   assembler_x86.obj
 0001:000211d0       ?verify_FPU@MacroAssembler@@QAEXHPBD@Z 080221d0 f   assembler_x86.obj
 0001:000213a0       ?unimplemented@MacroAssembler@@QAEXPBD@Z 080223a0 f i assembler_x86.obj
 0001:000213e0       ?warn@MacroAssembler@@QAEXPBD@Z 080223e0 f   assembler_x86.obj
 0001:00021560       ?atomic_incl@MacroAssembler@@QAEXVAddressLiteral@@@Z 08022560 f   assembler_x86.obj
 0001:00021610       ?cond_inc32@MacroAssembler@@QAEXW4Condition@Assembler@@VAddressLiteral@@@Z 08022610 f   assembler_x86.obj
 0001:00021670       ?fcmp2int@MacroAssembler@@QAEXPAVRegisterImpl@@_N@Z 08022670 f   assembler_x86.obj
 0001:00021690       ?trigfunc@MacroAssembler@@QAEXDH@Z 08022690 f   assembler_x86.obj
 0001:00021f90       ?check_klass_subtype@MacroAssembler@@QAEXPAVRegisterImpl@@00AAVLabel@@@Z 08022f90 f   assembler_x86.obj
 0001:00022000       ?check_method_handle_type@MacroAssembler@@QAEXPAVRegisterImpl@@00AAVLabel@@@Z 08023000 f   assembler_x86.obj
 0001:00022080       ?load_method_handle_vmslots@MacroAssembler@@QAEXPAVRegisterImpl@@00@Z 08023080 f   assembler_x86.obj
 0001:000221e0       ?jump_to_method_handle_entry@MacroAssembler@@QAEXPAVRegisterImpl@@0@Z 080231e0 f   assembler_x86.obj
 0001:000222d0       ?verify_tlab@MacroAssembler@@QAEXXZ 080232d0 f   assembler_x86.obj
 0001:000224c0       ?biased_locking_enter@MacroAssembler@@QAEHPAVRegisterImpl@@000_NAAVLabel@@PAV3@PAVBiasedLockingCounters@@@Z 080234c0 f   assembler_x86.obj
 0001:00022e50       ?tlab_allocate@MacroAssembler@@QAEXPAVRegisterImpl@@0H00AAVLabel@@@Z 08023e50 f   assembler_x86.obj
 0001:00023040       ?tlab_refill@MacroAssembler@@QAEXAAVLabel@@00@Z 08024040 f   assembler_x86.obj
 0001:000238b0       ?cmpxchg@Atomic@@SACCPCCC@Z 080248b0 f   atomic.obj
 0001:000239d0       ?layout_helper_element_type@Klass@@SA?AW4BasicType@@H@Z 080249d0 f i attachListener.obj
 0001:00023a20       ?oop_is_instance@Klass@@QBE_NXZ 08024a20 f i attachListener.obj
 0001:00023a50       ??CinstanceKlassHandle@@QBEPAVinstanceKlass@@XZ 08024a50 f i attachListener.obj
 0001:00023a70       ?cast@typeArrayKlass@@SAPAV1@PAVklassOopDesc@@@Z 08024a70 f i attachListener.obj
 0001:00023ab0       ?ThreadGroup_klass@SystemDictionary@@SAPAVklassOopDesc@@XZ 08024ab0 f i attachListener.obj
 0001:00023ae0       ?evaluate_at_safepoint@VM_Operation@@UBE_NXZ 08024ae0 f i attachListener.obj
 0001:00023b10       ?evaluate_concurrently@VM_Operation@@UBE_NXZ 08024b10 f i attachListener.obj
 0001:00023b40       ?print_on@VM_Operation@@UBEXPAVoutputStream@@@Z 08024b40 f i attachListener.obj
 0001:00023b50       ??0JavaCallArguments@@QAE@XZ 08024b50 f i attachListener.obj
 0001:00023fd0       ?is_instance@oopDesc@@QBE_NXZ 08024fd0 f i attachListener.obj
 0001:00024010       ?type@VM_PrintJNI@@UBE?AW4VMOp_Type@VM_Operation@@XZ 08025010 f i attachListener.obj
 0001:00024020       ??_EVM_FindDeadlocks@@UAEPAXI@Z 08025020 f i attachListener.obj
 0001:00024020       ??_GVM_FindDeadlocks@@UAEPAXI@Z 08025020 f i attachListener.obj
 0001:000240f0       ?dump_heap@@YAHPAVAttachOperation@@PAVoutputStream@@@Z 080250f0 f   attachListener.obj
 0001:00024530       ??0instanceHandle@@QAE@PAVThread@@PAVinstanceOopDesc@@@Z 08025530 f i attachListener.obj
 0001:000245b0       ??0instanceKlassHandle@@QAE@PAVThread@@PAVklassOopDesc@@@Z 080255b0 f i attachListener.obj
 0001:00024600       ?allocate_instance_handle@instanceKlass@@QAE?AVinstanceHandle@@PAVThread@@@Z 08025600 f i attachListener.obj
 0001:00024690       ?init@AttachListener@@SAXXZ 08025690 f   attachListener.obj
 0001:000248a0       ?base@arrayOopDesc@@QBEPAXW4BasicType@@@Z 080258a0 f i attachListener.obj
 0001:000248c0       ?byte_at_addr@typeArrayOopDesc@@QBEPACH@Z 080258c0 f i attachListener.obj
 0001:00024b60       ?set_name@AttachOperation@@QAEXPAD@Z 08025b60 f i attachListener_windows.obj
 0001:00024bb0       ?set_arg@AttachOperation@@QAEXHPAD@Z 08025bb0 f i attachListener_windows.obj
 0001:00024c50       ?set_pipe@Win32AttachOperation@@AAEXPBD@Z 08025c50 f i attachListener_windows.obj
 0001:00024cb0       ?enqueue@Win32AttachListener@@SAHPAD0000@Z 08025cb0 f   attachListener_windows.obj
 0001:00024e20       ?dequeue@Win32AttachListener@@SAPAVWin32AttachOperation@@XZ 08025e20 f   attachListener_windows.obj
 0001:00024eb0       ?write_pipe@Win32AttachOperation@@CAHPAXPADH@Z 08025eb0 f   attachListener_windows.obj
 0001:00024f00       ?pd_data_dump@AttachListener@@SAXXZ 08025f00 f   attachListener_windows.obj
 0001:00024f10       ?pd_set_flag@AttachListener@@SAHPAVAttachOperation@@PAVoutputStream@@@Z 08025f10 f   attachListener_windows.obj
 0001:00024f30       _JVM_EnqueueOperation@20   08025f30 f   attachListener_windows.obj
 0001:00024f60       ??0MutexLockerEx@@QAE@PAVMonitor@@_N@Z 08025f60 f i attachListener_windows.obj
 0001:00024fc0       ??0ThreadBlockInVM@@QAE@PAVJavaThread@@@Z 08025fc0 f i attachListener_windows.obj
 0001:00025020       ?init_at_startup@AttachListener@@SA_NXZ 08026020 f   attachListener_windows.obj
 0001:00025030       ?handle_special_suspend_equivalent_condition@JavaThread@@QAE_NXZ 08026030 f i attachListener_windows.obj
 0001:00025090       ??0AttachOperation@@QAE@PAD@Z 08026090 f i attachListener_windows.obj
 0001:000250f0       ?init@Win32AttachListener@@SAHXZ 080260f0 f   attachListener_windows.obj
 0001:000251c0       ?pd_init@AttachListener@@SAHXZ 080261c0 f   attachListener_windows.obj
 0001:000251d0       ?check_and_wait_while_suspended@JavaThread@@QAEXXZ 080261d0 f i attachListener_windows.obj
 0001:00025290       ?complete@Win32AttachOperation@@UAEXHPAVbufferedStream@@@Z 08026290 f   attachListener_windows.obj
 0001:000253e0       ?dequeue@AttachListener@@SAPAVAttachOperation@@XZ 080263e0 f   attachListener_windows.obj
 0001:00025470       ?write_ref_array@BarrierSet@@QAEXPAVHeapWord@@I@Z 08026470 f i barrierSet.obj
 0001:00025510       ?static_write_ref_array_pre@BarrierSet@@SAXPAVHeapWord@@I@Z 08026510 f   barrierSet.obj
 0001:00025550       ?static_write_ref_array_post@BarrierSet@@SAXPAVHeapWord@@I@Z 08026550 f   barrierSet.obj
 0001:00025570       ?is_loaded@ciObject@@QBE_NXZ 08026570 f i bcEscapeAnalyzer.obj
 0001:00025590       ?as_method@ciObject@@QAEPAVciMethod@@XZ 08026590 f i bcEscapeAnalyzer.obj
 0001:000255c0       ?as_klass@ciObject@@QAEPAVciKlass@@XZ 080265c0 f i bcEscapeAnalyzer.obj
 0001:000255f0       ?set_bit@BitMap@@QAEXI@Z   080265f0 f i bcEscapeAnalyzer.obj
 0001:00025640       ?clear_bit@BitMap@@QAEXI@Z 08026640 f i bcEscapeAnalyzer.obj
 0001:00025690       ?is_initialized@ciInstanceKlass@@QAE_NXZ 08026690 f i bcEscapeAnalyzer.obj
 0001:000256d0       ?is_final@ciInstanceKlass@@QAE_NXZ 080266d0 f i bcEscapeAnalyzer.obj
 0001:00025710       ?code_size@ciMethod@@QBEHXZ 08026710 f i bcEscapeAnalyzer.obj
 0001:00025740       ?intrinsic_id@ciMethod@@QBE?AW4ID@vmIntrinsics@@XZ 08026740 f i bcEscapeAnalyzer.obj
 0001:00025770       ?is_static@ciMethod@@QBE_NXZ 08026770 f i bcEscapeAnalyzer.obj
 0001:000257b0       ?is_final@ciMethod@@QBE_NXZ 080267b0 f i bcEscapeAnalyzer.obj
 0001:000257f0       ?is_native@ciMethod@@QBE_NXZ 080267f0 f i bcEscapeAnalyzer.obj
 0001:00025830       ?is_abstract@ciMethod@@QBE_NXZ 08026830 f i bcEscapeAnalyzer.obj
 0001:00025870       ?is_final_method@ciMethod@@QBE_NXZ 08026870 f i bcEscapeAnalyzer.obj
 0001:000258f0       ?reset_to_method@ciBytecodeStream@@QAEXPAVciMethod@@@Z 080268f0 f i bcEscapeAnalyzer.obj
 0001:00025980       ?cur_bc@ciBytecodeStream@@QBE?AW4Code@Bytecodes@@XZ 08026980 f i bcEscapeAnalyzer.obj
 0001:000259b0       ?assert_index_size@ciBytecodeStream@@ABEXH@Z 080269b0 f i bcEscapeAnalyzer.obj
 0001:00025a40       ?pair_at@Bytecode_lookupswitch@@QBEPAVLookupswitchPair@@H@Z 08026a40 f i bcEscapeAnalyzer.obj
 0001:00025aa0       ?default_offset@Bytecode_tableswitch@@QBEHXZ 08026aa0 f i bcEscapeAnalyzer.obj
 0001:00025aa0       ?default_offset@Bytecode_lookupswitch@@QBEHXZ 08026aa0 f i bcEscapeAnalyzer.obj
 0001:00025ad0       ?low_key@Bytecode_tableswitch@@QBEHXZ 08026ad0 f i bcEscapeAnalyzer.obj
 0001:00025ad0       ?number_of_pairs@Bytecode_lookupswitch@@QBEHXZ 08026ad0 f i bcEscapeAnalyzer.obj
 0001:00025b00       ?length@Bytecode_tableswitch@@QAEHXZ 08026b00 f i bcEscapeAnalyzer.obj
 0001:00025b60       ??0GenericGrowableArray@@IAE@PAVArena@@HH@Z 08026b60 f i bcEscapeAnalyzer.obj
 0001:00025bc0       ?check@Bytecodes@@SAXW4Code@1@@Z 08026bc0 f i bcEscapeAnalyzer.obj
 0001:00025c00       ?java_code@Bytecodes@@SA?AW4Code@1@W421@@Z 08026c00 f i bcEscapeAnalyzer.obj
 0001:00025c40       ?next@ciBytecodeStream@@QAE?AW4Code@Bytecodes@@XZ 08026c40 f i bcEscapeAnalyzer.obj
 0001:00025cf0       ?get_index@ciBytecodeStream@@QBEHXZ 08026cf0 f i bcEscapeAnalyzer.obj
 0001:00025d40       ?get_dest@ciBytecodeStream@@QBEHXZ 08026d40 f i bcEscapeAnalyzer.obj
 0001:00025dc0       ?get_far_dest@ciBytecodeStream@@QBEHXZ 08026dc0 f i bcEscapeAnalyzer.obj
 0001:00025e40       ?enabled@BiasedLocking@@SA_NXZ 08026e40 f   biasedLocking.obj
 0001:00025e50       ?fast_path_entry_count_addr@BiasedLocking@@SAPAHXZ 08026e50 f   biasedLocking.obj
 0001:00025e60       ?slow_path_entry_count_addr@BiasedLocking@@SAPAHXZ 08026e60 f   biasedLocking.obj
 0001:00025e70       ?print_on@BiasedLockingCounters@@QAEXPAVoutputStream@@@Z 08026e70 f   biasedLocking.obj
 0001:00025f30       ?bias_epoch@markOopDesc@@QBEHXZ 08026f30 f i biasedLocking.obj
 0001:00025f60       ?set_bias_epoch@markOopDesc@@QAEPAV1@H@Z 08026f60 f i biasedLocking.obj
 0001:00025fc0       ?incr_bias_epoch@markOopDesc@@QAEPAV1@XZ 08026fc0 f i biasedLocking.obj
 0001:00026000       ?encode@markOopDesc@@SAPAV1@PAVJavaThread@@HH@Z 08027000 f i biasedLocking.obj
 0001:00026090       ?set_age@markOopDesc@@QBEPAV1@H@Z 08027090 f i biasedLocking.obj
 0001:000260d0       ?set_prototype_header@Klass@@QAEXPAVmarkOopDesc@@@Z 080270d0 f i biasedLocking.obj
 0001:00026130       ?evaluation_mode@VM_EnableBiasedLocking@@UBE?AW4Mode@VM_Operation@@XZ 08027130 f i biasedLocking.obj
 0001:00026140       ?is_cheap_allocated@VM_EnableBiasedLocking@@UBE_NXZ 08027140 f i biasedLocking.obj
 0001:00026150       ?task@EnableBiasedLockingTask@@UAEXXZ 08027150 f i biasedLocking.obj
 0001:000261b0       ?init@BiasedLocking@@SAXXZ 080271b0 f   biasedLocking.obj
 0001:000262e0       ?type@VM_RevokeBias@@UBE?AW4VMOp_Type@VM_Operation@@XZ 080272e0 f i biasedLocking.obj
 0001:000262f0       ?doit_prologue@VM_RevokeBias@@UAE_NXZ 080272f0 f i biasedLocking.obj
 0001:00026380       ?type@VM_BulkRevokeBias@@UBE?AW4VMOp_Type@VM_Operation@@XZ 08027380 f i biasedLocking.obj
 0001:00026380       ?minSize@BinaryTreeDictionary@@UBEIXZ 08027380 f i binaryTreeDictionary.obj
 0001:00026390       ?revoke@BiasedLocking@@SAXPAV?$GrowableArray@VHandle@@@@@Z 08027390 f   biasedLocking.obj
 0001:00026430       ??0?$GrowableArray@PAVStackValue@@@@QAE@H_N@Z 08027430 f i vframe.obj
 0001:00026430       ??0?$GrowableArray@PAVoopDesc@@@@QAE@H_N@Z 08027430 f i g1CollectedHeap.obj
 0001:00026430       ??0?$GrowableArray@PAVScopeValue@@@@QAE@H_N@Z 08027430 f i c1_LinearScan.obj
 0001:00026430       ??0?$GrowableArray@PAV_jobject@@@@QAE@H_N@Z 08027430 f i instanceKlass.obj
 0001:00026430       ??0?$GrowableArray@PAVJavaThread@@@@QAE@H_N@Z 08027430 f i thread.obj
 0001:00026430       ??0?$GrowableArray@PAVPerfData@@@@QAE@H_N@Z 08027430 f i perfData.obj
 0001:00026430       ??0?$GrowableArray@I@@QAE@H_N@Z 08027430 f i genMarkSweep.obj
 0001:00026430       ??0?$GrowableArray@PAVklassOopDesc@@@@QAE@H_N@Z 08027430 f i aprofiler.obj
 0001:00026430       ??0?$GrowableArray@PAVMonitorInfo@@@@QAE@H_N@Z 08027430 f i vframe.obj
 0001:00026430       ??0?$GrowableArray@PAVCompilerThread@@@@QAE@H_N@Z 08027430 f i compileBroker.obj
 0001:00026430       ??0?$GrowableArray@H@@QAE@H_N@Z 08027430 f i c1_Compilation.obj
 0001:00026430       ??0?$GrowableArray@PAVHeapWord@@@@QAE@H_N@Z 08027430 f i genMarkSweep.obj
 0001:00026430       ??0?$GrowableArray@PAVMonitor@@@@QAE@H_N@Z 08027430 f i gcTaskManager.obj
 0001:00026430       ??0?$GrowableArray@PAVMonitorValue@@@@QAE@H_N@Z 08027430 f i c1_LinearScan.obj
 0001:00026430       ??0?$GrowableArray@PAVmarkOopDesc@@@@QAE@H_N@Z 08027430 f i biasedLocking.obj
 0001:00026430       ??0?$GrowableArray@PAVHeapRegion@@@@QAE@H_N@Z 08027430 f i collectionSetChooser.obj
 0001:00026430       ??0?$GrowableArray@PAVHistogramElement@@@@QAE@H_N@Z 08027430 f i histogram.obj
 0001:00026430       ??0?$GrowableArray@VinstanceHandle@@@@QAE@H_N@Z 08027430 f i jvm.obj
 0001:00026430       ??0?$GrowableArray@PAVciBlock@@@@QAE@H_N@Z 08027430 f i ciMethodBlocks.obj
 0001:00026430       ??0?$GrowableArray@PAVHistoEntry@@@@QAE@H_N@Z 08027430 f i bytecodeHistogram.obj
 0001:00026430       ??0?$GrowableArray@PAVLGRPSpace@MutableNUMASpace@@@@QAE@H_N@Z 08027430 f i mutableNUMASpace.obj
 0001:000264e0       ?doit@VM_EnableBiasedLocking@@UAEXXZ 080274e0 f i biasedLocking.obj
 0001:00027040       ?doit@VM_BulkRevokeBias@@UAEXXZ 08028040 f i biasedLocking.obj
 0001:000270a0       ?revoke_and_rebias@BiasedLocking@@SA?AW4Condition@1@VHandle@@_NPAVThread@@@Z 080280a0 f   biasedLocking.obj
 0001:00027490       ?revoke_at_safepoint@BiasedLocking@@SAXVHandle@@@Z 08028490 f   biasedLocking.obj
 0001:00027530       ?revoke_at_safepoint@BiasedLocking@@SAXPAV?$GrowableArray@VHandle@@@@@Z 08028530 f   biasedLocking.obj
 0001:00027610       ?doit@VM_RevokeBias@@UAEXXZ 08028610 f i biasedLocking.obj
 0001:000276a0       ?preserve_marks@BiasedLocking@@SAXXZ 080286a0 f   biasedLocking.obj
 0001:00027a00       ?restore_marks@BiasedLocking@@SAXXZ 08028a00 f   biasedLocking.obj
 0001:00027ba0       ?as_TreeChunk@TreeChunk@@SAPAV1@PAVFreeChunk@@@Z 08028ba0 f   binaryTreeDictionary.obj
 0001:00027bb0       ?inc_totalSize@BinaryTreeDictionary@@EAEXI@Z 08028bb0 f   binaryTreeDictionary.obj
 0001:00027bd0       ?dec_totalSize@BinaryTreeDictionary@@EAEXI@Z 08028bd0 f   binaryTreeDictionary.obj
 0001:00027bf0       ?set_head@FreeList@@QAEXPAVFreeChunk@@@Z 08028bf0 f i binaryTreeDictionary.obj
 0001:00027c30       ?link_head@FreeList@@QAEXPAVFreeChunk@@@Z 08028c30 f i binaryTreeDictionary.obj
 0001:00027c90       ?set_tail@FreeList@@QAEXPAVFreeChunk@@@Z 08028c90 f i binaryTreeDictionary.obj
 0001:00027cd0       ?link_tail@FreeList@@QAEXPAVFreeChunk@@@Z 08028cd0 f i binaryTreeDictionary.obj
 0001:00027d30       ?set_hint@FreeList@@QAEXI@Z 08028d30 f i binaryTreeDictionary.obj
 0001:00027d70       ?verifyTreeChunkList@TreeChunk@@QBEXXZ 08028d70 f   binaryTreeDictionary.obj
 0001:00027df0       ?head_as_TreeChunk@TreeList@@IAEPAVTreeChunk@@XZ 08028df0 f   binaryTreeDictionary.obj
 0001:00027e50       ?first_available@TreeList@@IAEPAVTreeChunk@@XZ 08028e50 f   binaryTreeDictionary.obj
 0001:00027ed0       ?largest_address@TreeList@@IAEPAVTreeChunk@@XZ 08028ed0 f   binaryTreeDictionary.obj
 0001:00027f70       ?reset@BinaryTreeDictionary@@UAEXXZ 08028f70 f   binaryTreeDictionary.obj
 0001:00027f80       ?findList@BinaryTreeDictionary@@ABEPAVTreeList@@I@Z 08028f80 f   binaryTreeDictionary.obj
 0001:00027fd0       ?verifyChunkInFreeLists@BinaryTreeDictionary@@UBE_NPAVFreeChunk@@@Z 08028fd0 f   binaryTreeDictionary.obj
 0001:00028000       ?findLargestDict@BinaryTreeDictionary@@UBEPAVFreeChunk@@XZ 08029000 f   binaryTreeDictionary.obj
 0001:00028030       ?maxChunkSize@BinaryTreeDictionary@@UBEIXZ 08029030 f   binaryTreeDictionary.obj
 0001:00028060       ?totalListLength@BinaryTreeDictionary@@ABEIPAVTreeList@@@Z 08029060 f   binaryTreeDictionary.obj
 0001:000280b0       ?totalSizeInTree@BinaryTreeDictionary@@ABEIPAVTreeList@@@Z 080290b0 f   binaryTreeDictionary.obj
 0001:00028110       ?sum_of_squared_block_sizes@BinaryTreeDictionary@@ABENQAVTreeList@@@Z 08029110 f   binaryTreeDictionary.obj
 0001:00028190       ?totalFreeBlocksInTree@BinaryTreeDictionary@@ABEIPAVTreeList@@@Z 08029190 f   binaryTreeDictionary.obj
 0001:000281e0       ?numFreeBlocks@BinaryTreeDictionary@@ABEIXZ 080291e0 f   binaryTreeDictionary.obj
 0001:00028250       ?treeHeightHelper@BinaryTreeDictionary@@ABEIPAVTreeList@@@Z 08029250 f   binaryTreeDictionary.obj
 0001:00028290       ?dictCensusUpdate@BinaryTreeDictionary@@UAEXI_N0@Z 08029290 f   binaryTreeDictionary.obj
 0001:00028330       ?coalDictOverPopulated@BinaryTreeDictionary@@UAE_NI@Z 08029330 f   binaryTreeDictionary.obj
 0001:00028370       ?do_tree@AscendTreeCensusClosure@@UAEXPAVTreeList@@@Z 08029370 f i binaryTreeDictionary.obj
 0001:000283b0       ?do_tree@DescendTreeCensusClosure@@UAEXPAVTreeList@@@Z 080293b0 f i binaryTreeDictionary.obj
 0001:000283f0       ?do_tree@DescendTreeSearchClosure@@UAE_NPAVTreeList@@@Z 080293f0 f i binaryTreeDictionary.obj
 0001:00028440       ?do_list@setTreeHintsClosure@@UAEXPAVFreeList@@@Z 08029440 f i binaryTreeDictionary.obj
 0001:000284c0       ?reportStatistics@BinaryTreeDictionary@@UBEXXZ 080294c0 f   binaryTreeDictionary.obj
 0001:000285a0       ?verifyPrevFreePtrs@BinaryTreeDictionary@@CAIPAVTreeList@@@Z 080295a0 f   binaryTreeDictionary.obj
 0001:00028600       ?verifyTreeHelper@BinaryTreeDictionary@@ABEXPAVTreeList@@@Z 08029600 f   binaryTreeDictionary.obj
 0001:00028850       ?as_TreeList@TreeList@@KAPAV1@PAVTreeChunk@@@Z 08029850 f   binaryTreeDictionary.obj
 0001:000288c0       ?as_TreeList@TreeList@@KAPAV1@PAVHeapWord@@I@Z 080298c0 f   binaryTreeDictionary.obj
 0001:00028970       ?returnChunkAtTail@TreeList@@IAEXPAVTreeChunk@@@Z 08029970 f   binaryTreeDictionary.obj
 0001:00028bb0       ?reportStatistics@FreeBlockDictionary@@UBEXXZ 08029bb0 f i binaryTreeDictionary.obj
 0001:00028bd0       ?reset@BinaryTreeDictionary@@UAEXPAVHeapWord@@I@Z 08029bd0 f   binaryTreeDictionary.obj
 0001:00028c30       ?do_list@InitializeDictReturnedBytesClosure@@UAEXPAVFreeList@@@Z 08029c30 f i binaryTreeDictionary.obj
 0001:00028c50       ?do_list@ReturnedBytesClosure@@UAEXPAVFreeList@@@Z 08029c50 f i binaryTreeDictionary.obj
 0001:00028c60       ?sumDictReturnedBytes@BinaryTreeDictionary@@UAEIXZ 08029c60 f   binaryTreeDictionary.obj
 0001:00028cb0       ?do_list@treeCountClosure@@UAEXPAVFreeList@@@Z 08029cb0 f i binaryTreeDictionary.obj
 0001:00028cb0       ?do_thread@GcThreadCountClosure@@UAEXPAVThread@@@Z 08029cb0 f i memoryService.obj
 0001:00028cc0       ?totalCount@BinaryTreeDictionary@@UAEIXZ 08029cc0 f   binaryTreeDictionary.obj
 0001:00028d10       ?do_list@setTreeSurplusClosure@@UAEXPAVFreeList@@@Z 08029d10 f i binaryTreeDictionary.obj
 0001:00028d50       ?do_list@clearTreeCensusClosure@@EAEXPAVFreeList@@@Z 08029d50 f i binaryTreeDictionary.obj
 0001:00028dc0       ?do_list@PrintTreeCensusClosure@@UAEXPAVFreeList@@@Z 08029dc0 f i binaryTreeDictionary.obj
 0001:00028f70       ?printDictCensus@BinaryTreeDictionary@@UBEXXZ 08029f70 f   binaryTreeDictionary.obj
 0001:00029090       ?do_list@PrintFreeListsClosure@@UAEXPAVFreeList@@@Z 0802a090 f i binaryTreeDictionary.obj
 0001:00029130       ?cantCoalesce@FreeChunk@@QBE_NXZ 0802a130 f i binaryTreeDictionary.obj
 0001:00029160       ?print_free_lists@BinaryTreeDictionary@@UBEXPAVoutputStream@@@Z 0802a160 f   binaryTreeDictionary.obj
 0001:000291c0       ?verifyTree@BinaryTreeDictionary@@QBEXXZ 0802a1c0 f   binaryTreeDictionary.obj
 0001:00029230       ?verify@BinaryTreeDictionary@@UBEXXZ 0802a230 f   binaryTreeDictionary.obj
 0001:00029270       ??0BinaryTreeDictionary@@QAE@VMemRegion@@_N@Z 0802a270 f   binaryTreeDictionary.obj
 0001:000293e0       ?totalChunkSize@BinaryTreeDictionary@@UBEIPBVMutex@@@Z 0802a3e0 f i binaryTreeDictionary.obj
 0001:00029430       ?sum_of_squared_block_sizes@BinaryTreeDictionary@@UBENXZ 0802a430 f i binaryTreeDictionary.obj
 0001:00029440       ?removeTreeMinimum@BinaryTreeDictionary@@AAEPAVTreeList@@PAV2@@Z 0802a440 f   binaryTreeDictionary.obj
 0001:00029500       ?insertChunkInTree@BinaryTreeDictionary@@AAEXPAVFreeChunk@@@Z 0802a500 f   binaryTreeDictionary.obj
 0001:000296e0       ?do_list@BeginSweepClosure@@UAEXPAVFreeList@@@Z 0802a6e0 f i binaryTreeDictionary.obj
 0001:00029780       ?compute_desired@AllocationStats@@QAEXIMMM@Z 0802a780 f i binaryTreeDictionary.obj
 0001:00029860       ?do_list@EndTreeSearchClosure@@UAE_NPAVFreeList@@@Z 0802a860 f i binaryTreeDictionary.obj
 0001:000298b0       ?find_chunk_ends_at@BinaryTreeDictionary@@UBEPAVFreeChunk@@PAVHeapWord@@@Z 0802a8b0 f   binaryTreeDictionary.obj
 0001:00029960       ?beginSweepDictCensus@BinaryTreeDictionary@@UAEXNMMM@Z 0802a960 f   binaryTreeDictionary.obj
 0001:000299c0       ?initializeDictReturnedBytes@BinaryTreeDictionary@@UAEXXZ 0802a9c0 f   binaryTreeDictionary.obj
 0001:00029a00       ?endSweepDictCensus@BinaryTreeDictionary@@UAEXN@Z 0802aa00 f   binaryTreeDictionary.obj
 0001:00029ad0       ?returnChunk@BinaryTreeDictionary@@UAEXPAVFreeChunk@@@Z 0802aad0 f i binaryTreeDictionary.obj
 0001:00029af0       ??4AllocationStats@@QAEAAV0@ABV0@@Z 0802aaf0 f i binaryTreeDictionary.obj
 0001:00029b70       ??4FreeList@@QAEAAV0@ABV0@@Z 0802ab70 f i binaryTreeDictionary.obj
 0001:00029bd0       ?removeChunkReplaceIfNeeded@TreeList@@IAEPAV1@PAVTreeChunk@@@Z 0802abd0 f   binaryTreeDictionary.obj
 0001:0002a0d0       ?removeChunkFromTree@BinaryTreeDictionary@@AAEPAVTreeChunk@@PAV2@@Z 0802b0d0 f   binaryTreeDictionary.obj
 0001:0002a560       ?removeChunk@BinaryTreeDictionary@@UAEXPAVFreeChunk@@@Z 0802b560 f i binaryTreeDictionary.obj
 0001:0002a5a0       ?getChunkFromTree@BinaryTreeDictionary@@AAEPAVTreeChunk@@IW4Dither@FreeBlockDictionary@@_N@Z 0802b5a0 f   binaryTreeDictionary.obj
 0001:0002a820       ?getChunk@BinaryTreeDictionary@@UAEPAVFreeChunk@@IW4Dither@FreeBlockDictionary@@@Z 0802b820 f i binaryTreeDictionary.obj
 0001:0002a880       ??0BitMap@@QAE@PAII@Z      0802b880 f   bitMap.obj
 0001:0002a8a0       ??0BitMap2D@@QAE@PAIII@Z   0802b8a0 f   bitMap.obj
 0001:0002a8c0       ?par_set_bit@BitMap@@QAE_NI@Z 0802b8c0 f i bitMap.obj
 0001:0002a980       ?par_clear_bit@BitMap@@QAE_NI@Z 0802b980 f i bitMap.obj
 0001:0002aa40       ?inverted_bit_mask_for_range@BitMap@@IBEIII@Z 0802ba40 f i bitMap.obj
 0001:0002aac0       ?assert_params_ok@Copy@@CAXPAX0H@Z 0802bac0 f i bitMap.obj
 0001:0002ab20       ?par_put_range_within_word@BitMap@@IAEXII_N@Z 0802bb20 f   bitMap.obj
 0001:0002ac00       ?set_range@BitMap@@QAEXII@Z 0802bc00 f   bitMap.obj
 0001:0002ad10       ?clear_range@BitMap@@QAEXII@Z 0802bd10 f   bitMap.obj
 0001:0002ae10       ?clear_large_range@BitMap@@QAEXII@Z 0802be10 f   bitMap.obj
 0001:0002aef0       ?mostly_disjoint_range_union@BitMap@@QAEXPAV1@III@Z 0802bef0 f   bitMap.obj
 0001:0002b0e0       ?at_put@BitMap@@QAEXI_N@Z  0802c0e0 f   bitMap.obj
 0001:0002b110       ?par_at_put@BitMap@@QAE_NI_N@Z 0802c110 f   bitMap.obj
 0001:0002b140       ?at_put_range@BitMap@@QAEXII_N@Z 0802c140 f   bitMap.obj
 0001:0002b170       ?par_at_put_range@BitMap@@QAEXII_N@Z 0802c170 f   bitMap.obj
 0001:0002b270       ?set_union@BitMap@@QAEXV1@@Z 0802c270 f   bitMap.obj
 0001:0002b2d0       ?set_difference@BitMap@@QAEXV1@@Z 0802c2d0 f   bitMap.obj
 0001:0002b340       ?set_intersection@BitMap@@QAEXV1@@Z 0802c340 f   bitMap.obj
 0001:0002b390       ?set_intersection_at_offset@BitMap@@QAEXV1@I@Z 0802c390 f   bitMap.obj
 0001:0002b430       ?set_union_with_result@BitMap@@QAE_NV1@@Z 0802c430 f   bitMap.obj
 0001:0002b4a0       ?set_intersection_with_result@BitMap@@QAE_NV1@@Z 0802c4a0 f   bitMap.obj
 0001:0002b500       ?set_from@BitMap@@QAEXV1@@Z 0802c500 f   bitMap.obj
 0001:0002b550       ?is_same@BitMap@@QAE_NV1@@Z 0802c550 f   bitMap.obj
 0001:0002b5b0       ?clear_large@BitMap@@QAEXXZ 0802c5b0 f   bitMap.obj
 0001:0002b5e0       ?iterate@BitMap@@QAE_NPAVBitMapClosure@@II@Z 0802c5e0 f   bitMap.obj
 0001:0002b6c0       ?init_pop_count_table@BitMap@@KAXXZ 0802c6c0 f   bitMap.obj
 0001:0002b7e0       ?count_one_bits@BitMap@@QBEIXZ 0802c7e0 f   bitMap.obj
 0001:0002b870       ?disjoint_words@Copy@@SAXPAVHeapWord@@0I@Z 0802c870 f i bitMap.obj
 0001:0002b8e0       ?resize@BitMap@@QAEXI_N@Z  0802c8e0 f   bitMap.obj
 0001:0002b9e0       ?at_put_grow@BitMap@@AAEXI_N@Z 0802c9e0 f   bitMap.obj
 0001:0002ba20       ?print_on@BitMap@@QBEXPAVoutputStream@@@Z 0802ca20 f   bitMap.obj
 0001:0002bab0       ??0BitMap@@QAE@I_N@Z       0802cab0 f   bitMap.obj
 0001:0002bae0       ??0BitMap2D@@QAE@II@Z      0802cae0 f   bitMap.obj
 0001:0002bb10       ?verify_not_unallocated@BlockOffsetArrayNonContigSpace@@QBEXPAVHeapWord@@0@Z 0802cb10 f   blockOffsetTable.obj
 0001:0002bb70       ?verify_not_unallocated@BlockOffsetArrayNonContigSpace@@QBEXPAVHeapWord@@I@Z 0802cb70 f   blockOffsetTable.obj
 0001:0002bb90       ?serialize@BlockOffsetArrayContigSpace@@QAEXPAVSerializeOopClosure@@@Z 0802cb90 f   blockOffsetTable.obj
 0001:0002bbd0       ?last_active_index@BlockOffsetArrayContigSpace@@UBEIXZ 0802cbd0 f   blockOffsetTable.obj
 0001:0002bbe0       ?set_bottom@BlockOffsetTable@@UAEXPAVHeapWord@@@Z 0802cbe0 f i blockOffsetTable.obj
 0001:0002bc20       ?offset_array@BlockOffsetSharedArray@@IBEEI@Z 0802cc20 f i blockOffsetTable.obj
 0001:0002bc70       ?set_offset_array@BlockOffsetSharedArray@@IAEXIPAVHeapWord@@0@Z 0802cc70 f i blockOffsetTable.obj
 0001:0002bd00       ?set_offset_array@BlockOffsetSharedArray@@IAEXIIE@Z 0802cd00 f i blockOffsetTable.obj
 0001:0002bd80       ?check_offset_array@BlockOffsetSharedArray@@IBEXIPAVHeapWord@@0@Z 0802cd80 f i blockOffsetTable.obj
 0001:0002be30       ?index_for@BlockOffsetSharedArray@@QBEIPBX@Z 0802ce30 f i blockOffsetTable.obj
 0001:0002be90       ?address_for_index@BlockOffsetSharedArray@@QBEPAVHeapWord@@I@Z 0802ce90 f i blockOffsetTable.obj
 0001:0002bf00       ?resize@BlockOffsetSharedArray@@QAEXI@Z 0802cf00 f   blockOffsetTable.obj
 0001:0002c010       ?is_card_boundary@BlockOffsetSharedArray@@IBE_NPAVHeapWord@@@Z 0802d010 f   blockOffsetTable.obj
 0001:0002c050       ?serialize@BlockOffsetSharedArray@@QAEXPAVSerializeOopClosure@@PAVHeapWord@@1@Z 0802d050 f   blockOffsetTable.obj
 0001:0002c0d0       ?check_all_cards@BlockOffsetArray@@QBEXII@Z 0802d0d0 f   blockOffsetTable.obj
 0001:0002c2d0       ?block_start_unsafe@BlockOffsetArrayNonContigSpace@@UBEPAVHeapWord@@PBX@Z 0802d2d0 f   blockOffsetTable.obj
 0001:0002c4e0       ?block_start_careful@BlockOffsetArrayNonContigSpace@@QBEPAVHeapWord@@PBX@Z 0802d4e0 f   blockOffsetTable.obj
 0001:0002c690       ?last_active_index@BlockOffsetArrayNonContigSpace@@UBEIXZ 0802d690 f   blockOffsetTable.obj
 0001:0002c6b0       ?block_start_unsafe@BlockOffsetArrayContigSpace@@UBEPAVHeapWord@@PBX@Z 0802d6b0 f   blockOffsetTable.obj
 0001:0002c900       ?initialize_threshold@BlockOffsetArrayContigSpace@@QAEPAVHeapWord@@XZ 0802d900 f   blockOffsetTable.obj
 0001:0002c960       ?is_oop@oopDesc@@QBE_N_N@Z 0802d960 f i blockOffsetTable.obj
 0001:0002ca20       ??0BlockOffsetSharedArray@@QAE@VMemRegion@@I@Z 0802da20 f   blockOffsetTable.obj
 0001:0002cb30       ?set_remainder_to_point_to_start_incl@BlockOffsetArray@@IAEXII@Z 0802db30 f   blockOffsetTable.obj
 0001:0002cc50       ?verify@BlockOffsetArray@@QBEXXZ 0802dc50 f   blockOffsetTable.obj
 0001:0002cd60       ?set_remainder_to_point_to_start@BlockOffsetArray@@IAEXPAVHeapWord@@0@Z 0802dd60 f   blockOffsetTable.obj
 0001:0002ce00       ?do_block_internal@BlockOffsetArray@@IAEXPAVHeapWord@@0W4Action@1@@Z 0802de00 f   blockOffsetTable.obj
 0001:0002cfc0       ?single_block@BlockOffsetArray@@QAEXPAVHeapWord@@0@Z 0802dfc0 f   blockOffsetTable.obj
 0001:0002cfe0       ?mark_block@BlockOffsetArrayNonContigSpace@@QAEXPAVHeapWord@@0@Z 0802dfe0 f   blockOffsetTable.obj
 0001:0002d000       ?verify_single_block@BlockOffsetArrayNonContigSpace@@QAEXPAVHeapWord@@0@Z 0802e000 f   blockOffsetTable.obj
 0001:0002d020       ?verify_single_block@BlockOffsetArrayNonContigSpace@@QAEXPAVHeapWord@@I@Z 0802e020 f   blockOffsetTable.obj
 0001:0002d050       ?alloc_block_work@BlockOffsetArrayContigSpace@@AAEXPAVHeapWord@@0@Z 0802e050 f   blockOffsetTable.obj
 0001:0002d330       ??0BlockOffsetArray@@QAE@PAVBlockOffsetSharedArray@@VMemRegion@@_N@Z 0802e330 f   blockOffsetTable.obj
 0001:0002d3f0       ?resize@BlockOffsetArray@@UAEXI@Z 0802e3f0 f i blockOffsetTable.obj
 0001:0002d480       ?set_offset_array@BlockOffsetSharedArray@@IAEXPAVHeapWord@@0E@Z 0802e480 f i blockOffsetTable.obj
 0001:0002d520       ?alloc_block@BlockOffsetArray@@UAEXPAVHeapWord@@0@Z 0802e520 f   blockOffsetTable.obj
 0001:0002d560       ?alloc_block@BlockOffsetArrayNonContigSpace@@UAEXPAVHeapWord@@0@Z 0802e560 f   blockOffsetTable.obj
 0001:0002d5d0       ?split_block@BlockOffsetArrayNonContigSpace@@QAEXPAVHeapWord@@II@Z 0802e5d0 f   blockOffsetTable.obj
 0001:0002d870       ?do_bool@SignatureInfo@@MAEXXZ 0802e870 f i bytecode.obj
 0001:0002d880       ?do_char@SignatureInfo@@MAEXXZ 0802e880 f i bytecode.obj
 0001:0002d890       ?do_float@SignatureInfo@@MAEXXZ 0802e890 f i bytecode.obj
 0001:0002d8a0       ?do_double@SignatureInfo@@MAEXXZ 0802e8a0 f i bytecode.obj
 0001:0002d8b0       ?do_byte@SignatureInfo@@MAEXXZ 0802e8b0 f i bytecode.obj
 0001:0002d8c0       ?do_short@SignatureInfo@@MAEXXZ 0802e8c0 f i bytecode.obj
 0001:0002d8d0       ?do_int@SignatureInfo@@MAEXXZ 0802e8d0 f i bytecode.obj
 0001:0002d8e0       ?do_long@SignatureInfo@@MAEXXZ 0802e8e0 f i bytecode.obj
 0001:0002d8f0       ?do_void@SignatureInfo@@MAEXXZ 0802e8f0 f i bytecode.obj
 0001:0002d900       ?do_object@SignatureInfo@@MAEXHH@Z 0802e900 f i bytecode.obj
 0001:0002d910       ?do_array@SignatureInfo@@MAEXHH@Z 0802e910 f i bytecode.obj
 0001:0002d920       ??0ResultTypeFinder@@QAE@VsymbolHandle@@@Z 0802e920 f i bytecode.obj
 0001:0002d950       ?set@ResultTypeFinder@@EAEXHW4BasicType@@@Z 0802e950 f i bytecode.obj
 0001:0002d960       ?code@Bytecode_invoke@@QBE?AW4Code@Bytecodes@@XZ 0802e960 f i bytecode.obj
 0001:0002d9c0       ?dest_offset_at@Bytecode_tableswitch@@QBEHH@Z 0802e9c0 f   bytecode.obj
 0001:0002da00       ?index@Bytecode_field@@QBEHXZ 0802ea00 f   bytecode.obj
 0001:0002da10       ?is_symbol@oopDesc@@QBE_NXZ 0802ea10 f i bytecode.obj
 0001:0002da20       ?is_invokevirtual@Bytecode_invoke@@QBE_NXZ 0802ea20 f i bytecode.obj
 0001:0002da70       ?is_invokestatic@Bytecode_invoke@@QBE_NXZ 0802ea70 f i bytecode.obj
 0001:0002dac0       ?is_invokespecial@Bytecode_invoke@@QBE_NXZ 0802eac0 f i bytecode.obj
 0001:0002db10       ?is_invokedynamic@Bytecode_invoke@@QBE_NXZ 0802eb10 f i bytecode.obj
 0001:0002db60       ?is_valid@Bytecode_invoke@@QBE_NXZ 0802eb60 f i bytecode.obj
 0001:0002dbe0       ?set_code@Bytecode@@QAEXW4Code@Bytecodes@@@Z 0802ebe0 f   bytecode.obj
 0001:0002dc30       ?verify@Bytecode_invoke@@QBEXXZ 0802ec30 f   bytecode.obj
 0001:0002dc90       ?index@Bytecode_invoke@@QBEHXZ 0802ec90 f   bytecode.obj
 0001:0002dd50       ?verify@Bytecode_field@@QBEXXZ 0802ed50 f   bytecode.obj
 0001:0002dde0       ?index@Bytecode_loadconstant@@QBEHXZ 0802ede0 f   bytecode.obj
 0001:0002de50       ?verify@Bytecode_lookupswitch@@QBEXXZ 0802ee50 f   bytecode.obj
 0001:0002e020       ?verify@Bytecode_tableswitch@@QBEXXZ 0802f020 f   bytecode.obj
 0001:0002e100       ??0constantPoolHandle@@QAE@PAVThread@@PAVconstantPoolOopDesc@@@Z 0802f100 f i bytecode.obj
 0001:0002e160       ??0symbolHandle@@QAE@PAVThread@@PAVsymbolOopDesc@@@Z 0802f160 f i bytecode.obj
 0001:0002e1c0       ?signature@Bytecode_invoke@@QBEPAVsymbolOopDesc@@XZ 0802f1c0 f   bytecode.obj
 0001:0002e200       ?name@Bytecode_invoke@@QBEPAVsymbolOopDesc@@XZ 0802f200 f   bytecode.obj
 0001:0002e240       ?result_type@Bytecode_invoke@@QBE?AW4BasicType@@PAVThread@@@Z 0802f240 f   bytecode.obj
 0001:0002e2e0       ?static_target@Bytecode_invoke@@QAE?AVmethodHandle@@PAVThread@@@Z 0802f2e0 f   bytecode.obj
 0001:0002e430       ?reset@BytecodeCounter@@SAXXZ 0802f430 f   bytecodeHistogram.obj
 0001:0002e450       ?compare@HistoEntry@@SAHPAPAV1@0@Z 0802f450 f i bytecodeHistogram.obj
 0001:0002e470       ?reset@BytecodeHistogram@@SAXXZ 0802f470 f   bytecodeHistogram.obj
 0001:0002e4a0       ?reset@BytecodePairHistogram@@SAXXZ 0802f4a0 f   bytecodeHistogram.obj
 0001:0002e4d0       ?print@BytecodeCounter@@SAXXZ 0802f4d0 f   bytecodeHistogram.obj
 0001:0002e5c0       ?name@Bytecodes@@SAPBDW4Code@1@@Z 0802f5c0 f i bytecodeHistogram.obj
 0001:0002e6a0       ?print@BytecodeHistogram@@SAXM@Z 0802f6a0 f   bytecodeHistogram.obj
 0001:0002e860       ?print@BytecodePairHistogram@@SAXM@Z 0802f860 f   bytecodeHistogram.obj
 0001:0002ea70       ?bcp@RawBytecodeStream@@QBEPAEXZ 0802fa70 f i bytecodeStream.obj
 0001:0002eaa0       ?raw_next_special@RawBytecodeStream@@QAE?AW4Code@Bytecodes@@W423@@Z 0802faa0 f   bytecodeStream.obj
 0001:0002eb90       ?std_closure@BytecodeTracer@@SAPAVBytecodeClosure@@XZ 0802fb90 f   bytecodeTracer.obj
 0001:0002eba0       ?type2name@@YAPBDW4BasicType@@@Z 0802fba0 f i bytecodeTracer.obj
 0001:0002ebc0       ?is_unresolved_klass@constantTag@@QBE_NXZ 0802fbc0 f i bytecodeTracer.obj
 0001:0002ebe0       ?constant_pool_index@ConstantPoolCacheEntry@@QBEHXZ 0802fbe0 f i bytecodeTracer.obj
 0001:0002ec10       ?main_entry_index@ConstantPoolCacheEntry@@QBEHXZ 0802fc10 f i bytecodeTracer.obj
 0001:0002ec40       ?is_within_bounds@constantPoolOopDesc@@QBE_NH@Z 0802fc40 f i bytecodeTracer.obj
 0001:0002ec60       ?print_oop@@YAXPAVoopDesc@@PAVoutputStream@@@Z 0802fc60 f   bytecodeTracer.obj
 0001:0002ed40       ?bytecode_epilog@BytecodePrinter@@AAEXHPAVoutputStream@@@Z 0802fd40 f   bytecodeTracer.obj
 0001:0002eda0       ?entry_at@constantPoolCacheOopDesc@@QBEPAVConstantPoolCacheEntry@@H@Z 0802fda0 f i bytecodeTracer.obj
 0001:0002ede0       ?obj_at_addr@constantPoolOopDesc@@ABEPAPAVoopDesc@@H@Z 0802fde0 f i bytecodeTracer.obj
 0001:0002ee20       ?get_short@BytecodePrinter@@AAEFXZ 0802fe20 f i bytecodeTracer.obj
 0001:0002ee40       ?get_big_index@BytecodePrinter@@AAEHXZ 0802fe40 f i bytecodeTracer.obj
 0001:0002ee60       ?get_index_special@BytecodePrinter@@AAEHXZ 0802fe60 f i bytecodeTracer.obj
 0001:0002eea0       ?trace@BytecodeTracer@@SAXVmethodHandle@@PAEIIPAVoutputStream@@@Z 0802fea0 f   bytecodeTracer.obj
 0001:0002eef0       ?trace@BytecodeTracer@@SAXVmethodHandle@@PAEPAVoutputStream@@@Z 0802fef0 f   bytecodeTracer.obj
 0001:0002ef20       ?check_index@BytecodePrinter@@AAE_NH_NAAHPAVoutputStream@@@Z 0802ff20 f   bytecodeTracer.obj
 0001:0002f0a0       ?tag_at@constantPoolOopDesc@@QBE?AVconstantTag@@H@Z 080300a0 f i bytecodeTracer.obj
 0001:0002f0f0       ?resolved_klass_at@constantPoolOopDesc@@QAEPAVklassOopDesc@@H@Z 080300f0 f i bytecodeTracer.obj
 0001:0002f180       ?int_at@constantPoolOopDesc@@QAEHH@Z 08030180 f i bytecodeTracer.obj
 0001:0002f210       ?long_at@constantPoolOopDesc@@QAE_JH@Z 08030210 f i bytecodeTracer.obj
 0001:0002f280       ?float_at@constantPoolOopDesc@@QAEMH@Z 08030280 f i bytecodeTracer.obj
 0001:0002f310       ?double_at@constantPoolOopDesc@@QAENH@Z 08030310 f i bytecodeTracer.obj
 0001:0002f390       ?object_at@constantPoolOopDesc@@QAEPAVoopDesc@@H@Z 08030390 f i bytecodeTracer.obj
 0001:0002f420       ?resolved_string_at@constantPoolOopDesc@@QAEPAVoopDesc@@H@Z 08030420 f i bytecodeTracer.obj
 0001:0002f4b0       ?print_constant@BytecodePrinter@@AAEXHPAVoutputStream@@@Z 080304b0 f   bytecodeTracer.obj
 0001:0002f6b0       ?print_field_or_method@BytecodePrinter@@AAEXHPAVoutputStream@@@Z 080306b0 f   bytecodeTracer.obj
 0001:0002f780       ?print_attributes@BytecodePrinter@@AAEXW4Code@Bytecodes@@HPAVoutputStream@@@Z 08030780 f   bytecodeTracer.obj
 0001:0002fe00       ?trace@BytecodePrinter@@UAEXVmethodHandle@@PAEIIPAVoutputStream@@@Z 08030e00 f i bytecodeTracer.obj
 0001:0002ff70       ?trace@BytecodePrinter@@UAEXVmethodHandle@@PAEPAVoutputStream@@@Z 08030f70 f i bytecodeTracer.obj
 0001:000300a0       ?non_breakpoint_code_at@Bytecodes@@SA?AW4Code@1@PAEPAVmethodOopDesc@@@Z 080310a0 f   bytecodes.obj
 0001:000300d0       ?def@Bytecodes@@CAXW4Code@1@PBD11W4BasicType@@H_N0@Z 080310d0 f   bytecodes.obj
 0001:00030170       ?wide_length_for@Bytecodes@@SAHW4Code@1@@Z 08031170 f i bytecodes.obj
 0001:000301b0       ?code_at@Bytecodes@@SA?AW4Code@1@PAVmethodOopDesc@@H@Z 080311b0 f   bytecodes.obj
 0001:00030200       ?can_trap@Bytecodes@@SA_NW4Code@1@@Z 08031200 f i bytecodes.obj
 0001:00030240       ?special_length_at@Bytecodes@@SAHPAE0@Z 08031240 f   bytecodes.obj
 0001:00030410       ?raw_special_length_at@Bytecodes@@SAHPAE0@Z 08031410 f   bytecodes.obj
 0001:00030440       ?initialize@Bytecodes@@SAXXZ 08031440 f   bytecodes.obj
 0001:00032800       ?bytecodes_init@@YAXXZ     08033800 f   bytecodes.obj
 0001:00032810       ?subst@Instruction@@QAEPAV1@XZ 08033810 f i c1_CFGPrinter.obj
 0001:00032820       ?print@CFGPrinterOutput@@AAAXPBDZZ 08033820 f   c1_CFGPrinter.obj
 0001:00032880       ?print_begin@CFGPrinterOutput@@AAEXPBD@Z 08033880 f   c1_CFGPrinter.obj
 0001:00032930       ?print_end@CFGPrinterOutput@@AAEXPBD@Z 08033930 f   c1_CFGPrinter.obj
 0001:000329e0       ?size@ValueType@@QBEHXZ    080339e0 f i c1_CFGPrinter.obj
 0001:00032a10       ??AValueArray@@QBEAAPAVInstruction@@H@Z 08033a10 f i c1_CFGPrinter.obj
 0001:00032a50       ?at@ValueArray@@QBEPAVInstruction@@H@Z 08033a50 f i c1_CFGPrinter.obj
 0001:00032a90       ?at@BlockBeginArray@@QBEPAVBlockBegin@@H@Z 08033a90 f i c1_CFGPrinter.obj
 0001:00032ad0       ?sux_at@BlockEnd@@QBEPAVBlockBegin@@H@Z 08033ad0 f i c1_CFGPrinter.obj
 0001:00032b20       ?number_of_sux@BlockBegin@@QBEHXZ 08033b20 f i c1_CFGPrinter.obj
 0001:00032b60       ?sux_at@BlockBegin@@QBEPAV1@H@Z 08033b60 f i c1_CFGPrinter.obj
 0001:00032c20       ?at@IntervalArray@@QBEPAVInterval@@H@Z 08033c20 f i c1_CFGPrinter.obj
 0001:00032c60       ?local_at@ValueStack@@QBEPAVInstruction@@H@Z 08033c60 f i c1_CFGPrinter.obj
 0001:00032ca0       ?stack_at@ValueStack@@QBEPAVInstruction@@H@Z 08033ca0 f i c1_CFGPrinter.obj
 0001:00032d70       ?lock_at@ValueStack@@QBEPAVInstruction@@H@Z 08033d70 f i c1_CFGPrinter.obj
 0001:00032db0       ?print_compilation@CFGPrinterOutput@@QAEXXZ 08033db0 f   c1_CFGPrinter.obj
 0001:00032e70       ?print_LIR@CFGPrinterOutput@@QAEXPAVBlockBegin@@@Z 08033e70 f   c1_CFGPrinter.obj
 0001:00032f50       ?print_cfg@CFGPrinterOutput@@QAEXPAVIR@@PBD@Z 08033f50 f   c1_CFGPrinter.obj
 0001:00032fc0       ?print_intervals@CFGPrinterOutput@@QAEXPAVIntervalList@@PBD@Z 08033fc0 f   c1_CFGPrinter.obj
 0001:000330d0       ?is_virtual@LIR_OprDesc@@QBE_NXZ 080340d0 f i c1_CFGPrinter.obj
 0001:00033110       ?print_compilation@CFGPrinter@@SAXPAVCompilation@@@Z 08034110 f   c1_CFGPrinter.obj
 0001:000331a0       ?print_cfg@CFGPrinter@@SAXPAVIR@@PBD_N2@Z 080341a0 f   c1_CFGPrinter.obj
 0001:00033210       ?print_intervals@CFGPrinter@@SAXPAVIntervalList@@PBD@Z 08034210 f   c1_CFGPrinter.obj
 0001:00033250       ?print_operand@CFGPrinterOutput@@QAEXPAVInstruction@@@Z 08034250 f   c1_CFGPrinter.obj
 0001:00033320       ?print_HIR@CFGPrinterOutput@@QAEXPAVInstruction@@@Z 08034320 f   c1_CFGPrinter.obj
 0001:00033450       ?print_cfg@CFGPrinterOutput@@QAEXPAVBlockList@@PBD@Z 08034450 f   c1_CFGPrinter.obj
 0001:000334c0       ?print_cfg@CFGPrinter@@SAXPAVBlockList@@PBD_N2@Z 080344c0 f   c1_CFGPrinter.obj
 0001:00033530       ?print_state@CFGPrinterOutput@@QAEXPAVBlockBegin@@@Z 08034530 f   c1_CFGPrinter.obj
 0001:00033860       ?print_block@CFGPrinterOutput@@QAEXPAVBlockBegin@@@Z 08034860 f   c1_CFGPrinter.obj
 0001:00033ef0       ?block_do@PrintBlockClosure@CFGPrinterOutput@@EAEXPAVBlockBegin@@@Z 08034ef0 f i c1_CFGPrinter.obj
 0001:00033f60       ?g_isnan@@YAHM@Z           08034f60 f i c1_Canonicalizer.obj
 0001:00033f80       ?g_isnan@@YAHN@Z           08034f80 f i c1_Canonicalizer.obj
 0001:00033fa0       ?swap_operands@Op2@@QAEXXZ 08034fa0 f i c1_Canonicalizer.obj
 0001:00033ff0       ?move_const_to_right@Canonicalizer@@AAEXPAVOp2@@@Z 08034ff0 f   c1_Canonicalizer.obj
 0001:00034090       ?do_IfOp@Canonicalizer@@UAEXPAVIfOp@@@Z 08035090 f   c1_Canonicalizer.obj
 0001:00034180       ?do_NewInstance@Canonicalizer@@UAEXPAVNewInstance@@@Z 08035180 f   c1_Canonicalizer.obj
 0001:00034180       ?do_ProfileCounter@NullCheckVisitor@@UAEXPAVProfileCounter@@@Z 08035180 f   c1_Optimizer.obj
 0001:00034180       ?do_Base@NullCheckVisitor@@UAEXPAVBase@@@Z 08035180 f   c1_Optimizer.obj
 0001:00034180       ?oop_iterate@ProfileData@@UAEXPAVOopClosure@@@Z 08035180 f   ciMethodData.obj
 0001:00034180       ?do_RoundFP@Canonicalizer@@UAEXPAVRoundFP@@@Z 08035180 f   c1_Canonicalizer.obj
 0001:00034180       ?do_UnsafeGetObject@Canonicalizer@@UAEXPAVUnsafeGetObject@@@Z 08035180 f   c1_Canonicalizer.obj
 0001:00034180       ?do_InstanceOf@NullCheckVisitor@@UAEXPAVInstanceOf@@@Z 08035180 f   c1_Optimizer.obj
 0001:00034180       ?do_IfInstanceOf@NullCheckVisitor@@UAEXPAVIfInstanceOf@@@Z 08035180 f   c1_Optimizer.obj
 0001:00034180       ?do_UnsafePrefetchWrite@NullCheckVisitor@@UAEXPAVUnsafePrefetchWrite@@@Z 08035180 f   c1_Optimizer.obj
 0001:00034180       ?do_OsrEntry@NullCheckVisitor@@UAEXPAVOsrEntry@@@Z 08035180 f   c1_Optimizer.obj
 0001:00034180       ?do_BlockBegin@Canonicalizer@@UAEXPAVBlockBegin@@@Z 08035180 f   c1_Canonicalizer.obj
 0001:00034180       ?fill_stackmap_prolog@OopMapForCacheEntry@@EAEXH@Z 08035180 f   oopMapCache.obj
 0001:00034180       ?do_ProfileCall@ValueNumberingVisitor@@MAEXPAVProfileCall@@@Z 08035180 f   c1_GraphBuilder.obj
 0001:00034180       ?other_values_do@UnsafeOp@@UAEXP6AXPAPAVInstruction@@@Z@Z 08035180 f   c1_GraphBuilder.obj
 0001:00034180       ?stub_prolog@StubCodeGenerator@@UAEXPAVStubCodeDesc@@@Z 08035180 f   stubCodeGenerator.obj
 0001:00034180       ?print_impl@ciMethodData@@EAEXPAVoutputStream@@@Z 08035180 f   ciMethodData.obj
 0001:00034180       ?do_IfOp@NullCheckVisitor@@UAEXPAVIfOp@@@Z 08035180 f   c1_Optimizer.obj
 0001:00034180       ?initialize@typeArrayKlass@@UAEXPAVThread@@@Z 08035180 f   typeArrayKlass.obj
 0001:00034180       ?do_code_blob@AdjustPointerClosure@PSParallelCompact@@UBEXPAVCodeBlob@@@Z 08035180 f   psParallelCompact.obj
 0001:00034180       ?do_Constant@Canonicalizer@@UAEXPAVConstant@@@Z 08035180 f   c1_Canonicalizer.obj
 0001:00034180       ?do_Constant@ValueNumberingVisitor@@MAEXPAVConstant@@@Z 08035180 f   c1_GraphBuilder.obj
 0001:00034180       ?do_IfInstanceOf@ValueNumberingVisitor@@MAEXPAVIfInstanceOf@@@Z 08035180 f   c1_GraphBuilder.obj
 0001:00034180       ?set_lock_stack@Instruction@@UAEXPAVValueStack@@@Z 08035180 f   c1_Canonicalizer.obj
 0001:00034180       ?follow_contents@ProfileData@@UAEXPAVParCompactionManager@@@Z 08035180 f   ciMethodData.obj
 0001:00034180       ?verify@ConstantPoolCacheEntry@@QBEXPAVoutputStream@@@Z 08035180 f   cpCacheOop.obj
 0001:00034180       ?do_Constant@NullCheckVisitor@@UAEXPAVConstant@@@Z 08035180 f   c1_Optimizer.obj
 0001:00034180       ?do_ProfileCounter@Canonicalizer@@UAEXPAVProfileCounter@@@Z 08035180 f   c1_Canonicalizer.obj
 0001:00034180       ?do_ShiftOp@NullCheckVisitor@@UAEXPAVShiftOp@@@Z 08035180 f   c1_Optimizer.obj
 0001:00034180       ?input_values_do@StateSplit@@UAEXP6AXPAPAVInstruction@@@Z@Z 08035180 f   c1_Canonicalizer.obj
 0001:00034180       ?do_UnsafePrefetchRead@NullCheckVisitor@@UAEXPAVUnsafePrefetchRead@@@Z 08035180 f   c1_Optimizer.obj
 0001:00034180       ?oops_do@BufferBlob@@UAEXPAVOopClosure@@@Z 08035180 f   codeBlob.obj
 0001:00034180       ?oops_do@unknown_compiledNode@@UAEXPAVOopClosure@@@Z 08035180 f   fprofiler.obj
 0001:00034180       ?do_LookupSwitch@ValueNumberingVisitor@@MAEXPAVLookupSwitch@@@Z 08035180 f   c1_GraphBuilder.obj
 0001:00034180       ?pack_data_to@Relocation@@UAEXPAVCodeSection@@@Z 08035180 f   assembler_windows_x86.obj
 0001:00034180       ?do_NewMultiArray@Canonicalizer@@UAEXPAVNewMultiArray@@@Z 08035180 f   c1_Canonicalizer.obj
 0001:00034180       ?gc_epilogue@Generation@@UAEX_N@Z 08035180 f   generation.obj
 0001:00034180       ?do_NullCheck@ValueNumberingVisitor@@MAEXPAVNullCheck@@@Z 08035180 f   c1_GraphBuilder.obj
 0001:00034180       ?note_change_in_marked_bytes@G1CollectorPolicy_BestRegionsFirst@@UAEXPAVHeapRegion@@@Z 08035180 f   universe.obj
 0001:00034180       ?gc_prologue@Generation@@UAEX_N@Z 08035180 f   compactingPermGenGen.obj
 0001:00034180       ?do_UnsafeGetObject@ValueNumberingVisitor@@MAEXPAVUnsafeGetObject@@@Z 08035180 f   c1_GraphBuilder.obj
 0001:00034180       ?do_Throw@ValueNumberingVisitor@@MAEXPAVThrow@@@Z 08035180 f   c1_GraphBuilder.obj
 0001:00034180       ?do_UnsafePutRaw@NullCheckVisitor@@UAEXPAVUnsafePutRaw@@@Z 08035180 f   c1_Optimizer.obj
 0001:00034180       ?do_RoundFP@ValueNumberingVisitor@@MAEXPAVRoundFP@@@Z 08035180 f   c1_GraphBuilder.obj
 0001:00034180       ?remember_mdo@PushOrMarkClosure@@UAEXPAVDataLayout@@@Z 08035180 f   concurrentMarkSweepGeneration.obj
 0001:00034180       ?input_values_do@Phi@@UAEXP6AXPAPAVInstruction@@@Z@Z 08035180 f   c1_ValueStack.obj
 0001:00034180       ?input_values_do@UnsafeOp@@UAEXP6AXPAPAVInstruction@@@Z@Z 08035180 f   c1_GraphBuilder.obj
 0001:00034180       ?do_LoadIndexed@ValueNumberingVisitor@@MAEXPAVLoadIndexed@@@Z 08035180 f   c1_GraphBuilder.obj
 0001:00034180       ?do_Base@Canonicalizer@@UAEXPAVBase@@@Z 08035180 f   c1_Canonicalizer.obj
 0001:00034180       ?do_NewTypeArray@ValueNumberingVisitor@@MAEXPAVNewTypeArray@@@Z 08035180 f   c1_GraphBuilder.obj
 0001:00034180       ?read_ref_field@ModRefBarrierSet@@UAEXPAX@Z 08035180 f   cardTableModRefBS.obj
 0001:00034180       ?oops_do@RuntimeStub@@UAEXPAVOopClosure@@@Z 08035180 f   codeBlob.obj
 0001:00034180       ?do_Throw@Canonicalizer@@UAEXPAVThrow@@@Z 08035180 f   c1_Canonicalizer.obj
 0001:00034180       ?do_Goto@NullCheckVisitor@@UAEXPAVGoto@@@Z 08035180 f   c1_Optimizer.obj
 0001:00034180       ?gc_epilogue@G1CollectedHeap@@UAEX_N@Z 08035180 f   g1CollectedHeap.obj
 0001:00034180       ?do_CompareOp@NullCheckVisitor@@UAEXPAVCompareOp@@@Z 08035180 f   c1_Optimizer.obj
 0001:00034180       ?do_UnsafePrefetchRead@Canonicalizer@@UAEXPAVUnsafePrefetchRead@@@Z 08035180 f   c1_Canonicalizer.obj
 0001:00034180       ?do_InstanceOf@ValueNumberingVisitor@@MAEXPAVInstanceOf@@@Z 08035180 f   c1_GraphBuilder.obj
 0001:00034180       ?do_CompareOp@ValueNumberingVisitor@@MAEXPAVCompareOp@@@Z 08035180 f   c1_GraphBuilder.obj
 0001:00034180       ?fill_init_vars@OopMapForCacheEntry@@EAEXPAV?$GrowableArray@H@@@Z 08035180 f   oopMapCache.obj
 0001:00034180       ?do_UnsafePutObject@Canonicalizer@@UAEXPAVUnsafePutObject@@@Z 08035180 f   c1_Canonicalizer.obj
 0001:00034180       ?fill_stackmap_prolog@GeneratePairingInfo@@EAEXH@Z 08035180 f   ciMethod.obj
 0001:00034180       ?do_NewInstance@ValueNumberingVisitor@@MAEXPAVNewInstance@@@Z 08035180 f   c1_GraphBuilder.obj
 0001:00034180       ?par_oop_since_save_marks_iterate_done@Generation@@UAEXH@Z 08035180 f   asParNewGeneration.obj
 0001:00034180       ?fill_init_vars@GeneratePairingInfo@@EAEXPAV?$GrowableArray@H@@@Z 08035180 f   ciMethod.obj
 0001:00034180       ?check_and_handle_earlyret@MacroAssembler@@MAEXPAVRegisterImpl@@@Z 08035180 f   assembler_x86.obj
 0001:00034180       ?do_Return@NullCheckVisitor@@UAEXPAVReturn@@@Z 08035180 f   c1_Optimizer.obj
 0001:00034180       ?do_UnsafePutObject@NullCheckVisitor@@UAEXPAVUnsafePutObject@@@Z 08035180 f   c1_Optimizer.obj
 0001:00034180       ?oops_do@vmNode@@UAEXPAVOopClosure@@@Z 08035180 f   fprofiler.obj
 0001:00034180       ?do_If@NullCheckVisitor@@UAEXPAVIf@@@Z 08035180 f   c1_Optimizer.obj
 0001:00034180       ?do_ProfileCounter@ValueNumberingVisitor@@MAEXPAVProfileCounter@@@Z 08035180 f   c1_GraphBuilder.obj
 0001:00034180       ?input_values_do@Constant@@UAEXP6AXPAPAVInstruction@@@Z@Z 08035180 f   c1_Canonicalizer.obj
 0001:00034180       ?do_NegateOp@ValueNumberingVisitor@@MAEXPAVNegateOp@@@Z 08035180 f   c1_GraphBuilder.obj
 0001:00034180       ?oop_set_partially_loaded@Klass@@UAEXPAVoopDesc@@@Z 08035180 f   arrayKlassKlass.obj
 0001:00034180       ?remember_mdo@Par_PushAndMarkClosure@@UAEXPAVDataLayout@@@Z 08035180 f   concurrentMarkSweepGeneration.obj
 0001:00034180       ?par_promote_alloc_done@Generation@@UAEXH@Z 08035180 f   asParNewGeneration.obj
 0001:00034180       ?do_Phi@Canonicalizer@@UAEXPAVPhi@@@Z 08035180 f   c1_Canonicalizer.obj
 0001:00034180       ?remember_mdo@OopClosure@@UAEXPAVDataLayout@@@Z 08035180 f   cardTableExtension.obj
 0001:00034180       ?do_NewMultiArray@ValueNumberingVisitor@@MAEXPAVNewMultiArray@@@Z 08035180 f   c1_GraphBuilder.obj
 0001:00034180       ?verify_data_on@methodDataOopDesc@@QAEXPAVoutputStream@@@Z 08035180 f   methodDataOop.obj
 0001:00034180       ?do_UnsafeGetRaw@NullCheckVisitor@@UAEXPAVUnsafeGetRaw@@@Z 08035180 f   c1_Optimizer.obj
 0001:00034180       ?do_UnsafePrefetchWrite@ValueNumberingVisitor@@MAEXPAVUnsafePrefetchWrite@@@Z 08035180 f   c1_GraphBuilder.obj
 0001:00034180       ?do_NewObjectArray@ValueNumberingVisitor@@MAEXPAVNewObjectArray@@@Z 08035180 f   c1_GraphBuilder.obj
 0001:00034180       ?input_values_do@OsrEntry@@UAEXP6AXPAPAVInstruction@@@Z@Z 08035180 f   c1_GraphBuilder.obj
 0001:00034180       ?do_Phi@ValueNumberingVisitor@@MAEXPAVPhi@@@Z 08035180 f   c1_GraphBuilder.obj
 0001:00034180       ?do_LogicOp@ValueNumberingVisitor@@MAEXPAVLogicOp@@@Z 08035180 f   c1_GraphBuilder.obj
 0001:00034180       ?do_Convert@ValueNumberingVisitor@@MAEXPAVConvert@@@Z 08035180 f   c1_GraphBuilder.obj
 0001:00034180       ?do_BlockBegin@LIRGenerator@@UAEXPAVBlockBegin@@@Z 08035180 f   c1_LIRGenerator_x86.obj
 0001:00034180       ?do_oop@DoNothingClosure@@UAEXPAI@Z 08035180 f   oopMap.obj
 0001:00034180       ?do_UnsafeGetRaw@ValueNumberingVisitor@@MAEXPAVUnsafeGetRaw@@@Z 08035180 f   c1_GraphBuilder.obj
 0001:00034180       ?remember_klass@OopClosure@@UAEXPAVKlass@@@Z 08035180 f   cardTableExtension.obj
 0001:00034180       ?remember_mdo@PushAndMarkClosure@@UAEXPAVDataLayout@@@Z 08035180 f   concurrentMarkSweepGeneration.obj
 0001:00034180       ?input_values_do@Local@@UAEXP6AXPAPAVInstruction@@@Z@Z 08035180 f   c1_GraphBuilder.obj
 0001:00034180       ?do_Return@Canonicalizer@@UAEXPAVReturn@@@Z 08035180 f   c1_Canonicalizer.obj
 0001:00034180       ?do_LogicOp@NullCheckVisitor@@UAEXPAVLogicOp@@@Z 08035180 f   c1_Optimizer.obj
 0001:00034180       ?do_MonitorEnter@Canonicalizer@@UAEXPAVMonitorEnter@@@Z 08035180 f   c1_Canonicalizer.obj
 0001:00034180       ?do_NewObjectArray@Canonicalizer@@UAEXPAVNewObjectArray@@@Z 08035180 f   c1_Canonicalizer.obj
 0001:00034180       ?do_Invoke@Canonicalizer@@UAEXPAVInvoke@@@Z 08035180 f   c1_Canonicalizer.obj
 0001:00034180       ?remember_mdo@Par_PushOrMarkClosure@@UAEXPAVDataLayout@@@Z 08035180 f   concurrentMarkSweepGeneration.obj
 0001:00034180       ?do_Return@ValueNumberingVisitor@@MAEXPAVReturn@@@Z 08035180 f   c1_GraphBuilder.obj
 0001:00034180       ?do_UnsafeGetObject@NullCheckVisitor@@UAEXPAVUnsafeGetObject@@@Z 08035180 f   c1_Optimizer.obj
 0001:00034180       ?do_Base@ValueNumberingVisitor@@MAEXPAVBase@@@Z 08035180 f   c1_GraphBuilder.obj
 0001:00034180       ?do_IfOp@ValueNumberingVisitor@@MAEXPAVIfOp@@@Z 08035180 f   c1_GraphBuilder.obj
 0001:00034180       ?do_OsrEntry@Canonicalizer@@UAEXPAVOsrEntry@@@Z 08035180 f   c1_Canonicalizer.obj
 0001:00034180       ?do_UnsafePrefetchWrite@Canonicalizer@@UAEXPAVUnsafePrefetchWrite@@@Z 08035180 f   c1_Canonicalizer.obj
 0001:00034180       ?do_IfInstanceOf@Canonicalizer@@UAEXPAVIfInstanceOf@@@Z 08035180 f   c1_Canonicalizer.obj
 0001:00034180       ?fill_stackmap_prolog@ResolveOopMapConflicts@@EAEXH@Z 08035180 f   rewriter.obj
 0001:00034180       ?state_values_do@Instruction@@UAEXP6AXPAPAV1@@Z@Z 08035180 f   c1_Canonicalizer.obj
 0001:00034180       ?oops_do@runtimeStubNode@@UAEXPAVOopClosure@@@Z 08035180 f   fprofiler.obj
 0001:00034180       ?do_Convert@NullCheckVisitor@@UAEXPAVConvert@@@Z 08035180 f   c1_Optimizer.obj
 0001:00034180       ?do_BlockBegin@NullCheckVisitor@@UAEXPAVBlockBegin@@@Z 08035180 f   c1_Optimizer.obj
 0001:00034180       ?input_values_do@ExceptionObject@@UAEXP6AXPAPAVInstruction@@@Z@Z 08035180 f   c1_GraphBuilder.obj
 0001:00034180       ?do_ExceptionObject@Canonicalizer@@UAEXPAVExceptionObject@@@Z 08035180 f   c1_Canonicalizer.obj
 0001:00034180       ?do_Goto@Canonicalizer@@UAEXPAVGoto@@@Z 08035180 f   c1_Canonicalizer.obj
 0001:00034180       ?do_NewTypeArray@Canonicalizer@@UAEXPAVNewTypeArray@@@Z 08035180 f   c1_Canonicalizer.obj
 0001:00034180       ?verify@ICStubInterface@@UAEXPAVStub@@@Z 08035180 f   icBuffer.obj
 0001:00034180       ?do_CheckCast@ValueNumberingVisitor@@MAEXPAVCheckCast@@@Z 08035180 f   c1_GraphBuilder.obj
 0001:00034180       ?do_ArrayLength@ValueNumberingVisitor@@MAEXPAVArrayLength@@@Z 08035180 f   c1_GraphBuilder.obj
 0001:00034180       ?print_impl@ciObject@@MAEXPAVoutputStream@@@Z 08035180 f   ciMethod.obj
 0001:00034180       ?do_CheckCast@NullCheckVisitor@@UAEXPAVCheckCast@@@Z 08035180 f   c1_Optimizer.obj
 0001:00034180       ?do_LoadField@Canonicalizer@@UAEXPAVLoadField@@@Z 08035180 f   c1_Canonicalizer.obj
 0001:00034180       ?do_If@ValueNumberingVisitor@@MAEXPAVIf@@@Z 08035180 f   c1_GraphBuilder.obj
 0001:00034180       ?do_Local@Canonicalizer@@UAEXPAVLocal@@@Z 08035180 f   c1_Canonicalizer.obj
 0001:00034180       ?follow_weak_refs@ProfileData@@UAEXPAVBoolObjectClosure@@@Z 08035180 f   ciMethodData.obj
 0001:00034180       ?do_TableSwitch@ValueNumberingVisitor@@MAEXPAVTableSwitch@@@Z 08035180 f   c1_GraphBuilder.obj
 0001:00034180       ?do_oop@DoNothingClosure@@UAEXPAPAVoopDesc@@@Z 08035180 f   oopMap.obj
 0001:00034180       ?peephole@LIR_Assembler@@QAEXPAVLIR_List@@@Z 08035180 f   c1_LIRAssembler_x86.obj
 0001:00034180       ?do_MonitorExit@Canonicalizer@@UAEXPAVMonitorExit@@@Z 08035180 f   c1_Canonicalizer.obj
 0001:00034180       ?do_Goto@ValueNumberingVisitor@@MAEXPAVGoto@@@Z 08035180 f   c1_GraphBuilder.obj
 0001:00034180       ?do_BlockBegin@ValueNumberingVisitor@@MAEXPAVBlockBegin@@@Z 08035180 f   c1_GraphBuilder.obj
 0001:00034180       ?do_Local@NullCheckVisitor@@UAEXPAVLocal@@@Z 08035180 f   c1_Optimizer.obj
 0001:00034180       ?do_LoadIndexed@Canonicalizer@@UAEXPAVLoadIndexed@@@Z 08035180 f   c1_Canonicalizer.obj
 0001:00034180       ?do_ExceptionObject@ValueNumberingVisitor@@MAEXPAVExceptionObject@@@Z 08035180 f   c1_GraphBuilder.obj
 0001:00034180       ?other_values_do@Instruction@@UAEXP6AXPAPAV1@@Z@Z 08035180 f   c1_Canonicalizer.obj
 0001:00034180       ?do_Local@ValueNumberingVisitor@@MAEXPAVLocal@@@Z 08035180 f   c1_GraphBuilder.obj
 0001:00034180       ?set_method_handle@MethodHandleWalker@@UAEXPAVoopDesc@@@Z 08035180 f   methodHandleWalk.obj
 0001:00034180       ?oops_do@VM_Operation@@UAEXPAVOopClosure@@@Z 08035180 f   attachListener.obj
 0001:00034180       ?do_ShiftOp@ValueNumberingVisitor@@MAEXPAVShiftOp@@@Z 08035180 f   c1_GraphBuilder.obj
 0001:00034180       ?do_TableSwitch@NullCheckVisitor@@UAEXPAVTableSwitch@@@Z 08035180 f   c1_Optimizer.obj
 0001:00034180       ?oops_do@DeoptimizationBlob@@UAEXPAVOopClosure@@@Z 08035180 f   codeBlob.obj
 0001:00034180       ?do_OsrEntry@ValueNumberingVisitor@@MAEXPAVOsrEntry@@@Z 08035180 f   c1_GraphBuilder.obj
 0001:00034180       ?do_LookupSwitch@NullCheckVisitor@@UAEXPAVLookupSwitch@@@Z 08035180 f   c1_Optimizer.obj
 0001:00034180       ?check_and_handle_popframe@MacroAssembler@@MAEXPAVRegisterImpl@@@Z 08035180 f   assembler_x86.obj
 0001:00034180       ?do_RoundFP@NullCheckVisitor@@UAEXPAVRoundFP@@@Z 08035180 f   c1_Optimizer.obj
 0001:00034180       ?array_klasses_do@Klass@@UAEXP6AXPAVklassOopDesc@@@Z@Z 08035180 f   arrayKlassKlass.obj
 0001:00034180       ?oops_do@adapterNode@@UAEXPAVOopClosure@@@Z 08035180 f   fprofiler.obj
 0001:00034180       ?oops_do@SafepointBlob@@UAEXPAVOopClosure@@@Z 08035180 f   codeBlob.obj
 0001:00034180       ?check_mangled_unused_area@MutableNUMASpace@@UAEXPAVHeapWord@@@Z 08035180 f   mutableNUMASpace.obj
 0001:00034180       ?do_UnsafePrefetchRead@ValueNumberingVisitor@@MAEXPAVUnsafePrefetchRead@@@Z 08035180 f   c1_GraphBuilder.obj
 0001:00034180       ?set_alloc_size@instanceKlass@@UAEXI@Z 08035180 f   instanceKlassKlass.obj
 0001:00034180       ?do_ProfileCall@Canonicalizer@@UAEXPAVProfileCall@@@Z 08035180 f   c1_Canonicalizer.obj
 0001:00034180       ?do_NegateOp@NullCheckVisitor@@UAEXPAVNegateOp@@@Z 08035180 f   c1_Optimizer.obj
 0001:00034180       ?translate_from@ProfileData@@UAEXPAV1@@Z 08035180 f   ciMethodData.obj
 0001:00034180       ?do_ArithmeticOp@ValueNumberingVisitor@@MAEXPAVArithmeticOp@@@Z 08035180 f   c1_GraphBuilder.obj
 0001:00034190       ?initialize@ResourceArray@@IAEXIH@Z 08035190 f i c1_Canonicalizer.obj
 0001:00034200       ?at@intArray@@QBEHH@Z      08035200 f i c1_Canonicalizer.obj
 0001:00034250       ?as_object@ciConstant@@QBEPAVciObject@@XZ 08035250 f i c1_Canonicalizer.obj
 0001:00034280       ??2CompilationResourceObj@@SAPAXI@Z 08035280 f i c1_Canonicalizer.obj
 0001:000342a0       ?evaluation_mode@VM_Operation@@UBE?AW4Mode@1@XZ 080352a0 f i attachListener.obj
 0001:000342a0       ?as_StateSplit@Instruction@@UAEPAVStateSplit@@XZ 080352a0 f i c1_Canonicalizer.obj
 0001:000342a0       ?as_ArithmeticOp@Instruction@@UAEPAVArithmeticOp@@XZ 080352a0 f i c1_Canonicalizer.obj
 0001:000342a0       ?as_OpDelay@LIR_Op@@UAEPAVLIR_OpDelay@@XZ 080352a0 f i c1_LIR.obj
 0001:000342a0       ?as_OpRTCall@LIR_Op@@UAEPAVLIR_OpRTCall@@XZ 080352a0 f i c1_LIR.obj
 0001:000342a0       ?as_Invoke@Instruction@@UAEPAVInvoke@@XZ 080352a0 f i c1_Canonicalizer.obj
 0001:000342a0       ?protection_domain_handle@ciKlass@@MAEPAV_jobject@@XZ 080352a0 f i ciArrayKlass.obj
 0001:000342a0       ?kind@CollectorPolicy@@UAE?AW4Name@1@XZ 080352a0 f i cmsCollectorPolicy.obj
 0001:000342a0       ?toContiguousSpace@Space@@UAEPAVContiguousSpace@@XZ 080352a0 f i compactibleFreeListSpace.obj
 0001:000342a0       ?main_body_summary@PauseSummary@@UAEPAVMainBodySummary@@XZ 080352a0 f i g1CollectorPolicy.obj
 0001:000342a0       ?as_Op3@LIR_Op@@UAEPAVLIR_Op3@@XZ 080352a0 f i c1_LIR.obj
 0001:000342a0       ?as_BlockEnd@Instruction@@UAEPAVBlockEnd@@XZ 080352a0 f i c1_Canonicalizer.obj
 0001:000342a0       ?as_HiWord@Instruction@@UAEPAVHiWord@@XZ 080352a0 f i c1_Canonicalizer.obj
 0001:000342a0       ?as_OpBranch@LIR_Op@@UAEPAVLIR_OpBranch@@XZ 080352a0 f i c1_LIR.obj
 0001:000342a0       ?class_loader@Klass@@UBEPAVoopDesc@@XZ 080352a0 f i arrayKlassKlass.obj
 0001:000342a0       ?hash@Instruction@@UBEHXZ  080352a0 f i c1_Canonicalizer.obj
 0001:000342a0       ?as_IfOp@Instruction@@UAEPAVIfOp@@XZ 080352a0 f i c1_Canonicalizer.obj
 0001:000342a0       ?as_OpAllocArray@LIR_Op@@UAEPAVLIR_OpAllocArray@@XZ 080352a0 f i c1_LIR.obj
 0001:000342a0       ?as_IntType@ValueType@@UAEPAVIntType@@XZ 080352a0 f i c1_Canonicalizer.obj
 0001:000342a0       ?as_ArrayConstant@ValueType@@UAEPAVArrayConstant@@XZ 080352a0 f i c1_Canonicalizer.obj
 0001:000342a0       ?method@runtimeStubNode@@UAEPAVmethodOopDesc@@XZ 080352a0 f i fprofiler.obj
 0001:000342a0       ?preferred_heap_base@Universe@@SAPADIW4NARROW_OOP_MODE@1@@Z 080352a0 f i universe.obj
 0001:000342a0       ?as_generation_policy@CollectorPolicy@@UAEPAVGenCollectorPolicy@@XZ 080352a0 f i cmsCollectorPolicy.obj
 0001:000342a0       ?numa_get_group_id@os@@SAHXZ 080352a0 f i os_windows.obj
 0001:000342a0       ?capacity_before_gc@Generation@@UBEIXZ 080352a0 f i cmsPermGen.obj
 0001:000342a0       ?type@VM_Dummy@@EBE?AW4VMOp_Type@VM_Operation@@XZ 080352a0 f i vmThread.obj
 0001:000342a0       ?as_Local@Instruction@@UAEPAVLocal@@XZ 080352a0 f i c1_Canonicalizer.obj
 0001:000342a0       ?exact_type@Instruction@@UBEPAVciType@@XZ 080352a0 f i c1_Canonicalizer.obj
 0001:000342a0       ?info@CodeStub@@UBEPAVCodeEmitInfo@@XZ 080352a0 f i c1_CodeStubs_x86.obj
 0001:000342a0       ?as_NewTypeArray@Instruction@@UAEPAVNewTypeArray@@XZ 080352a0 f i c1_Canonicalizer.obj
 0001:000342a0       ?kind@AdaptiveSizePolicy@@MBE?AW4GCPolicyKind@1@XZ 080352a0 f i adaptiveSizePolicy.obj
 0001:000342a0       ?as_ObjectType@ValueType@@UAEPAVObjectType@@XZ 080352a0 f i c1_Canonicalizer.obj
 0001:000342a0       ?as_IllegalType@ValueType@@UAEPAVIllegalType@@XZ 080352a0 f i c1_Canonicalizer.obj
 0001:000342a0       ?as_ArrayLength@Instruction@@UAEPAVArrayLength@@XZ 080352a0 f i c1_Canonicalizer.obj
 0001:000342a0       ?as_NegateOp@Instruction@@UAEPAVNegateOp@@XZ 080352a0 f i c1_Canonicalizer.obj
 0001:000342a0       ?as_CheckCast@Instruction@@UAEPAVCheckCast@@XZ 080352a0 f i c1_Canonicalizer.obj
 0001:000342a0       ?kind@CollectedHeap@@UBE?AW4Name@1@XZ 080352a0 f i collectedHeap.obj
 0001:000342a0       ?as_LoadIndexed@Instruction@@UAEPAVLoadIndexed@@XZ 080352a0 f i c1_Canonicalizer.obj
 0001:000342a0       ?rs_kind@CardTableRS@@UAE?AW4Name@GenRemSet@@XZ 080352a0 f i cardTableRS.obj
 0001:000342a0       ?type@Relocation@@UAE?AW4relocType@relocInfo@@XZ 080352a0 f i assembler_windows_x86.obj
 0001:000342a0       ?as_ArrayType@ValueType@@UAEPAVArrayType@@XZ 080352a0 f i c1_Canonicalizer.obj
 0001:000342a0       ?as_IfInstanceOf@Instruction@@UAEPAVIfInstanceOf@@XZ 080352a0 f i c1_Canonicalizer.obj
 0001:000342a0       ?method@vmNode@@UAEPAVmethodOopDesc@@XZ 080352a0 f i fprofiler.obj
 0001:000342a0       ?method@unknown_compiledNode@@UAEPAVmethodOopDesc@@XZ 080352a0 f i fprofiler.obj
 0001:000342a0       ?as_NewInstance@Instruction@@UAEPAVNewInstance@@XZ 080352a0 f i c1_Canonicalizer.obj
 0001:000342a0       ?as_Goto@Instruction@@UAEPAVGoto@@XZ 080352a0 f i c1_Canonicalizer.obj
 0001:000342a0       ?as_UnsafeOp@Instruction@@UAEPAVUnsafeOp@@XZ 080352a0 f i c1_Canonicalizer.obj
 0001:000342a0       ?protection_domain@ciKlass@@MAEPAVoopDesc@@XZ 080352a0 f i ciArrayKlass.obj
 0001:000342a0       ?as_VoidType@ValueType@@UAEPAVVoidType@@XZ 080352a0 f i c1_Canonicalizer.obj
 0001:000342a0       ?kind@GCStats@@UAE?AW4Name@1@XZ 080352a0 f i gcStats.obj
 0001:000342a0       ?as_MonitorEnter@Instruction@@UAEPAVMonitorEnter@@XZ 080352a0 f i c1_Canonicalizer.obj
 0001:000342a0       ?rem_set_name@G1CollectorPolicy@@UAE?AW4Name@GenRemSet@@XZ 080352a0 f i g1CollectorPolicy.obj
 0001:000342a0       ?cell_count@BitData@@UAEHXZ 080352a0 f i ciMethodData.obj
 0001:000342a0       ?java_super@Klass@@UBEPAVklassOopDesc@@XZ 080352a0 f i arrayKlassKlass.obj
 0001:000342a0       ?as_LoadField@Instruction@@UAEPAVLoadField@@XZ 080352a0 f i c1_Canonicalizer.obj
 0001:000342a0       ?as_OsrEntry@Instruction@@UAEPAVOsrEntry@@XZ 080352a0 f i c1_Canonicalizer.obj
 0001:000342a0       ?declared_type@Instruction@@UBEPAVciType@@XZ 080352a0 f i c1_Canonicalizer.obj
 0001:000342a0       ?out_preserve_stack_slots@SharedRuntime@@SAIXZ 080352a0 f i sharedRuntime_x86_32.obj
 0001:000342a0       ?lock_stack@Instruction@@UBEPAVValueStack@@XZ 080352a0 f i c1_Canonicalizer.obj
 0001:000342a0       ?as_AddressConstant@ValueType@@UAEPAVAddressConstant@@XZ 080352a0 f i c1_Canonicalizer.obj
 0001:000342a0       ?protection_domain@Klass@@UAEPAVoopDesc@@XZ 080352a0 f i arrayKlassKlass.obj
 0001:000342a0       ?as_LookupSwitch@Instruction@@UAEPAVLookupSwitch@@XZ 080352a0 f i c1_Canonicalizer.obj
 0001:000342a0       ?as_NewArray@Instruction@@UAEPAVNewArray@@XZ 080352a0 f i c1_Canonicalizer.obj
 0001:000342a0       ?as_Op1@LIR_Op@@UAEPAVLIR_Op1@@XZ 080352a0 f i c1_LIR.obj
 0001:000342a0       ?as_OpProfileCall@LIR_Op@@UAEPAVLIR_OpProfileCall@@XZ 080352a0 f i c1_LIR.obj
 0001:000342a0       ?as_Constant@Instruction@@UAEPAVConstant@@XZ 080352a0 f i c1_Canonicalizer.obj
 0001:000342a0       ?as_InstanceConstant@ValueType@@UAEPAVInstanceConstant@@XZ 080352a0 f i c1_Canonicalizer.obj
 0001:000342a0       ?as_FloatConstant@ValueType@@UAEPAVFloatConstant@@XZ 080352a0 f i c1_Canonicalizer.obj
 0001:000342a0       ?as_NewObjectArray@Instruction@@UAEPAVNewObjectArray@@XZ 080352a0 f i c1_Canonicalizer.obj
 0001:000342a0       ?as_g1_policy@CollectorPolicy@@UAEPAVG1CollectorPolicy@@XZ 080352a0 f i cmsCollectorPolicy.obj
 0001:000342a0       ?as_OpRoundFP@LIR_Op@@UAEPAVLIR_OpRoundFP@@XZ 080352a0 f i c1_LIR.obj
 0001:000342a0       ?as_Convert@Instruction@@UAEPAVConvert@@XZ 080352a0 f i c1_Canonicalizer.obj
 0001:000342a0       ?as_concurrent_mark_sweep_policy@CollectorPolicy@@UAEPAVConcurrentMarkSweepPolicy@@XZ 080352a0 f i cmsCollectorPolicy.obj
 0001:000342a0       ?as_CompareOp@Instruction@@UAEPAVCompareOp@@XZ 080352a0 f i c1_Canonicalizer.obj
 0001:000342a0       ?as_OpJavaCall@LIR_Op@@UAEPAVLIR_OpJavaCall@@XZ 080352a0 f i c1_LIR.obj
 0001:000342a0       ?as_Phi@Instruction@@UAEPAVPhi@@XZ 080352a0 f i c1_Canonicalizer.obj
 0001:000342a0       ?as_OpTypeCheck@LIR_Op@@UAEPAVLIR_OpTypeCheck@@XZ 080352a0 f i c1_LIR.obj
 0001:000342a0       ?as_OpLabel@LIR_Op@@UAEPAVLIR_OpLabel@@XZ 080352a0 f i c1_LIR.obj
 0001:000342a0       ?as_NullCheck@Instruction@@UAEPAVNullCheck@@XZ 080352a0 f i c1_Canonicalizer.obj
 0001:000342a0       ?as_OpLock@LIR_Op@@UAEPAVLIR_OpLock@@XZ 080352a0 f i c1_LIR.obj
 0001:000342a0       ?as_CardTableRS@GenRemSet@@UAEPAVCardTableRS@@XZ 080352a0 f i cardTableRS.obj
 0001:000342a0       ?as_DoubleType@ValueType@@UAEPAVDoubleType@@XZ 080352a0 f i c1_Canonicalizer.obj
 0001:000342a0       ?as_AccessField@Instruction@@UAEPAVAccessField@@XZ 080352a0 f i c1_Canonicalizer.obj
 0001:000342a0       ?as_StoreIndexed@Instruction@@UAEPAVStoreIndexed@@XZ 080352a0 f i c1_Canonicalizer.obj
 0001:000342a0       ?as_mark_sweep_policy@CollectorPolicy@@UAEPAVMarkSweepPolicy@@XZ 080352a0 f i cmsCollectorPolicy.obj
 0001:000342a0       ?as_OpArrayCopy@LIR_Op@@UAEPAVLIR_OpArrayCopy@@XZ 080352a0 f i c1_LIR.obj
 0001:000342a0       ?as_constant@LIR_OprPtr@@UAEPAVLIR_Const@@XZ 080352a0 f i c1_FrameMap_x86.obj
 0001:000342a0       ?as_LongType@ValueType@@UAEPAVLongType@@XZ 080352a0 f i c1_Canonicalizer.obj
 0001:000342a0       ?as_MonitorExit@Instruction@@UAEPAVMonitorExit@@XZ 080352a0 f i c1_Canonicalizer.obj
 0001:000342a0       ?as_OpConvert@LIR_Op@@UAEPAVLIR_OpConvert@@XZ 080352a0 f i c1_LIR.obj
 0001:000342a0       ?as_TableSwitch@Instruction@@UAEPAVTableSwitch@@XZ 080352a0 f i c1_Canonicalizer.obj
 0001:000342a0       ?as_If@Instruction@@UAEPAVIf@@XZ 080352a0 f i c1_Canonicalizer.obj
 0001:000342a0       ?top_addr@Generation@@UBEPAPAVHeapWord@@XZ 080352a0 f i cmsPermGen.obj
 0001:000342a0       ?allowed_dead_ratio@CompactibleSpace@@UBEIXZ 080352a0 f i compactibleFreeListSpace.obj
 0001:000342a0       ?as_TypeCheck@Instruction@@UAEPAVTypeCheck@@XZ 080352a0 f i c1_Canonicalizer.obj
 0001:000342a0       ?rem_set_name@TwoGenerationCollectorPolicy@@UAE?AW4Name@GenRemSet@@XZ 080352a0 f i cmsCollectorPolicy.obj
 0001:000342a0       ?as_HRInto_G1RemSet@G1RemSet@@UAEPAVHRInto_G1RemSet@@XZ 080352a0 f i g1CollectedHeap.obj
 0001:000342a0       ?loader_handle@ciKlass@@MAEPAV_jobject@@XZ 080352a0 f i ciArrayKlass.obj
 0001:000342a0       ?as_two_generation_policy@CollectorPolicy@@UAEPAVTwoGenerationCollectorPolicy@@XZ 080352a0 f i cmsCollectorPolicy.obj
 0001:000342a0       ?as_ClassConstant@ValueType@@UAEPAVClassConstant@@XZ 080352a0 f i c1_Canonicalizer.obj
 0001:000342a0       ?as_OpAllocObj@LIR_Op@@UAEPAVLIR_OpAllocObj@@XZ 080352a0 f i c1_LIR.obj
 0001:000342a0       ?as_Return@Instruction@@UAEPAVReturn@@XZ 080352a0 f i c1_Canonicalizer.obj
 0001:000342a0       ?as_AccessMonitor@Instruction@@UAEPAVAccessMonitor@@XZ 080352a0 f i c1_Canonicalizer.obj
 0001:000342a0       ?size_policy@G1CollectedHeap@@UAEPAVAdaptiveSizePolicy@@XZ 080352a0 f i g1CollectedHeap.obj
 0001:000342a0       ?as_address@LIR_OprPtr@@UAEPAVLIR_Address@@XZ 080352a0 f i c1_FrameMap_x86.obj
 0001:000342a0       ?method@adapterNode@@UAEPAVmethodOopDesc@@XZ 080352a0 f i fprofiler.obj
 0001:000342a0       ?loader@ciKlass@@MAEPAVoopDesc@@XZ 080352a0 f i ciArrayKlass.obj
 0001:000342a0       ?as_RoundFP@Instruction@@UAEPAVRoundFP@@XZ 080352a0 f i c1_Canonicalizer.obj
 0001:000342a0       ?as_DoubleConstant@ValueType@@UAEPAVDoubleConstant@@XZ 080352a0 f i c1_Canonicalizer.obj
 0001:000342a0       ?jvmti_class_status@Klass@@UBEHXZ 080352a0 f i klass.obj
 0001:000342a0       ?as_LogicOp@Instruction@@UAEPAVLogicOp@@XZ 080352a0 f i c1_Canonicalizer.obj
 0001:000342a0       ?as_Op2@Instruction@@UAEPAVOp2@@XZ 080352a0 f i c1_Canonicalizer.obj
 0001:000342a0       ?as_Intrinsic@Instruction@@UAEPAVIntrinsic@@XZ 080352a0 f i c1_Canonicalizer.obj
 0001:000342a0       ?as_LongConstant@ValueType@@UAEPAVLongConstant@@XZ 080352a0 f i c1_Canonicalizer.obj
 0001:000342a0       ?as_FloatType@ValueType@@UAEPAVFloatType@@XZ 080352a0 f i c1_Canonicalizer.obj
 0001:000342a0       ?as_NewMultiArray@Instruction@@UAEPAVNewMultiArray@@XZ 080352a0 f i c1_Canonicalizer.obj
 0001:000342a0       ?as_StoreField@Instruction@@UAEPAVStoreField@@XZ 080352a0 f i c1_Canonicalizer.obj
 0001:000342a0       ?as_ClassType@ValueType@@UAEPAVClassType@@XZ 080352a0 f i c1_Canonicalizer.obj
 0001:000342a0       ?kind@MemoryManager@@UAE?AW4Name@1@XZ 080352a0 f i memoryManager.obj
 0001:000342a0       ?as_ObjectConstant@ValueType@@UAEPAVObjectConstant@@XZ 080352a0 f i c1_Canonicalizer.obj
 0001:000342a0       ?kind@ASParNewGeneration@@UAE?AW4Name@Generation@@XZ 080352a0 f i asParNewGeneration.obj
 0001:000342a0       ?as_InstanceType@ValueType@@UAEPAVInstanceType@@XZ 080352a0 f i c1_Canonicalizer.obj
 0001:000342a0       ?vtable@Klass@@UBEPAVklassVtable@@XZ 080352a0 f i arrayKlassKlass.obj
 0001:000342a0       ?as_AccessArray@Instruction@@UAEPAVAccessArray@@XZ 080352a0 f i c1_Canonicalizer.obj
 0001:000342a0       ?as_ExceptionObject@Instruction@@UAEPAVExceptionObject@@XZ 080352a0 f i c1_Canonicalizer.obj
 0001:000342a0       ?offset@DataRelocation@@UAEHXZ 080352a0 f i assembler_x86.obj
 0001:000342a0       ?pd_find_operation@AttachListener@@SAPAUAttachOperationFunctionInfo@@PBD@Z 080352a0 f i attachListener_windows.obj
 0001:000342a0       ?as_Throw@Instruction@@UAEPAVThrow@@XZ 080352a0 f i c1_Canonicalizer.obj
 0001:000342a0       ?as_BlockBegin@Instruction@@UAEPAVBlockBegin@@XZ 080352a0 f i c1_Canonicalizer.obj
 0001:000342a0       ?as_Base@Instruction@@UAEPAVBase@@XZ 080352a0 f i c1_Canonicalizer.obj
 0001:000342a0       ?minimum_free_block_size@ContiguousSpace@@UBEIXZ 080352a0 f i compactingPermGenGen.obj
 0001:000342a0       ?as_Op2@LIR_Op@@UAEPAVLIR_Op2@@XZ 080352a0 f i c1_LIR.obj
 0001:000342a0       ?as_IntConstant@ValueType@@UAEPAVIntConstant@@XZ 080352a0 f i c1_Canonicalizer.obj
 0001:000342a0       ?as_ShiftOp@Instruction@@UAEPAVShiftOp@@XZ 080352a0 f i c1_Canonicalizer.obj
 0001:000342a0       ?as_OpCompareAndSwap@LIR_Op@@UAEPAVLIR_OpCompareAndSwap@@XZ 080352a0 f i c1_LIR.obj
 0001:000342a0       ?as_InstanceOf@Instruction@@UAEPAVInstanceOf@@XZ 080352a0 f i c1_Canonicalizer.obj
 0001:000342a0       ?as_AddressType@ValueType@@UAEPAVAddressType@@XZ 080352a0 f i c1_Canonicalizer.obj
 0001:000342a0       ?end_addr@Generation@@UBEPAPAVHeapWord@@XZ 080352a0 f i cmsPermGen.obj
 0001:000342a0       ?as_AccessIndexed@Instruction@@UAEPAVAccessIndexed@@XZ 080352a0 f i c1_Canonicalizer.obj
 0001:000342a0       ?as_Op0@LIR_Op@@UAEPAVLIR_Op0@@XZ 080352a0 f i c1_LIR.obj
 0001:000342a0       ?as_OpCall@LIR_Op@@UAEPAVLIR_OpCall@@XZ 080352a0 f i c1_LIR.obj
 0001:000342b0       ?base@IntType@@UBEPAVValueType@@XZ 080352b0 f i c1_Canonicalizer.obj
 0001:000342c0       ?tchar@IntType@@UBE?BDXZ   080352c0 f i c1_Canonicalizer.obj
 0001:000342d0       ?name@IntType@@UBEPBDXZ    080352d0 f i c1_Canonicalizer.obj
 0001:000342e0       ?as_BlockBegin@BlockBegin@@UAEPAV1@XZ 080352e0 f i c1_GraphBuilder.obj
 0001:000342e0       ?as_ClassType@ClassType@@UAEPAV1@XZ 080352e0 f i c1_GraphBuilder.obj
 0001:000342e0       ?as_UnsafeRawOp@UnsafeRawOp@@UAEPAV1@XZ 080352e0 f i c1_GraphBuilder.obj
 0001:000342e0       ?as_OpRTCall@LIR_OpRTCall@@UAEPAV1@XZ 080352e0 f i c1_LIRGenerator.obj
 0001:000342e0       ?as_Convert@Convert@@UAEPAV1@XZ 080352e0 f i c1_GraphBuilder.obj
 0001:000342e0       ?as_HiWord@HiWord@@UAEPAV1@XZ 080352e0 f i c1_GraphBuilder.obj
 0001:000342e0       ?as_InstanceOf@InstanceOf@@UAEPAV1@XZ 080352e0 f i c1_GraphBuilder.obj
 0001:000342e0       ?as_ProfileCounter@ProfileCounter@@UAEPAV1@XZ 080352e0 f i c1_GraphBuilder.obj
 0001:000342e0       ?as_OpRoundFP@LIR_OpRoundFP@@UAEPAV1@XZ 080352e0 f i c1_LIRGenerator.obj
 0001:000342e0       ?as_MonitorExit@MonitorExit@@UAEPAV1@XZ 080352e0 f i c1_GraphBuilder.obj
 0001:000342e0       ?as_ObjectType@ObjectType@@UAEPAV1@XZ 080352e0 f i c1_GraphBuilder.obj
 0001:000342e0       ?as_UnsafePrefetchRead@UnsafePrefetchRead@@UAEPAV1@XZ 080352e0 f i c1_GraphBuilder.obj
 0001:000342e0       ?as_Invoke@Invoke@@UAEPAV1@XZ 080352e0 f i c1_Instruction.obj
 0001:000342e0       ?as_AccessArray@AccessArray@@UAEPAV1@XZ 080352e0 f i c1_Canonicalizer.obj
 0001:000342e0       ?as_ObjectConstant@ObjectConstant@@UAEPAV1@XZ 080352e0 f i c1_GraphBuilder.obj
 0001:000342e0       ?as_Op2@LIR_Op2@@UAEPAV1@XZ 080352e0 f i c1_LIR.obj
 0001:000342e0       ?as_concurrent_mark_sweep_policy@ConcurrentMarkSweepPolicy@@UAEPAV1@XZ 080352e0 f i cmsCollectorPolicy.obj
 0001:000342e0       ?as_Op2@Op2@@UAEPAV1@XZ    080352e0 f i c1_GraphBuilder.obj
 0001:000342e0       ?as_UnsafePutRaw@UnsafePutRaw@@UAEPAV1@XZ 080352e0 f i c1_GraphBuilder.obj
 0001:000342e0       ?as_LogicOp@LogicOp@@UAEPAV1@XZ 080352e0 f i c1_GraphBuilder.obj
 0001:000342e0       ?as_OpLabel@LIR_OpLabel@@UAEPAV1@XZ 080352e0 f i c1_LIRGenerator.obj
 0001:000342e0       ?as_LongType@LongType@@UAEPAV1@XZ 080352e0 f i c1_Canonicalizer.obj
 0001:000342e0       ?as_Op1@LIR_Op1@@UAEPAV1@XZ 080352e0 f i c1_LIR.obj
 0001:000342e0       ?as_NewArray@NewArray@@UAEPAV1@XZ 080352e0 f i c1_GraphBuilder.obj
 0001:000342e0       ?as_InstanceConstant@InstanceConstant@@UAEPAV1@XZ 080352e0 f i c1_GraphBuilder.obj
 0001:000342e0       ?as_Intrinsic@Intrinsic@@UAEPAV1@XZ 080352e0 f i c1_GraphBuilder.obj
 0001:000342e0       ?as_OpLock@LIR_OpLock@@UAEPAV1@XZ 080352e0 f i c1_LIR.obj
 0001:000342e0       ?as_CheckCast@CheckCast@@UAEPAV1@XZ 080352e0 f i c1_GraphBuilder.obj
 0001:000342e0       ?as_UnsafePrefetchWrite@UnsafePrefetchWrite@@UAEPAV1@XZ 080352e0 f i c1_GraphBuilder.obj
 0001:000342e0       ?as_NewTypeArray@NewTypeArray@@UAEPAV1@XZ 080352e0 f i c1_GraphBuilder.obj
 0001:000342e0       ?as_Op0@LIR_Op0@@UAEPAV1@XZ 080352e0 f i c1_LIRGenerator.obj
 0001:000342e0       ?as_VoidType@VoidType@@UAEPAV1@XZ 080352e0 f i c1_ValueType.obj
 0001:000342e0       ?as_Instruction@Instruction@@UAEPAV1@XZ 080352e0 f i c1_Canonicalizer.obj
 0001:000342e0       ?as_NullCheck@NullCheck@@UAEPAV1@XZ 080352e0 f i c1_GraphBuilder.obj
 0001:000342e0       ?as_IfInstanceOf@IfInstanceOf@@UAEPAV1@XZ 080352e0 f i c1_Canonicalizer.obj
 0001:000342e0       ?as_UnsafeGetObject@UnsafeGetObject@@UAEPAV1@XZ 080352e0 f i c1_GraphBuilder.obj
 0001:000342e0       ?as_ClassConstant@ClassConstant@@UAEPAV1@XZ 080352e0 f i c1_GraphBuilder.obj
 0001:000342e0       ?as_CardTableRS@CardTableRS@@UAEPAV1@XZ 080352e0 f i cardTableRS.obj
 0001:000342e0       ?as_UnsafeGetRaw@UnsafeGetRaw@@UAEPAV1@XZ 080352e0 f i c1_GraphBuilder.obj
 0001:000342e0       ?as_FloatType@FloatType@@UAEPAV1@XZ 080352e0 f i c1_Canonicalizer.obj
 0001:000342e0       ?as_OpArrayCopy@LIR_OpArrayCopy@@UAEPAV1@XZ 080352e0 f i c1_LIR.obj
 0001:000342e0       ?as_AccessField@AccessField@@UAEPAV1@XZ 080352e0 f i c1_Canonicalizer.obj
 0001:000342e0       ?as_OpProfileCall@LIR_OpProfileCall@@UAEPAV1@XZ 080352e0 f i c1_LIRGenerator.obj
 0001:000342e0       ?as_NewInstance@NewInstance@@UAEPAV1@XZ 080352e0 f i c1_GraphBuilder.obj
 0001:000342e0       ?as_ShiftOp@ShiftOp@@UAEPAV1@XZ 080352e0 f i c1_GraphBuilder.obj
 0001:000342e0       ?as_UnsafePrefetch@UnsafePrefetch@@UAEPAV1@XZ 080352e0 f i c1_GraphBuilder.obj
 0001:000342e0       ?toContiguousSpace@ContiguousSpace@@UAEPAV1@XZ 080352e0 f i compactingPermGenGen.obj
 0001:000342e0       ?as_TableSwitch@TableSwitch@@UAEPAV1@XZ 080352e0 f i c1_GraphBuilder.obj
 0001:000342e0       ?as_ExceptionObject@ExceptionObject@@UAEPAV1@XZ 080352e0 f i c1_GraphBuilder.obj
 0001:000342e0       ?as_Base@Base@@UAEPAV1@XZ  080352e0 f i c1_GraphBuilder.obj
 0001:000342e0       ?as_StateSplit@StateSplit@@UAEPAV1@XZ 080352e0 f i c1_Canonicalizer.obj
 0001:000342e0       ?as_ProfileCall@ProfileCall@@UAEPAV1@XZ 080352e0 f i c1_GraphBuilder.obj
 0001:000342e0       ?as_OpAllocArray@LIR_OpAllocArray@@UAEPAV1@XZ 080352e0 f i c1_LIR.obj
 0001:000342e0       ?as_AddressType@AddressType@@UAEPAV1@XZ 080352e0 f i c1_GraphBuilder.obj
 0001:000342e0       ?as_OpJavaCall@LIR_OpJavaCall@@UAEPAV1@XZ 080352e0 f i c1_LIRGenerator.obj
 0001:000342e0       ?as_DoubleType@DoubleType@@UAEPAV1@XZ 080352e0 f i c1_Canonicalizer.obj
 0001:000342e0       ?as_ArrayConstant@ArrayConstant@@UAEPAV1@XZ 080352e0 f i c1_GraphBuilder.obj
 0001:000342e0       ?as_UnsafePutObject@UnsafePutObject@@UAEPAV1@XZ 080352e0 f i c1_GraphBuilder.obj
 0001:000342e0       ?as_LoadField@LoadField@@UAEPAV1@XZ 080352e0 f i c1_GraphBuilder.obj
 0001:000342e0       ?as_RoundFP@RoundFP@@UAEPAV1@XZ 080352e0 f i c1_GraphBuilder.obj
 0001:000342e0       ?as_two_generation_policy@TwoGenerationCollectorPolicy@@UAEPAV1@XZ 080352e0 f i cmsCollectorPolicy.obj
 0001:000342e0       ?as_OpAllocObj@LIR_OpAllocObj@@UAEPAV1@XZ 080352e0 f i c1_LIR.obj
 0001:000342e0       ?as_StoreIndexed@StoreIndexed@@UAEPAV1@XZ 080352e0 f i c1_Canonicalizer.obj
 0001:000342e0       ?as_IntType@IntType@@UAEPAV1@XZ 080352e0 f i c1_Canonicalizer.obj
 0001:000342e0       ?as_OsrEntry@OsrEntry@@UAEPAV1@XZ 080352e0 f i c1_GraphBuilder.obj
 0001:000342e0       ?as_AddressConstant@AddressConstant@@UAEPAV1@XZ 080352e0 f i c1_GraphBuilder.obj
 0001:000342e0       ?as_Phi@Phi@@UAEPAV1@XZ    080352e0 f i c1_ValueStack.obj
 0001:000342e0       ?as_CompareOp@CompareOp@@UAEPAV1@XZ 080352e0 f i c1_GraphBuilder.obj
 0001:000342e0       ?as_TypeCheck@TypeCheck@@UAEPAV1@XZ 080352e0 f i c1_GraphBuilder.obj
 0001:000342e0       ?as_UnsafeOp@UnsafeOp@@UAEPAV1@XZ 080352e0 f i c1_GraphBuilder.obj
 0001:000342e0       ?as_OpConvert@LIR_OpConvert@@UAEPAV1@XZ 080352e0 f i c1_LIRGenerator.obj
 0001:000342e0       ?as_g1_policy@G1CollectorPolicy@@UAEPAV1@XZ 080352e0 f i g1CollectorPolicy.obj
 0001:000342e0       ?as_StoreField@StoreField@@UAEPAV1@XZ 080352e0 f i c1_Canonicalizer.obj
 0001:000342e0       ?as_HRInto_G1RemSet@HRInto_G1RemSet@@UAEPAV1@XZ 080352e0 f i g1RemSet.obj
 0001:000342e0       ?as_ArrayType@ArrayType@@UAEPAV1@XZ 080352e0 f i c1_GraphBuilder.obj
 0001:000342e0       ?as_NewObjectArray@NewObjectArray@@UAEPAV1@XZ 080352e0 f i c1_GraphBuilder.obj
 0001:000342e0       ?as_ArithmeticOp@ArithmeticOp@@UAEPAV1@XZ 080352e0 f i c1_GraphBuilder.obj
 0001:000342e0       ?as_Op3@LIR_Op3@@UAEPAV1@XZ 080352e0 f i c1_LIR.obj
 0001:000342e0       ?as_OpCall@LIR_OpCall@@UAEPAV1@XZ 080352e0 f i c1_LIRGenerator.obj
 0001:000342e0       ?as_IfOp@IfOp@@UAEPAV1@XZ  080352e0 f i c1_Optimizer.obj
 0001:000342e0       ?as_OpTypeCheck@LIR_OpTypeCheck@@UAEPAV1@XZ 080352e0 f i c1_LIR.obj
 0001:000342e0       ?as_ArrayLength@ArrayLength@@UAEPAV1@XZ 080352e0 f i c1_GraphBuilder.obj
 0001:000342e0       ?as_Goto@Goto@@UAEPAV1@XZ  080352e0 f i c1_Canonicalizer.obj
 0001:000342e0       ?as_DoubleConstant@DoubleConstant@@UAEPAV1@XZ 080352e0 f i c1_Canonicalizer.obj
 0001:000342e0       ?as_LoadIndexed@LoadIndexed@@UAEPAV1@XZ 080352e0 f i c1_GraphBuilder.obj
 0001:000342e0       ?as_InstanceType@InstanceType@@UAEPAV1@XZ 080352e0 f i c1_GraphBuilder.obj
 0001:000342e0       ?as_AccessIndexed@AccessIndexed@@UAEPAV1@XZ 080352e0 f i c1_Canonicalizer.obj
 0001:000342e0       ?as_NewMultiArray@NewMultiArray@@UAEPAV1@XZ 080352e0 f i c1_GraphBuilder.obj
 0001:000342e0       ?as_IntConstant@IntConstant@@UAEPAV1@XZ 080352e0 f i c1_Canonicalizer.obj
 0001:000342e0       ?as_AccessMonitor@AccessMonitor@@UAEPAV1@XZ 080352e0 f i c1_GraphBuilder.obj
 0001:000342e0       ?as_BlockEnd@BlockEnd@@UAEPAV1@XZ 080352e0 f i c1_Canonicalizer.obj
 0001:000342e0       ?as_Return@Return@@UAEPAV1@XZ 080352e0 f i c1_GraphBuilder.obj
 0001:000342e0       ?as_OpBranch@LIR_OpBranch@@UAEPAV1@XZ 080352e0 f i c1_LIR.obj
 0001:000342e0       ?as_UnsafeObjectOp@UnsafeObjectOp@@UAEPAV1@XZ 080352e0 f i c1_GraphBuilder.obj
 0001:000342e0       ?as_Local@Local@@UAEPAV1@XZ 080352e0 f i c1_GraphBuilder.obj
 0001:000342e0       ?as_OpCompareAndSwap@LIR_OpCompareAndSwap@@UAEPAV1@XZ 080352e0 f i c1_LIR.obj
 0001:000342e0       ?as_generation_policy@GenCollectorPolicy@@UAEPAV1@XZ 080352e0 f i cmsCollectorPolicy.obj
 0001:000342e0       ?as_If@If@@UAEPAV1@XZ      080352e0 f i c1_Canonicalizer.obj
 0001:000342e0       ?as_FloatConstant@FloatConstant@@UAEPAV1@XZ 080352e0 f i c1_Canonicalizer.obj
 0001:000342e0       ?as_LongConstant@LongConstant@@UAEPAV1@XZ 080352e0 f i c1_Canonicalizer.obj
 0001:000342e0       ?as_constant@LIR_Const@@UAEPAV1@XZ 080352e0 f i c1_LIR.obj
 0001:000342e0       ?as_IllegalType@IllegalType@@UAEPAV1@XZ 080352e0 f i c1_ValueType.obj
 0001:000342e0       ?as_Switch@Switch@@UAEPAV1@XZ 080352e0 f i c1_GraphBuilder.obj
 0001:000342e0       ?as_MonitorEnter@MonitorEnter@@UAEPAV1@XZ 080352e0 f i c1_GraphBuilder.obj
 0001:000342e0       ?as_address@LIR_Address@@UAEPAV1@XZ 080352e0 f i c1_FrameMap_x86.obj
 0001:000342e0       ?as_NegateOp@NegateOp@@UAEPAV1@XZ 080352e0 f i c1_GraphBuilder.obj
 0001:000342e0       ?as_LookupSwitch@LookupSwitch@@UAEPAV1@XZ 080352e0 f i c1_GraphBuilder.obj
 0001:000342e0       ?as_Constant@Constant@@UAEPAV1@XZ 080352e0 f i c1_Canonicalizer.obj
 0001:000342e0       ?as_Throw@Throw@@UAEPAV1@XZ 080352e0 f i c1_GraphBuilder.obj
 0001:000342e0       ?as_mark_sweep_policy@MarkSweepPolicy@@UAEPAV1@XZ 080352e0 f i collectorPolicy.obj
 0001:000342f0       ??0IntConstant@@QAE@H@Z    080352f0 f i c1_Canonicalizer.obj
 0001:00034320       ?is_java_klass@ciInstanceKlass@@UAE_NXZ 08035320 f i ciInstanceKlass.obj
 0001:00034320       ?supports_heap_inspection@GenCollectedHeap@@UBE_NXZ 08035320 f i genCollectedHeap.obj
 0001:00034320       ?is_data@poll_return_Relocation@@EAE_NXZ 08035320 f i relocInfo.obj
 0001:00034320       ?is_range_check_stub@RangeCheckStub@@UBE_NXZ 08035320 f i c1_CodeStubs_x86.obj
 0001:00034320       ?is_hidden_from_external_view@CompilerThread@@UBE_NXZ 08035320 f i thread.obj
 0001:00034320       ?apply_to_weak_ref_discovered_field@FilterInHeapRegionAndIntoCSClosure@@UAE_NXZ 08035320 f i g1CollectedHeap.obj
 0001:00034320       ?is_constant@InstanceConstant@@UBE_NXZ 08035320 f i c1_GraphBuilder.obj
 0001:00034320       ?is_alive@SingletonBlob@@UBE_NXZ 08035320 f i codeBlob.obj
 0001:00034320       ?is_exception_throw_stub@ImplicitNullCheckStub@@UBE_NXZ 08035320 f i c1_LIRAssembler.obj
 0001:00034320       ?supports_heap_inspection@ParallelScavengeHeap@@UBE_NXZ 08035320 f i universe.obj
 0001:00034320       ?oop_is_constMethod@constMethodKlass@@UBE_NXZ 08035320 f i constMethodKlass.obj
 0001:00034320       ?is_array@ciArray@@UAE_NXZ 08035320 f i ciObjectFactory.obj
 0001:00034320       ?is_vm_object_alloc_event@JvmtiVMObjectAllocEventCollector@@UAE_NXZ 08035320 f i jvmtiExport.obj
 0001:00034320       ?doit_prologue@VM_BulkRevokeBias@@UAE_NXZ 08035320 f i biasedLocking.obj
 0001:00034320       ?is_constant@DoubleConstant@@UBE_NXZ 08035320 f i c1_Canonicalizer.obj
 0001:00034320       ?is_ArgInfoData@ArgInfoData@@UAE_NXZ 08035320 f i ciMethodData.obj
 0001:00034320       ?is_call_site@ciCallSite@@UBE_NXZ 08035320 f i ciObjectFactory.obj
 0001:00034320       ?is_interpreted@InterpretedRFrame@@UBE_NXZ 08035320 f i rframe.obj
 0001:00034320       ?supports_osr@Compiler@@UAE_NXZ 08035320 f i c1_Compiler.obj
 0001:00034320       ?allow_nested_vm_operations@VM_ChangeSingleStep@@UBE_NXZ 08035320 f i jvmtiEventController.obj
 0001:00034320       ?is_collected_pool@CollectedMemoryPool@@UAE_NXZ 08035320 f i g1MemoryPool.obj
 0001:00034320       ?should_remember_mdo@MarkAndPushClosure@MarkSweep@@UBE?B_NXZ 08035320 f i markSweep.obj
 0001:00034320       ?oop_is_symbol@symbolKlass@@UBE_NXZ 08035320 f i symbolKlass.obj
 0001:00034320       ?supports_tlab_allocation@DefNewGeneration@@UBE_NXZ 08035320 f i asParNewGeneration.obj
 0001:00034320       ?is_constant@LongConstant@@UBE_NXZ 08035320 f i c1_Canonicalizer.obj
 0001:00034320       ?can_trap@Throw@@UBE_NXZ   08035320 f i c1_GraphBuilder.obj
 0001:00034320       ?apply_to_weak_ref_discovered_field@FilterOutOfRegionClosure@@UAE_NXZ 08035320 f i heapRegion.obj
 0001:00034320       ?is_safepoint_stub@SafepointBlob@@UBE_NXZ 08035320 f i codeBlob.obj
 0001:00034320       ?is_VirtualCallData@VirtualCallData@@UAE_NXZ 08035320 f i ciMethodData.obj
 0001:00034320       ?is_instance_klass@ciInstanceKlass@@UAE_NXZ 08035320 f i ciInstanceKlass.obj
 0001:00034320       ?can_elide_tlab_store_barriers@ParallelScavengeHeap@@UBE_NXZ 08035320 f i universe.obj
 0001:00034320       ?is_klass@ciKlass@@UAE_NXZ 08035320 f i ciArrayKlass.obj
 0001:00034320       ?can_trap@MonitorEnter@@UBE_NXZ 08035320 f i c1_GraphBuilder.obj
 0001:00034320       ?doit_prologue@VM_Operation@@UAE_NXZ 08035320 f i attachListener.obj
 0001:00034320       ?oop_is_constantPool@constantPoolKlass@@UBE_NXZ 08035320 f i constantPoolKlass.obj
 0001:00034320       ?performs_in_place_marking@Generation@@UBE_NXZ 08035320 f i cmsPermGen.obj
 0001:00034320       ?is_alive@RuntimeStub@@UBE_NXZ 08035320 f i codeBlob.obj
 0001:00034320       ?is_compiled@CompiledRFrame@@UBE_NXZ 08035320 f i rframe.obj
 0001:00034320       ?is_symbol_klass@ciSymbolKlass@@UAE_NXZ 08035320 f i ciObjectFactory.obj
 0001:00034320       ?is_method_klass@ciMethodKlass@@UAE_NXZ 08035320 f i ciObjectFactory.obj
 0001:00034320       ?is_runtime_stub@RuntimeStub@@UBE_NXZ 08035320 f i codeBlob.obj
 0001:00034320       ?can_elide_permanent_oop_store_barriers@G1CollectedHeap@@UBE_NXZ 08035320 f i g1CollectedHeap.obj
 0001:00034320       ?is_constant_double@ConstantDoubleValue@@UBE_NXZ 08035320 f i debugInfo.obj
 0001:00034320       ?has_write_ref_barrier@ModRefBarrierSet@@UAE_NXZ 08035320 f i cardTableModRefBS.obj
 0001:00034320       ?is_cpcache@ciCPCache@@UBE_NXZ 08035320 f i ciObjectFactory.obj
 0001:00034320       ?is_array_klass@ciArrayKlass@@UAE_NXZ 08035320 f i ciArrayKlass.obj
 0001:00034320       ?is_compiled@adapterNode@@UBE_NXZ 08035320 f i fprofiler.obj
 0001:00034320       ?allow_nested_vm_operations@VM_HandleFullCodeCache@@UBE_NXZ 08035320 f i sweeper.obj
 0001:00034320       ?is_Compiler_thread@CompilerThread@@UBE_NXZ 08035320 f i thread.obj
 0001:00034320       ?is_widen@ChangeWiden@@UAE_NXZ 08035320 f i relocator.obj
 0001:00034320       ?is_ArrayData@ArrayData@@UAE_NXZ 08035320 f i ciMethodData.obj
 0001:00034320       ?oop_is_methodData@methodDataKlass@@UBE_NXZ 08035320 f i methodDataKlass.obj
 0001:00034320       ?is_constant@IntConstant@@UBE_NXZ 08035320 f i c1_Canonicalizer.obj
 0001:00034320       ?is_symbol@ciSymbol@@UAE_NXZ 08035320 f i ciSymbol.obj
 0001:00034320       ?is_type_array_klass@ciTypeArrayKlass@@UAE_NXZ 08035320 f i ciTypeArrayKlass.obj
 0001:00034320       ?is_constant_oop@ConstantOopReadValue@@UBE_NXZ 08035320 f i debugInfo.obj
 0001:00034320       ?can_trap@TypeCheck@@UBE_NXZ 08035320 f i c1_GraphBuilder.obj
 0001:00034320       ?is_data@poll_Relocation@@EAE_NXZ 08035320 f i relocInfo.obj
 0001:00034320       ?is_MultiBranchData@MultiBranchData@@UAE_NXZ 08035320 f i ciMethodData.obj
 0001:00034320       ?allow_nested_vm_operations@VM_Deoptimize@@UBE_NXZ 08035320 f i jvmtiEventController.obj
 0001:00034320       ?is_leaf_class@klassKlass@@UBE_NXZ 08035320 f i arrayKlassKlass.obj
 0001:00034320       ?is_maximal_no_gc@DefNewGeneration@@UBE_NXZ 08035320 f i asParNewGeneration.obj
 0001:00034320       ?allow_nested_vm_operations@VM_DeoptimizeFrame@@UBE_NXZ 08035320 f i vm_operations.obj
 0001:00034320       ?oop_is_instance_slow@instanceKlass@@UBE_NXZ 08035320 f i instanceKlassKlass.obj
 0001:00034320       ?is_buffer_blob@BufferBlob@@UBE_NXZ 08035320 f i codeBlob.obj
 0001:00034320       ?is_type_array@ciTypeArray@@UAE_NXZ 08035320 f i ciObjectFactory.obj
 0001:00034320       ?is_BitData@BitData@@UAE_NXZ 08035320 f i ciMethodData.obj
 0001:00034320       ?is_instance@ciInstance@@UAE_NXZ 08035320 f i ciObjectFactory.obj
 0001:00034320       ?is_constant_long@ConstantLongValue@@UBE_NXZ 08035320 f i debugInfo.obj
 0001:00034320       ?is_cheap_allocated@VM_ForceAsyncSafepoint@@UBE_NXZ 08035320 f i synchronizer.obj
 0001:00034320       ?is_classless@ciNullObject@@UBE_NXZ 08035320 f i ciObjectFactory.obj
 0001:00034320       ?is_constant@ClassConstant@@UBE_NXZ 08035320 f i c1_GraphBuilder.obj
 0001:00034320       ?is_hidden_from_external_view@SurrogateLockerThread@@UBE_NXZ 08035320 f i concurrentGCThread.obj
 0001:00034320       ?is_hidden_from_external_view@LowMemoryDetectorThread@@UBE_NXZ 08035320 f i lowMemoryDetector.obj
 0001:00034320       ?grows_up@PSVirtualSpace@@UBE_NXZ 08035320 f i psVirtualspace.obj
 0001:00034320       ?allow_nested_vm_operations@VM_ThreadStop@@UBE_NXZ 08035320 f i thread.obj
 0001:00034320       ?is_instance_klass_klass@ciInstanceKlassKlass@@UAE_NXZ 08035320 f i ciObjectFactory.obj
 0001:00034320       ?oop_is_arrayKlass@arrayKlassKlass@@UBE_NXZ 08035320 f i arrayKlassKlass.obj
 0001:00034320       ?is_location@LocationValue@@UBE_NXZ 08035320 f i c1_LinearScan.obj
 0001:00034320       ?oop_is_typeArrayKlass@typeArrayKlassKlass@@UBE_NXZ 08035320 f i typeArrayKlassKlass.obj
 0001:00034320       ?is_interpreted@interpretedNode@@UBE_NXZ 08035320 f i fprofiler.obj
 0001:00034320       ?idempotent@IntoCSOopClosure@@UAE_NXZ 08035320 f i g1RemSet.obj
 0001:00034320       ?regions_accounted_for@G1CollectedHeap@@QAE_NXZ 08035320 f i g1CollectedHeap.obj
 0001:00034320       ?is_method@ciMethod@@UAE_NXZ 08035320 f i ciMethod.obj
 0001:00034320       ?is_constant@ObjectConstant@@UBE_NXZ 08035320 f i c1_GraphBuilder.obj
 0001:00034320       ?must_be_oldest@ConcurrentMarkSweepGeneration@@UBE_NXZ 08035320 f i concurrentMarkSweepGeneration.obj
 0001:00034320       ?is_JumpData@JumpData@@UAE_NXZ 08035320 f i ciMethodData.obj
 0001:00034320       ?adapter_match@adapterNode@@UBE_NXZ 08035320 f i fprofiler.obj
 0001:00034320       ?is_exception_throw_stub@ArrayStoreExceptionStub@@UBE_NXZ 08035320 f i c1_CodeStubs_x86.obj
 0001:00034320       ?is_java_klass@ciArrayKlass@@UAE_NXZ 08035320 f i ciArrayKlass.obj
 0001:00034320       ?is_constant_int@ConstantIntValue@@UBE_NXZ 08035320 f i c1_LinearScan.obj
 0001:00034320       ?oop_is_constantPoolCache@constantPoolCacheKlass@@UBE_NXZ 08035320 f i cpCacheKlass.obj
 0001:00034320       ?can_execute_large_page_memory@os@@SA_NXZ 08035320 f i os_windows.obj
 0001:00034320       ?is_divbyzero_stub@DivByZeroStub@@UBE_NXZ 08035320 f i c1_LIRAssembler.obj
 0001:00034320       ?validate_frame@FrameMap@@IAE_NXZ 08035320 f i c1_FrameMap_x86.obj
 0001:00034320       ?allow_nested_vm_operations@VM_RedefineClasses@@UBE_NXZ 08035320 f i jvmtiRedefineClasses.obj
 0001:00034320       ?is_method_data@ciMethodData@@UAE_NXZ 08035320 f i ciMethodData.obj
 0001:00034320       ?refs_discovery_is_atomic@Generation@@UBE_NXZ 08035320 f i asParNewGeneration.obj
 0001:00034320       ?must_be_youngest@DefNewGeneration@@UBE_NXZ 08035320 f i asParNewGeneration.obj
 0001:00034320       ?register_code_area@os@@SA_NPAD0@Z 08035320 f i os_windows_x86.obj
 0001:00034320       ?can_trap@NewInstance@@UBE_NXZ 08035320 f i c1_GraphBuilder.obj
 0001:00034320       ?is_type_array_klass_klass@ciTypeArrayKlassKlass@@UAE_NXZ 08035320 f i ciObjectFactory.obj
 0001:00034320       ?oop_is_typeArray_slow@typeArrayKlass@@UBE_NXZ 08035320 f i typeArrayKlass.obj
 0001:00034320       ?allow_nested_vm_operations@VM_GetOrSetLocal@@UBE_NXZ 08035320 f i jvmtiImpl.obj
 0001:00034320       ?is_method_handle@ciMethodHandle@@UBE_NXZ 08035320 f i ciObjectFactory.obj
 0001:00034320       ?has_write_region_opt@CardTableModRefBS@@UAE_NXZ 08035320 f i cardTableModRefBS.obj
 0001:00034320       ?is_constant@ArrayConstant@@UBE_NXZ 08035320 f i c1_GraphBuilder.obj
 0001:00034320       ?report_init_vars@ResolveOopMapConflicts@@EBE_NXZ 08035320 f i rewriter.obj
 0001:00034320       ?is_lazy@LazyClassPathEntry@@UAE_NXZ 08035320 f i classLoader.obj
 0001:00034320       ?allow_nested_vm_operations@VM_GC_Operation@@UBE_NXZ 08035320 f i attachListener.obj
 0001:00034320       ?is_entry_frame@entryVFrame@@UBE_NXZ 08035320 f i vframe.obj
 0001:00034320       ?is_call@CallRelocation@@UAE_NXZ 08035320 f i assembler_x86.obj
 0001:00034320       ?apply_to_weak_ref_discovered_field@FilterIntoCSClosure@@UAE_NXZ 08035320 f i heapRegion.obj
 0001:00034320       ?is_runtime_stub@runtimeStubNode@@UBE_NXZ 08035320 f i fprofiler.obj
 0001:00034320       ?can_trap@NewArray@@UBE_NXZ 08035320 f i c1_GraphBuilder.obj
 0001:00034320       ?apply_to_weak_ref_discovered_field@FilterAndMarkInHeapRegionAndIntoCSClosure@@UAE_NXZ 08035320 f i g1CollectedHeap.obj
 0001:00034320       ?apply_to_weak_ref_discovered_field@UpdateRSOopClosure@@UAE_NXZ 08035320 f i g1CollectedHeap.obj
 0001:00034320       ?card_mark_must_follow_store@G1CollectedHeap@@UBE_NXZ 08035320 f i g1CollectedHeap.obj
 0001:00034320       ?reading@ReadClosure@@UBE_NXZ 08035320 f i restore.obj
 0001:00034320       ?allow_nested_vm_operations@VM_ZombieAll@@UBE_NXZ 08035320 f i interfaceSupport.obj
 0001:00034320       ?allow_nested_vm_operations@VM_DeoptimizeAll@@UBE_NXZ 08035320 f i interfaceSupport.obj
 0001:00034320       ?is_compiled@unknown_compiledNode@@UBE_NXZ 08035320 f i fprofiler.obj
 0001:00034320       ?is_ReceiverTypeData@ReceiverTypeData@@UAE_NXZ 08035320 f i ciMethodData.obj
 0001:00034320       ?is_ConcurrentGC_thread@ConcurrentMarkSweepThread@@UBE_NXZ 08035320 f i concurrentMarkSweepThread.obj
 0001:00034320       ?is_top@vframe@@UBE_NXZ    08035320 f i vframe.obj
 0001:00034320       ?is_java_object@ciInstance@@UAE_NXZ 08035320 f i ciObjectFactory.obj
 0001:00034320       ?is_stub@stubNode@@UBE_NXZ 08035320 f i fprofiler.obj
 0001:00034320       ?has_write_ref_array_pre_opt@BarrierSet@@UAE_NXZ 08035320 f i cardTableModRefBS.obj
 0001:00034320       ?is_deoptimization_stub@DeoptimizationBlob@@UBE_NXZ 08035320 f i codeBlob.obj
 0001:00034320       ?is_GC_task_thread@GCTaskThread@@UBE_NXZ 08035320 f i gcTaskThread.obj
 0001:00034320       ?can_elide_permanent_oop_store_barriers@ParallelScavengeHeap@@UBE_NXZ 08035320 f i universe.obj
 0001:00034320       ?is_java_object@ciArray@@UAE_NXZ 08035320 f i ciObjectFactory.obj
 0001:00034320       ?is_gc_memory_manager@GCMemoryManager@@UAE_NXZ 08035320 f i memoryManager.obj
 0001:00034320       ?is_jar_file@ClassPathZipEntry@@UAE_NXZ 08035320 f i classLoader.obj
 0001:00034320       ?is_jump_widen@ChangeJumpWiden@@UAE_NXZ 08035320 f i relocator.obj
 0001:00034320       ?activate_current@IntervalWalker@@MAE_NXZ 08035320 f i c1_LinearScan.obj
 0001:00034320       ?is_exception_throw_stub@RangeCheckStub@@UBE_NXZ 08035320 f i c1_CodeStubs_x86.obj
 0001:00034320       ?is_compiled@vmNode@@UBE_NXZ 08035320 f i fprofiler.obj
 0001:00034320       ?supports_inline_contig_alloc@DefNewGeneration@@UBE_NXZ 08035320 f i asParNewGeneration.obj
 0001:00034320       ?needs_pll@VM_CMS_Final_Remark@@UBE?B_NXZ 08035320 f i concurrentMarkSweepGeneration.obj
 0001:00034320       ?is_obj_array@ciObjArray@@UAE_NXZ 08035320 f i ciObjectFactory.obj
 0001:00034320       ?is_obj_array_klass@ciObjArrayKlass@@UAE_NXZ 08035320 f i ciObjArrayKlass.obj
 0001:00034320       ?is_object@ObjectValue@@UBE_NXZ 08035320 f i debugInfo.obj
 0001:00034320       ?is_VM_thread@VMThread@@UBE_NXZ 08035320 f i vmThread.obj
 0001:00034320       ?is_exception_throw_stub@DivByZeroStub@@UBE_NXZ 08035320 f i c1_LIRAssembler.obj
 0001:00034320       ?report_init_vars@GenerateOopMap@@UBE_NXZ 08035320 f i generateOopMap.obj
 0001:00034320       ?oop_is_objArrayKlass@objArrayKlassKlass@@UBE_NXZ 08035320 f i objArrayKlassKlass.obj
 0001:00034320       ?report_results@GenerateOopMap@@UBE_NXZ 08035320 f i generateOopMap.obj
 0001:00034320       ?can_trap@Invoke@@UBE_NXZ  08035320 f i c1_Instruction.obj
 0001:00034320       ?is_Named_thread@NamedThread@@UBE_NXZ 08035320 f i concurrentG1RefineThread.obj
 0001:00034320       ?can_elide_tlab_store_barriers@GenCollectedHeap@@UBE_NXZ 08035320 f i genCollectedHeap.obj
 0001:00034320       ?is_jvmti_agent_thread@JvmtiAgentThread@@UBE_NXZ 08035320 f i jvmtiImpl.obj
 0001:00034320       ?oop_is_klass@instanceKlassKlass@@UBE_NXZ 08035320 f i instanceKlassKlass.obj
 0001:00034320       ?has_write_ref_pre_barrier@G1SATBCardTableModRefBS@@UAE_NXZ 08035320 f i g1SATBCardTableModRefBS.obj
 0001:00034320       ?is_BranchData@BranchData@@UAE_NXZ 08035320 f i ciMethodData.obj
 0001:00034320       ?is_constant@AddressConstant@@UBE_NXZ 08035320 f i c1_GraphBuilder.obj
 0001:00034320       ?oop_is_klass@klassKlass@@UBE_NXZ 08035320 f i arrayKlassKlass.obj
 0001:00034320       ?oop_is_instanceKlass@instanceKlassKlass@@UBE_NXZ 08035320 f i instanceKlassKlass.obj
 0001:00034320       ?is_interpreted_frame@interpretedVFrame@@UBE_NXZ 08035320 f i vframe.obj
 0001:00034320       ?supports_tlab_allocation@ParallelScavengeHeap@@UBE_NXZ 08035320 f i universe.obj
 0001:00034320       ?is_null_object@ciNullObject@@UBE_NXZ 08035320 f i ciObjectFactory.obj
 0001:00034320       ?is_java_object@ciNullObject@@UAE_NXZ 08035320 f i ciObjectFactory.obj
 0001:00034320       ?evaluate_at_safepoint@VM_CMS_Operation@@UBE_NXZ 08035320 f i concurrentMarkSweepGeneration.obj
 0001:00034320       ?is_dynamic_code_event@JvmtiDynamicCodeEventCollector@@UAE_NXZ 08035320 f i jvmtiExport.obj
 0001:00034320       ?is_klass_klass@ciKlassKlass@@UAE_NXZ 08035320 f i ciObjectFactory.obj
 0001:00034320       ?is_data@DataRelocation@@UAE_NXZ 08035320 f i assembler_x86.obj
 0001:00034320       ?oop_is_objArray_slow@objArrayKlass@@UBE_NXZ 08035320 f i objArrayKlassKlass.obj
 0001:00034320       ?is_Watcher_thread@WatcherThread@@UBE_NXZ 08035320 f i thread.obj
 0001:00034320       ?must_be_oldest@TenuredGeneration@@UBE_NXZ 08035320 f i tenuredGeneration.obj
 0001:00034320       ?allow_rewrites@ResolveOopMapConflicts@@EBE_NXZ 08035320 f i rewriter.obj
 0001:00034320       ?apply_to_weak_ref_discovered_field@IntoCSOopClosure@@UAE_NXZ 08035320 f i g1RemSet.obj
 0001:00034320       ?oop_is_instanceRef@instanceRefKlass@@UBE_NXZ 08035320 f i instanceKlassKlass.obj
 0001:00034320       ?apply_to_weak_ref_discovered_field@G1ParClosureSuper@@UAE_NXZ 08035320 f i g1CollectedHeap.obj
 0001:00034320       ?is_java_frame@javaVFrame@@UBE_NXZ 08035320 f i vframe.obj
 0001:00034320       ?is_compiled_frame@compiledVFrame@@UBE_NXZ 08035320 f i vframe_hp.obj
 0001:00034320       ?supports_tlab_allocation@G1CollectedHeap@@UBE_NXZ 08035320 f i g1CollectedHeap.obj
 0001:00034320       ?supports_native@Compiler@@UAE_NXZ 08035320 f i c1_Compiler.obj
 0001:00034320       ?allow_nested_vm_operations@VM_EnterInterpOnlyMode@@UBE_NXZ 08035320 f i jvmtiEventController.obj
 0001:00034320       ?is_constant_oop@ConstantOopWriteValue@@UBE_NXZ 08035320 f i c1_LinearScan.obj
 0001:00034320       ?is_alive@BufferBlob@@UBE_NXZ 08035320 f i codeBlob.obj
 0001:00034320       ?is_compiled@compiledNode@@UBE_NXZ 08035320 f i fprofiler.obj
 0001:00034320       ?is_switch_pad@ChangeSwitchPad@@UAE_NXZ 08035320 f i relocator.obj
 0001:00034320       ?is_type@ciType@@UAE_NXZ   08035320 f i ciArrayKlass.obj
 0001:00034320       ?is_obj_array_klass_klass@ciObjArrayKlassKlass@@UAE_NXZ 08035320 f i ciObjectFactory.obj
 0001:00034320       ?supports_native@AbstractCompiler@@UAE_NXZ 08035320 f i c1_Compiler.obj
 0001:00034320       ?is_cheap_allocated@VM_ThreadStop@@UBE_NXZ 08035320 f i thread.obj
 0001:00034320       ?is_Java_thread@JavaThread@@UBE_NXZ 08035320 f i concurrentGCThread.obj
 0001:00034320       ?is_YieldingFlexibleGang_task@YieldingFlexibleGangTask@@MBE_NXZ 08035320 f i concurrentMarkSweepGeneration.obj
 0001:00034320       ?oop_is_array@arrayKlass@@UBE_NXZ 08035320 f i objArrayKlassKlass.obj
 0001:00034320       ?is_RetData@RetData@@UAE_NXZ 08035320 f i ciMethodData.obj
 0001:00034320       ?is_CounterData@CounterData@@UAE_NXZ 08035320 f i ciMethodData.obj
 0001:00034320       ?is_return_address@ciReturnAddress@@UAE_NXZ 08035320 f i ciType.obj
 0001:00034320       ?is_ConcurrentGC_thread@ConcurrentGCThread@@UBE_NXZ 08035320 f i concurrentG1RefineThread.obj
 0001:00034320       ?is_exception_throw_stub@SimpleExceptionStub@@UBE_NXZ 08035320 f i c1_LIRGenerator_x86.obj
 0001:00034320       ?oop_is_compiledICHolder@compiledICHolderKlass@@UBE_NXZ 08035320 f i compiledICHolderKlass.obj
 0001:00034320       ?supports_osr@AbstractCompiler@@UAE_NXZ 08035320 f i c1_Compiler.obj
 0001:00034320       ?supports_heap_inspection@G1CollectedHeap@@UBE_NXZ 08035320 f i g1CollectedHeap.obj
 0001:00034320       ?is_constant@FloatConstant@@UBE_NXZ 08035320 f i c1_Canonicalizer.obj
 0001:00034320       ?oop_is_method@methodKlass@@UBE_NXZ 08035320 f i methodKlass.obj
 0001:00034320       ?is_nmethod@nmethod@@UBE_NXZ 08035320 f i nmethod.obj
 0001:00034320       ?is_array_klass_klass@ciArrayKlassKlass@@UAE_NXZ 08035320 f i ciObjectFactory.obj
 0001:00034320       ?has_write_ref_array_opt@CardTableModRefBS@@UAE_NXZ 08035320 f i cardTableModRefBS.obj
 0001:00034330       ?base@LongType@@UBEPAVValueType@@XZ 08035330 f i c1_Canonicalizer.obj
 0001:00034340       ?tchar@LongType@@UBE?BDXZ  08035340 f i c1_Canonicalizer.obj
 0001:00034350       ?name@LongType@@UBEPBDXZ   08035350 f i c1_Canonicalizer.obj
 0001:00034360       ??0LongConstant@@QAE@_J@Z  08035360 f i c1_Canonicalizer.obj
 0001:00034390       ?base@FloatType@@UBEPAVValueType@@XZ 08035390 f i c1_Canonicalizer.obj
 0001:000343a0       ?tchar@FloatType@@UBE?BDXZ 080353a0 f i c1_Canonicalizer.obj
 0001:000343b0       ?name@FloatType@@UBEPBDXZ  080353b0 f i c1_Canonicalizer.obj
 0001:000343c0       ??0FloatConstant@@QAE@M@Z  080353c0 f i c1_Canonicalizer.obj
 0001:000343f0       ?base@DoubleType@@UBEPAVValueType@@XZ 080353f0 f i c1_Canonicalizer.obj
 0001:00034400       ?tchar@DoubleType@@UBE?BDXZ 08035400 f i c1_Canonicalizer.obj
 0001:00034410       ?name@DoubleType@@UBEPBDXZ 08035410 f i c1_Canonicalizer.obj
 0001:00034420       ??0DoubleConstant@@QAE@N@Z 08035420 f i c1_Canonicalizer.obj
 0001:00034450       ??0Constant@@QAE@PAVValueType@@@Z 08035450 f i c1_Canonicalizer.obj
 0001:00034500       ?name@Constant@@UBEPBDXZ   08035500 f i c1_Canonicalizer.obj
 0001:00034510       ?visit@Constant@@UAEXPAVInstructionVisitor@@@Z 08035510 f i c1_Canonicalizer.obj
 0001:00034530       ?can_trap@Constant@@UBE_NXZ 08035530 f i c1_Canonicalizer.obj
 0001:00034540       ??0AccessField@@QAE@PAVInstruction@@HPAVciField@@_NPAVValueStack@@322@Z 08035540 f i c1_Canonicalizer.obj
 0001:000346b0       ?set_lock_stack@AccessField@@UAEXPAVValueStack@@@Z 080356b0 f i c1_Canonicalizer.obj
 0001:000346c0       ?can_trap@AccessField@@UBE_NXZ 080356c0 f i c1_Canonicalizer.obj
 0001:000346e0       ??0StoreField@@QAE@PAVInstruction@@HPAVciField@@0_NPAVValueStack@@322@Z 080356e0 f i c1_Canonicalizer.obj
 0001:00034790       ?name@StoreField@@UBEPBDXZ 08035790 f i c1_Canonicalizer.obj
 0001:000347a0       ?visit@StoreField@@UAEXPAVInstructionVisitor@@@Z 080357a0 f i c1_Canonicalizer.obj
 0001:000347c0       ?input_values_do@StoreField@@UAEXP6AXPAPAVInstruction@@@Z@Z 080357c0 f i c1_Canonicalizer.obj
 0001:000347e0       ??0AccessArray@@QAE@PAVValueType@@PAVInstruction@@PAVValueStack@@@Z 080357e0 f i c1_Canonicalizer.obj
 0001:000348c0       ?can_trap@AccessArray@@UBE_NXZ 080358c0 f i c1_Canonicalizer.obj
 0001:000348d0       ?input_values_do@RoundFP@@UAEXP6AXPAPAVInstruction@@@Z@Z 080358d0 f i c1_GraphBuilder.obj
 0001:000348d0       ?input_values_do@NullCheck@@UAEXP6AXPAPAVInstruction@@@Z@Z 080358d0 f i c1_GraphBuilder.obj
 0001:000348d0       ?input_values_do@AccessField@@UAEXP6AXPAPAVInstruction@@@Z@Z 080358d0 f i c1_Canonicalizer.obj
 0001:000348d0       ?input_values_do@AccessArray@@UAEXP6AXPAPAVInstruction@@@Z@Z 080358d0 f i c1_Canonicalizer.obj
 0001:000348d0       ?input_values_do@NegateOp@@UAEXP6AXPAPAVInstruction@@@Z@Z 080358d0 f i c1_GraphBuilder.obj
 0001:000348d0       ?input_values_do@ProfileCounter@@UAEXP6AXPAPAVInstruction@@@Z@Z 080358d0 f i c1_GraphBuilder.obj
 0001:000348f0       ??0AccessIndexed@@QAE@PAVInstruction@@00W4BasicType@@PAVValueStack@@@Z 080358f0 f i c1_Canonicalizer.obj
 0001:00034960       ?input_values_do@AccessIndexed@@UAEXP6AXPAPAVInstruction@@@Z@Z 08035960 f i c1_Canonicalizer.obj
 0001:00034990       ??0StoreIndexed@@QAE@PAVInstruction@@00W4BasicType@@0PAVValueStack@@@Z 08035990 f i c1_Canonicalizer.obj
 0001:00034a50       ?name@StoreIndexed@@UBEPBDXZ 08035a50 f i c1_Canonicalizer.obj
 0001:00034a60       ?visit@StoreIndexed@@UAEXPAVInstructionVisitor@@@Z 08035a60 f i c1_Canonicalizer.obj
 0001:00034a80       ?input_values_do@StoreIndexed@@UAEXP6AXPAPAVInstruction@@@Z@Z 08035a80 f i c1_Canonicalizer.obj
 0001:00034ac0       ??0StateSplit@@QAE@PAVValueType@@@Z 08035ac0 f i c1_Canonicalizer.obj
 0001:00034b60       ?set_sux@BlockEnd@@IAEXPAVBlockList@@@Z 08035b60 f i c1_Canonicalizer.obj
 0001:00034be0       ?default_sux@BlockEnd@@QBEPAVBlockBegin@@XZ 08035be0 f i c1_Canonicalizer.obj
 0001:00034c30       ?sux_for@If@@QBEPAVBlockBegin@@_N@Z 08035c30 f i c1_Canonicalizer.obj
 0001:00034c80       ?tsux@If@@QBEPAVBlockBegin@@XZ 08035c80 f i c1_Canonicalizer.obj
 0001:00034cb0       ?fsux@If@@QBEPAVBlockBegin@@XZ 08035cb0 f i c1_Canonicalizer.obj
 0001:00034ce0       ?set_canonical@Canonicalizer@@AAEXPAVInstruction@@@Z 08035ce0 f   c1_Canonicalizer.obj
 0001:00034d90       ?do_StoreField@Canonicalizer@@UAEXPAVStoreField@@@Z 08035d90 f   c1_Canonicalizer.obj
 0001:00034ef0       ?do_StoreIndexed@Canonicalizer@@UAEXPAVStoreIndexed@@@Z 08035ef0 f   c1_Canonicalizer.obj
 0001:00035010       ?do_NullCheck@Canonicalizer@@UAEXPAVNullCheck@@@Z 08036010 f   c1_Canonicalizer.obj
 0001:000350a0       ?do_CheckCast@Canonicalizer@@UAEXPAVCheckCast@@@Z 080360a0 f   c1_Canonicalizer.obj
 0001:000353a0       ?do_UnsafeRawOp@Canonicalizer@@AAEXPAVUnsafeRawOp@@@Z 080363a0 f   c1_Canonicalizer.obj
 0001:00035420       ?do_UnsafeGetRaw@Canonicalizer@@UAEXPAVUnsafeGetRaw@@@Z 08036420 f   c1_Canonicalizer.obj
 0001:00035420       ?do_UnsafePutRaw@Canonicalizer@@UAEXPAVUnsafePutRaw@@@Z 08036420 f   c1_Canonicalizer.obj
 0001:00035440       ?constant_value@ciField@@QAE?AVciConstant@@XZ 08036440 f i c1_Canonicalizer.obj
 0001:000354a0       ??0BlockList@@QAE@H@Z      080364a0 f i c1_Canonicalizer.obj
 0001:000354f0       ??0Goto@@QAE@PAVBlockBegin@@PAVValueStack@@_N@Z 080364f0 f i c1_Canonicalizer.obj
 0001:00035590       ?name@Goto@@UBEPBDXZ       08036590 f i c1_Canonicalizer.obj
 0001:000355a0       ?visit@Goto@@UAEXPAVInstructionVisitor@@@Z 080365a0 f i c1_Canonicalizer.obj
 0001:000355c0       ??0If@@QAE@PAVInstruction@@W4Condition@1@_N0PAVBlockBegin@@3PAVValueStack@@2@Z 080365c0 f i c1_Canonicalizer.obj
 0001:00035700       ?name@If@@UBEPBDXZ         08036700 f i c1_Canonicalizer.obj
 0001:00035710       ?visit@If@@UAEXPAVInstructionVisitor@@@Z 08036710 f i c1_Canonicalizer.obj
 0001:00035730       ?input_values_do@If@@UAEXP6AXPAPAVInstruction@@@Z@Z 08036730 f i c1_Canonicalizer.obj
 0001:00035750       ?name@IfInstanceOf@@UBEPBDXZ 08036750 f i c1_Canonicalizer.obj
 0001:00035760       ?visit@IfInstanceOf@@UAEXPAVInstructionVisitor@@@Z 08036760 f i c1_Canonicalizer.obj
 0001:00035780       ?input_values_do@IfInstanceOf@@UAEXP6AXPAPAVInstruction@@@Z@Z 08036780 f i c1_Canonicalizer.obj
 0001:000357a0       ?set_constant@Canonicalizer@@AAEXH@Z 080367a0 f i c1_Canonicalizer.obj
 0001:00035880       ?set_constant@Canonicalizer@@AAEX_J@Z 08036880 f i c1_Canonicalizer.obj
 0001:00035970       ?set_constant@Canonicalizer@@AAEXM@Z 08036970 f i c1_Canonicalizer.obj
 0001:00035a50       ?set_constant@Canonicalizer@@AAEXN@Z 08036a50 f i c1_Canonicalizer.obj
 0001:00035b30       ?do_Op2@Canonicalizer@@AAEXPAVOp2@@@Z 08036b30 f   c1_Canonicalizer.obj
 0001:00036060       ?do_ArrayLength@Canonicalizer@@UAEXPAVArrayLength@@@Z 08037060 f   c1_Canonicalizer.obj
 0001:00036140       ?do_NegateOp@Canonicalizer@@UAEXPAVNegateOp@@@Z 08037140 f   c1_Canonicalizer.obj
 0001:00036220       ?do_ShiftOp@Canonicalizer@@UAEXPAVShiftOp@@@Z 08037220 f   c1_Canonicalizer.obj
 0001:000364b0       ?do_ArithmeticOp@Canonicalizer@@UAEXPAVArithmeticOp@@@Z 080374b0 f   c1_Canonicalizer.obj
 0001:000364b0       ?do_LogicOp@Canonicalizer@@UAEXPAVLogicOp@@@Z 080374b0 f   c1_Canonicalizer.obj
 0001:000364c0       ?do_CompareOp@Canonicalizer@@UAEXPAVCompareOp@@@Z 080374c0 f   c1_Canonicalizer.obj
 0001:00036770       ?do_Intrinsic@Canonicalizer@@UAEXPAVIntrinsic@@@Z 08037770 f   c1_Canonicalizer.obj
 0001:000368e0       ?do_Convert@Canonicalizer@@UAEXPAVConvert@@@Z 080378e0 f   c1_Canonicalizer.obj
 0001:00036c90       ?do_InstanceOf@Canonicalizer@@UAEXPAVInstanceOf@@@Z 08037c90 f   c1_Canonicalizer.obj
 0001:00036d50       ?do_If@Canonicalizer@@UAEXPAVIf@@@Z 08037d50 f   c1_Canonicalizer.obj
 0001:00037220       ?do_TableSwitch@Canonicalizer@@UAEXPAVTableSwitch@@@Z 08038220 f   c1_Canonicalizer.obj
 0001:00037330       ?do_LookupSwitch@Canonicalizer@@UAEXPAVLookupSwitch@@@Z 08038330 f   c1_Canonicalizer.obj
 0001:000374a0       ?align_patch_site@PatchingStub@@AAEXPAVMacroAssembler@@@Z 080384a0 f   c1_CodeStubs_x86.obj
 0001:000374c0       ??_H@YGXPAXIHP6EPAX0@Z@Z   080384c0 f i c1_CodeStubs_x86.obj
 0001:000374f0       ?get_resolve_static_call_stub@SharedRuntime@@SAPAEXZ 080384f0 f i c1_CodeStubs_x86.obj
 0001:00037520       ?as_jint@LIR_Const@@QBEHXZ 08038520 f i c1_CodeStubs_x86.obj
 0001:00037550       ?is_fpu_register@LIR_OprDesc@@QBE_NXZ 08038550 f i c1_CodeStubs_x86.obj
 0001:00037570       ?is_single_xmm@LIR_OprDesc@@QBE_NXZ 08038570 f i c1_CodeStubs_x86.obj
 0001:00037590       ?is_double_xmm@LIR_OprDesc@@QBE_NXZ 08038590 f i c1_CodeStubs_x86.obj
 0001:000375b0       ?pointer@LIR_OprDesc@@QBEPAVLIR_OprPtr@@XZ 080385b0 f i c1_CodeStubs_x86.obj
 0001:000375e0       ?as_constant_ptr@LIR_OprDesc@@QBEPAVLIR_Const@@XZ 080385e0 f i c1_CodeStubs_x86.obj
 0001:00037610       ?as_jint@LIR_OprDesc@@QBEHXZ 08038610 f i c1_CodeStubs_x86.obj
 0001:00037670       ?entry_for@Runtime1@@SAPAEW4StubID@1@@Z 08038670 f i c1_CodeStubs_x86.obj
 0001:00037690       ?visit@CodeStub@@UAEXPAVLIR_OpVisitState@@@Z 08038690 f i c1_CodeStubs_x86.obj
 0001:000376e0       ?print_name@MonitorAccessStub@@UBEXPAVoutputStream@@@Z 080386e0 f i c1_CodeStubs_x86.obj
 0001:00037700       ?as_Register@VMRegImpl@@QAEPAVRegisterImpl@@XZ 08038700 f i c1_CodeStubs_x86.obj
 0001:00037730       ?emit_code@ConversionStub@@UAEXPAVLIR_Assembler@@@Z 08038730 f   c1_CodeStubs_x86.obj
 0001:00037900       ??0RangeCheckStub@@QAE@PAVCodeEmitInfo@@PAVLIR_OprDesc@@_N@Z 08038900 f   c1_CodeStubs_x86.obj
 0001:000379a0       ?print_name@RangeCheckStub@@UBEXPAVoutputStream@@@Z 080389a0 f i c1_CodeStubs_x86.obj
 0001:000379c0       ?emit_code@RangeCheckStub@@UAEXPAVLIR_Assembler@@@Z 080389c0 f   c1_CodeStubs_x86.obj
 0001:00037a80       ?emit_code@DivByZeroStub@@UAEXPAVLIR_Assembler@@@Z 08038a80 f   c1_CodeStubs_x86.obj
 0001:00037b20       ??0NewInstanceStub@@QAE@PAVLIR_OprDesc@@0PAVciInstanceKlass@@PAVCodeEmitInfo@@W4StubID@Runtime1@@@Z 08038b20 f   c1_CodeStubs_x86.obj
 0001:00037be0       ?print_name@NewInstanceStub@@UBEXPAVoutputStream@@@Z 08038be0 f i c1_CodeStubs_x86.obj
 0001:00037c00       ?emit_code@NewInstanceStub@@UAEXPAVLIR_Assembler@@@Z 08038c00 f   c1_CodeStubs_x86.obj
 0001:00037cf0       ??0NewTypeArrayStub@@QAE@PAVLIR_OprDesc@@00PAVCodeEmitInfo@@@Z 08038cf0 f   c1_CodeStubs_x86.obj
 0001:00037d90       ?print_name@NewTypeArrayStub@@UBEXPAVoutputStream@@@Z 08038d90 f i c1_CodeStubs_x86.obj
 0001:00037db0       ?emit_code@NewTypeArrayStub@@UAEXPAVLIR_Assembler@@@Z 08038db0 f   c1_CodeStubs_x86.obj
 0001:00037ed0       ??0NewObjectArrayStub@@QAE@PAVLIR_OprDesc@@00PAVCodeEmitInfo@@@Z 08038ed0 f   c1_CodeStubs_x86.obj
 0001:00037f70       ?print_name@NewObjectArrayStub@@UBEXPAVoutputStream@@@Z 08038f70 f i c1_CodeStubs_x86.obj
 0001:00037f90       ?emit_code@NewObjectArrayStub@@UAEXPAVLIR_Assembler@@@Z 08038f90 f   c1_CodeStubs_x86.obj
 0001:000380b0       ??0MonitorEnterStub@@QAE@PAVLIR_OprDesc@@0PAVCodeEmitInfo@@@Z 080390b0 f   c1_CodeStubs_x86.obj
 0001:00038150       ?print_name@MonitorEnterStub@@UBEXPAVoutputStream@@@Z 08039150 f i c1_CodeStubs_x86.obj
 0001:00038170       ?emit_code@MonitorEnterStub@@UAEXPAVLIR_Assembler@@@Z 08039170 f   c1_CodeStubs_x86.obj
 0001:00038250       ?emit_code@MonitorExitStub@@UAEXPAVLIR_Assembler@@@Z 08039250 f   c1_CodeStubs_x86.obj
 0001:000382f0       ?emit_code@PatchingStub@@UAEXPAVLIR_Assembler@@@Z 080392f0 f   c1_CodeStubs_x86.obj
 0001:000386b0       ?emit_code@ImplicitNullCheckStub@@UAEXPAVLIR_Assembler@@@Z 080396b0 f   c1_CodeStubs_x86.obj
 0001:00038750       ?emit_code@SimpleExceptionStub@@UAEXPAVLIR_Assembler@@@Z 08039750 f   c1_CodeStubs_x86.obj
 0001:00038820       ??0ArrayStoreExceptionStub@@QAE@PAVCodeEmitInfo@@@Z 08039820 f   c1_CodeStubs_x86.obj
 0001:00038850       ?print_name@ArrayStoreExceptionStub@@UBEXPAVoutputStream@@@Z 08039850 f i c1_CodeStubs_x86.obj
 0001:00038870       ?append@LIR_OpVisitState@@AAEXPAVCodeEmitInfo@@@Z 08039870 f i c1_CodeStubs_x86.obj
 0001:000388e0       ?emit_code@ArrayStoreExceptionStub@@UAEXPAVLIR_Assembler@@@Z 080398e0 f   c1_CodeStubs_x86.obj
 0001:00038980       ?emit_code@ArrayCopyStub@@UAEXPAVLIR_Assembler@@@Z 08039980 f   c1_CodeStubs_x86.obj
 0001:00038bc0       ?is_register@LIR_OprDesc@@QBE_NXZ 08039bc0 f i c1_CodeStubs_x86.obj
 0001:00038bf0       ?visit@RangeCheckStub@@UAEXPAVLIR_OpVisitState@@@Z 08039bf0 f i c1_CodeStubs_x86.obj
 0001:00038c20       ?append@LIR_OpVisitState@@AAEXAAPAVLIR_OprDesc@@W4OprMode@1@@Z 08039c20 f i c1_CodeStubs_x86.obj
 0001:00038e20       ?is_constant@LIR_OprDesc@@QBE_NXZ 08039e20 f i c1_CodeStubs_x86.obj
 0001:00038e40       ?visit@NewInstanceStub@@UAEXPAVLIR_OpVisitState@@@Z 08039e40 f i c1_CodeStubs_x86.obj
 0001:00038e80       ?visit@NewTypeArrayStub@@UAEXPAVLIR_OpVisitState@@@Z 08039e80 f i c1_CodeStubs_x86.obj
 0001:00038ef0       ?visit@NewObjectArrayStub@@UAEXPAVLIR_OpVisitState@@@Z 08039ef0 f i c1_CodeStubs_x86.obj
 0001:00038f60       ?visit@MonitorEnterStub@@UAEXPAVLIR_OpVisitState@@@Z 08039f60 f i c1_CodeStubs_x86.obj
 0001:00038fa0       ?emit_code@G1PreBarrierStub@@UAEXPAVLIR_Assembler@@@Z 08039fa0 f   c1_CodeStubs_x86.obj
 0001:000390b0       ?emit_code@G1PostBarrierStub@@UAEXPAVLIR_Assembler@@@Z 0803a0b0 f   c1_CodeStubs_x86.obj
 0001:000391d0       ??_ExmlTextStream@@UAEPAXI@Z 0803a1d0 f i compileLog.obj
 0001:000391d0       ??_EstaticBufferStream@@UAEPAXI@Z 0803a1d0 f i ostream.obj
 0001:000391d0       ??_GstringStream@@UAEPAXI@Z 0803a1d0 f i ostream.obj
 0001:000391d0       ??_GoutputStream@@UAEPAXI@Z 0803a1d0 f i c1_Compilation.obj
 0001:000391d0       ??_GxmlTextStream@@UAEPAXI@Z 0803a1d0 f i compileLog.obj
 0001:000391d0       ??_EstringStream@@UAEPAXI@Z 0803a1d0 f i ostream.obj
 0001:000391d0       ??_EoutputStream@@UAEPAXI@Z 0803a1d0 f i c1_Compilation.obj
 0001:000391d0       ??_GstaticBufferStream@@UAEPAXI@Z 0803a1d0 f i ostream.obj
 0001:00039200       ??_EfileStream@@UAEPAXI@Z  0803a200 f i c1_Compilation.obj
 0001:00039200       ??_GfileStream@@UAEPAXI@Z  0803a200 f i c1_Compilation.obj
 0001:00039230       ??0PhaseTraceTime@@QAE@W4TimerName@@@Z 0803a230 f i c1_Compilation.obj
 0001:00039290       ?maybe_print_current_instruction@Compilation@@QAEXXZ 0803a290 f   c1_Compilation.obj
 0001:000392b0       ??1Compilation@@QAE@XZ     0803a2b0 f   c1_Compilation.obj
 0001:000392d0       ?notice_inlined_method@Compilation@@QAEXPAVciMethod@@@Z 0803a2d0 f   c1_Compilation.obj
 0001:000392e0       ?print_timers@Compilation@@SAXXZ 0803a2e0 f   c1_Compilation.obj
 0001:000395c0       ?bang_stack_with_offset@MacroAssembler@@UAEXH@Z 0803a5c0 f i c1_Compilation.obj
 0001:00039640       ??0LIR_OprList@@QAE@XZ     0803a640 f i c1_Compilation.obj
 0001:00039670       ?handler_at@XHandlers@@QBEPAVXHandler@@H@Z 0803a670 f i c1_Compilation.obj
 0001:000396b0       ??0PhiResolverState@@QAE@XZ 0803a6b0 f i c1_Compilation.obj
 0001:00039720       ?debug_info_recorder@Compilation@@QBEPAVDebugInformationRecorder@@XZ 0803a720 f   c1_Compilation.obj
 0001:00039730       ?dependency_recorder@Compilation@@QBEPAVDependencies@@XZ 0803a730 f   c1_Compilation.obj
 0001:00039740       ?initialize@Compilation@@AAEXXZ 0803a740 f   c1_Compilation.obj
 0001:000397d0       ?emit_code_epilog@Compilation@@AAEXPAVLIR_Assembler@@@Z 0803a7d0 f   c1_Compilation.obj
 0001:00039850       ?install_code@Compilation@@AAEXH@Z 0803a850 f   c1_Compilation.obj
 0001:00039990       ?bailout@Compilation@@QAEXPBD@Z 0803a990 f   c1_Compilation.obj
 0001:000399f0       ?build_hir@Compilation@@AAEXXZ 0803a9f0 f   c1_Compilation.obj
 0001:00039c70       ?generate_exception_handler_table@Compilation@@AAEXXZ 0803ac70 f   c1_Compilation.obj
 0001:0003a0d0       ?add_exception_handlers_for_pco@Compilation@@QAEXHPAVXHandlers@@@Z 0803b0d0 f   c1_Compilation.obj
 0001:0003a180       ??0LIRGenerator@@QAE@PAVCompilation@@PAVciMethod@@@Z 0803b180 f i c1_Compilation.obj
 0001:0003a250       ?emit_code_body@Compilation@@AAEHXZ 0803b250 f   c1_Compilation.obj
 0001:0003a370       ?emit_lir@Compilation@@AAEXXZ 0803b370 f   c1_Compilation.obj
 0001:0003a4d0       ?compile_java_method@Compilation@@AAEHXZ 0803b4d0 f   c1_Compilation.obj
 0001:0003a670       ?compile_method@Compilation@@AAEXXZ 0803b670 f   c1_Compilation.obj
 0001:0003a720       ??0Compilation@@QAE@PAVAbstractCompiler@@PAVciEnv@@PAVciMethod@@H@Z 0803b720 f   c1_Compilation.obj
 0001:0003a8f0       ?name@Compiler@@UAEPBDXZ   0803b8f0 f i c1_Compiler.obj
 0001:0003a900       ?initialize@Compiler@@UAEXXZ 0803b900 f   c1_Compiler.obj
 0001:0003a930       ?print_timers@Compiler@@UAEXXZ 0803b930 f   c1_Compiler.obj
 0001:0003a940       ?compile_method@AbstractCompiler@@UAEXPAVciEnv@@PAVciMethod@@H@Z 0803b940 f i c1_Compiler.obj
 0001:0003a960       ?print_timers@AbstractCompiler@@UAEXXZ 0803b960 f i c1_Compiler.obj
 0001:0003a980       ??0Compiler@@QAE@XZ        0803b980 f   c1_Compiler.obj
 0001:0003a990       ?compile_method@Compiler@@UAEXPAVciEnv@@PAVciMethod@@H@Z 0803b990 f   c1_Compiler.obj
 0001:0003aa10       ??0FpuStackSim@@QAE@PAVCompilation@@@Z 0803ba10 f   c1_FpuStackSim_x86.obj
 0001:0003aa60       ?offset_from_tos@FpuStackSim@@QBEHH@Z 0803ba60 f   c1_FpuStackSim_x86.obj
 0001:0003aae0       ?get_slot@FpuStackSim@@QBEHH@Z 0803bae0 f   c1_FpuStackSim_x86.obj
 0001:0003ab20       ?set_slot@FpuStackSim@@QAEXHH@Z 0803bb20 f   c1_FpuStackSim_x86.obj
 0001:0003ab70       ?contains@FpuStackSim@@QAE_NH@Z 0803bb70 f   c1_FpuStackSim_x86.obj
 0001:0003abd0       ?is_empty@FpuStackSim@@QAE_NXZ 0803bbd0 f   c1_FpuStackSim_x86.obj
 0001:0003ac40       ?slot_is_empty@FpuStackSim@@QAE_NH@Z 0803bc40 f   c1_FpuStackSim_x86.obj
 0001:0003ac80       ?print@FpuStackSim@@QAEXXZ 0803bc80 f   c1_FpuStackSim_x86.obj
 0001:0003ad30       ?pop@FpuStackSim@@QAEXXZ   0803bd30 f   c1_FpuStackSim_x86.obj
 0001:0003adb0       ?pop@FpuStackSim@@QAEXH@Z  0803bdb0 f   c1_FpuStackSim_x86.obj
 0001:0003ae70       ?push@FpuStackSim@@QAEXH@Z 0803be70 f   c1_FpuStackSim_x86.obj
 0001:0003af40       ?swap@FpuStackSim@@QAEXH@Z 0803bf40 f   c1_FpuStackSim_x86.obj
 0001:0003b040       ?rename@FpuStackSim@@QAEXHH@Z 0803c040 f   c1_FpuStackSim_x86.obj
 0001:0003b160       ?clear@FpuStackSim@@QAEXXZ 0803c160 f   c1_FpuStackSim_x86.obj
 0001:0003b1e0       ?read_state@FpuStackSim@@QAEXPAVintArray@@@Z 0803c1e0 f   c1_FpuStackSim_x86.obj
 0001:0003b290       ?write_state@FpuStackSim@@QAEPAVintArray@@XZ 0803c290 f   c1_FpuStackSim_x86.obj
 0001:0003b380       ?at_put@intArray@@QAEXHH@Z 0803c380 f i c1_FrameMap.obj
 0001:0003b3d0       ?at@LIR_OprArray@@QBEPAVLIR_OprDesc@@H@Z 0803c3d0 f i c1_FrameMap.obj
 0001:0003b410       ?size_for@LIR_OprDesc@@SA?AW4OprSize@1@W4BasicType@@@Z 0803c410 f i c1_FrameMap.obj
 0001:0003b460       ?is_stack@LIR_OprDesc@@QBE_NXZ 0803c460 f i c1_FrameMap.obj
 0001:0003b480       ?is_single_stack@LIR_OprDesc@@QBE_NXZ 0803c480 f i c1_FrameMap.obj
 0001:0003b4a0       ?is_single_cpu@LIR_OprDesc@@QBE_NXZ 0803c4a0 f i c1_FrameMap.obj
 0001:0003b4c0       ?as_address_ptr@LIR_OprDesc@@QBEPAVLIR_Address@@XZ 0803c4c0 f i c1_FrameMap.obj
 0001:0003b4f0       ?as_OprType@@YA?AW4OprType@LIR_OprDesc@@W4BasicType@@@Z 0803c4f0 f i c1_FrameMap.obj
 0001:0003b560       ?as_BasicType@@YA?AW4BasicType@@W4OprType@LIR_OprDesc@@@Z 0803c560 f i c1_FrameMap.obj
 0001:0003b600       ?stack@LIR_OprFact@@SAPAVLIR_OprDesc@@HW4BasicType@@@Z 0803c600 f i c1_FrameMap.obj
 0001:0003b710       ?sp_offset2vmreg@FrameMap@@IBEPAVVMRegImpl@@VByteSize@@@Z 0803c710 f   c1_FrameMap.obj
 0001:0003b7b0       ?sp_offset_for_monitor_base@FrameMap@@IBE?AVByteSize@@H@Z 0803c7b0 f   c1_FrameMap.obj
 0001:0003b7e0       ??0Location@@AAE@W4Where@0@W4Type@0@I@Z 0803c7e0 f i c1_FrameMap.obj
 0001:0003b870       ?type@LIR_OprDesc@@QBE?AW4BasicType@@XZ 0803c870 f i c1_FrameMap.obj
 0001:0003b8a0       ?is_address@LIR_OprDesc@@QBE_NXZ 0803c8a0 f i c1_FrameMap.obj
 0001:0003b8c0       ?single_stack_ix@LIR_OprDesc@@QBEHXZ 0803c8c0 f i c1_FrameMap.obj
 0001:0003b920       ?as_VMReg@RegisterImpl@@QAEPAVVMRegImpl@@XZ 0803c920 f i c1_FrameMap.obj
 0001:0003b970       ?signature_type_array_for@FrameMap@@SAPAVBasicTypeArray@@PBVciMethod@@@Z 0803c970 f   c1_FrameMap.obj
 0001:0003ba90       ?java_calling_convention@FrameMap@@QAEPAVCallingConvention@@PBVBasicTypeArray@@_N@Z 0803ca90 f   c1_FrameMap.obj
 0001:0003bd50       ?c_calling_convention@FrameMap@@QAEPAVCallingConvention@@PBVBasicTypeArray@@@Z 0803cd50 f   c1_FrameMap.obj
 0001:0003c060       ??0FrameMap@@QAE@PAVciMethod@@HH@Z 0803d060 f   c1_FrameMap.obj
 0001:0003c2b0       ?finalize_frame@FrameMap@@QAE_NH@Z 0803d2b0 f   c1_FrameMap.obj
 0001:0003c4b0       ?location_for_sp_offset@FrameMap@@QBE_NVByteSize@@W4Type@Location@@PAV4@@Z 0803d4b0 f   c1_FrameMap.obj
 0001:0003c510       ?sp_offset_for_slot@FrameMap@@IBE?AVByteSize@@H@Z 0803d510 f   c1_FrameMap.obj
 0001:0003c680       ?sp_offset_for_monitor_lock@FrameMap@@IBE?AVByteSize@@H@Z 0803d680 f   c1_FrameMap.obj
 0001:0003c6d0       ?sp_offset_for_monitor_object@FrameMap@@IBE?AVByteSize@@H@Z 0803d6d0 f   c1_FrameMap.obj
 0001:0003c720       ?regname@FrameMap@@QBEPAVVMRegImpl@@PAVLIR_OprDesc@@@Z 0803d720 f   c1_FrameMap.obj
 0001:0003c830       ?locations_for_slot@FrameMap@@QBE_NHW4Type@Location@@PAV3@1@Z 0803d830 f   c1_FrameMap.obj
 0001:0003c890       ?nr2xmmreg@FrameMap@@SAPAVXMMRegisterImpl@@H@Z 0803d890 f   c1_FrameMap_x86.obj
 0001:0003c8d0       ?stack_pointer@FrameMap@@SAPAVLIR_OprDesc@@XZ 0803d8d0 f   c1_FrameMap_x86.obj
 0001:0003c8e0       ?as_FloatRegister@VMRegImpl@@QAEPAVFloatRegisterImpl@@XZ 0803d8e0 f i c1_FrameMap_x86.obj
 0001:0003c920       ?as_XMMRegister@VMRegImpl@@QAEPAVXMMRegisterImpl@@XZ 0803d920 f i c1_FrameMap_x86.obj
 0001:0003c960       ?make_new_address@FrameMap@@IBE?AVAddress@@VByteSize@@@Z 0803d960 f   c1_FrameMap_x86.obj
 0001:0003c9a0       ??0LIR_Address@@QAE@PAVLIR_OprDesc@@HW4BasicType@@@Z 0803d9a0 f i c1_FrameMap_x86.obj
 0001:0003c9e0       ?type@LIR_Address@@UBE?AW4BasicType@@XZ 0803d9e0 f i c1_FrameMap_x86.obj
 0001:0003c9f0       ?cpu_reg2rnr@FrameMap@@CAHPAVRegisterImpl@@@Z 0803d9f0 f i c1_FrameMap_x86.obj
 0001:0003ca80       ?map_register@FrameMap@@CAXHPAVRegisterImpl@@@Z 0803da80 f i c1_FrameMap_x86.obj
 0001:0003cb20       ?as_opr@FrameMap@@SAPAVLIR_OprDesc@@PAVRegisterImpl@@@Z 0803db20 f i c1_FrameMap_x86.obj
 0001:0003cb40       ?fpu_regname@FrameMap@@SAPAVVMRegImpl@@H@Z 0803db40 f   c1_FrameMap_x86.obj
 0001:0003cb90       ?as_long_opr@FrameMap@@SAPAVLIR_OprDesc@@PAVRegisterImpl@@0@Z 0803db90 f i c1_FrameMap_x86.obj
 0001:0003cbc0       ?map_to_opr@FrameMap@@KAPAVLIR_OprDesc@@W4BasicType@@PAVVMRegPair@@_N@Z 0803dbc0 f   c1_FrameMap_x86.obj
 0001:0003cdd0       ?init@FrameMap@@SAXXZ      0803ddd0 f   c1_FrameMap_x86.obj
 0001:0003d3f0       ?set_next@Instruction@@QAEPAV1@PAV1@H@Z 0803e3f0 f i c1_GraphBuilder.obj
 0001:0003d490       ?set_subst@Instruction@@QAEXPAV1@@Z 0803e490 f i c1_GraphBuilder.obj
 0001:0003d4f0       ?make_illegal@Phi@@QAEXXZ  0803e4f0 f i c1_GraphBuilder.obj
 0001:0003d530       ?set_direct_compare@TypeCheck@@QAEX_N@Z 0803e530 f i c1_GraphBuilder.obj
 0001:0003d560       ?merge@BlockBegin@@QAEXPAVValueStack@@@Z 0803e560 f i c1_GraphBuilder.obj
 0001:0003d590       ?lock_stack_size@IRScope@@QBEHXZ 0803e590 f i c1_GraphBuilder.obj
 0001:0003d5c0       ?do_StoreField@ValueNumberingVisitor@@MAEXPAVStoreField@@@Z 0803e5c0 f i c1_GraphBuilder.obj
 0001:0003d5f0       ?do_StoreIndexed@ValueNumberingVisitor@@MAEXPAVStoreIndexed@@@Z 0803e5f0 f i c1_GraphBuilder.obj
 0001:0003d610       ?do_UnsafePutRaw@ValueNumberingVisitor@@MAEXPAVUnsafePutRaw@@@Z 0803e610 f i c1_GraphBuilder.obj
 0001:0003d610       ?do_MonitorEnter@ValueNumberingVisitor@@MAEXPAVMonitorEnter@@@Z 0803e610 f i c1_GraphBuilder.obj
 0001:0003d610       ?do_MonitorExit@ValueNumberingVisitor@@MAEXPAVMonitorExit@@@Z 0803e610 f i c1_GraphBuilder.obj
 0001:0003d610       ?do_Invoke@ValueNumberingVisitor@@MAEXPAVInvoke@@@Z 0803e610 f i c1_GraphBuilder.obj
 0001:0003d610       ?do_UnsafePutObject@ValueNumberingVisitor@@MAEXPAVUnsafePutObject@@@Z 0803e610 f i c1_GraphBuilder.obj
 0001:0003d620       ?do_Intrinsic@ValueNumberingVisitor@@MAEXPAVIntrinsic@@@Z 0803e620 f i c1_GraphBuilder.obj
 0001:0003d640       ?do_LoadField@ValueNumberingVisitor@@MAEXPAVLoadField@@@Z 0803e640 f i c1_GraphBuilder.obj
 0001:0003d660       ?vmap@GraphBuilder@@ABEPAVValueMap@@XZ 0803e660 f i c1_GraphBuilder.obj
 0001:0003d690       ?compare_depth_first@@YAHPAPAVBlockBegin@@0@Z 0803e690 f   c1_GraphBuilder.obj
 0001:0003d6b0       ?xhandlers@ScopeData@GraphBuilder@@QBEPAVXHandlers@@XZ 0803e6b0 f   c1_GraphBuilder.obj
 0001:0003d710       ?num_returns@ScopeData@GraphBuilder@@QAEHXZ 0803e710 f   c1_GraphBuilder.obj
 0001:0003d730       ?incr_num_returns@ScopeData@GraphBuilder@@QAEXXZ 0803e730 f   c1_GraphBuilder.obj
 0001:0003d750       ?as_instance@ciObject@@QAEPAVciInstance@@XZ 0803e750 f i c1_GraphBuilder.obj
 0001:0003d780       ?as_array@ciObject@@QAEPAVciArray@@XZ 0803e780 f i c1_GraphBuilder.obj
 0001:0003d7b0       ?as_instance_klass@ciObject@@QAEPAVciInstanceKlass@@XZ 0803e7b0 f i c1_GraphBuilder.obj
 0001:0003d7e0       ?initialize@GraphBuilder@@SAXXZ 0803e7e0 f   c1_GraphBuilder.obj
 0001:0003db00       ?recursive_inline_level@GraphBuilder@@ABEHPAVciMethod@@@Z 0803eb00 f   c1_GraphBuilder.obj
 0001:0003db30       ?inline_bailout@GraphBuilder@@AAEXPBD@Z 0803eb30 f   c1_GraphBuilder.obj
 0001:0003db60       ?pop_scope@GraphBuilder@@AAEXXZ 0803eb60 f   c1_GraphBuilder.obj
 0001:0003db80       ?print_stats@GraphBuilder@@QAEXXZ 0803eb80 f   c1_GraphBuilder.obj
 0001:0003dbb0       ?find@?$GrowableArray@PAVInstruction@@@@QBEHABQAVInstruction@@@Z 0803ebb0 f i c1_GraphBuilder.obj
 0001:0003dbe0       ?raw_at_put_grow@?$GrowableArray@PAVHeapRegion@@@@AAEXHABQAVHeapRegion@@0@Z 0803ebe0 f i collectionSetChooser.obj
 0001:0003dbe0       ?raw_at_put_grow@?$GrowableArray@PAVInstruction@@@@AAEXHABQAVInstruction@@0@Z 0803ebe0 f i c1_GraphBuilder.obj
 0001:0003dc30       ?has_subklass@ciInstanceKlass@@QAE_NXZ 0803ec30 f i c1_GraphBuilder.obj
 0001:0003dcb0       ?nof_implementors@ciInstanceKlass@@QAEHXZ 0803ecb0 f i c1_GraphBuilder.obj
 0001:0003dcf0       ?is_synchronized@ciMethod@@QBE_NXZ 0803ecf0 f i c1_GraphBuilder.obj
 0001:0003dd30       ?is_strict@ciMethod@@QBE_NXZ 0803ed30 f i c1_GraphBuilder.obj
 0001:0003dd70       ?as_boolean@ciConstant@@QAEEXZ 0803ed70 f i c1_GraphBuilder.obj
 0001:0003dda0       ?as_char@ciConstant@@QAEGXZ 0803eda0 f i c1_GraphBuilder.obj
 0001:0003ddd0       ?as_byte@ciConstant@@QAECXZ 0803edd0 f i c1_GraphBuilder.obj
 0001:0003de00       ?as_short@ciConstant@@QAEFXZ 0803ee00 f i c1_GraphBuilder.obj
 0001:0003de30       ?as_int@ciConstant@@QAEHXZ 0803ee30 f i c1_GraphBuilder.obj
 0001:0003de70       ?as_long@ciConstant@@QAE_JXZ 0803ee70 f i c1_GraphBuilder.obj
 0001:0003dea0       ?as_float@ciConstant@@QAEMXZ 0803eea0 f i c1_GraphBuilder.obj
 0001:0003ded0       ?as_double@ciConstant@@QAENXZ 0803eed0 f i c1_GraphBuilder.obj
 0001:0003df00       ?base@ObjectType@@UBEPAVValueType@@XZ 0803ef00 f i c1_GraphBuilder.obj
 0001:0003df10       ?tchar@ObjectType@@UBE?BDXZ 0803ef10 f i c1_GraphBuilder.obj
 0001:0003df20       ?name@ObjectType@@UBEPBDXZ 0803ef20 f i c1_GraphBuilder.obj
 0001:0003df30       ?constant_value@ObjectType@@UBEPAVciObject@@XZ 0803ef30 f i c1_GraphBuilder.obj
 0001:0003df50       ??0ObjectConstant@@QAE@PAVciObject@@@Z 0803ef50 f i c1_GraphBuilder.obj
 0001:0003df80       ?base@AddressType@@UBEPAVValueType@@XZ 0803ef80 f i c1_GraphBuilder.obj
 0001:0003df90       ?tchar@AddressType@@UBE?BDXZ 0803ef90 f i c1_GraphBuilder.obj
 0001:0003dfa0       ?name@AddressType@@UBEPBDXZ 0803efa0 f i c1_GraphBuilder.obj
 0001:0003dfb0       ?as_ValueType@@YAPAVValueType@@PAVciType@@@Z 0803efb0 f i c1_GraphBuilder.obj
 0001:0003dfd0       ?at_put@ValueArray@@QAEXHQAVInstruction@@@Z 0803efd0 f i c1_GraphBuilder.obj
 0001:0003e020       ?contains@NodeArray@@QBE_NQAVResolveNode@@@Z 0803f020 f i c1_LIRGenerator.obj
 0001:0003e020       ?contains@BlockBeginArray@@QBE_NQAVBlockBegin@@@Z 0803f020 f i c1_GraphBuilder.obj
 0001:0003e050       ?at_put@BlockBeginArray@@QAEXHQAVBlockBegin@@@Z 0803f050 f i c1_GraphBuilder.obj
 0001:0003e0a0       ??0HiWord@@QAE@PAVInstruction@@@Z 0803f0a0 f i c1_GraphBuilder.obj
 0001:0003e150       ?name@HiWord@@UBEPBDXZ     0803f150 f i c1_GraphBuilder.obj
 0001:0003e160       ?visit@HiWord@@UAEXPAVInstructionVisitor@@@Z 0803f160 f i c1_GraphBuilder.obj
 0001:0003e180       ?input_values_do@HiWord@@UAEXP6AXPAPAVInstruction@@@Z@Z 0803f180 f i c1_GraphBuilder.obj
 0001:0003e1a0       ??0Local@@QAE@PAVValueType@@H@Z 0803f1a0 f i c1_GraphBuilder.obj
 0001:0003e240       ?name@Local@@UBEPBDXZ      0803f240 f i c1_GraphBuilder.obj
 0001:0003e250       ?visit@Local@@UAEXPAVInstructionVisitor@@@Z 0803f250 f i c1_GraphBuilder.obj
 0001:0003e270       ??0Constant@@QAE@PAVValueType@@PAVValueStack@@@Z 0803f270 f i c1_GraphBuilder.obj
 0001:0003e350       ??0LoadField@@QAE@PAVInstruction@@HPAVciField@@_NPAVValueStack@@322@Z 0803f350 f i c1_GraphBuilder.obj
 0001:0003e390       ?name@LoadField@@UBEPBDXZ  0803f390 f i c1_GraphBuilder.obj
 0001:0003e3a0       ?visit@LoadField@@UAEXPAVInstructionVisitor@@@Z 0803f3a0 f i c1_GraphBuilder.obj
 0001:0003e3c0       ?hash@LoadField@@UBEHXZ    0803f3c0 f i c1_GraphBuilder.obj
 0001:0003e410       ?is_equal@LoadField@@UBE_NPAVInstruction@@@Z 0803f410 f i c1_GraphBuilder.obj
 0001:0003e490       ??0ArrayLength@@QAE@PAVInstruction@@PAVValueStack@@@Z 0803f490 f i c1_GraphBuilder.obj
 0001:0003e4c0       ?name@ArrayLength@@UBEPBDXZ 0803f4c0 f i c1_GraphBuilder.obj
 0001:0003e4d0       ?visit@ArrayLength@@UAEXPAVInstructionVisitor@@@Z 0803f4d0 f i c1_GraphBuilder.obj
 0001:0003e4f0       ?is_equal@ArrayLength@@UBE_NPAVInstruction@@@Z 0803f4f0 f i c1_GraphBuilder.obj
 0001:0003e540       ?name@LoadIndexed@@UBEPBDXZ 0803f540 f i c1_GraphBuilder.obj
 0001:0003e550       ?visit@LoadIndexed@@UAEXPAVInstructionVisitor@@@Z 0803f550 f i c1_GraphBuilder.obj
 0001:0003e570       ?hash@LoadIndexed@@UBEHXZ  0803f570 f i c1_GraphBuilder.obj
 0001:0003e5b0       ?is_equal@LoadIndexed@@UBE_NPAVInstruction@@@Z 0803f5b0 f i c1_GraphBuilder.obj
 0001:0003e620       ??0NegateOp@@QAE@PAVInstruction@@@Z 0803f620 f i c1_GraphBuilder.obj
 0001:0003e6f0       ?name@NegateOp@@UBEPBDXZ   0803f6f0 f i c1_GraphBuilder.obj
 0001:0003e700       ?visit@NegateOp@@UAEXPAVInstructionVisitor@@@Z 0803f700 f i c1_GraphBuilder.obj
 0001:0003e720       ??0Op2@@QAE@PAVValueType@@W4Code@Bytecodes@@PAVInstruction@@2@Z 0803f720 f i c1_GraphBuilder.obj
 0001:0003e7f0       ??0ArithmeticOp@@QAE@W4Code@Bytecodes@@PAVInstruction@@1_NPAVValueStack@@@Z 0803f7f0 f i c1_GraphBuilder.obj
 0001:0003e860       ?name@ArithmeticOp@@UBEPBDXZ 0803f860 f i c1_GraphBuilder.obj
 0001:0003e870       ?visit@ArithmeticOp@@UAEXPAVInstructionVisitor@@@Z 0803f870 f i c1_GraphBuilder.obj
 0001:0003e890       ?name@ShiftOp@@UBEPBDXZ    0803f890 f i c1_GraphBuilder.obj
 0001:0003e8a0       ?visit@ShiftOp@@UAEXPAVInstructionVisitor@@@Z 0803f8a0 f i c1_GraphBuilder.obj
 0001:0003e8c0       ??0LogicOp@@QAE@W4Code@Bytecodes@@PAVInstruction@@1@Z 0803f8c0 f i c1_GraphBuilder.obj
 0001:0003e900       ?name@LogicOp@@UBEPBDXZ    0803f900 f i c1_GraphBuilder.obj
 0001:0003e910       ?visit@LogicOp@@UAEXPAVInstructionVisitor@@@Z 0803f910 f i c1_GraphBuilder.obj
 0001:0003e930       ?is_equal@CompareOp@@UBE_NPAVInstruction@@@Z 0803f930 f i c1_GraphBuilder.obj
 0001:0003e930       ?is_equal@ShiftOp@@UBE_NPAVInstruction@@@Z 0803f930 f i c1_GraphBuilder.obj
 0001:0003e930       ?is_equal@LogicOp@@UBE_NPAVInstruction@@@Z 0803f930 f i c1_GraphBuilder.obj
 0001:0003e930       ?is_equal@ArithmeticOp@@UBE_NPAVInstruction@@@Z 0803f930 f i c1_GraphBuilder.obj
 0001:0003e9b0       ?name@CompareOp@@UBEPBDXZ  0803f9b0 f i c1_GraphBuilder.obj
 0001:0003e9c0       ?visit@CompareOp@@UAEXPAVInstructionVisitor@@@Z 0803f9c0 f i c1_GraphBuilder.obj
 0001:0003e9e0       ?hash@CompareOp@@UBEHXZ    0803f9e0 f i c1_GraphBuilder.obj
 0001:0003e9e0       ?hash@LogicOp@@UBEHXZ      0803f9e0 f i c1_GraphBuilder.obj
 0001:0003e9e0       ?hash@ShiftOp@@UBEHXZ      0803f9e0 f i c1_GraphBuilder.obj
 0001:0003e9e0       ?hash@ArithmeticOp@@UBEHXZ 0803f9e0 f i c1_GraphBuilder.obj
 0001:0003ea40       ??0Convert@@QAE@W4Code@Bytecodes@@PAVInstruction@@PAVValueType@@@Z 0803fa40 f i c1_GraphBuilder.obj
 0001:0003eb10       ?name@Convert@@UBEPBDXZ    0803fb10 f i c1_GraphBuilder.obj
 0001:0003eb20       ?visit@Convert@@UAEXPAVInstructionVisitor@@@Z 0803fb20 f i c1_GraphBuilder.obj
 0001:0003eb40       ?input_values_do@NewArray@@UAEXP6AXPAPAVInstruction@@@Z@Z 0803fb40 f i c1_GraphBuilder.obj
 0001:0003eb40       ?input_values_do@AccessMonitor@@UAEXP6AXPAPAVInstruction@@@Z@Z 0803fb40 f i c1_GraphBuilder.obj
 0001:0003eb40       ?input_values_do@Convert@@UAEXP6AXPAPAVInstruction@@@Z@Z 0803fb40 f i c1_GraphBuilder.obj
 0001:0003eb60       ?hash@Convert@@UBEHXZ      0803fb60 f i c1_GraphBuilder.obj
 0001:0003eba0       ?is_equal@Convert@@UBE_NPAVInstruction@@@Z 0803fba0 f i c1_GraphBuilder.obj
 0001:0003ebf0       ??0NullCheck@@QAE@PAVInstruction@@PAVValueStack@@@Z 0803fbf0 f i c1_GraphBuilder.obj
 0001:0003ed00       ?name@NullCheck@@UBEPBDXZ  0803fd00 f i c1_GraphBuilder.obj
 0001:0003ed10       ?visit@NullCheck@@UAEXPAVInstructionVisitor@@@Z 0803fd10 f i c1_GraphBuilder.obj
 0001:0003ed30       ?set_lock_stack@NullCheck@@UAEXPAVValueStack@@@Z 0803fd30 f i c1_GraphBuilder.obj
 0001:0003ed30       ?set_lock_stack@AccessArray@@UAEXPAVValueStack@@@Z 0803fd30 f i c1_Canonicalizer.obj
 0001:0003ed40       ?can_trap@NullCheck@@UBE_NXZ 0803fd40 f i c1_GraphBuilder.obj
 0001:0003ed40       ?can_trap@Intrinsic@@UBE_NXZ 0803fd40 f i c1_GraphBuilder.obj
 0001:0003ed50       ?hash@NullCheck@@UBEHXZ    0803fd50 f i c1_GraphBuilder.obj
 0001:0003ed50       ?hash@ArrayLength@@UBEHXZ  0803fd50 f i c1_GraphBuilder.obj
 0001:0003ed80       ?is_equal@NullCheck@@UBE_NPAVInstruction@@@Z 0803fd80 f i c1_GraphBuilder.obj
 0001:0003edd0       ?name@NewInstance@@UBEPBDXZ 0803fdd0 f i c1_GraphBuilder.obj
 0001:0003ede0       ?visit@NewInstance@@UAEXPAVInstructionVisitor@@@Z 0803fde0 f i c1_GraphBuilder.obj
 0001:0003ee00       ?name@NewTypeArray@@UBEPBDXZ 0803fe00 f i c1_GraphBuilder.obj
 0001:0003ee10       ?visit@NewTypeArray@@UAEXPAVInstructionVisitor@@@Z 0803fe10 f i c1_GraphBuilder.obj
 0001:0003ee30       ?name@NewObjectArray@@UBEPBDXZ 0803fe30 f i c1_GraphBuilder.obj
 0001:0003ee40       ?visit@NewObjectArray@@UAEXPAVInstructionVisitor@@@Z 0803fe40 f i c1_GraphBuilder.obj
 0001:0003ee60       ??0NewMultiArray@@QAE@PAVciKlass@@PAVValues@@PAVValueStack@@@Z 0803fe60 f i c1_GraphBuilder.obj
 0001:0003eed0       ?name@NewMultiArray@@UBEPBDXZ 0803fed0 f i c1_GraphBuilder.obj
 0001:0003eee0       ?visit@NewMultiArray@@UAEXPAVInstructionVisitor@@@Z 0803fee0 f i c1_GraphBuilder.obj
 0001:0003ef00       ?input_values_do@NewMultiArray@@UAEXP6AXPAPAVInstruction@@@Z@Z 0803ff00 f i c1_GraphBuilder.obj
 0001:0003ef40       ??0TypeCheck@@QAE@PAVciKlass@@PAVInstruction@@PAVValueType@@PAVValueStack@@@Z 0803ff40 f i c1_GraphBuilder.obj
 0001:0003efa0       ?input_values_do@TypeCheck@@UAEXP6AXPAPAVInstruction@@@Z@Z 0803ffa0 f i c1_GraphBuilder.obj
 0001:0003efc0       ??0CheckCast@@QAE@PAVciKlass@@PAVInstruction@@PAVValueStack@@@Z 0803ffc0 f i c1_GraphBuilder.obj
 0001:0003f000       ?name@CheckCast@@UBEPBDXZ  08040000 f i c1_GraphBuilder.obj
 0001:0003f010       ?visit@CheckCast@@UAEXPAVInstructionVisitor@@@Z 08040010 f i c1_GraphBuilder.obj
 0001:0003f030       ?name@InstanceOf@@UBEPBDXZ 08040030 f i c1_GraphBuilder.obj
 0001:0003f040       ?visit@InstanceOf@@UAEXPAVInstructionVisitor@@@Z 08040040 f i c1_GraphBuilder.obj
 0001:0003f060       ??0AccessMonitor@@QAE@PAVInstruction@@H@Z 08040060 f i c1_GraphBuilder.obj
 0001:0003f0c0       ??0MonitorEnter@@QAE@PAVInstruction@@HPAVValueStack@@@Z 080400c0 f i c1_GraphBuilder.obj
 0001:0003f120       ?name@MonitorEnter@@UBEPBDXZ 08040120 f i c1_GraphBuilder.obj
 0001:0003f130       ?visit@MonitorEnter@@UAEXPAVInstructionVisitor@@@Z 08040130 f i c1_GraphBuilder.obj
 0001:0003f150       ?name@MonitorExit@@UBEPBDXZ 08040150 f i c1_GraphBuilder.obj
 0001:0003f160       ?visit@MonitorExit@@UAEXPAVInstructionVisitor@@@Z 08040160 f i c1_GraphBuilder.obj
 0001:0003f180       ??0Switch@@QAE@PAVInstruction@@PAVBlockList@@PAVValueStack@@_N@Z 08040180 f i c1_GraphBuilder.obj
 0001:0003f210       ?name@TableSwitch@@UBEPBDXZ 08040210 f i c1_GraphBuilder.obj
 0001:0003f220       ?visit@TableSwitch@@UAEXPAVInstructionVisitor@@@Z 08040220 f i c1_GraphBuilder.obj
 0001:0003f240       ??0LookupSwitch@@QAE@PAVInstruction@@PAVBlockList@@PAVintArray@@PAVValueStack@@_N@Z 08040240 f i c1_GraphBuilder.obj
 0001:0003f2c0       ?name@LookupSwitch@@UBEPBDXZ 080402c0 f i c1_GraphBuilder.obj
 0001:0003f2d0       ?visit@LookupSwitch@@UAEXPAVInstructionVisitor@@@Z 080402d0 f i c1_GraphBuilder.obj
 0001:0003f2f0       ??0Return@@QAE@PAVInstruction@@@Z 080402f0 f i c1_GraphBuilder.obj
 0001:0003f350       ?name@Return@@UBEPBDXZ     08040350 f i c1_GraphBuilder.obj
 0001:0003f360       ?visit@Return@@UAEXPAVInstructionVisitor@@@Z 08040360 f i c1_GraphBuilder.obj
 0001:0003f380       ?input_values_do@Return@@UAEXP6AXPAPAVInstruction@@@Z@Z 08040380 f i c1_GraphBuilder.obj
 0001:0003f3a0       ??0Throw@@QAE@PAVInstruction@@PAVValueStack@@@Z 080403a0 f i c1_GraphBuilder.obj
 0001:0003f410       ?name@Throw@@UBEPBDXZ      08040410 f i c1_GraphBuilder.obj
 0001:0003f420       ?visit@Throw@@UAEXPAVInstructionVisitor@@@Z 08040420 f i c1_GraphBuilder.obj
 0001:0003f440       ?input_values_do@Switch@@UAEXP6AXPAPAVInstruction@@@Z@Z 08040440 f i c1_GraphBuilder.obj
 0001:0003f440       ?input_values_do@Throw@@UAEXP6AXPAPAVInstruction@@@Z@Z 08040440 f i c1_GraphBuilder.obj
 0001:0003f460       ??0OsrEntry@@QAE@XZ        08040460 f i c1_GraphBuilder.obj
 0001:0003f500       ?name@OsrEntry@@UBEPBDXZ   08040500 f i c1_GraphBuilder.obj
 0001:0003f510       ?visit@OsrEntry@@UAEXPAVInstructionVisitor@@@Z 08040510 f i c1_GraphBuilder.obj
 0001:0003f530       ??0ExceptionObject@@QAE@XZ 08040530 f i c1_GraphBuilder.obj
 0001:0003f5d0       ?name@ExceptionObject@@UBEPBDXZ 080405d0 f i c1_GraphBuilder.obj
 0001:0003f5e0       ?visit@ExceptionObject@@UAEXPAVInstructionVisitor@@@Z 080405e0 f i c1_GraphBuilder.obj
 0001:0003f600       ??0RoundFP@@QAE@PAVInstruction@@@Z 08040600 f i c1_GraphBuilder.obj
 0001:0003f6d0       ?name@RoundFP@@UBEPBDXZ    080406d0 f i c1_GraphBuilder.obj
 0001:0003f6e0       ?visit@RoundFP@@UAEXPAVInstructionVisitor@@@Z 080406e0 f i c1_GraphBuilder.obj
 0001:0003f700       ??0UnsafeOp@@IAE@W4BasicType@@_N@Z 08040700 f i c1_GraphBuilder.obj
 0001:0003f7c0       ?input_values_do@UnsafeRawOp@@UAEXP6AXPAPAVInstruction@@@Z@Z 080407c0 f i c1_GraphBuilder.obj
 0001:0003f7f0       ??0UnsafeGetRaw@@QAE@W4BasicType@@PAVInstruction@@_N@Z 080407f0 f i c1_GraphBuilder.obj
 0001:0003f860       ?name@UnsafeGetRaw@@UBEPBDXZ 08040860 f i c1_GraphBuilder.obj
 0001:0003f870       ?visit@UnsafeGetRaw@@UAEXPAVInstructionVisitor@@@Z 08040870 f i c1_GraphBuilder.obj
 0001:0003f890       ??0UnsafePutRaw@@QAE@W4BasicType@@PAVInstruction@@1@Z 08040890 f i c1_GraphBuilder.obj
 0001:0003f940       ?name@UnsafePutRaw@@UBEPBDXZ 08040940 f i c1_GraphBuilder.obj
 0001:0003f950       ?visit@UnsafePutRaw@@UAEXPAVInstructionVisitor@@@Z 08040950 f i c1_GraphBuilder.obj
 0001:0003f970       ?input_values_do@UnsafePutRaw@@UAEXP6AXPAPAVInstruction@@@Z@Z 08040970 f i c1_GraphBuilder.obj
 0001:0003f9b0       ?input_values_do@UnsafeObjectOp@@UAEXP6AXPAPAVInstruction@@@Z@Z 080409b0 f i c1_GraphBuilder.obj
 0001:0003f9b0       ?input_values_do@Op2@@UAEXP6AXPAPAVInstruction@@@Z@Z 080409b0 f i c1_GraphBuilder.obj
 0001:0003f9d0       ??0UnsafeGetObject@@QAE@W4BasicType@@PAVInstruction@@1_N@Z 080409d0 f i c1_GraphBuilder.obj
 0001:0003fa30       ?name@UnsafeGetObject@@UBEPBDXZ 08040a30 f i c1_GraphBuilder.obj
 0001:0003fa40       ?visit@UnsafeGetObject@@UAEXPAVInstructionVisitor@@@Z 08040a40 f i c1_GraphBuilder.obj
 0001:0003fa60       ??0UnsafePutObject@@QAE@W4BasicType@@PAVInstruction@@11_N@Z 08040a60 f i c1_GraphBuilder.obj
 0001:0003fad0       ?name@UnsafePutObject@@UBEPBDXZ 08040ad0 f i c1_GraphBuilder.obj
 0001:0003fae0       ?visit@UnsafePutObject@@UAEXPAVInstructionVisitor@@@Z 08040ae0 f i c1_GraphBuilder.obj
 0001:0003fb00       ?input_values_do@UnsafePutObject@@UAEXP6AXPAPAVInstruction@@@Z@Z 08040b00 f i c1_GraphBuilder.obj
 0001:0003fb30       ??0UnsafePrefetchRead@@QAE@PAVInstruction@@0@Z 08040b30 f i c1_GraphBuilder.obj
 0001:0003fb90       ?name@UnsafePrefetchRead@@UBEPBDXZ 08040b90 f i c1_GraphBuilder.obj
 0001:0003fba0       ?visit@UnsafePrefetchRead@@UAEXPAVInstructionVisitor@@@Z 08040ba0 f i c1_GraphBuilder.obj
 0001:0003fbc0       ??0UnsafePrefetchWrite@@QAE@PAVInstruction@@0@Z 08040bc0 f i c1_GraphBuilder.obj
 0001:0003fc20       ?name@UnsafePrefetchWrite@@UBEPBDXZ 08040c20 f i c1_GraphBuilder.obj
 0001:0003fc30       ?visit@UnsafePrefetchWrite@@UAEXPAVInstructionVisitor@@@Z 08040c30 f i c1_GraphBuilder.obj
 0001:0003fc50       ??0ProfileCall@@QAE@PAVciMethod@@HPAVInstruction@@PAVciKlass@@@Z 08040c50 f i c1_GraphBuilder.obj
 0001:0003fd00       ?name@ProfileCall@@UBEPBDXZ 08040d00 f i c1_GraphBuilder.obj
 0001:0003fd10       ?visit@ProfileCall@@UAEXPAVInstructionVisitor@@@Z 08040d10 f i c1_GraphBuilder.obj
 0001:0003fd30       ?input_values_do@ProfileCall@@UAEXP6AXPAPAVInstruction@@@Z@Z 08040d30 f i c1_GraphBuilder.obj
 0001:0003fd50       ??0ProfileCounter@@QAE@PAVInstruction@@HH@Z 08040d50 f i c1_GraphBuilder.obj
 0001:0003fe00       ?name@ProfileCounter@@UBEPBDXZ 08040e00 f i c1_GraphBuilder.obj
 0001:0003fe10       ?visit@ProfileCounter@@UAEXPAVInstructionVisitor@@@Z 08040e10 f i c1_GraphBuilder.obj
 0001:0003fe30       ?add_successor@BlockBegin@@QAEXPAV1@@Z 08040e30 f i c1_GraphBuilder.obj
 0001:0003fe90       ?set_entry_block@XHandler@@QAEXPAVBlockBegin@@@Z 08040e90 f i c1_GraphBuilder.obj
 0001:0003fef0       ??0XHandlers@@QAE@XZ       08040ef0 f i c1_GraphBuilder.obj
 0001:0003ff30       ?kill_memory@ValueNumberingEffects@@UAEXXZ 08040f30 f i c1_GraphBuilder.obj
 0001:0003ff30       ?kill_memory@GlobalValueNumbering@@UAEXXZ 08040f30 f i c1_ValueMap.obj
 0001:0003ff40       ?kill_field@GlobalValueNumbering@@UAEXPAVciField@@@Z 08040f40 f i c1_ValueMap.obj
 0001:0003ff40       ?kill_field@ValueNumberingEffects@@UAEXPAVciField@@@Z 08040f40 f i c1_GraphBuilder.obj
 0001:0003ff50       ?invalidate_local@ValueStack@@QAEXH@Z 08040f50 f i c1_GraphBuilder.obj
 0001:00040020       ?load_local@ValueStack@@QBEPAVInstruction@@H@Z 08041020 f i c1_GraphBuilder.obj
 0001:000400e0       ?store_local@ValueStack@@QAEXHPAVInstruction@@@Z 080410e0 f i c1_GraphBuilder.obj
 0001:000401b0       ?stack_at_inc@ValueStack@@QBEPAVInstruction@@AAH@Z 080411b0 f i c1_GraphBuilder.obj
 0001:000401f0       ?clear_stack@ValueStack@@QAEXXZ 080411f0 f i c1_GraphBuilder.obj
 0001:00040220       ?truncate_stack@ValueStack@@QAEXH@Z 08041220 f i c1_GraphBuilder.obj
 0001:00040260       ?raw_push@ValueStack@@QAEXPAVInstruction@@@Z 08041260 f i c1_GraphBuilder.obj
 0001:000402a0       ?raw_pop@ValueStack@@QAEPAVInstruction@@XZ 080412a0 f i c1_GraphBuilder.obj
 0001:000402d0       ?ipush@ValueStack@@QAEXPAVInstruction@@@Z 080412d0 f i c1_GraphBuilder.obj
 0001:00040330       ?fpush@ValueStack@@QAEXPAVInstruction@@@Z 08041330 f i c1_GraphBuilder.obj
 0001:00040390       ?apush@ValueStack@@QAEXPAVInstruction@@@Z 08041390 f i c1_GraphBuilder.obj
 0001:000403f0       ?rpush@ValueStack@@QAEXPAVInstruction@@@Z 080413f0 f i c1_GraphBuilder.obj
 0001:00040450       ?lpush@ValueStack@@QAEXPAVInstruction@@@Z 08041450 f i c1_GraphBuilder.obj
 0001:00040520       ?dpush@ValueStack@@QAEXPAVInstruction@@@Z 08041520 f i c1_GraphBuilder.obj
 0001:000405f0       ?push@ValueStack@@QAEXPAVValueType@@PAVInstruction@@@Z 080415f0 f i c1_GraphBuilder.obj
 0001:00040690       ?ipop@ValueStack@@QAEPAVInstruction@@XZ 08041690 f i c1_GraphBuilder.obj
 0001:000406f0       ?fpop@ValueStack@@QAEPAVInstruction@@XZ 080416f0 f i c1_GraphBuilder.obj
 0001:00040740       ?apop@ValueStack@@QAEPAVInstruction@@XZ 08041740 f i c1_GraphBuilder.obj
 0001:000407a0       ?rpop@ValueStack@@QAEPAVInstruction@@XZ 080417a0 f i c1_GraphBuilder.obj
 0001:000407f0       ?lpop@ValueStack@@QAEPAVInstruction@@XZ 080417f0 f i c1_GraphBuilder.obj
 0001:000408a0       ?dpop@ValueStack@@QAEPAVInstruction@@XZ 080418a0 f i c1_GraphBuilder.obj
 0001:00040950       ?pop@ValueStack@@QAEPAVInstruction@@PAVValueType@@@Z 08041950 f i c1_GraphBuilder.obj
 0001:000409d0       ?code@GraphBuilder@@ABE?AW4Code@Bytecodes@@XZ 080419d0 f i c1_GraphBuilder.obj
 0001:00040a00       ?num_returns@GraphBuilder@@ABEHXZ 08041a00 f i c1_GraphBuilder.obj
 0001:00040a20       ?profile_calls@GraphBuilder@@AAE_NXZ 08041a20 f i c1_GraphBuilder.obj
 0001:00040a50       ?profile_inlined_calls@GraphBuilder@@AAE_NXZ 08041a50 f i c1_GraphBuilder.obj
 0001:00040a90       ?can_trap@GraphBuilder@@SA_NPAVciMethod@@W4Code@Bytecodes@@@Z 08041a90 f i c1_GraphBuilder.obj
 0001:00040b20       ?store_one@BlockListBuilder@@AAEXPAVBlockBegin@@H@Z 08041b20 f i c1_GraphBuilder.obj
 0001:00040b70       ?store_two@BlockListBuilder@@AAEXPAVBlockBegin@@H@Z 08041b70 f i c1_GraphBuilder.obj
 0001:00040bf0       ?handle_exceptions@BlockListBuilder@@AAEXPAVBlockBegin@@H@Z 08041bf0 f   c1_GraphBuilder.obj
 0001:00040d30       ?make_loop_header@BlockListBuilder@@AAEXPAVBlockBegin@@@Z 08041d30 f   c1_GraphBuilder.obj
 0001:00040e10       ?print@BlockListBuilder@@AAEXXZ 08041e10 f   c1_GraphBuilder.obj
 0001:00041050       ?at@FieldBuffer@@QAEPAVInstruction@@PAVciField@@@Z 08042050 f i c1_GraphBuilder.obj
 0001:000410e0       ?is_default_value@MemoryBuffer@@QAE_NPAVInstruction@@@Z 080420e0 f i c1_GraphBuilder.obj
 0001:000411d0       ?kill@MemoryBuffer@@QAEXXZ 080421d0 f i c1_GraphBuilder.obj
 0001:00041240       ??0ScopeData@GraphBuilder@@QAE@PAV01@@Z 08042240 f   c1_GraphBuilder.obj
 0001:000412c0       ?sort_top_into_worklist@GraphBuilder@@SAXPAVBlockList@@PAVBlockBegin@@@Z 080422c0 f   c1_GraphBuilder.obj
 0001:000413d0       ?load_local@GraphBuilder@@AAEXPAVValueType@@H@Z 080423d0 f   c1_GraphBuilder.obj
 0001:00041400       ?stack_op@GraphBuilder@@AAEXW4Code@Bytecodes@@@Z 08042400 f   c1_GraphBuilder.obj
 0001:000415d0       ?dependency_recorder@GraphBuilder@@ABEPAVDependencies@@XZ 080425d0 f   c1_GraphBuilder.obj
 0001:00041610       ?direct_compare@GraphBuilder@@AAE_NPAVciKlass@@@Z 08042610 f   c1_GraphBuilder.obj
 0001:000416a0       ?simplify@PhiSimplifier@@AAEPAVInstruction@@PAV2@@Z 080426a0 f   c1_GraphBuilder.obj
 0001:00041860       ?block_do@PhiSimplifier@@UAEXPAVBlockBegin@@@Z 08042860 f   c1_GraphBuilder.obj
 0001:00041b90       ?state_at_entry@GraphBuilder@@AAEPAVValueStack@@XZ 08042b90 f   c1_GraphBuilder.obj
 0001:00041e20       ?push_root_scope@GraphBuilder@@AAEXPAVIRScope@@PAVBlockList@@PAVBlockBegin@@@Z 08042e20 f   c1_GraphBuilder.obj
 0001:00041ef0       ?print_inline_result@GraphBuilder@@AAEXPAVciMethod@@_N@Z 08042ef0 f   c1_GraphBuilder.obj
 0001:000420b0       ?at_put_grow@?$GrowableArray@PAVInstruction@@@@QAEXHABQAVInstruction@@0@Z 080430b0 f i c1_GraphBuilder.obj
 0001:00042100       ??0?$GrowableArray@PAVInstruction@@@@QAE@XZ 08043100 f i c1_GraphBuilder.obj
 0001:00042100       ??0?$GrowableArray@PAVFieldBuffer@@@@QAE@XZ 08043100 f i c1_GraphBuilder.obj
 0001:00042100       ??0?$GrowableArray@PAVklassOopDesc@@@@QAE@XZ 08043100 f i dump.obj
 0001:00042100       ??0?$GrowableArray@PAVScopeValue@@@@QAE@XZ 08043100 f i debugInfo.obj
 0001:00042100       ??0?$GrowableArray@VHandle@@@@QAE@XZ 08043100 f i deoptimization.obj
 0001:00042100       ??0?$GrowableArray@PAVLIR_Const@@@@QAE@XZ 08043100 f i c1_Compilation.obj
 0001:00042100       ??0?$GrowableArray@PAVMonitorInfo@@@@QAE@XZ 08043100 f i biasedLocking.obj
 0001:00042160       ?get_index_big@ciBytecodeStream@@QBEHXZ 08043160 f i c1_GraphBuilder.obj
 0001:00042190       ??0ArrayConstant@@QAE@PAVciArray@@@Z 08043190 f i c1_GraphBuilder.obj
 0001:000421c0       ??0InstanceConstant@@QAE@PAVciInstance@@@Z 080431c0 f i c1_GraphBuilder.obj
 0001:000421f0       ??0ClassConstant@@QAE@PAVciInstanceKlass@@@Z 080431f0 f i c1_GraphBuilder.obj
 0001:00042220       ??0Intrinsic@@QAE@PAVValueType@@W4ID@vmIntrinsics@@PAVValues@@_NPAVValueStack@@33@Z 08043220 f i c1_GraphBuilder.obj
 0001:00042320       ?name@Intrinsic@@UBEPBDXZ  08043320 f i c1_GraphBuilder.obj
 0001:00042330       ?visit@Intrinsic@@UAEXPAVInstructionVisitor@@@Z 08043330 f i c1_GraphBuilder.obj
 0001:00042350       ?input_values_do@Intrinsic@@UAEXP6AXPAPAVInstruction@@@Z@Z 08043350 f i c1_GraphBuilder.obj
 0001:00042390       ??0BlockBegin@@QAE@H@Z     08043390 f i c1_GraphBuilder.obj
 0001:000425c0       ?name@BlockBegin@@UBEPBDXZ 080435c0 f i c1_GraphBuilder.obj
 0001:000425d0       ?visit@BlockBegin@@UAEXPAVInstructionVisitor@@@Z 080435d0 f i c1_GraphBuilder.obj
 0001:000425f0       ??0Goto@@QAE@PAVBlockBegin@@_N@Z 080435f0 f i c1_GraphBuilder.obj
 0001:00042690       ??0Base@@QAE@PAVBlockBegin@@0@Z 08043690 f i c1_GraphBuilder.obj
 0001:00042790       ?name@Base@@UBEPBDXZ       08043790 f i c1_GraphBuilder.obj
 0001:000427a0       ?visit@Base@@UAEXPAVInstructionVisitor@@@Z 080437a0 f i c1_GraphBuilder.obj
 0001:000427c0       ?make_block_at@BlockListBuilder@@AAEPAVBlockBegin@@HPAV2@@Z 080437c0 f   c1_GraphBuilder.obj
 0001:000429d0       ?handle_jsr@BlockListBuilder@@AAEXPAVBlockBegin@@HH@Z 080439d0 f   c1_GraphBuilder.obj
 0001:00042a10       ?set_leaders@BlockListBuilder@@AAEXXZ 08043a10 f   c1_GraphBuilder.obj
 0001:00042e40       ?mark_loops@BlockListBuilder@@AAEHPAVBlockBegin@@_N@Z 08043e40 f   c1_GraphBuilder.obj
 0001:00043070       ?at_put@FieldBuffer@@QAEXPAVciField@@PAVInstruction@@@Z 08044070 f i c1_GraphBuilder.obj
 0001:00043110       ?load@MemoryBuffer@@QAEPAVInstruction@@PAVLoadField@@@Z 08044110 f i c1_GraphBuilder.obj
 0001:00043270       ?store_value@MemoryBuffer@@QAEXPAVInstruction@@@Z 08044270 f i c1_GraphBuilder.obj
 0001:00043310       ?block_at@ScopeData@GraphBuilder@@QAEPAVBlockBegin@@H@Z 08044310 f   c1_GraphBuilder.obj
 0001:00043480       ?add_to_work_list@ScopeData@GraphBuilder@@QAEXPAVBlockBegin@@@Z 08044480 f   c1_GraphBuilder.obj
 0001:00043530       ?setup_jsr_xhandlers@ScopeData@GraphBuilder@@QAEXXZ 08044530 f   c1_GraphBuilder.obj
 0001:000436a0       ?handle_exception@GraphBuilder@@AAEPAVXHandlers@@H@Z 080446a0 f   c1_GraphBuilder.obj
 0001:00043b20       ?eliminate_redundant_phis@GraphBuilder@@AAEXPAVBlockBegin@@@Z 08044b20 f   c1_GraphBuilder.obj
 0001:00043b60       ?header_block@GraphBuilder@@AAEPAVBlockBegin@@PAV2@W4Flag@2@PAVValueStack@@@Z 08044b60 f   c1_GraphBuilder.obj
 0001:00043e90       ?setup_start_block@GraphBuilder@@AAEPAVBlockBegin@@HPAV2@0PAVValueStack@@@Z 08044e90 f   c1_GraphBuilder.obj
 0001:00044110       ?push_scope_for_jsr@GraphBuilder@@AAEXPAVBlockBegin@@H@Z 08045110 f   c1_GraphBuilder.obj
 0001:00044240       ?set_entries@BlockListBuilder@@AAEXH@Z 08045240 f   c1_GraphBuilder.obj
 0001:00044340       ?store@MemoryBuffer@@QAEPAVStoreField@@PAV2@@Z 08045340 f i c1_GraphBuilder.obj
 0001:00044480       ?new_instance@MemoryBuffer@@QAEXPAVNewInstance@@@Z 08045480 f i c1_GraphBuilder.obj
 0001:000445b0       ?append_with_bci@GraphBuilder@@AAEPAVInstruction@@PAV2@H@Z 080455b0 f   c1_GraphBuilder.obj
 0001:000447d0       ?append@GraphBuilder@@AAEPAVInstruction@@PAV2@@Z 080457d0 f   c1_GraphBuilder.obj
 0001:00044830       ?append_split@GraphBuilder@@AAEPAVInstruction@@PAVStateSplit@@@Z 08045830 f   c1_GraphBuilder.obj
 0001:00044850       ?null_check@GraphBuilder@@AAEXPAVInstruction@@@Z 08045850 f   c1_GraphBuilder.obj
 0001:00044930       ?setup_osr_entry_block@GraphBuilder@@AAEXXZ 08045930 f   c1_GraphBuilder.obj
 0001:00044fd0       ?try_inline_jsr@GraphBuilder@@AAE_NH@Z 08045fd0 f   c1_GraphBuilder.obj
 0001:000451e0       ?append_unsafe_get_obj@GraphBuilder@@AAE_NPAVciMethod@@W4BasicType@@_N@Z 080461e0 f   c1_GraphBuilder.obj
 0001:00045370       ?append_unsafe_put_obj@GraphBuilder@@AAE_NPAVciMethod@@W4BasicType@@_N@Z 08046370 f   c1_GraphBuilder.obj
 0001:00045530       ?append_unsafe_get_raw@GraphBuilder@@AAE_NPAVciMethod@@W4BasicType@@@Z 08046530 f   c1_GraphBuilder.obj
 0001:00045630       ?append_unsafe_put_raw@GraphBuilder@@AAE_NPAVciMethod@@W4BasicType@@@Z 08046630 f   c1_GraphBuilder.obj
 0001:00045750       ?append_unsafe_prefetch@GraphBuilder@@AAE_NPAVciMethod@@_N1@Z 08046750 f   c1_GraphBuilder.obj
 0001:00045920       ?append_unsafe_CAS@GraphBuilder@@AAEXPAVciMethod@@@Z 08046920 f   c1_GraphBuilder.obj
 0001:00045c10       ?profile_call@GraphBuilder@@AAEXPAVInstruction@@PAVciKlass@@@Z 08046c10 f   c1_GraphBuilder.obj
 0001:00045ca0       ?profile_invocation@GraphBuilder@@AAEXPAVciMethod@@@Z 08046ca0 f   c1_GraphBuilder.obj
 0001:00045e00       ?profile_bci@GraphBuilder@@AAEXH@Z 08046e00 f   c1_GraphBuilder.obj
 0001:00045fd0       ?mark_loops@BlockListBuilder@@AAEXXZ 08046fd0 f   c1_GraphBuilder.obj
 0001:00046100       ?load_constant@GraphBuilder@@AAEXXZ 08047100 f   c1_GraphBuilder.obj
 0001:000464a0       ?load_indexed@GraphBuilder@@AAEXW4BasicType@@@Z 080474a0 f   c1_GraphBuilder.obj
 0001:00046630       ?store_indexed@GraphBuilder@@AAEXW4BasicType@@@Z 08047630 f   c1_GraphBuilder.obj
 0001:000467c0       ?negate_op@GraphBuilder@@AAEXPAVValueType@@@Z 080477c0 f   c1_GraphBuilder.obj
 0001:00046840       ?shift_op@GraphBuilder@@AAEXPAVValueType@@W4Code@Bytecodes@@@Z 08047840 f   c1_GraphBuilder.obj
 0001:00046a30       ?logic_op@GraphBuilder@@AAEXPAVValueType@@W4Code@Bytecodes@@@Z 08047a30 f   c1_GraphBuilder.obj
 0001:00046ae0       ?compare_op@GraphBuilder@@AAEXPAVValueType@@W4Code@Bytecodes@@@Z 08047ae0 f   c1_GraphBuilder.obj
 0001:00046b90       ?convert@GraphBuilder@@AAEXW4Code@Bytecodes@@W4BasicType@@1@Z 08047b90 f   c1_GraphBuilder.obj
 0001:00046c40       ?_goto@GraphBuilder@@AAEXHH@Z 08047c40 f   c1_GraphBuilder.obj
 0001:00046cd0       ?if_node@GraphBuilder@@AAEXPAVInstruction@@W4Condition@2@0PAVValueStack@@@Z 08047cd0 f   c1_GraphBuilder.obj
 0001:00046e00       ?if_zero@GraphBuilder@@AAEXPAVValueType@@W4Condition@Instruction@@@Z 08047e00 f   c1_GraphBuilder.obj
 0001:00046e90       ?if_null@GraphBuilder@@AAEXPAVValueType@@W4Condition@Instruction@@@Z 08047e90 f   c1_GraphBuilder.obj
 0001:00046f20       ?if_same@GraphBuilder@@AAEXPAVValueType@@W4Condition@Instruction@@@Z 08047f20 f   c1_GraphBuilder.obj
 0001:00046f70       ?jsr@GraphBuilder@@AAEXH@Z 08047f70 f   c1_GraphBuilder.obj
 0001:000470d0       ?ret@GraphBuilder@@AAEXH@Z 080480d0 f   c1_GraphBuilder.obj
 0001:00047180       ?table_switch@GraphBuilder@@AAEXXZ 08048180 f   c1_GraphBuilder.obj
 0001:00047670       ?lookup_switch@GraphBuilder@@AAEXXZ 08048670 f   c1_GraphBuilder.obj
 0001:00047c30       ?call_register_finalizer@GraphBuilder@@AAEXXZ 08048c30 f   c1_GraphBuilder.obj
 0001:00047e50       ?access_field@GraphBuilder@@AAEXW4Code@Bytecodes@@@Z 08048e50 f   c1_GraphBuilder.obj
 0001:000484d0       ?new_instance@GraphBuilder@@AAEXH@Z 080494d0 f   c1_GraphBuilder.obj
 0001:000485c0       ?new_type_array@GraphBuilder@@AAEXXZ 080495c0 f   c1_GraphBuilder.obj
 0001:00048670       ?new_object_array@GraphBuilder@@AAEXXZ 08049670 f   c1_GraphBuilder.obj
 0001:00048750       ?check_cast@GraphBuilder@@AAEXH@Z 08049750 f   c1_GraphBuilder.obj
 0001:00048890       ?instance_of@GraphBuilder@@AAEXH@Z 08049890 f   c1_GraphBuilder.obj
 0001:00048990       ?monitorenter@GraphBuilder@@AAEXPAVInstruction@@H@Z 08049990 f   c1_GraphBuilder.obj
 0001:00048a30       ?monitorexit@GraphBuilder@@AAEXPAVInstruction@@H@Z 08049a30 f   c1_GraphBuilder.obj
 0001:00048ae0       ?new_multi_array@GraphBuilder@@AAEXH@Z 08049ae0 f   c1_GraphBuilder.obj
 0001:00048c50       ?throw_op@GraphBuilder@@AAEXH@Z 08049c50 f   c1_GraphBuilder.obj
 0001:00048ce0       ?round_fp@GraphBuilder@@AAEPAVInstruction@@PAV2@@Z 08049ce0 f   c1_GraphBuilder.obj
 0001:00048d70       ?try_inline_intrinsics@GraphBuilder@@AAE_NPAVciMethod@@@Z 08049d70 f   c1_GraphBuilder.obj
 0001:00049570       ?inline_sync_entry@GraphBuilder@@AAEXPAVInstruction@@PAVBlockBegin@@@Z 0804a570 f   c1_GraphBuilder.obj
 0001:00049700       ?fill_sync_handler@GraphBuilder@@AAEXPAVInstruction@@PAVBlockBegin@@_N@Z 0804a700 f   c1_GraphBuilder.obj
 0001:00049950       ??0BlockListBuilder@@QAE@PAVCompilation@@PAVIRScope@@H@Z 0804a950 f   c1_GraphBuilder.obj
 0001:00049ae0       ?store_local@GraphBuilder@@AAEXPAVValueStack@@PAVInstruction@@PAVValueType@@H@Z 0804aae0 f   c1_GraphBuilder.obj
 0001:00049b70       ?arithmetic_op@GraphBuilder@@AAEXPAVValueType@@W4Code@Bytecodes@@PAVValueStack@@@Z 0804ab70 f   c1_GraphBuilder.obj
 0001:00049c90       ?method_return@GraphBuilder@@AAEXPAVInstruction@@@Z 0804ac90 f   c1_GraphBuilder.obj
 0001:0004a130       ?try_inline@GraphBuilder@@AAE_NPAVciMethod@@_N@Z 0804b130 f   c1_GraphBuilder.obj
 0001:0004a210       ?push_scope@GraphBuilder@@AAEXPAVciMethod@@PAVBlockBegin@@@Z 0804b210 f   c1_GraphBuilder.obj
 0001:0004a3d0       ?store_local@GraphBuilder@@AAEXPAVValueType@@H@Z 0804b3d0 f   c1_GraphBuilder.obj
 0001:0004a400       ?increment@GraphBuilder@@AAEXXZ 0804b400 f   c1_GraphBuilder.obj
 0001:0004a590       ?invoke@GraphBuilder@@AAEXW4Code@Bytecodes@@@Z 0804b590 f   c1_GraphBuilder.obj
 0001:0004acb0       ?iterate_bytecodes_for_block@GraphBuilder@@AAEPAVBlockEnd@@H@Z 0804bcb0 f   c1_GraphBuilder.obj
 0001:0004c710       ?iterate_all_blocks@GraphBuilder@@AAEX_N@Z 0804d710 f   c1_GraphBuilder.obj
 0001:0004c860       ??0GraphBuilder@@QAE@PAVCompilation@@PAVIRScope@@@Z 0804d860 f   c1_GraphBuilder.obj
 0001:0004ceb0       ?try_inline_full@GraphBuilder@@AAE_NPAVciMethod@@_N@Z 0804deb0 f   c1_GraphBuilder.obj
 0001:0004d6b0       ?iterate_linear_scan_order@IR@@QAEXPAVBlockClosure@@@Z 0804e6b0 f   c1_IR.obj
 0001:0004d6f0       ?cmp@PredecessorValidator@@CAHPAPAVBlockBegin@@0@Z 0804e6f0 f i c1_IR.obj
 0001:0004d710       ?substitute@SubstitutionResolver@@CAXPAPAVInstruction@@@Z 0804e710 f   c1_IR.obj
 0001:0004d740       ?check_substitute@@YAXPAPAVInstruction@@@Z 0804e740 f   c1_IR.obj
 0001:0004d780       ?block_do@SubstitutionResolver@@UAEXPAVBlockBegin@@@Z 0804e780 f   c1_IR.obj
 0001:0004d850       ?next@ciExceptionHandlerStream@@QAEXXZ 0804e850 f i c1_IR.obj
 0001:0004d910       ?insert_before@_BlockList@@QAEXHQAVBlockBegin@@@Z 0804e910 f i c1_IR.obj
 0001:0004d9a0       ?could_catch@XHandlers@@QBE_NPAVciInstanceKlass@@_N@Z 0804e9a0 f   c1_IR.obj
 0001:0004da70       ?build_graph@IRScope@@AAEPAVBlockBegin@@PAVCompilation@@H@Z 0804ea70 f   c1_IR.obj
 0001:0004dac0       ?max_stack@IRScope@@QBEHXZ 0804eac0 f   c1_IR.obj
 0001:0004db70       ?compute_lock_stack_size@IRScope@@QAEXXZ 0804eb70 f   c1_IR.obj
 0001:0004dbb0       ?add_register_oop@CodeEmitInfo@@QAEXPAVLIR_OprDesc@@@Z 0804ebb0 f   c1_IR.obj
 0001:0004dc50       ?block_do@CriticalEdgeFinder@@UAEXPAVBlockBegin@@@Z 0804ec50 f i c1_IR.obj
 0001:0004dd40       ?append@NodeList@@QAEHQAVResolveNode@@@Z 0804ed40 f i c1_LIRGenerator.obj
 0001:0004dd40       ?push@BlockPairList@@QAEHQAVBlockPair@@@Z 0804ed40 f i c1_IR.obj
 0001:0004dd80       ?split_edges@CriticalEdgeFinder@@QAEXXZ 0804ed80 f i c1_IR.obj
 0001:0004de70       ?update_use_count@UseCountComputer@@CAXPAPAVInstruction@@@Z 0804ee70 f i c1_IR.obj
 0001:0004def0       ?uses_do@UseCountComputer@@CAXPAPAVInstruction@@@Z 0804eef0 f i c1_IR.obj
 0001:0004df90       ?basic_compute_use_count@UseCountComputer@@CAXPAVBlockBegin@@@Z 0804ef90 f i c1_IR.obj
 0001:0004e080       ?inc_forward_branches@ComputeLinearScanOrder@@AAEXPAVBlockBegin@@@Z 0804f080 f i c1_IR.obj
 0001:0004e100       ?dec_forward_branches@ComputeLinearScanOrder@@AAEHPAVBlockBegin@@@Z 0804f100 f i c1_IR.obj
 0001:0004e1b0       ?compute_weight@ComputeLinearScanOrder@@AAEHPAVBlockBegin@@@Z 0804f1b0 f   c1_IR.obj
 0001:0004e360       ?ready_for_processing@ComputeLinearScanOrder@@AAE_NPAVBlockBegin@@@Z 0804f360 f   c1_IR.obj
 0001:0004e3f0       ?sort_into_work_list@ComputeLinearScanOrder@@AAEXPAVBlockBegin@@@Z 0804f3f0 f   c1_IR.obj
 0001:0004e700       ?append_block@ComputeLinearScanOrder@@AAEXPAVBlockBegin@@@Z 0804f700 f   c1_IR.obj
 0001:0004e7a0       ?compute_use_counts@IR@@QAEXXZ 0804f7a0 f   c1_IR.obj
 0001:0004e860       ?iterate_preorder@IR@@QAEXPAVBlockClosure@@@Z 0804f860 f   c1_IR.obj
 0001:0004e8a0       ?block_do@BlockPrinter@@UAEXPAVBlockBegin@@@Z 0804f8a0 f i c1_IR.obj
 0001:0004e8e0       ?print@IR@@SAXPAVBlockBegin@@_N1@Z 0804f8e0 f   c1_IR.obj
 0001:0004e950       ?print@IR@@QAEX_N0@Z       0804f950 f   c1_IR.obj
 0001:0004e990       ??ABlockListArray@@QBEAAPAVBlockList@@H@Z 0804f990 f i c1_IR.obj
 0001:0004e9d0       ?at@BitMap2D@@QBE_NII@Z    0804f9d0 f i c1_IR.obj
 0001:0004ea40       ?set_bit@BitMap2D@@QAEXII@Z 0804fa40 f i c1_IR.obj
 0001:0004eab0       ?clear_bit@BitMap2D@@QAEXII@Z 0804fab0 f i c1_IR.obj
 0001:0004eb30       ??0XHandlers@@QAE@PAVciMethod@@@Z 0804fb30 f   c1_IR.obj
 0001:0004ece0       ??0XHandlers@@QAE@PAV0@@Z  0804fce0 f   c1_IR.obj
 0001:0004ee40       ??0IRScope@@QAE@PAVCompilation@@PAV0@HPAVciMethod@@H_N@Z 0804fe40 f   c1_IR.obj
 0001:0004f030       ??0CodeEmitInfo@@QAE@PAV0@_N@Z 08050030 f   c1_IR.obj
 0001:0004f0e0       ??0IR@@QAE@PAVCompilation@@PAVciMethod@@H@Z 080500e0 f   c1_IR.obj
 0001:0004f190       ?optimize@IR@@QAEXXZ       08050190 f   c1_IR.obj
 0001:0004f580       ?split_critical_edges@IR@@QAEXXZ 08050580 f   c1_IR.obj
 0001:0004f600       ?is_visited@ComputeLinearScanOrder@@ABE_NPAVBlockBegin@@@Z 08050600 f i c1_IR.obj
 0001:0004f650       ?set_visited@ComputeLinearScanOrder@@AAEXPAVBlockBegin@@@Z 08050650 f i c1_IR.obj
 0001:0004f6f0       ?set_active@ComputeLinearScanOrder@@AAEXPAVBlockBegin@@@Z 080506f0 f i c1_IR.obj
 0001:0004f790       ?clear_active@ComputeLinearScanOrder@@AAEXPAVBlockBegin@@@Z 08050790 f i c1_IR.obj
 0001:0004f830       ?count_edges@ComputeLinearScanOrder@@AAEXPAVBlockBegin@@0@Z 08050830 f   c1_IR.obj
 0001:0004fae0       ?mark_loops@ComputeLinearScanOrder@@AAEXXZ 08050ae0 f   c1_IR.obj
 0001:0004ffb0       ?clear_non_natural_loops@ComputeLinearScanOrder@@AAEXPAVBlockBegin@@@Z 08050fb0 f   c1_IR.obj
 0001:00050030       ?assign_loop_depth@ComputeLinearScanOrder@@AAEXPAVBlockBegin@@@Z 08051030 f   c1_IR.obj
 0001:00050300       ?common_dominator@ComputeLinearScanOrder@@AAEPAVBlockBegin@@PAV2@0@Z 08051300 f   c1_IR.obj
 0001:000504b0       ?compute_dominator@ComputeLinearScanOrder@@AAEXPAVBlockBegin@@0@Z 080514b0 f   c1_IR.obj
 0001:00050590       ?compute_order@ComputeLinearScanOrder@@AAEXPAVBlockBegin@@@Z 08051590 f   c1_IR.obj
 0001:000509f0       ?compute_dominators_iter@ComputeLinearScanOrder@@AAE_NXZ 080519f0 f   c1_IR.obj
 0001:00050bc0       ?compute_dominators@ComputeLinearScanOrder@@AAEXXZ 08051bc0 f   c1_IR.obj
 0001:00050c40       ?print_blocks@ComputeLinearScanOrder@@AAEXXZ 08051c40 f   c1_IR.obj
 0001:000510e0       ?verify@ComputeLinearScanOrder@@AAEXXZ 080520e0 f   c1_IR.obj
 0001:00051790       ??0PredecessorValidator@@QAE@PAVIR@@@Z 08052790 f i c1_IR.obj
 0001:00051bd0       ?block_do@PredecessorValidator@@UAEXPAVBlockBegin@@@Z 08052bd0 f i c1_IR.obj
 0001:00051e50       ?grow@BlockListList@@IAEXHQAVBlockList@@@Z 08052e50 f i c1_IR.obj
 0001:00051eb0       ?verify@IR@@QAEXXZ         08052eb0 f   c1_IR.obj
 0001:00051ed0       ?java_code_at@Bytecodes@@SA?AW4Code@1@PAEPAVmethodOopDesc@@@Z 08052ed0 f i c1_IR.obj
 0001:00051f30       ??0CodeEmitInfo@@QAE@HPAVValueStack@@PAVXHandlers@@@Z 08052f30 f   c1_IR.obj
 0001:00051fd0       ??0ComputeLinearScanOrder@@QAE@PAVBlockBegin@@@Z 08052fd0 f   c1_IR.obj
 0001:00052170       ?compute_code@IR@@QAEXXZ   08053170 f   c1_IR.obj
 0001:000521c0       ?record_debug_info@IRScopeDebugInfo@@QAEXPAVDebugInformationRecorder@@H_N@Z 080531c0 f i c1_IR.obj
 0001:00052290       ?record_debug_info@CodeEmitInfo@@QAEXPAVDebugInformationRecorder@@H@Z 08053290 f   c1_IR.obj
 0001:000522d0       ?mirror@Instruction@@SA?AW4Condition@1@W421@@Z 080532d0 f   c1_Instruction.obj
 0001:00052340       ?prev@Instruction@@QAEPAV1@PAVBlockBegin@@@Z 08053340 f   c1_Instruction.obj
 0001:00052380       ?print@Instruction@@QAEXAAVInstructionPrinter@@@Z 08053380 f   c1_Instruction.obj
 0001:000523b0       ?declared_type@LoadIndexed@@UBEPAVciType@@XZ 080533b0 f   c1_Instruction.obj
 0001:000523f0       ?exact_type@NewTypeArray@@UBEPAVciType@@XZ 080533f0 f   c1_Instruction.obj
 0001:00052400       ?exact_type@NewObjectArray@@UBEPAVciType@@XZ 08053400 f   c1_Instruction.obj
 0001:00052410       ?declared_type@CheckCast@@UBEPAVciType@@XZ 08053410 f   c1_Instruction.obj
 0001:00052410       ?lock_stack@NullCheck@@UBEPAVValueStack@@XZ 08053410 f   c1_GraphBuilder.obj
 0001:00052410       ?exact_type@NewInstance@@UBEPAVciType@@XZ 08053410 f   c1_Instruction.obj
 0001:00052410       ?lock_stack@AccessArray@@UBEPAVValueStack@@XZ 08053410 f   c1_Canonicalizer.obj
 0001:00052420       ?other_values_do@NullCheck@@UAEXP6AXPAPAVInstruction@@@Z@Z 08053420 f   c1_Instruction.obj
 0001:00052440       ?other_values_do@ArithmeticOp@@UAEXP6AXPAPAVInstruction@@@Z@Z 08053440 f   c1_Instruction.obj
 0001:00052440       ?other_values_do@AccessArray@@UAEXP6AXPAPAVInstruction@@@Z@Z 08053440 f   c1_Instruction.obj
 0001:00052470       ?other_values_do@AccessField@@UAEXP6AXPAPAVInstruction@@@Z@Z 08053470 f   c1_Instruction.obj
 0001:000524b0       ?is_commutative@ArithmeticOp@@UBE_NXZ 080534b0 f   c1_Instruction.obj
 0001:000524f0       ?can_trap@ArithmeticOp@@UBE_NXZ 080534f0 f   c1_Instruction.obj
 0001:00052520       ?is_commutative@LogicOp@@UBE_NXZ 08053520 f   c1_Instruction.obj
 0001:00052550       ?is_commutative@IfOp@@UBE_NXZ 08053550 f   c1_Instruction.obj
 0001:00052570       ?scope@StateSplit@@QBEPAVIRScope@@XZ 08053570 f   c1_Instruction.obj
 0001:00052580       ?state_values_do@MonitorEnter@@UAEXP6AXPAPAVInstruction@@@Z@Z 08053580 f   c1_Instruction.obj
 0001:000525b0       ?state_values_do@Intrinsic@@UAEXP6AXPAPAVInstruction@@@Z@Z 080535b0 f   c1_Instruction.obj
 0001:000525f0       ?other_values_do@NewArray@@UAEXP6AXPAPAVInstruction@@@Z@Z 080535f0 f   c1_Instruction.obj
 0001:00052610       ?block_values_do@BlockBegin@@QAEXP6AXPAPAVInstruction@@@Z@Z 08053610 f   c1_Instruction.obj
 0001:00052650       ?print_block@BlockBegin@@QAEXAAVInstructionPrinter@@_N@Z 08053650 f   c1_Instruction.obj
 0001:000526e0       ?other_values_do@BlockEnd@@UAEXP6AXPAPAVInstruction@@@Z@Z 080536e0 f   c1_Instruction.obj
 0001:000526e0       ?other_values_do@CompareOp@@UAEXP6AXPAPAVInstruction@@@Z@Z 080536e0 f   c1_Instruction.obj
 0001:000526e0       ?other_values_do@TypeCheck@@UAEXP6AXPAPAVInstruction@@@Z@Z 080536e0 f   c1_Instruction.obj
 0001:00052700       ?state_values_do@StateSplit@@UAEXP6AXPAPAVInstruction@@@Z@Z 08053700 f   c1_Instruction.obj
 0001:00052700       ?other_values_do@Constant@@UAEXP6AXPAPAVInstruction@@@Z@Z 08053700 f   c1_Instruction.obj
 0001:00052700       ?state_values_do@Throw@@UAEXP6AXPAPAVInstruction@@@Z@Z 08053700 f   c1_Instruction.obj
 0001:00052720       ?exception_state_at@BlockBegin@@QBEPAVValueStack@@H@Z 08053720 f i c1_Instruction.obj
 0001:00052790       ?create_hi_word@Instruction@@QAEXXZ 08053790 f   c1_Instruction.obj
 0001:00052810       ?print@Instruction@@QAEXXZ 08053810 f   c1_Instruction.obj
 0001:00052850       ?print_line@Instruction@@QAEXXZ 08053850 f   c1_Instruction.obj
 0001:00052880       ?compute_needs_range_check@AccessIndexed@@QAE_NXZ 08053880 f   c1_Instruction.obj
 0001:000528e0       ?exact_type@LoadIndexed@@UBEPAVciType@@XZ 080538e0 f   c1_Instruction.obj
 0001:00052960       ?declared_type@LoadField@@UBEPAVciType@@XZ 08053960 f   c1_Instruction.obj
 0001:00052970       ?exact_type@LoadField@@UBEPAVciType@@XZ 08053970 f   c1_Instruction.obj
 0001:000529c0       ?exact_type@CheckCast@@UBEPAVciType@@XZ 080539c0 f   c1_Instruction.obj
 0001:00052a20       ?substitute@StateSplit@@KAXAAVBlockList@@PAVBlockBegin@@1@Z 08053a20 f   c1_Instruction.obj
 0001:00052ab0       ?state_values_do@BlockBegin@@UAEXP6AXPAPAVInstruction@@@Z@Z 08053ab0 f   c1_Instruction.obj
 0001:00052b30       ?hash@Constant@@UBEHXZ     08053b30 f   c1_Instruction.obj
 0001:00052c70       ?is_equal@Constant@@UBE_NPAVInstruction@@@Z 08053c70 f   c1_Instruction.obj
 0001:00052de0       ?compare@Constant@@UAEPAVBlockBegin@@W4Condition@Instruction@@PAV4@PAV2@2@Z 08053de0 f   c1_Instruction.obj
 0001:00053060       ?disconnect_edge@BlockBegin@@SAXPAV1@0@Z 08054060 f   c1_Instruction.obj
 0001:00053120       ?remove_successor@BlockBegin@@QAEXPAV1@@Z 08054120 f   c1_Instruction.obj
 0001:00053160       ?add_predecessor@BlockBegin@@QAEXPAV1@@Z 08054160 f   c1_Instruction.obj
 0001:000531a0       ?remove_predecessor@BlockBegin@@QAEXPAV1@@Z 080541a0 f   c1_Instruction.obj
 0001:000531e0       ?add_exception_handler@BlockBegin@@QAEXPAV1@@Z 080541e0 f   c1_Instruction.obj
 0001:00053260       ?iterate_preorder@BlockBegin@@AAEXAAVboolArray@@PAVBlockClosure@@@Z 08054260 f   c1_Instruction.obj
 0001:00053380       ?iterate_forward@BlockList@@QAEXPAVBlockClosure@@@Z 08054380 f   c1_Instruction.obj
 0001:000533f0       ?blocks_do@BlockList@@QAEXP6AXPAVBlockBegin@@@Z@Z 080543f0 f   c1_Instruction.obj
 0001:00053440       ?print@BlockList@@QAEX_N0@Z 08054440 f   c1_Instruction.obj
 0001:000534e0       ?operand_at@Phi@@QBEPAVInstruction@@H@Z 080544e0 f   c1_Instruction.obj
 0001:000535a0       ?operand_count@Phi@@QBEHXZ 080545a0 f   c1_Instruction.obj
 0001:000535f0       ??0boolArray@@QAE@H_N@Z    080545f0 f i c1_Instruction.obj
 0001:00053650       ??0ValueStackStack@@QAE@H@Z 08054650 f i c1_Instruction.obj
 0001:000536a0       ??0Invoke@@QAE@W4Code@Bytecodes@@PAVValueType@@PAVInstruction@@PAVValues@@HPAVciMethod@@@Z 080546a0 f   c1_Instruction.obj
 0001:00053900       ?name@Invoke@@UBEPBDXZ     08054900 f i c1_Instruction.obj
 0001:00053910       ?visit@Invoke@@UAEXPAVInstructionVisitor@@@Z 08054910 f i c1_Instruction.obj
 0001:00053930       ?input_values_do@Invoke@@UAEXP6AXPAPAVInstruction@@@Z@Z 08054930 f i c1_Instruction.obj
 0001:00053980       ?disconnect_from_graph@BlockBegin@@QAEXXZ 08054980 f   c1_Instruction.obj
 0001:00053a40       ?substitute_sux@BlockBegin@@QAEXPAV1@0@Z 08054a40 f   c1_Instruction.obj
 0001:00053b00       ?add_exception_state@BlockBegin@@QAEHPAVValueStack@@@Z 08054b00 f   c1_Instruction.obj
 0001:00053b90       ?iterate_preorder@BlockBegin@@QAEXPAVBlockClosure@@@Z 08054b90 f   c1_Instruction.obj
 0001:00053bc0       ?try_merge@BlockBegin@@QAE_NPAVValueStack@@@Z 08054bc0 f   c1_Instruction.obj
 0001:000544e0       ?set_begin@BlockEnd@@QAEXPAVBlockBegin@@@Z 080554e0 f   c1_Instruction.obj
 0001:000545d0       ?set_end@BlockBegin@@QAEXPAVBlockEnd@@@Z 080555d0 f   c1_Instruction.obj
 0001:00054760       ?insert_block_between@BlockBegin@@QAEPAV1@PAV1@@Z 08055760 f   c1_Instruction.obj
 0001:000549b0       ?basic_type_name@InstructionPrinter@@SAPBDW4BasicType@@@Z 080559b0 f   c1_InstructionPrinter.obj
 0001:00054a40       ?cond_name@InstructionPrinter@@SAPBDW4Condition@Instruction@@@Z 08055a40 f   c1_InstructionPrinter.obj
 0001:00054ab0       ?print_temp@InstructionPrinter@@QAEXPAVInstruction@@@Z 08055ab0 f   c1_InstructionPrinter.obj
 0001:00054ae0       ?print_value@InstructionPrinter@@QAEXPAVInstruction@@@Z 08055ae0 f   c1_InstructionPrinter.obj
 0001:00054b30       ?print_instr@InstructionPrinter@@QAEXPAVInstruction@@@Z 08055b30 f   c1_InstructionPrinter.obj
 0001:00054b50       ?print_inline_level@InstructionPrinter@@QAEXPAVBlockBegin@@@Z 08055b50 f   c1_InstructionPrinter.obj
 0001:00054b80       ?print_unsafe_raw_op@InstructionPrinter@@QAEXPAVUnsafeRawOp@@PBD@Z 08055b80 f   c1_InstructionPrinter.obj
 0001:00054c40       ?print_unsafe_object_op@InstructionPrinter@@QAEXPAVUnsafeObjectOp@@PBD@Z 08055c40 f   c1_InstructionPrinter.obj
 0001:00054d00       ?fill_to@InstructionPrinter@@QAEXHD@Z 08055d00 f   c1_InstructionPrinter.obj
 0001:00054d30       ?print_head@InstructionPrinter@@QAEXXZ 08055d30 f   c1_InstructionPrinter.obj
 0001:00054e20       ?do_Local@InstructionPrinter@@UAEXPAVLocal@@@Z 08055e20 f   c1_InstructionPrinter.obj
 0001:00054e40       ?do_ArrayLength@InstructionPrinter@@UAEXPAVArrayLength@@@Z 08055e40 f   c1_InstructionPrinter.obj
 0001:00054ea0       ?do_NegateOp@InstructionPrinter@@UAEXPAVNegateOp@@@Z 08055ea0 f   c1_InstructionPrinter.obj
 0001:00054f00       ?do_IfOp@InstructionPrinter@@UAEXPAVIfOp@@@Z 08055f00 f   c1_InstructionPrinter.obj
 0001:00055040       ?do_NullCheck@InstructionPrinter@@UAEXPAVNullCheck@@@Z 08056040 f   c1_InstructionPrinter.obj
 0001:000550d0       ?do_NewTypeArray@InstructionPrinter@@UAEXPAVNewTypeArray@@@Z 080560d0 f   c1_InstructionPrinter.obj
 0001:00055150       ?do_IfInstanceOf@InstructionPrinter@@UAEXPAVIfInstanceOf@@@Z 08056150 f   c1_InstructionPrinter.obj
 0001:00055170       ?do_Return@InstructionPrinter@@UAEXPAVReturn@@@Z 08056170 f   c1_InstructionPrinter.obj
 0001:000551d0       ?do_Throw@InstructionPrinter@@UAEXPAVThrow@@@Z 080561d0 f   c1_InstructionPrinter.obj
 0001:00055230       ?do_OsrEntry@InstructionPrinter@@UAEXPAVOsrEntry@@@Z 08056230 f   c1_InstructionPrinter.obj
 0001:00055250       ?do_ExceptionObject@InstructionPrinter@@UAEXPAVExceptionObject@@@Z 08056250 f   c1_InstructionPrinter.obj
 0001:00055270       ?do_RoundFP@InstructionPrinter@@UAEXPAVRoundFP@@@Z 08056270 f   c1_InstructionPrinter.obj
 0001:000552d0       ?do_UnsafeGetRaw@InstructionPrinter@@UAEXPAVUnsafeGetRaw@@@Z 080562d0 f   c1_InstructionPrinter.obj
 0001:00055300       ?do_UnsafePutRaw@InstructionPrinter@@UAEXPAVUnsafePutRaw@@@Z 08056300 f   c1_InstructionPrinter.obj
 0001:00055380       ?do_UnsafeGetObject@InstructionPrinter@@UAEXPAVUnsafeGetObject@@@Z 08056380 f   c1_InstructionPrinter.obj
 0001:000553b0       ?do_UnsafePutObject@InstructionPrinter@@UAEXPAVUnsafePutObject@@@Z 080563b0 f   c1_InstructionPrinter.obj
 0001:00055430       ?do_UnsafePrefetchRead@InstructionPrinter@@UAEXPAVUnsafePrefetchRead@@@Z 08056430 f   c1_InstructionPrinter.obj
 0001:00055460       ?do_UnsafePrefetchWrite@InstructionPrinter@@UAEXPAVUnsafePrefetchWrite@@@Z 08056460 f   c1_InstructionPrinter.obj
 0001:00055490       ?print_object@InstructionPrinter@@QAEXPAVInstruction@@@Z 08056490 f   c1_InstructionPrinter.obj
 0001:00055630       ?print_field@InstructionPrinter@@QAEXPAVAccessField@@@Z 08056630 f   c1_InstructionPrinter.obj
 0001:000556a0       ?print_indexed@InstructionPrinter@@QAEXPAVAccessIndexed@@@Z 080566a0 f   c1_InstructionPrinter.obj
 0001:00055750       ?print_monitor@InstructionPrinter@@QAEXPAVAccessMonitor@@@Z 08056750 f   c1_InstructionPrinter.obj
 0001:000557d0       ?print_stack@InstructionPrinter@@QAEXPAVValueStack@@@Z 080567d0 f   c1_InstructionPrinter.obj
 0001:00055a10       ?print_phi@InstructionPrinter@@QAEXHPAVInstruction@@PAVBlockBegin@@@Z 08056a10 f   c1_InstructionPrinter.obj
 0001:00055b90       ?print_line@InstructionPrinter@@QAEXPAVInstruction@@@Z 08056b90 f   c1_InstructionPrinter.obj
 0001:00055ce0       ?do_Phi@InstructionPrinter@@UAEXPAVPhi@@@Z 08056ce0 f   c1_InstructionPrinter.obj
 0001:00055d20       ?do_Constant@InstructionPrinter@@UAEXPAVConstant@@@Z 08056d20 f   c1_InstructionPrinter.obj
 0001:00055e40       ?do_LoadField@InstructionPrinter@@UAEXPAVLoadField@@@Z 08056e40 f   c1_InstructionPrinter.obj
 0001:00055e90       ?do_StoreField@InstructionPrinter@@UAEXPAVStoreField@@@Z 08056e90 f   c1_InstructionPrinter.obj
 0001:00055f30       ?do_LoadIndexed@InstructionPrinter@@UAEXPAVLoadIndexed@@@Z 08056f30 f   c1_InstructionPrinter.obj
 0001:00055f70       ?do_StoreIndexed@InstructionPrinter@@UAEXPAVStoreIndexed@@@Z 08056f70 f   c1_InstructionPrinter.obj
 0001:00056000       ?do_NewInstance@InstructionPrinter@@UAEXPAVNewInstance@@@Z 08057000 f   c1_InstructionPrinter.obj
 0001:00056030       ?do_NewObjectArray@InstructionPrinter@@UAEXPAVNewObjectArray@@@Z 08057030 f   c1_InstructionPrinter.obj
 0001:000560b0       ?do_NewMultiArray@InstructionPrinter@@UAEXPAVNewMultiArray@@@Z 080570b0 f   c1_InstructionPrinter.obj
 0001:000561a0       ?do_MonitorEnter@InstructionPrinter@@UAEXPAVMonitorEnter@@@Z 080571a0 f   c1_InstructionPrinter.obj
 0001:000561d0       ?do_MonitorExit@InstructionPrinter@@UAEXPAVMonitorExit@@@Z 080571d0 f   c1_InstructionPrinter.obj
 0001:00056200       ?do_Intrinsic@InstructionPrinter@@UAEXPAVIntrinsic@@@Z 08057200 f   c1_InstructionPrinter.obj
 0001:00056340       ?do_BlockBegin@InstructionPrinter@@UAEXPAVBlockBegin@@@Z 08057340 f   c1_InstructionPrinter.obj
 0001:000569e0       ?do_CheckCast@InstructionPrinter@@UAEXPAVCheckCast@@@Z 080579e0 f   c1_InstructionPrinter.obj
 0001:00056a60       ?do_InstanceOf@InstructionPrinter@@UAEXPAVInstanceOf@@@Z 08057a60 f   c1_InstructionPrinter.obj
 0001:00056ae0       ?do_Goto@InstructionPrinter@@UAEXPAVGoto@@@Z 08057ae0 f   c1_InstructionPrinter.obj
 0001:00056b60       ?do_If@InstructionPrinter@@UAEXPAVIf@@@Z 08057b60 f   c1_InstructionPrinter.obj
 0001:00056ca0       ?do_TableSwitch@InstructionPrinter@@UAEXPAVTableSwitch@@@Z 08057ca0 f   c1_InstructionPrinter.obj
 0001:00056e30       ?do_LookupSwitch@InstructionPrinter@@UAEXPAVLookupSwitch@@@Z 08057e30 f   c1_InstructionPrinter.obj
 0001:00056ff0       ?do_Base@InstructionPrinter@@UAEXPAVBase@@@Z 08057ff0 f   c1_InstructionPrinter.obj
 0001:000570b0       ?do_ProfileCall@InstructionPrinter@@UAEXPAVProfileCall@@@Z 080580b0 f   c1_InstructionPrinter.obj
 0001:00057170       ?do_ProfileCounter@InstructionPrinter@@UAEXPAVProfileCounter@@@Z 08058170 f   c1_InstructionPrinter.obj
 0001:00057230       ?op_name@InstructionPrinter@@SAPBDW4Code@Bytecodes@@@Z 08058230 f   c1_InstructionPrinter.obj
 0001:00057340       ?print_op2@InstructionPrinter@@QAEXPAVOp2@@@Z 08058340 f   c1_InstructionPrinter.obj
 0001:000573f0       ?do_LogicOp@InstructionPrinter@@UAEXPAVLogicOp@@@Z 080583f0 f   c1_InstructionPrinter.obj
 0001:000573f0       ?do_ArithmeticOp@InstructionPrinter@@UAEXPAVArithmeticOp@@@Z 080583f0 f   c1_InstructionPrinter.obj
 0001:000573f0       ?do_ShiftOp@InstructionPrinter@@UAEXPAVShiftOp@@@Z 080583f0 f   c1_InstructionPrinter.obj
 0001:000573f0       ?do_CompareOp@InstructionPrinter@@UAEXPAVCompareOp@@@Z 080583f0 f   c1_InstructionPrinter.obj
 0001:00057400       ?do_Convert@InstructionPrinter@@UAEXPAVConvert@@@Z 08058400 f   c1_InstructionPrinter.obj
 0001:000574c0       ?do_Invoke@InstructionPrinter@@UAEXPAVInvoke@@@Z 080584c0 f   c1_InstructionPrinter.obj
 0001:00057660       ?scale@LIR_Address@@SA?AW4Scale@1@W4BasicType@@@Z 08058660 f   c1_LIR.obj
 0001:000576d0       ?type_char@LIR_OprDesc@@CADW4BasicType@@@Z 080586d0 f   c1_LIR.obj
 0001:000577a0       ?change_ublock@LIR_OpBranch@@QAEXPAVBlockBegin@@@Z 080587a0 f   c1_LIR.obj
 0001:000577e0       ?negate_cond@LIR_OpBranch@@QAEXXZ 080587e0 f   c1_LIR.obj
 0001:00057850       ?do_stub@LIR_OpVisitState@@QAEXPAVCodeStub@@@Z 08058850 f   c1_LIR.obj
 0001:00057870       ?emit_code@LIR_OpJavaCall@@UAEXPAVLIR_Assembler@@@Z 08058870 f   c1_LIR.obj
 0001:00057880       ?emit_code@LIR_OpRTCall@@UAEXPAVLIR_Assembler@@@Z 08058880 f   c1_LIR.obj
 0001:00057890       ?emit_code@LIR_OpLabel@@UAEXPAVLIR_Assembler@@@Z 08058890 f   c1_LIR.obj
 0001:000578a0       ?emit_code@LIR_Op0@@UAEXPAVLIR_Assembler@@@Z 080588a0 f   c1_LIR.obj
 0001:000578b0       ?emit_code@LIR_Op1@@UAEXPAVLIR_Assembler@@@Z 080588b0 f   c1_LIR.obj
 0001:000578c0       ?emit_code@LIR_Op2@@UAEXPAVLIR_Assembler@@@Z 080588c0 f   c1_LIR.obj
 0001:000578d0       ?emit_code@LIR_OpCompareAndSwap@@UAEXPAVLIR_Assembler@@@Z 080588d0 f   c1_LIR.obj
 0001:000578e0       ?emit_code@LIR_Op3@@UAEXPAVLIR_Assembler@@@Z 080588e0 f   c1_LIR.obj
 0001:000578f0       ?emit_code@LIR_OpProfileCall@@UAEXPAVLIR_Assembler@@@Z 080588f0 f   c1_LIR.obj
 0001:00057900       ?set_file_and_line@LIR_List@@QAEXPBDH@Z 08058900 f   c1_LIR.obj
 0001:00057950       ?print_instr@LIR_OpLabel@@UBEXPAVoutputStream@@@Z 08058950 f   c1_LIR.obj
 0001:00057970       ?print_patch_code@LIR_Op1@@KAXPAVoutputStream@@W4LIR_PatchCode@@@Z 08058970 f   c1_LIR.obj
 0001:000579e0       ?print_condition@LIR_Op@@KAXPAVoutputStream@@W4LIR_Condition@@@Z 080589e0 f   c1_LIR.obj
 0001:00057ae0       ?print_bytecode@LIR_OpConvert@@SAXPAVoutputStream@@W4Code@Bytecodes@@@Z 08058ae0 f   c1_LIR.obj
 0001:00057c70       ?adr_at@LIR_OprArray@@QAEPAPAVLIR_OprDesc@@H@Z 08058c70 f i c1_LIR.obj
 0001:00057cb0       ?at_put@LIR_OpArray@@QAEXHQAVLIR_Op@@@Z 08058cb0 f i c1_LIR.obj
 0001:00057d00       ?as_jlong@LIR_Const@@QBE_JXZ 08058d00 f i c1_LIR.obj
 0001:00057d30       ?as_jfloat@LIR_Const@@QBEMXZ 08058d30 f i c1_LIR.obj
 0001:00057d60       ?as_jdouble@LIR_Const@@QBENXZ 08058d60 f i c1_LIR.obj
 0001:00057d90       ?as_jobject@LIR_Const@@QBEPAV_jobject@@XZ 08058d90 f i c1_LIR.obj
 0001:00057dc0       ??0LIR_Op1@@QAE@W4LIR_Code@@PAVLIR_OprDesc@@1W4BasicType@@W4LIR_PatchCode@@PAVCodeEmitInfo@@@Z 08058dc0 f i c1_LIR.obj
 0001:00057e40       ??0LIR_Op1@@QAE@W4LIR_Code@@PAVLIR_OprDesc@@1W4BasicType@@W4LIR_PatchCode@@PAVCodeEmitInfo@@W4LIR_MoveKind@@@Z 08058e40 f i c1_LIR.obj
 0001:00057ef0       ?move_kind@LIR_Op1@@QBE?AW4LIR_MoveKind@@XZ 08058ef0 f i c1_LIR.obj
 0001:00057f20       ??0LIR_OpAllocObj@@QAE@PAVLIR_OprDesc@@00000HH_NPAVCodeStub@@@Z 08058f20 f i c1_LIR.obj
 0001:00057fa0       ?klass@LIR_OpTypeCheck@@QBEPAVciKlass@@XZ 08058fa0 f i c1_LIR.obj
 0001:00057fd0       ?fast_check@LIR_OpTypeCheck@@QBE_NXZ 08058fd0 f i c1_LIR.obj
 0001:00058000       ??0LIR_Op2@@QAE@W4LIR_Code@@PAVLIR_OprDesc@@11PAVCodeEmitInfo@@W4BasicType@@@Z 08059000 f i c1_LIR.obj
 0001:00058090       ?condition@LIR_Op2@@QBE?AW4LIR_Condition@@XZ 08059090 f i c1_LIR.obj
 0001:000580c0       ??0LIR_OpAllocArray@@QAE@PAVLIR_OprDesc@@000000W4BasicType@@PAVCodeStub@@@Z 080590c0 f i c1_LIR.obj
 0001:00058130       ?append@LIR_List@@AAEXPAVLIR_Op@@@Z 08059130 f i c1_LIR.obj
 0001:000581c0       ?append_new@LIR_InsertionBuffer@@AAEXHH@Z 080591c0 f i c1_LIR.obj
 0001:00058220       ?set_count_at@LIR_InsertionBuffer@@AAEXHH@Z 08059220 f i c1_LIR.obj
 0001:00058270       ?index_at@LIR_InsertionBuffer@@QBEHH@Z 08059270 f i c1_LIR.obj
 0001:000582c0       ?count_at@LIR_InsertionBuffer@@QBEHH@Z 080592c0 f i c1_LIR.obj
 0001:00058310       ?print_name@ArrayCopyStub@@UBEXPAVoutputStream@@@Z 08059310 f i c1_LIR.obj
 0001:00058330       ?info@ArrayCopyStub@@UBEPAVCodeEmitInfo@@XZ 08059330 f i c1_LIR.obj
 0001:00058340       ?visit@ArrayCopyStub@@UAEXPAVLIR_OpVisitState@@@Z 08059340 f i c1_LIR.obj
 0001:00058360       ??0LIR_OpBranch@@QAE@W4LIR_Condition@@W4BasicType@@PAVBlockBegin@@@Z 08059360 f   c1_LIR.obj
 0001:000583c0       ??0LIR_OpBranch@@QAE@W4LIR_Condition@@W4BasicType@@PAVCodeStub@@@Z 080593c0 f   c1_LIR.obj
 0001:00058420       ??0LIR_OpBranch@@QAE@W4LIR_Condition@@W4BasicType@@PAVBlockBegin@@2@Z 08059420 f   c1_LIR.obj
 0001:00058480       ?change_block@LIR_OpBranch@@QAEXPAVBlockBegin@@@Z 08059480 f   c1_LIR.obj
 0001:000584e0       ??0LIR_OpTypeCheck@@QAE@W4LIR_Code@@PAVLIR_OprDesc@@1PAVciKlass@@111_NPAVCodeEmitInfo@@4PAVCodeStub@@PAVciMethod@@H@Z 080594e0 f   c1_LIR.obj
 0001:000585d0       ??0LIR_OpTypeCheck@@QAE@W4LIR_Code@@PAVLIR_OprDesc@@1111PAVCodeEmitInfo@@PAVciMethod@@H@Z 080595d0 f   c1_LIR.obj
 0001:000586e0       ??0LIR_OpArrayCopy@@QAE@PAVLIR_OprDesc@@00000PAVciArrayKlass@@HPAVCodeEmitInfo@@@Z 080596e0 f   c1_LIR.obj
 0001:000587c0       ?verify@LIR_OpRTCall@@UBEXXZ 080597c0 f   c1_LIR.obj
 0001:00058800       ?all_xhandler@LIR_OpVisitState@@QAEPAVXHandlers@@XZ 08059800 f   c1_LIR.obj
 0001:00058980       ?emit_code@LIR_OpArrayCopy@@UAEXPAVLIR_Assembler@@@Z 08059980 f   c1_LIR.obj
 0001:000589b0       ?emit_code@LIR_OpAllocObj@@UAEXPAVLIR_Assembler@@@Z 080599b0 f   c1_LIR.obj
 0001:000589e0       ?emit_code@LIR_OpBranch@@UAEXPAVLIR_Assembler@@@Z 080599e0 f   c1_LIR.obj
 0001:00058a10       ?emit_code@LIR_OpConvert@@UAEXPAVLIR_Assembler@@@Z 08059a10 f   c1_LIR.obj
 0001:00058a40       ?emit_code@LIR_OpAllocArray@@UAEXPAVLIR_Assembler@@@Z 08059a40 f   c1_LIR.obj
 0001:00058a70       ?emit_code@LIR_OpTypeCheck@@UAEXPAVLIR_Assembler@@@Z 08059a70 f   c1_LIR.obj
 0001:00058aa0       ?emit_code@LIR_OpLock@@UAEXPAVLIR_Assembler@@@Z 08059aa0 f   c1_LIR.obj
 0001:00058ad0       ?load@LIR_List@@QAEXPAVLIR_Address@@PAVLIR_OprDesc@@PAVCodeEmitInfo@@W4LIR_PatchCode@@@Z 08059ad0 f   c1_LIR.obj
 0001:00058b90       ?prefetch@LIR_List@@QAEXPAVLIR_Address@@_N@Z 08059b90 f   c1_LIR.obj
 0001:00058c20       ?store@LIR_List@@QAEXPAVLIR_OprDesc@@PAVLIR_Address@@PAVCodeEmitInfo@@W4LIR_PatchCode@@@Z 08059c20 f   c1_LIR.obj
 0001:00058ce0       ?idiv@LIR_List@@QAEXPAVLIR_OprDesc@@000PAVCodeEmitInfo@@@Z 08059ce0 f   c1_LIR.obj
 0001:00058d90       ?irem@LIR_List@@QAEXPAVLIR_OprDesc@@000PAVCodeEmitInfo@@@Z 08059d90 f   c1_LIR.obj
 0001:00058e40       ?allocate_object@LIR_List@@QAEXPAVLIR_OprDesc@@0000HH0_NPAVCodeStub@@@Z 08059e40 f   c1_LIR.obj
 0001:00058ed0       ?allocate_array@LIR_List@@QAEXPAVLIR_OprDesc@@00000W4BasicType@@0PAVCodeStub@@@Z 08059ed0 f   c1_LIR.obj
 0001:00058f60       ?shift_left@LIR_List@@QAEXPAVLIR_OprDesc@@000@Z 08059f60 f   c1_LIR.obj
 0001:00059010       ?shift_right@LIR_List@@QAEXPAVLIR_OprDesc@@000@Z 0805a010 f   c1_LIR.obj
 0001:000590c0       ?unsigned_shift_right@LIR_List@@QAEXPAVLIR_OprDesc@@000@Z 0805a0c0 f   c1_LIR.obj
 0001:00059170       ?fcmp2int@LIR_List@@QAEXPAVLIR_OprDesc@@00_N@Z 0805a170 f   c1_LIR.obj
 0001:00059200       ?lock_object@LIR_List@@QAEXPAVLIR_OprDesc@@000PAVCodeStub@@PAVCodeEmitInfo@@@Z 0805a200 f   c1_LIR.obj
 0001:000592c0       ?unlock_object@LIR_List@@QAEXPAVLIR_OprDesc@@00PAVCodeStub@@@Z 0805a2c0 f   c1_LIR.obj
 0001:00059380       ?checkcast@LIR_List@@QAEXPAVLIR_OprDesc@@0PAVciKlass@@000_NPAVCodeEmitInfo@@3PAVCodeStub@@PAVciMethod@@H@Z 0805a380 f   c1_LIR.obj
 0001:00059420       ?instanceof@LIR_List@@QAEXPAVLIR_OprDesc@@0PAVciKlass@@000_NPAVCodeEmitInfo@@@Z 0805a420 f   c1_LIR.obj
 0001:000594f0       ?store_check@LIR_List@@QAEXPAVLIR_OprDesc@@0000PAVCodeEmitInfo@@@Z 0805a4f0 f   c1_LIR.obj
 0001:00059580       ?cas_long@LIR_List@@QAEXPAVLIR_OprDesc@@0000@Z 0805a580 f   c1_LIR.obj
 0001:00059640       ?cas_obj@LIR_List@@QAEXPAVLIR_OprDesc@@0000@Z 0805a640 f   c1_LIR.obj
 0001:00059700       ?cas_int@LIR_List@@QAEXPAVLIR_OprDesc@@0000@Z 0805a700 f   c1_LIR.obj
 0001:000597c0       ?print_value_on@LIR_Const@@UBEXPAVoutputStream@@@Z 0805a7c0 f   c1_LIR.obj
 0001:00059bc0       ?print_instructions@LIR_List@@QAEXXZ 0805abc0 f   c1_LIR.obj
 0001:00059c20       ?print_on@LIR_Op@@UBEXPAVoutputStream@@@Z 0805ac20 f   c1_LIR.obj
 0001:00059cd0       ?name@LIR_Op@@UBEPBDXZ     0805acd0 f   c1_LIR.obj
 0001:0005a170       ?name@LIR_Op1@@UBEPBDXZ    0805b170 f   c1_LIR.obj
 0001:0005a1c0       ?print_instr@LIR_OpBranch@@UBEXPAVoutputStream@@@Z 0805b1c0 f   c1_LIR.obj
 0001:0005a280       ?verify@LIR_InsertionBuffer@@AAEXXZ 0805b280 f   c1_LIR.obj
 0001:0005a370       ?grow@LIR_OpList@@IAEXHQAVLIR_Op@@@Z 0805b370 f i c1_LIR.obj
 0001:0005a3d0       ?type_char@LIR_OprDesc@@QBEDXZ 0805b3d0 f i c1_LIR.obj
 0001:0005a420       ?longConst@LIR_OprFact@@SAPAVLIR_OprDesc@@_J@Z 0805b420 f i c1_LIR.obj
 0001:0005a490       ?floatConst@LIR_OprFact@@SAPAVLIR_OprDesc@@M@Z 0805b490 f i c1_LIR.obj
 0001:0005a500       ?doubleConst@LIR_OprFact@@SAPAVLIR_OprDesc@@N@Z 0805b500 f i c1_LIR.obj
 0001:0005a570       ?oopConst@LIR_OprFact@@SAPAVLIR_OprDesc@@PAV_jobject@@@Z 0805b570 f i c1_LIR.obj
 0001:0005a5e0       ?cpu_rnr2reg@FrameMap@@CAPAVRegisterImpl@@H@Z 0805b5e0 f i c1_LIR.obj
 0001:0005a630       ?value_type@LIR_OprFact@@SAPAVLIR_OprDesc@@PAVValueType@@@Z 0805b630 f   c1_LIR.obj
 0001:0005a740       ?validate_type@LIR_OprDesc@@QBEXXZ 0805b740 f   c1_LIR.obj
 0001:0005a8e0       ?is_oop@LIR_OprDesc@@QBE_NXZ 0805b8e0 f   c1_LIR.obj
 0001:0005a930       ??0LIR_List@@QAE@PAVCompilation@@PAVBlockBegin@@@Z 0805b930 f   c1_LIR.obj
 0001:0005a9c0       ?append@LIR_List@@QAEXPAVLIR_InsertionBuffer@@@Z 0805b9c0 f   c1_LIR.obj
 0001:0005abc0       ?oop2reg_patch@LIR_List@@QAEXPAV_jobject@@PAVLIR_OprDesc@@PAVCodeEmitInfo@@@Z 0805bbc0 f   c1_LIR.obj
 0001:0005ac80       ?print_LIR@@YAXPAVBlockList@@@Z 0805bc80 f   c1_LIR.obj
 0001:0005ad10       ?append@LIR_InsertionBuffer@@QAEXHPAVLIR_Op@@@Z 0805bd10 f   c1_LIR.obj
 0001:0005ae20       ?is_double_stack@LIR_OprDesc@@QBE_NXZ 0805be20 f i c1_LIR.obj
 0001:0005ae40       ?is_double_cpu@LIR_OprDesc@@QBE_NXZ 0805be40 f i c1_LIR.obj
 0001:0005ae60       ?is_single_fpu@LIR_OprDesc@@QBE_NXZ 0805be60 f i c1_LIR.obj
 0001:0005ae80       ?is_double_fpu@LIR_OprDesc@@QBE_NXZ 0805be80 f i c1_LIR.obj
 0001:0005aea0       ?verify@LIR_Address@@QBEXXZ 0805bea0 f   c1_LIR.obj
 0001:0005af90       ?is_last_use@LIR_OprDesc@@QBE_NXZ 0805bf90 f i c1_LIR.obj
 0001:0005afe0       ?double_stack_ix@LIR_OprDesc@@QBEHXZ 0805bfe0 f i c1_LIR.obj
 0001:0005b040       ?cpu_regnr@LIR_OprDesc@@QBEHXZ 0805c040 f i c1_LIR.obj
 0001:0005b0a0       ?cpu_regnrLo@LIR_OprDesc@@QBEHXZ 0805c0a0 f i c1_LIR.obj
 0001:0005b110       ?cpu_regnrHi@LIR_OprDesc@@QBEHXZ 0805c110 f i c1_LIR.obj
 0001:0005b180       ?fpu_regnr@LIR_OprDesc@@QBEHXZ 0805c180 f i c1_LIR.obj
 0001:0005b1e0       ?fpu_regnrLo@LIR_OprDesc@@QBEHXZ 0805c1e0 f i c1_LIR.obj
 0001:0005b250       ?xmm_regnr@LIR_OprDesc@@QBEHXZ 0805c250 f i c1_LIR.obj
 0001:0005b2b0       ?xmm_regnrLo@LIR_OprDesc@@QBEHXZ 0805c2b0 f i c1_LIR.obj
 0001:0005b320       ?xmm_regnrHi@LIR_OprDesc@@QBEHXZ 0805c320 f i c1_LIR.obj
 0001:0005b390       ?vreg_number@LIR_OprDesc@@QBEHXZ 0805c390 f i c1_LIR.obj
 0001:0005b3e0       ??0LIR_Address@@QAE@PAVLIR_OprDesc@@0W4BasicType@@@Z 0805c3e0 f i c1_LIR.obj
 0001:0005b420       ?as_register@LIR_OprDesc@@QBEPAVRegisterImpl@@XZ 0805c420 f   c1_LIR.obj
 0001:0005b430       ?as_register_lo@LIR_OprDesc@@QBEPAVRegisterImpl@@XZ 0805c430 f   c1_LIR.obj
 0001:0005b440       ?as_register_hi@LIR_OprDesc@@QBEPAVRegisterImpl@@XZ 0805c440 f   c1_LIR.obj
 0001:0005b450       ?as_xmm_float_reg@LIR_OprDesc@@QBEPAVXMMRegisterImpl@@XZ 0805c450 f   c1_LIR.obj
 0001:0005b460       ?as_xmm_double_reg@LIR_OprDesc@@QBEPAVXMMRegisterImpl@@XZ 0805c460 f   c1_LIR.obj
 0001:0005b4a0       ?verify@LIR_Op1@@UBEXXZ    0805c4a0 f   c1_LIR.obj
 0001:0005b570       ?visit@LIR_OpVisitState@@QAEXPAVLIR_Op@@@Z 0805c570 f   c1_LIR.obj
 0001:0005c620       ?no_operands@LIR_OpVisitState@@QAE_NPAVLIR_Op@@@Z 0805d620 f   c1_LIR.obj
 0001:0005c680       ?cmp_mem_int@LIR_List@@QAEXW4LIR_Condition@@PAVLIR_OprDesc@@HHPAVCodeEmitInfo@@@Z 0805d680 f   c1_LIR.obj
 0001:0005c7d0       ?print@LIR_OprDesc@@QBEXPAVoutputStream@@@Z 0805d7d0 f   c1_LIR.obj
 0001:0005c9e0       ?print_value_on@LIR_Address@@UBEXPAVoutputStream@@@Z 0805d9e0 f   c1_LIR.obj
 0001:0005ca70       ?print_instr@LIR_OpJavaCall@@UBEXPAVoutputStream@@@Z 0805da70 f   c1_LIR.obj
 0001:0005cb00       ?print_instr@LIR_OpArrayCopy@@UBEXPAVoutputStream@@@Z 0805db00 f   c1_LIR.obj
 0001:0005cba0       ?print_instr@LIR_OpCompareAndSwap@@UBEXPAVoutputStream@@@Z 0805dba0 f   c1_LIR.obj
 0001:0005cc30       ?print_instr@LIR_Op0@@UBEXPAVoutputStream@@@Z 0805dc30 f   c1_LIR.obj
 0001:0005cc40       ?print_instr@LIR_Op1@@UBEXPAVoutputStream@@@Z 0805dc40 f   c1_LIR.obj
 0001:0005cc90       ?print_instr@LIR_OpRTCall@@UBEXPAVoutputStream@@@Z 0805dc90 f   c1_LIR.obj
 0001:0005ccd0       ?print_instr@LIR_OpConvert@@UBEXPAVoutputStream@@@Z 0805dcd0 f   c1_LIR.obj
 0001:0005cd20       ?print_instr@LIR_OpAllocObj@@UBEXPAVoutputStream@@@Z 0805dd20 f   c1_LIR.obj
 0001:0005ce00       ?print_instr@LIR_OpRoundFP@@UBEXPAVoutputStream@@@Z 0805de00 f   c1_LIR.obj
 0001:0005ce60       ?print_instr@LIR_Op2@@UBEXPAVoutputStream@@@Z 0805de60 f   c1_LIR.obj
 0001:0005cef0       ?print_instr@LIR_OpAllocArray@@UBEXPAVoutputStream@@@Z 0805def0 f   c1_LIR.obj
 0001:0005cfd0       ?print_instr@LIR_OpTypeCheck@@UBEXPAVoutputStream@@@Z 0805dfd0 f   c1_LIR.obj
 0001:0005d110       ?print_instr@LIR_Op3@@UBEXPAVoutputStream@@@Z 0805e110 f   c1_LIR.obj
 0001:0005d170       ?print_instr@LIR_OpLock@@UBEXPAVoutputStream@@@Z 0805e170 f   c1_LIR.obj
 0001:0005d200       ?print_instr@LIR_OpProfileCall@@UBEXPAVoutputStream@@@Z 0805e200 f   c1_LIR.obj
 0001:0005d290       ?is_oop_register@LIR_OprDesc@@QBE_NXZ 0805e290 f i c1_LIR.obj
 0001:0005d320       ?verify@LIR_Op2@@MBEXXZ    0805e320 f   c1_LIR.obj
 0001:0005d470       ?print@LIR_OprDesc@@QBEXXZ 0805e470 f   c1_LIR.obj
 0001:0005d480       ??1LIR_Assembler@@QAE@XZ   0805e480 f   c1_LIRAssembler.obj
 0001:0005d510       ?build_frame@LIR_Assembler@@QAEXXZ 0805e510 f   c1_LIRAssembler.obj
 0001:0005d530       ?nativeMovConstReg_at@@YAPAVNativeMovConstReg@@PAE@Z 0805e530 f i c1_LIRAssembler.obj
 0001:0005d550       ?last@LIR_OpList@@QBEPAVLIR_Op@@XZ 0805e550 f i c1_LIRAssembler.obj
 0001:0005d580       ?vtable_offset@LIR_OpJavaCall@@QBEHXZ 0805e580 f i c1_LIRAssembler.obj
 0001:0005d5b0       ?append@CodeStubList@@QAEXPAVCodeStub@@@Z 0805e5b0 f i c1_LIRAssembler.obj
 0001:0005d600       ?print_name@DivByZeroStub@@UBEXPAVoutputStream@@@Z 0805e600 f i c1_LIRAssembler.obj
 0001:0005d620       ?visit@ArrayStoreExceptionStub@@UAEXPAVLIR_OpVisitState@@@Z 0805e620 f i c1_CodeStubs_x86.obj
 0001:0005d620       ?visit@ImplicitNullCheckStub@@UAEXPAVLIR_OpVisitState@@@Z 0805e620 f i c1_LIRAssembler.obj
 0001:0005d620       ?visit@DivByZeroStub@@UAEXPAVLIR_OpVisitState@@@Z 0805e620 f i c1_LIRAssembler.obj
 0001:0005d640       ?top_vframe@CompiledRFrame@@UBEPAVjavaVFrame@@XZ 0805e640 f i rframe.obj
 0001:0005d640       ?lock_stack@ArithmeticOp@@UBEPAVValueStack@@XZ 0805e640 f i c1_GraphBuilder.obj
 0001:0005d640       ?info@ImplicitNullCheckStub@@UBEPAVCodeEmitInfo@@XZ 0805e640 f i c1_LIRAssembler.obj
 0001:0005d640       ?info@RangeCheckStub@@UBEPAVCodeEmitInfo@@XZ 0805e640 f i c1_CodeStubs_x86.obj
 0001:0005d640       ?info@DivByZeroStub@@UBEPAVCodeEmitInfo@@XZ 0805e640 f i c1_LIRAssembler.obj
 0001:0005d640       ?lock_stack@Intrinsic@@UBEPAVValueStack@@XZ 0805e640 f i c1_GraphBuilder.obj
 0001:0005d640       ?info@ArrayStoreExceptionStub@@UBEPAVCodeEmitInfo@@XZ 0805e640 f i c1_CodeStubs_x86.obj
 0001:0005d650       ?print_name@ImplicitNullCheckStub@@UBEXPAVoutputStream@@@Z 0805e650 f i c1_LIRAssembler.obj
 0001:0005d670       ?install@PatchingStub@@QAEXPAVMacroAssembler@@W4LIR_PatchCode@@PAVRegisterImpl@@PAVCodeEmitInfo@@@Z 0805e670 f i c1_LIRAssembler.obj
 0001:0005d770       ??0LIR_Assembler@@QAE@PAVCompilation@@@Z 0805e770 f   c1_LIRAssembler.obj
 0001:0005d810       ?emit_code_stub@LIR_Assembler@@QAEXPAVCodeStub@@@Z 0805e810 f   c1_LIRAssembler.obj
 0001:0005d820       ?emit_stubs@LIR_Assembler@@AAEXPAVCodeStubList@@@Z 0805e820 f   c1_LIRAssembler.obj
 0001:0005d940       ?emit_slow_case_stubs@LIR_Assembler@@QAEXXZ 0805e940 f   c1_LIRAssembler.obj
 0001:0005d950       ?needs_icache@LIR_Assembler@@ABE_NPAVciMethod@@@Z 0805e950 f   c1_LIRAssembler.obj
 0001:0005d990       ?code_offset@LIR_Assembler@@QBEHXZ 0805e990 f   c1_LIRAssembler.obj
 0001:0005d9a0       ?pc@LIR_Assembler@@QBEPAEXZ 0805e9a0 f   c1_LIRAssembler.obj
 0001:0005d9b0       ?check_no_unbound_labels@LIR_Assembler@@AAEXXZ 0805e9b0 f   c1_LIRAssembler.obj
 0001:0005da70       ?record_non_safepoint_debug_info@LIR_Assembler@@AAEXXZ 0805ea70 f   c1_LIRAssembler.obj
 0001:0005db50       ?add_debug_info_for_null_check@LIR_Assembler@@AAEXHPAVCodeEmitInfo@@@Z 0805eb50 f   c1_LIRAssembler.obj
 0001:0005dbe0       ?add_debug_info_for_div0@LIR_Assembler@@AAEXHPAVCodeEmitInfo@@@Z 0805ebe0 f   c1_LIRAssembler.obj
 0001:0005dc70       ?emit_rtcall@LIR_Assembler@@QAEXPAVLIR_OpRTCall@@@Z 0805ec70 f   c1_LIRAssembler.obj
 0001:0005dca0       ?emit_opLabel@LIR_Assembler@@QAEXPAVLIR_OpLabel@@@Z 0805eca0 f   c1_LIRAssembler.obj
 0001:0005dcc0       ?emit_op0@LIR_Assembler@@QAEXPAVLIR_Op0@@@Z 0805ecc0 f   c1_LIRAssembler.obj
 0001:0005dec0       ?last_pc_offset@DebugInformationRecorder@@QAEHXZ 0805eec0 f i c1_LIRAssembler.obj
 0001:0005df00       ?add_debug_info_for_branch@LIR_Assembler@@AAEXPAVCodeEmitInfo@@@Z 0805ef00 f   c1_LIRAssembler.obj
 0001:0005df80       ?add_call_info@LIR_Assembler@@AAEXHPAVCodeEmitInfo@@@Z 0805ef80 f   c1_LIRAssembler.obj
 0001:0005dfd0       ?process_debug_info@LIR_Assembler@@AAEXPAVLIR_Op@@@Z 0805efd0 f   c1_LIRAssembler.obj
 0001:0005e080       ?add_debug_info_for_null_check_here@LIR_Assembler@@AAEXPAVCodeEmitInfo@@@Z 0805f080 f   c1_LIRAssembler.obj
 0001:0005e0a0       ?emit_op2@LIR_Assembler@@QAEXPAVLIR_Op2@@@Z 0805f0a0 f   c1_LIRAssembler.obj
 0001:0005e2c0       ?roundfp_op@LIR_Assembler@@QAEXPAVLIR_OprDesc@@00_N@Z 0805f2c0 f   c1_LIRAssembler.obj
 0001:0005e380       ?move_op@LIR_Assembler@@QAEXPAVLIR_OprDesc@@0W4BasicType@@W4LIR_PatchCode@@PAVCodeEmitInfo@@_N4@Z 0805f380 f   c1_LIRAssembler.obj
 0001:0005e6a0       ?patching_epilog@LIR_Assembler@@AAEXPAVPatchingStub@@W4LIR_PatchCode@@PAVRegisterImpl@@PAVCodeEmitInfo@@@Z 0805f6a0 f   c1_LIRAssembler.obj
 0001:0005e860       ?emit_lir_list@LIR_Assembler@@QAEXPAVLIR_List@@@Z 0805f860 f   c1_LIRAssembler.obj
 0001:0005e9e0       ?emit_op1@LIR_Assembler@@QAEXPAVLIR_Op1@@@Z 0805f9e0 f   c1_LIRAssembler.obj
 0001:0005ece0       ?emit_exception_entries@LIR_Assembler@@QAEXPAVExceptionInfoList@@@Z 0805fce0 f   c1_LIRAssembler.obj
 0001:0005eec0       ?emit_block@LIR_Assembler@@QAEXPAVBlockBegin@@@Z 0805fec0 f   c1_LIRAssembler.obj
 0001:0005eff0       ?verify_oop_map@LIR_Assembler@@QAEXPAVCodeEmitInfo@@@Z 0805fff0 f   c1_LIRAssembler.obj
 0001:0005f150       ?emit_code@LIR_Assembler@@QAEXPAVBlockList@@@Z 08060150 f   c1_LIRAssembler.obj
 0001:0005f200       ?emit_call@LIR_Assembler@@QAEXPAVLIR_OpJavaCall@@@Z 08060200 f   c1_LIRAssembler.obj
 0001:0005f2f0       ?receiverOpr@LIR_Assembler@@SAPAVLIR_OprDesc@@XZ 080602f0 f   c1_LIRAssembler_x86.obj
 0001:0005f300       ?fpop@LIR_Assembler@@AAEXXZ 08060300 f   c1_LIRAssembler_x86.obj
 0001:0005f310       ?fxch@LIR_Assembler@@AAEXH@Z 08060310 f   c1_LIRAssembler_x86.obj
 0001:0005f320       ?ffree@LIR_Assembler@@AAEXH@Z 08060320 f   c1_LIRAssembler_x86.obj
 0001:0005f330       ?breakpoint@LIR_Assembler@@AAEXXZ 08060330 f   c1_LIRAssembler_x86.obj
 0001:0005f340       ?move_regs@LIR_Assembler@@QAEXPAVRegisterImpl@@0@Z 08060340 f   c1_LIRAssembler_x86.obj
 0001:0005f360       ?array_element_size@LIR_Assembler@@ABE?AW4ScaleFactor@Address@@W4BasicType@@@Z 08060360 f   c1_LIRAssembler_x86.obj
 0001:0005f3e0       ?arith_fpu_implementation@LIR_Assembler@@AAEXW4LIR_Code@@HHH_N@Z 080603e0 f   c1_LIRAssembler_x86.obj
 0001:0005f630       ?vtable_call@LIR_Assembler@@QAEXHPAVCodeEmitInfo@@@Z 08060630 f   c1_LIRAssembler_x86.obj
 0001:0005f650       ?align_backward_branch_target@LIR_Assembler@@QAEXXZ 08060650 f   c1_LIRAssembler_x86.obj
 0001:0005f660       ?compute_Object_vtable@ClassLoader@@SAHXZ 08060660 f i classLoader.obj
 0001:0005f660       ?type@VM_ForceSafepoint@@UBE?AW4VMOp_Type@VM_Operation@@XZ 08060660 f i classLoader.obj
 0001:0005f660       ?kind@ConcurrentMarkSweepGeneration@@UAE?AW4Name@Generation@@XZ 08060660 f i cmsPermGen.obj
 0001:0005f660       ?type@static_stub_Relocation@@EAE?AW4relocType@relocInfo@@XZ 08060660 f i c1_LIRAssembler_x86.obj
 0001:0005f660       ?kind@CMSMemoryManager@@UAE?AW4Name@MemoryManager@@XZ 08060660 f i memoryManager.obj
 0001:0005f670       ??0Address@@QAE@XZ         08060670 f i c1_LIRAssembler_x86.obj
 0001:0005f6a0       ?membar@Assembler@@QAEXW4Membar_mask_bits@1@@Z 080606a0 f i c1_LIRAssembler_x86.obj
 0001:0005f730       ?cmovptr@MacroAssembler@@QAEXW4Condition@Assembler@@PAVRegisterImpl@@VAddress@@@Z 08060730 f i c1_LIRAssembler_x86.obj
 0001:0005f760       ?as_jint_lo@LIR_Const@@QBEHXZ 08060760 f i c1_LIRAssembler_x86.obj
 0001:0005f790       ?as_jint_hi@LIR_Const@@QBEHXZ 08060790 f i c1_LIRAssembler_x86.obj
 0001:0005f7c0       ?as_jint_bits@LIR_Const@@QBEHXZ 080607c0 f i c1_LIRAssembler_x86.obj
 0001:0005f800       ?as_jint_lo_bits@LIR_Const@@QBEHXZ 08060800 f i c1_LIRAssembler_x86.obj
 0001:0005f850       ?as_jint_hi_bits@LIR_Const@@QBEHXZ 08060850 f i c1_LIRAssembler_x86.obj
 0001:0005f8b0       ?is_zero_float@LIR_Const@@QAE_NXZ 080608b0 f i c1_LIRAssembler_x86.obj
 0001:0005f900       ?is_one_float@LIR_Const@@QAE_NXZ 08060900 f i c1_LIRAssembler_x86.obj
 0001:0005f980       ?is_zero_double@LIR_Const@@QAE_NXZ 08060980 f i c1_LIRAssembler_x86.obj
 0001:0005f9e0       ?is_one_double@LIR_Const@@QAE_NXZ 080609e0 f i c1_LIRAssembler_x86.obj
 0001:0005fa60       ?is_xmm_register@LIR_OprDesc@@QBE_NXZ 08060a60 f i c1_LIRAssembler_x86.obj
 0001:0005fa80       ?as_jlong@LIR_OprDesc@@QBE_JXZ 08060a80 f i c1_LIRAssembler_x86.obj
 0001:0005fae0       ?as_jfloat@LIR_OprDesc@@QBEMXZ 08060ae0 f i c1_LIRAssembler_x86.obj
 0001:0005fb40       ?as_jdouble@LIR_OprDesc@@QBENXZ 08060b40 f i c1_LIRAssembler_x86.obj
 0001:0005fba0       ?print_name@MonitorExitStub@@UBEXPAVoutputStream@@@Z 08060ba0 f i c1_LIRAssembler_x86.obj
 0001:0005fbc0       ??0PatchingStub@@QAE@PAVMacroAssembler@@W4PatchID@0@H@Z 08060bc0 f i c1_LIRAssembler_x86.obj
 0001:0005fc70       ?info@PatchingStub@@UBEPAVCodeEmitInfo@@XZ 08060c70 f i c1_LIRAssembler_x86.obj
 0001:0005fc80       ?print_name@PatchingStub@@UBEXPAVoutputStream@@@Z 08060c80 f i c1_LIRAssembler_x86.obj
 0001:0005fca0       ?visit@PatchingStub@@UAEXPAVLIR_OpVisitState@@@Z 08060ca0 f i c1_LIRAssembler_x86.obj
 0001:0005fcc0       ?receiver@ciReceiverTypeData@@QAEPAVciKlass@@I@Z 08060cc0 f i c1_LIRAssembler_x86.obj
 0001:0005fd50       ?push_addr@C1_MacroAssembler@@QAEXVAddress@@@Z 08060d50 f i c1_LIRAssembler_x86.obj
 0001:0005fed0       ?float_constant@LIR_Assembler@@AAEPAEM@Z 08060ed0 f   c1_LIRAssembler_x86.obj
 0001:0005ff30       ?double_constant@LIR_Assembler@@AAEPAEN@Z 08060f30 f   c1_LIRAssembler_x86.obj
 0001:0005ff90       ?set_24bit_FPU@LIR_Assembler@@AAEXXZ 08060f90 f   c1_LIRAssembler_x86.obj
 0001:0005ffd0       ?reset_FPU@LIR_Assembler@@AAEXXZ 08060fd0 f   c1_LIRAssembler_x86.obj
 0001:00060010       ?fld@LIR_Assembler@@AAEXH@Z 08061010 f   c1_LIRAssembler_x86.obj
 0001:00060020       ?pop@LIR_Assembler@@AAEXPAVLIR_OprDesc@@@Z 08061020 f   c1_LIRAssembler_x86.obj
 0001:000600a0       ?is_literal_address@LIR_Assembler@@AAE_NPAVLIR_Address@@@Z 080610a0 f   c1_LIRAssembler_x86.obj
 0001:000600d0       ?check_icache@LIR_Assembler@@AAEHXZ 080610d0 f   c1_LIRAssembler_x86.obj
 0001:00060190       ?jobject2reg_with_patching@LIR_Assembler@@AAEXPAVRegisterImpl@@PAVCodeEmitInfo@@@Z 08061190 f   c1_LIRAssembler_x86.obj
 0001:00060220       ?monitorexit@LIR_Assembler@@AAEXPAVLIR_OprDesc@@0PAVRegisterImpl@@H1@Z 08061220 f   c1_LIRAssembler_x86.obj
 0001:00060430       ?initial_frame_size_in_bytes@LIR_Assembler@@QAEHXZ 08061430 f   c1_LIRAssembler_x86.obj
 0001:00060470       ?emit_exception_handler@LIR_Assembler@@QAEHXZ 08061470 f   c1_LIRAssembler_x86.obj
 0001:00060620       ?emit_deopt_handler@LIR_Assembler@@QAEHXZ 08061620 f   c1_LIRAssembler_x86.obj
 0001:00060710       ?safepoint_poll@LIR_Assembler@@QAEHPAVLIR_OprDesc@@PAVCodeEmitInfo@@@Z 08061710 f   c1_LIRAssembler_x86.obj
 0001:000607a0       ?emit_opBranch@LIR_Assembler@@QAEXPAVLIR_OpBranch@@@Z 080617a0 f   c1_LIRAssembler_x86.obj
 0001:000609a0       ?emit_opConvert@LIR_Assembler@@QAEXPAVLIR_OpConvert@@@Z 080619a0 f   c1_LIRAssembler_x86.obj
 0001:00060fb0       ?emit_alloc_obj@LIR_Assembler@@QAEXPAVLIR_OpAllocObj@@@Z 08061fb0 f   c1_LIRAssembler_x86.obj
 0001:000610b0       ?emit_opTypeCheck@LIR_Assembler@@QAEXPAVLIR_OpTypeCheck@@@Z 080620b0 f   c1_LIRAssembler_x86.obj
 0001:00061bb0       ?emit_compare_and_swap@LIR_Assembler@@QAEXPAVLIR_OpCompareAndSwap@@@Z 08062bb0 f   c1_LIRAssembler_x86.obj
 0001:00061ee0       ?comp_fl2i@LIR_Assembler@@QAEXW4LIR_Code@@PAVLIR_OprDesc@@11PAVLIR_Op2@@@Z 08062ee0 f   c1_LIRAssembler_x86.obj
 0001:00062140       ?align_call@LIR_Assembler@@QAEXW4LIR_Code@@@Z 08063140 f   c1_LIRAssembler_x86.obj
 0001:000621f0       ?call@LIR_Assembler@@QAEXPAEW4relocType@relocInfo@@PAVCodeEmitInfo@@@Z 080631f0 f   c1_LIRAssembler_x86.obj
 0001:000622a0       ?throw_op@LIR_Assembler@@QAEXPAVLIR_OprDesc@@0PAVCodeEmitInfo@@_N@Z 080632a0 f   c1_LIRAssembler_x86.obj
 0001:000623d0       ?shift_op@LIR_Assembler@@QAEXW4LIR_Code@@PAVLIR_OprDesc@@111@Z 080633d0 f   c1_LIRAssembler_x86.obj
 0001:000625a0       ?shift_op@LIR_Assembler@@QAEXW4LIR_Code@@PAVLIR_OprDesc@@H1@Z 080635a0 f   c1_LIRAssembler_x86.obj
 0001:00062680       ?store_parameter@LIR_Assembler@@QAEXPAVRegisterImpl@@H@Z 08063680 f   c1_LIRAssembler_x86.obj
 0001:00062720       ?store_parameter@LIR_Assembler@@QAEXHH@Z 08063720 f   c1_LIRAssembler_x86.obj
 0001:000627c0       ?emit_lock@LIR_Assembler@@QAEXPAVLIR_OpLock@@@Z 080637c0 f   c1_LIRAssembler_x86.obj
 0001:000628a0       ?monitor_address@LIR_Assembler@@QAEXHPAVLIR_OprDesc@@@Z 080638a0 f   c1_LIRAssembler_x86.obj
 0001:00062910       ?rt_call@LIR_Assembler@@QAEXPAVLIR_OprDesc@@PAEPBVLIR_OprList@@0PAVCodeEmitInfo@@@Z 08063910 f   c1_LIRAssembler_x86.obj
 0001:00062990       ?membar@LIR_Assembler@@QAEXXZ 08063990 f   c1_LIRAssembler_x86.obj
 0001:000629a0       ?movflt@MacroAssembler@@QAEXPAVXMMRegisterImpl@@0@Z 080639a0 f i c1_LIRAssembler_x86.obj
 0001:000629c0       ?movflt@MacroAssembler@@QAEXPAVXMMRegisterImpl@@VAddress@@@Z 080639c0 f i c1_LIRAssembler_x86.obj
 0001:000629f0       ?movflt@MacroAssembler@@QAEXVAddress@@PAVXMMRegisterImpl@@@Z 080639f0 f i c1_LIRAssembler_x86.obj
 0001:00062a20       ?movdbl@MacroAssembler@@QAEXPAVXMMRegisterImpl@@0@Z 08063a20 f i c1_LIRAssembler_x86.obj
 0001:00062a40       ?movdbl@MacroAssembler@@QAEXPAVXMMRegisterImpl@@VAddress@@@Z 08063a40 f i c1_LIRAssembler_x86.obj
 0001:00062a90       ?movdbl@MacroAssembler@@QAEXVAddress@@PAVXMMRegisterImpl@@@Z 08063a90 f i c1_LIRAssembler_x86.obj
 0001:00062ac0       ?address_for_slot@FrameMap@@QBE?AVAddress@@HH@Z 08063ac0 f i c1_LIRAssembler_x86.obj
 0001:00062b00       ?visit@MonitorExitStub@@UAEXPAVLIR_OpVisitState@@@Z 08063b00 f i c1_LIRAssembler_x86.obj
 0001:00062b50       ?push@LIR_Assembler@@AAEXPAVLIR_OprDesc@@@Z 08063b50 f   c1_LIRAssembler_x86.obj
 0001:00062cd0       ?as_Address@LIR_Assembler@@AAE?AVAddress@@PAVLIR_Address@@PAVRegisterImpl@@@Z 08063cd0 f   c1_LIRAssembler_x86.obj
 0001:00062e40       ?return_op@LIR_Assembler@@QAEXPAVLIR_OprDesc@@@Z 08063e40 f   c1_LIRAssembler_x86.obj
 0001:00062f70       ?const2reg@LIR_Assembler@@QAEXPAVLIR_OprDesc@@0W4LIR_PatchCode@@PAVCodeEmitInfo@@@Z 08063f70 f   c1_LIRAssembler_x86.obj
 0001:000633b0       ?const2stack@LIR_Assembler@@QAEXPAVLIR_OprDesc@@0@Z 080643b0 f   c1_LIRAssembler_x86.obj
 0001:000635c0       ?reg2reg@LIR_Assembler@@QAEXPAVLIR_OprDesc@@0@Z 080645c0 f   c1_LIRAssembler_x86.obj
 0001:00063b50       ?reg2stack@LIR_Assembler@@QAEXPAVLIR_OprDesc@@0W4BasicType@@_N@Z 08064b50 f   c1_LIRAssembler_x86.obj
 0001:00063f00       ?stack2reg@LIR_Assembler@@QAEXPAVLIR_OprDesc@@0W4BasicType@@@Z 08064f00 f   c1_LIRAssembler_x86.obj
 0001:000642a0       ?stack2stack@LIR_Assembler@@QAEXPAVLIR_OprDesc@@0W4BasicType@@@Z 080652a0 f   c1_LIRAssembler_x86.obj
 0001:000644e0       ?emit_alloc_array@LIR_Assembler@@QAEXPAVLIR_OpAllocArray@@@Z 080654e0 f   c1_LIRAssembler_x86.obj
 0001:00064600       ?cmove@LIR_Assembler@@QAEXW4LIR_Condition@@PAVLIR_OprDesc@@11@Z 08065600 f   c1_LIRAssembler_x86.obj
 0001:00064ae0       ?intrinsic_op@LIR_Assembler@@QAEXW4LIR_Code@@PAVLIR_OprDesc@@11PAVLIR_Op@@@Z 08065ae0 f   c1_LIRAssembler_x86.obj
 0001:00064d50       ?logic_op@LIR_Assembler@@QAEXW4LIR_Code@@PAVLIR_OprDesc@@11@Z 08065d50 f   c1_LIRAssembler_x86.obj
 0001:00065200       ?arithmetic_idiv@LIR_Assembler@@QAEXW4LIR_Code@@PAVLIR_OprDesc@@111PAVCodeEmitInfo@@@Z 08066200 f   c1_LIRAssembler_x86.obj
 0001:00065560       ?emit_static_call_stub@LIR_Assembler@@QAEXXZ 08066560 f   c1_LIRAssembler_x86.obj
 0001:00065730       ?negate@LIR_Assembler@@QAEXPAVLIR_OprDesc@@0@Z 08066730 f   c1_LIRAssembler_x86.obj
 0001:000659f0       ?get_thread@LIR_Assembler@@QAEXPAVLIR_OprDesc@@@Z 080669f0 f   c1_LIRAssembler_x86.obj
 0001:00065a50       ?osrBufferPointer@LIR_Assembler@@SAPAVLIR_OprDesc@@XZ 08066a50 f   c1_LIRAssembler_x86.obj
 0001:00065a70       ?as_Address_lo@LIR_Assembler@@AAE?AVAddress@@PAVLIR_Address@@@Z 08066a70 f   c1_LIRAssembler_x86.obj
 0001:00065a70       ?as_Address@LIR_Assembler@@AAE?AVAddress@@PAVLIR_Address@@@Z 08066a70 f   c1_LIRAssembler_x86.obj
 0001:00065a90       ?as_Address_hi@LIR_Assembler@@AAE?AVAddress@@PAVLIR_Address@@@Z 08066a90 f   c1_LIRAssembler_x86.obj
 0001:00065ad0       ?osr_entry@LIR_Assembler@@QAEXXZ 08066ad0 f   c1_LIRAssembler_x86.obj
 0001:00065dc0       ?const2mem@LIR_Assembler@@QAEXPAVLIR_OprDesc@@0W4BasicType@@PAVCodeEmitInfo@@@Z 08066dc0 f   c1_LIRAssembler_x86.obj
 0001:000660d0       ?reg2mem@LIR_Assembler@@QAEXPAVLIR_OprDesc@@0W4BasicType@@W4LIR_PatchCode@@PAVCodeEmitInfo@@_N4@Z 080670d0 f   c1_LIRAssembler_x86.obj
 0001:000666f0       ?mem2reg@LIR_Assembler@@QAEXPAVLIR_OprDesc@@0W4BasicType@@W4LIR_PatchCode@@PAVCodeEmitInfo@@_N@Z 080676f0 f   c1_LIRAssembler_x86.obj
 0001:00066f50       ?prefetchr@LIR_Assembler@@QAEXPAVLIR_OprDesc@@@Z 08067f50 f   c1_LIRAssembler_x86.obj
 0001:00067070       ?prefetchw@LIR_Assembler@@QAEXPAVLIR_OprDesc@@@Z 08068070 f   c1_LIRAssembler_x86.obj
 0001:000671d0       ?emit_op3@LIR_Assembler@@QAEXPAVLIR_Op3@@@Z 080681d0 f   c1_LIRAssembler_x86.obj
 0001:00067220       ?arith_op@LIR_Assembler@@QAEXW4LIR_Code@@PAVLIR_OprDesc@@11PAVCodeEmitInfo@@_N@Z 08068220 f   c1_LIRAssembler_x86.obj
 0001:000681f0       ?comp_op@LIR_Assembler@@AAEXW4LIR_Condition@@PAVLIR_OprDesc@@1PAVLIR_Op2@@@Z 080691f0 f   c1_LIRAssembler_x86.obj
 0001:000689f0       ?ic_call@LIR_Assembler@@QAEXPAEPAVCodeEmitInfo@@@Z 080699f0 f   c1_LIRAssembler_x86.obj
 0001:00068af0       ?emit_arraycopy@LIR_Assembler@@QAEXPAVLIR_OpArrayCopy@@@Z 08069af0 f   c1_LIRAssembler_x86.obj
 0001:00069300       ?emit_profile_call@LIR_Assembler@@QAEXPAVLIR_OpProfileCall@@@Z 0806a300 f   c1_LIRAssembler_x86.obj
 0001:00069930       ?leal@LIR_Assembler@@QAEXPAVLIR_OprDesc@@0@Z 0806a930 f   c1_LIRAssembler_x86.obj
 0001:00069a00       ?volatile_move_op@LIR_Assembler@@QAEXPAVLIR_OprDesc@@0W4BasicType@@PAVCodeEmitInfo@@@Z 0806aa00 f   c1_LIRAssembler_x86.obj
 0001:00069e00       ?exact_log2@@YAHH@Z        0806ae00 f i c1_LIRGenerator.obj
 0001:00069e40       ?lir@LIRGenerator@@ABEPAVLIR_List@@PBDH@Z 0806ae40 f i c1_LIRGenerator.obj
 0001:00069e70       ?lir_cond@LIRGenerator@@CA?AW4LIR_Condition@@W4Condition@Instruction@@@Z 0806ae70 f i c1_LIRGenerator.obj
 0001:00069ed0       ?get_jobject_constant@LIRGenerator@@AAEPAVciObject@@PAVInstruction@@@Z 0806aed0 f   c1_LIRGenerator.obj
 0001:00069f00       ?do_Phi@LIRGenerator@@UAEXPAVPhi@@@Z 0806af00 f   c1_LIRGenerator.obj
 0001:00069f20       ?do_IfInstanceOf@LIRGenerator@@UAEXPAVIfInstanceOf@@@Z 0806af20 f   c1_LIRGenerator.obj
 0001:00069f40       ?get_resolve_virtual_call_stub@SharedRuntime@@SAPAEXZ 0806af40 f i c1_LIRGenerator.obj
 0001:00069f70       ??0LIR_OpProfileCall@@QAE@W4LIR_Code@@PAVciMethod@@HPAVLIR_OprDesc@@22PAVciKlass@@@Z 0806af70 f i c1_LIRGenerator.obj
 0001:00069fd0       ?call_opt_virtual@LIR_List@@QAEXPAVciMethod@@PAVLIR_OprDesc@@1PAEPAVLIR_OprList@@PAVCodeEmitInfo@@@Z 0806afd0 f i c1_LIRGenerator.obj
 0001:0006a080       ?call_static@LIR_List@@QAEXPAVciMethod@@PAVLIR_OprDesc@@PAEPAVLIR_OprList@@PAVCodeEmitInfo@@@Z 0806b080 f i c1_LIRGenerator.obj
 0001:0006a130       ?call_icvirtual@LIR_List@@QAEXPAVciMethod@@PAVLIR_OprDesc@@1PAEPAVLIR_OprList@@PAVCodeEmitInfo@@@Z 0806b130 f i c1_LIRGenerator.obj
 0001:0006a1e0       ?call_virtual@LIR_List@@QAEXPAVciMethod@@PAVLIR_OprDesc@@1HPAVLIR_OprList@@PAVCodeEmitInfo@@@Z 0806b1e0 f i c1_LIRGenerator.obj
 0001:0006a290       ?membar@LIR_List@@QAEXXZ   0806b290 f i c1_LIRGenerator.obj
 0001:0006a320       ?membar_acquire@LIR_List@@QAEXXZ 0806b320 f i c1_LIRGenerator.obj
 0001:0006a3b0       ?membar_release@LIR_List@@QAEXXZ 0806b3b0 f i c1_LIRGenerator.obj
 0001:0006a440       ?std_entry@LIR_List@@QAEXPAVLIR_OprDesc@@@Z 0806b440 f i c1_LIRGenerator.obj
 0001:0006a4e0       ?osr_entry@LIR_List@@QAEXPAVLIR_OprDesc@@@Z 0806b4e0 f i c1_LIRGenerator.obj
 0001:0006a580       ?branch_destination@LIR_List@@QAEXPAVLabel@@@Z 0806b580 f i c1_LIRGenerator.obj
 0001:0006a620       ?leal@LIR_List@@QAEXPAVLIR_OprDesc@@0@Z 0806b620 f i c1_LIRGenerator.obj
 0001:0006a6d0       ?roundfp@LIR_List@@QAEXPAVLIR_OprDesc@@00@Z 0806b6d0 f i c1_LIRGenerator.obj
 0001:0006a780       ?move@LIR_List@@QAEXPAVLIR_Address@@PAVLIR_OprDesc@@PAVCodeEmitInfo@@@Z 0806b780 f i c1_LIRGenerator.obj
 0001:0006a840       ?move@LIR_List@@QAEXPAVLIR_OprDesc@@PAVLIR_Address@@PAVCodeEmitInfo@@@Z 0806b840 f i c1_LIRGenerator.obj
 0001:0006a900       ?return_op@LIR_List@@QAEXPAVLIR_OprDesc@@@Z 0806b900 f i c1_LIRGenerator.obj
 0001:0006a9b0       ?safepoint@LIR_List@@QAEXPAVLIR_OprDesc@@PAVCodeEmitInfo@@@Z 0806b9b0 f i c1_LIRGenerator.obj
 0001:0006aa60       ?convert@LIR_List@@QAEXW4Code@Bytecodes@@PAVLIR_OprDesc@@1PAVConversionStub@@@Z 0806ba60 f i c1_LIRGenerator.obj
 0001:0006ab10       ?logical_and@LIR_List@@QAEXPAVLIR_OprDesc@@00@Z 0806bb10 f i c1_LIRGenerator.obj
 0001:0006abd0       ?logical_or@LIR_List@@QAEXPAVLIR_OprDesc@@00@Z 0806bbd0 f i c1_LIRGenerator.obj
 0001:0006ac90       ?logical_xor@LIR_List@@QAEXPAVLIR_OprDesc@@00@Z 0806bc90 f i c1_LIRGenerator.obj
 0001:0006ad50       ?null_check@LIR_List@@QAEXPAVLIR_OprDesc@@PAVCodeEmitInfo@@@Z 0806bd50 f i c1_LIRGenerator.obj
 0001:0006ae00       ?throw_exception@LIR_List@@QAEXPAVLIR_OprDesc@@0PAVCodeEmitInfo@@@Z 0806be00 f i c1_LIRGenerator.obj
 0001:0006aec0       ?unwind_exception@LIR_List@@QAEXPAVLIR_OprDesc@@0PAVCodeEmitInfo@@@Z 0806bec0 f i c1_LIRGenerator.obj
 0001:0006af80       ?cmp_reg_mem@LIR_List@@QAEXW4LIR_Condition@@PAVLIR_OprDesc@@PAVLIR_Address@@PAVCodeEmitInfo@@@Z 0806bf80 f i c1_LIR.obj
 0001:0006af80       ?cmp@LIR_List@@QAEXW4LIR_Condition@@PAVLIR_OprDesc@@1PAVCodeEmitInfo@@@Z 0806bf80 f i c1_LIRGenerator.obj
 0001:0006b040       ?cmove@LIR_List@@QAEXW4LIR_Condition@@PAVLIR_OprDesc@@11@Z 0806c040 f i c1_LIRGenerator.obj
 0001:0006b100       ?add@LIR_List@@QAEXPAVLIR_OprDesc@@00@Z 0806c100 f i c1_LIRGenerator.obj
 0001:0006b1c0       ?sub@LIR_List@@QAEXPAVLIR_OprDesc@@00PAVCodeEmitInfo@@@Z 0806c1c0 f i c1_LIRGenerator.obj
 0001:0006b280       ?mul@LIR_List@@QAEXPAVLIR_OprDesc@@00@Z 0806c280 f i c1_LIRGenerator.obj
 0001:0006b340       ?mul_strictfp@LIR_List@@QAEXPAVLIR_OprDesc@@000@Z 0806c340 f i c1_LIRGenerator.obj
 0001:0006b3f0       ?div@LIR_List@@QAEXPAVLIR_OprDesc@@00PAVCodeEmitInfo@@@Z 0806c3f0 f i c1_LIRGenerator.obj
 0001:0006b4b0       ?div_strictfp@LIR_List@@QAEXPAVLIR_OprDesc@@000@Z 0806c4b0 f i c1_LIRGenerator.obj
 0001:0006b560       ?rem@LIR_List@@QAEXPAVLIR_OprDesc@@00PAVCodeEmitInfo@@@Z 0806c560 f i c1_LIRGenerator.obj
 0001:0006b620       ?jump@LIR_List@@QAEXPAVBlockBegin@@@Z 0806c620 f i c1_LIRGenerator.obj
 0001:0006b690       ?branch@LIR_List@@QAEXW4LIR_Condition@@PAVLabel@@@Z 0806c690 f i c1_LIRGenerator.obj
 0001:0006b740       ?branch@LIR_List@@QAEXW4LIR_Condition@@W4BasicType@@PAVBlockBegin@@@Z 0806c740 f i c1_LIRGenerator.obj
 0001:0006b7e0       ?branch@LIR_List@@QAEXW4LIR_Condition@@W4BasicType@@PAVCodeStub@@@Z 0806c7e0 f i c1_LIRGenerator.obj
 0001:0006b880       ?call_runtime_leaf@LIR_List@@QAEXPAEPAVLIR_OprDesc@@1PAVLIR_OprList@@@Z 0806c880 f i c1_LIRGenerator.obj
 0001:0006b930       ?call_runtime@LIR_List@@QAEXPAEPAVLIR_OprDesc@@1PAVLIR_OprList@@PAVCodeEmitInfo@@@Z 0806c930 f i c1_LIRGenerator.obj
 0001:0006b9e0       ?profile_call@LIR_List@@QAEXPAVciMethod@@HPAVLIR_OprDesc@@11PAVciKlass@@@Z 0806c9e0 f i c1_LIRGenerator.obj
 0001:0006ba70       ?grow@Values@@IAEXHQAVInstruction@@@Z 0806ca70 f i c1_LIRGenerator.obj
 0001:0006bad0       ?print_name@G1PostBarrierStub@@UBEXPAVoutputStream@@@Z 0806cad0 f i c1_LIRGenerator.obj
 0001:0006baf0       ?grow@NodeList@@IAEXHQAVResolveNode@@@Z 0806caf0 f i c1_LIRGenerator.obj
 0001:0006bb50       ??0ResolveNode@@QAE@PAVLIR_OprDesc@@@Z 0806cb50 f i c1_LIRGenerator.obj
 0001:0006bba0       ?reset@PhiResolverState@@QAEXH@Z 0806cba0 f   c1_LIRGenerator.obj
 0001:0006bc80       ?get_jint_constant@LIRItem@@QBEHXZ 0806cc80 f   c1_LIRGenerator.obj
 0001:0006bcf0       ?get_jlong_constant@LIRItem@@QBE_JXZ 0806ccf0 f   c1_LIRGenerator.obj
 0001:0006bd60       ?init@LIRGenerator@@AAEXXZ 0806cd60 f   c1_LIRGenerator.obj
 0001:0006bd70       ?block_do_prolog@LIRGenerator@@AAEXPAVBlockBegin@@@Z 0806cd70 f   c1_LIRGenerator.obj
 0001:0006be90       ?block_do_epilog@LIRGenerator@@AAEXPAVBlockBegin@@@Z 0806ce90 f   c1_LIRGenerator.obj
 0001:0006bf90       ?do_root@LIRGenerator@@AAEXPAVInstruction@@@Z 0806cf90 f   c1_LIRGenerator.obj
 0001:0006c070       ?walk@LIRGenerator@@AAEXPAVInstruction@@@Z 0806d070 f   c1_LIRGenerator.obj
 0001:0006c160       ?arraycopy_helper@LIRGenerator@@AAEXPAVIntrinsic@@PAHPAPAVciArrayKlass@@@Z 0806d160 f   c1_LIRGenerator.obj
 0001:0006c4c0       ?instruction_for_vreg@LIRGenerator@@QAEPAVInstruction@@H@Z 0806d4c0 f   c1_LIRGenerator.obj
 0001:0006c510       ?set_vreg_flag@LIRGenerator@@QAEXHW4VregFlag@1@@Z 0806d510 f   c1_LIRGenerator.obj
 0001:0006c5a0       ?create_lookup_ranges@LIRGenerator@@AAEPAVSwitchRangeArray@@PAVTableSwitch@@@Z 0806d5a0 f   c1_LIRGenerator.obj
 0001:0006c800       ?create_lookup_ranges@LIRGenerator@@AAEPAVSwitchRangeArray@@PAVLookupSwitch@@@Z 0806d800 f   c1_LIRGenerator.obj
 0001:0006cac0       ?value_type@LIR_OprDesc@@QBEPAVValueType@@XZ 0806dac0 f i c1_LIRGenerator.obj
 0001:0006cb10       ?virtual_register@LIR_OprFact@@SAPAVLIR_OprDesc@@HW4BasicType@@@Z 0806db10 f i c1_LIRGenerator.obj
 0001:0006ccb0       ?intptrConst@LIR_OprFact@@SAPAVLIR_OprDesc@@PAX@Z 0806dcb0 f i c1_LIRGenerator_x86.obj
 0001:0006ccb0       ?intConst@LIR_OprFact@@SAPAVLIR_OprDesc@@H@Z 0806dcb0 f i c1_LIR.obj
 0001:0006ccb0       ?intptrConst@LIR_OprFact@@SAPAVLIR_OprDesc@@H@Z 0806dcb0 f i c1_LIRGenerator.obj
 0001:0006cd20       ?unaligned_move@LIR_List@@QAEXPAVLIR_Address@@PAVLIR_OprDesc@@@Z 0806dd20 f i c1_LIRGenerator.obj
 0001:0006cdd0       ?unaligned_move@LIR_List@@QAEXPAVLIR_OprDesc@@PAVLIR_Address@@@Z 0806ddd0 f i c1_LIRGenerator.obj
 0001:0006ce80       ?move@LIR_List@@QAEXPAVLIR_OprDesc@@0PAVCodeEmitInfo@@@Z 0806de80 f i c1_LIRGenerator.obj
 0001:0006cf60       ?oop2reg@LIR_List@@QAEXPAV_jobject@@PAVLIR_OprDesc@@@Z 0806df60 f i c1_LIRGenerator.obj
 0001:0006d010       ?shift_left@LIR_List@@QAEXPAVLIR_OprDesc@@H0@Z 0806e010 f i c1_LIRGenerator.obj
 0001:0006d040       ?load_stack_address_monitor@LIR_List@@QAEXHPAVLIR_OprDesc@@@Z 0806e040 f i c1_LIRGenerator.obj
 0001:0006d0f0       ??0G1PreBarrierStub@@QAE@PAVLIR_OprDesc@@0W4LIR_PatchCode@@PAVCodeEmitInfo@@@Z 0806e0f0 f i c1_LIRGenerator.obj
 0001:0006d1a0       ?info@G1PreBarrierStub@@UBEPAVCodeEmitInfo@@XZ 0806e1a0 f i c1_LIRGenerator.obj
 0001:0006d1a0       ?info@NewTypeArrayStub@@UBEPAVCodeEmitInfo@@XZ 0806e1a0 f i c1_CodeStubs_x86.obj
 0001:0006d1a0       ?info@NewObjectArrayStub@@UBEPAVCodeEmitInfo@@XZ 0806e1a0 f i c1_CodeStubs_x86.obj
 0001:0006d1a0       ?info@NewInstanceStub@@UBEPAVCodeEmitInfo@@XZ 0806e1a0 f i c1_CodeStubs_x86.obj
 0001:0006d1b0       ?print_name@G1PreBarrierStub@@UBEXPAVoutputStream@@@Z 0806e1b0 f i c1_LIRGenerator.obj
 0001:0006d1d0       ?visit@G1PreBarrierStub@@UAEXPAVLIR_OpVisitState@@@Z 0806e1d0 f i c1_LIRGenerator.obj
 0001:0006d210       ?visit@G1PostBarrierStub@@UAEXPAVLIR_OpVisitState@@@Z 0806e210 f i c1_LIRGenerator.obj
 0001:0006d250       ?set_result@LIRGenerator@@AAEXPAVInstruction@@PAVLIR_OprDesc@@@Z 0806e250 f i c1_LIRGenerator.obj
 0001:0006d370       ?set_vreg_flag@LIRGenerator@@QAEXPAVLIR_OprDesc@@W4VregFlag@1@@Z 0806e370 f i c1_LIRGenerator.obj
 0001:0006d3d0       ?set_instruction@LIRItem@@QAEXPAVInstruction@@@Z 0806e3d0 f i c1_LIRGenerator.obj
 0001:0006d420       ?emit_move@PhiResolver@@AAEXPAVLIR_OprDesc@@0@Z 0806e420 f   c1_LIRGenerator.obj
 0001:0006d4a0       ?create_node@PhiResolver@@AAEPAVResolveNode@@PAVLIR_OprDesc@@_N@Z 0806e4a0 f   c1_LIRGenerator.obj
 0001:0006d670       ?set_result@LIRItem@@QAEXPAVLIR_OprDesc@@@Z 0806e670 f   c1_LIRGenerator.obj
 0001:0006d740       ?block_do@LIRGenerator@@UAEXPAVBlockBegin@@@Z 0806e740 f   c1_LIRGenerator.obj
 0001:0006d7b0       ?state_for@LIRGenerator@@AAEPAVCodeEmitInfo@@PAVInstruction@@PAVValueStack@@_N@Z 0806e7b0 f   c1_LIRGenerator.obj
 0001:0006db00       ?state_for@LIRGenerator@@AAEPAVCodeEmitInfo@@PAVInstruction@@@Z 0806eb00 f   c1_LIRGenerator.obj
 0001:0006db30       ?jobject2reg_with_patching@LIRGenerator@@AAEXPAVLIR_OprDesc@@PAVciObject@@PAVCodeEmitInfo@@@Z 0806eb30 f   c1_LIRGenerator.obj
 0001:0006dbe0       ?array_range_check@LIRGenerator@@AAEXPAVLIR_OprDesc@@0PAVCodeEmitInfo@@1@Z 0806ebe0 f   c1_LIRGenerator.obj
 0001:0006dd90       ?arithmetic_op@LIRGenerator@@AAEXW4Code@Bytecodes@@PAVLIR_OprDesc@@11_N1PAVCodeEmitInfo@@@Z 0806ed90 f   c1_LIRGenerator.obj
 0001:0006e020       ?arithmetic_op_int@LIRGenerator@@AAEXW4Code@Bytecodes@@PAVLIR_OprDesc@@111@Z 0806f020 f   c1_LIRGenerator.obj
 0001:0006e050       ?arithmetic_op_long@LIRGenerator@@AAEXW4Code@Bytecodes@@PAVLIR_OprDesc@@11PAVCodeEmitInfo@@@Z 0806f050 f   c1_LIRGenerator.obj
 0001:0006e080       ?arithmetic_op_fpu@LIRGenerator@@AAEXW4Code@Bytecodes@@PAVLIR_OprDesc@@11_N1@Z 0806f080 f   c1_LIRGenerator.obj
 0001:0006e0b0       ?shift_op@LIRGenerator@@AAEXW4Code@Bytecodes@@PAVLIR_OprDesc@@111@Z 0806f0b0 f   c1_LIRGenerator.obj
 0001:0006e240       ?logic_op@LIRGenerator@@AAEXW4Code@Bytecodes@@PAVLIR_OprDesc@@11@Z 0806f240 f   c1_LIRGenerator.obj
 0001:0006e370       ?monitor_enter@LIRGenerator@@AAEXPAVLIR_OprDesc@@000HPAVCodeEmitInfo@@1@Z 0806f370 f   c1_LIRGenerator.obj
 0001:0006e440       ?monitor_exit@LIRGenerator@@AAEXPAVLIR_OprDesc@@00H@Z 0806f440 f   c1_LIRGenerator.obj
 0001:0006e530       ?new_instance@LIRGenerator@@AAEXPAVLIR_OprDesc@@PAVciInstanceKlass@@00000PAVCodeEmitInfo@@@Z 0806f530 f   c1_LIRGenerator.obj
 0001:0006e7f0       ?new_register@LIRGenerator@@AAEPAVLIR_OprDesc@@W4BasicType@@@Z 0806f7f0 f   c1_LIRGenerator.obj
 0001:0006e850       ?is_vreg_flag_set@LIRGenerator@@QAE_NHW4VregFlag@1@@Z 0806f850 f   c1_LIRGenerator.obj
 0001:0006e8b0       ?load_constant@LIRGenerator@@AAEPAVLIR_OprDesc@@PAVLIR_Const@@@Z 0806f8b0 f   c1_LIRGenerator.obj
 0001:0006eb80       ?G1SATBCardTableModRef_pre_barrier@LIRGenerator@@AAEXPAVLIR_OprDesc@@_NPAVCodeEmitInfo@@@Z 0806fb80 f   c1_LIRGenerator.obj
 0001:0006eee0       ?do_SwitchRanges@LIRGenerator@@AAEXPAVSwitchRangeArray@@PAVLIR_OprDesc@@PAVBlockBegin@@@Z 0806fee0 f   c1_LIRGenerator.obj
 0001:0006f2d0       ?new_pointer_register@LIRGenerator@@AAEPAVLIR_OprDesc@@XZ 080702d0 f i c1_LIRGenerator.obj
 0001:0006f320       ??0LIRItem@@QAE@PAVInstruction@@PAVLIRGenerator@@@Z 08070320 f i c1_LIRGenerator.obj
 0001:0006f380       ?result@LIRItem@@QAEPAVLIR_OprDesc@@XZ 08070380 f i c1_LIRGenerator.obj
 0001:0006f470       ?move_to_temp@PhiResolver@@AAEXPAVLIR_OprDesc@@@Z 08070470 f   c1_LIRGenerator.obj
 0001:0006f4f0       ?move@PhiResolver@@AAEXPAVResolveNode@@0@Z 080704f0 f   c1_LIRGenerator.obj
 0001:0006f600       ??1PhiResolver@@QAE@XZ     08070600 f   c1_LIRGenerator.obj
 0001:0006f710       ?move@PhiResolver@@QAEXPAVLIR_OprDesc@@0@Z 08070710 f   c1_LIRGenerator.obj
 0001:0006f7f0       ?load_item@LIRItem@@QAEXXZ 080707f0 f   c1_LIRGenerator.obj
 0001:0006f8b0       ?load_for_store@LIRItem@@QAEXW4BasicType@@@Z 080708b0 f   c1_LIRGenerator.obj
 0001:0006f930       ?round_item@LIRGenerator@@AAEPAVLIR_OprDesc@@PAV2@@Z 08070930 f   c1_LIRGenerator.obj
 0001:0006fa70       ?force_to_spill@LIRGenerator@@AAEPAVLIR_OprDesc@@PAV2@W4BasicType@@@Z 08070a70 f   c1_LIRGenerator.obj
 0001:0006fb90       ?profile_branch@LIRGenerator@@AAEXPAVIf@@W4Condition@Instruction@@@Z 08070b90 f   c1_LIRGenerator.obj
 0001:0006fed0       ?rlock@LIRGenerator@@AAEPAVLIR_OprDesc@@PAVInstruction@@@Z 08070ed0 f   c1_LIRGenerator.obj
 0001:0006ff00       ?rlock_result@LIRGenerator@@AAEPAVLIR_OprDesc@@PAVInstruction@@@Z 08070f00 f   c1_LIRGenerator.obj
 0001:0006ff40       ?rlock_result@LIRGenerator@@AAEPAVLIR_OprDesc@@PAVInstruction@@W4BasicType@@@Z 08070f40 f   c1_LIRGenerator.obj
 0001:0006ffa0       ?do_getClass@LIRGenerator@@AAEXPAVIntrinsic@@@Z 08070fa0 f   c1_LIRGenerator.obj
 0001:00070190       ?do_currentThread@LIRGenerator@@AAEXPAVIntrinsic@@@Z 08071190 f   c1_LIRGenerator.obj
 0001:00070290       ?operand_for_instruction@LIRGenerator@@AAEPAVLIR_OprDesc@@PAVInstruction@@@Z 08071290 f   c1_LIRGenerator.obj
 0001:00070390       ?load_constant@LIRGenerator@@AAEPAVLIR_OprDesc@@PAVConstant@@@Z 08071390 f   c1_LIRGenerator.obj
 0001:00070440       ?pre_barrier@LIRGenerator@@AAEXPAVLIR_OprDesc@@_NPAVCodeEmitInfo@@@Z 08071440 f   c1_LIRGenerator.obj
 0001:00070490       ?G1SATBCardTableModRef_post_barrier@LIRGenerator@@AAEXPAVLIR_OprDesc@@0@Z 08071490 f   c1_LIRGenerator.obj
 0001:00070980       ?CardTableModRef_post_barrier@LIRGenerator@@AAEXPAVLIR_OprDesc@@0@Z 08071980 f   c1_LIRGenerator.obj
 0001:00070d60       ?do_LoadField@LIRGenerator@@UAEXPAVLoadField@@@Z 08071d60 f   c1_LIRGenerator.obj
 0001:00071090       ?do_NIOCheckIndex@LIRGenerator@@AAEXPAVIntrinsic@@@Z 08072090 f   c1_LIRGenerator.obj
 0001:00071370       ?do_ArrayLength@LIRGenerator@@UAEXPAVArrayLength@@@Z 08072370 f   c1_LIRGenerator.obj
 0001:00071490       ?do_LoadIndexed@LIRGenerator@@UAEXPAVLoadIndexed@@@Z 08072490 f   c1_LIRGenerator.obj
 0001:000716f0       ?do_NullCheck@LIRGenerator@@UAEXPAVNullCheck@@@Z 080726f0 f   c1_LIRGenerator.obj
 0001:00071770       ?do_RoundFP@LIRGenerator@@UAEXPAVRoundFP@@@Z 08072770 f   c1_LIRGenerator.obj
 0001:000718c0       ?do_UnsafeGetRaw@LIRGenerator@@UAEXPAVUnsafeGetRaw@@@Z 080728c0 f   c1_LIRGenerator.obj
 0001:00071c00       ?do_UnsafePutRaw@LIRGenerator@@UAEXPAVUnsafePutRaw@@@Z 08072c00 f   c1_LIRGenerator.obj
 0001:00071ed0       ?do_UnsafeGetObject@LIRGenerator@@UAEXPAVUnsafeGetObject@@@Z 08072ed0 f   c1_LIRGenerator.obj
 0001:00071ff0       ?do_UnsafePutObject@LIRGenerator@@UAEXPAVUnsafePutObject@@@Z 08072ff0 f   c1_LIRGenerator.obj
 0001:00072110       ?do_UnsafePrefetch@LIRGenerator@@AAEXPAVUnsafePrefetch@@_N@Z 08073110 f   c1_LIRGenerator.obj
 0001:000721e0       ?do_UnsafePrefetchRead@LIRGenerator@@UAEXPAVUnsafePrefetchRead@@@Z 080731e0 f   c1_LIRGenerator.obj
 0001:00072200       ?do_UnsafePrefetchWrite@LIRGenerator@@UAEXPAVUnsafePrefetchWrite@@@Z 08073200 f   c1_LIRGenerator.obj
 0001:00072220       ?do_OsrEntry@LIRGenerator@@UAEXPAVOsrEntry@@@Z 08073220 f   c1_LIRGenerator.obj
 0001:000722b0       ?invoke_visit_arguments@LIRGenerator@@AAEPAVLIRItemList@@PAVInvoke@@@Z 080732b0 f   c1_LIRGenerator.obj
 0001:00072490       ?do_FPIntrinsics@LIRGenerator@@AAEXPAVIntrinsic@@@Z 08073490 f   c1_LIRGenerator.obj
 0001:00072560       ?do_IfOp@LIRGenerator@@UAEXPAVIfOp@@@Z 08073560 f   c1_LIRGenerator.obj
 0001:00072700       ?do_ProfileCall@LIRGenerator@@UAEXPAVProfileCall@@@Z 08073700 f   c1_LIRGenerator.obj
 0001:00072870       ?do_ProfileCounter@LIRGenerator@@UAEXPAVProfileCounter@@@Z 08073870 f   c1_LIRGenerator.obj
 0001:00072930       ?call_runtime@LIRGenerator@@AAEPAVLIR_OprDesc@@PAVBasicTypeArray@@PAVLIR_OprList@@PAEPAVValueType@@PAVCodeEmitInfo@@@Z 08073930 f   c1_LIRGenerator.obj
 0001:00072bd0       ?load_item_force@LIRItem@@QAEXPAVLIR_OprDesc@@@Z 08073bd0 f   c1_LIRGenerator.obj
 0001:00072d00       ?move_to_phi@LIRGenerator@@AAEXPAVPhiResolver@@PAVInstruction@@1@Z 08073d00 f   c1_LIRGenerator.obj
 0001:00072d90       ?move_to_phi@LIRGenerator@@AAEXPAVValueStack@@@Z 08073d90 f   c1_LIRGenerator.obj
 0001:00073040       ?do_ExceptionObject@LIRGenerator@@UAEXPAVExceptionObject@@@Z 08074040 f   c1_LIRGenerator.obj
 0001:00073490       ?do_Constant@LIRGenerator@@UAEXPAVConstant@@@Z 08074490 f   c1_LIRGenerator.obj
 0001:000735d0       ?do_Local@LIRGenerator@@UAEXPAVLocal@@@Z 080745d0 f   c1_LIRGenerator.obj
 0001:000735e0       ?do_Return@LIRGenerator@@UAEXPAVReturn@@@Z 080745e0 f   c1_LIRGenerator.obj
 0001:00073850       ?do_RegisterFinalizer@LIRGenerator@@AAEXPAVIntrinsic@@@Z 08074850 f   c1_LIRGenerator.obj
 0001:000739e0       ?post_barrier@LIRGenerator@@AAEXPAVLIR_OprDesc@@0@Z 080749e0 f   c1_LIRGenerator.obj
 0001:00073a40       ?do_StoreField@LIRGenerator@@UAEXPAVStoreField@@@Z 08074a40 f   c1_LIRGenerator.obj
 0001:00073ec0       ?do_Throw@LIRGenerator@@UAEXPAVThrow@@@Z 08074ec0 f   c1_LIRGenerator.obj
 0001:000742d0       ?do_TableSwitch@LIRGenerator@@UAEXPAVTableSwitch@@@Z 080752d0 f   c1_LIRGenerator.obj
 0001:00074570       ?do_LookupSwitch@LIRGenerator@@UAEXPAVLookupSwitch@@@Z 08075570 f   c1_LIRGenerator.obj
 0001:00074810       ?do_Goto@LIRGenerator@@UAEXPAVGoto@@@Z 08075810 f   c1_LIRGenerator.obj
 0001:00074a20       ?do_Base@LIRGenerator@@UAEXPAVBase@@@Z 08075a20 f   c1_LIRGenerator.obj
 0001:00075270       ?invoke_load_arguments@LIRGenerator@@AAEXPAVInvoke@@PAVLIRItemList@@PBVLIR_OprList@@@Z 08076270 f   c1_LIRGenerator.obj
 0001:00075530       ?do_Invoke@LIRGenerator@@UAEXPAVInvoke@@@Z 08076530 f   c1_LIRGenerator.obj
 0001:00075880       ?do_Intrinsic@LIRGenerator@@UAEXPAVIntrinsic@@@Z 08076880 f   c1_LIRGenerator.obj
 0001:00075b60       ?exceptionOopOpr@LIRGenerator@@SAPAVLIR_OprDesc@@XZ 08076b60 f   c1_LIRGenerator_x86.obj
 0001:00075b70       ?exceptionPcOpr@LIRGenerator@@SAPAVLIR_OprDesc@@XZ 08076b70 f   c1_LIRGenerator_x86.obj
 0001:00075b80       ?syncTempOpr@LIRGenerator@@QAEPAVLIR_OprDesc@@XZ 08076b80 f   c1_LIRGenerator_x86.obj
 0001:00075b90       ?safepoint_poll_register@LIRGenerator@@AAEPAVLIR_OprDesc@@XZ 08076b90 f   c1_LIRGenerator_x86.obj
 0001:00075b90       ?getThreadTemp@LIRGenerator@@QAEPAVLIR_OprDesc@@XZ 08076b90 f   c1_LIRGenerator_x86.obj
 0001:00075ba0       ?can_store_as_constant@LIRGenerator@@ABE_NPAVInstruction@@W4BasicType@@@Z 08076ba0 f   c1_LIRGenerator_x86.obj
 0001:00075bd0       ?cmp_mem_int@LIRGenerator@@AAEXW4LIR_Condition@@PAVLIR_OprDesc@@HHPAVCodeEmitInfo@@@Z 08076bd0 f   c1_LIRGenerator_x86.obj
 0001:00075c10       ?fixed_register_for@@YAPAVLIR_OprDesc@@W4BasicType@@@Z 08076c10 f   c1_LIRGenerator_x86.obj
 0001:00075c80       ?get_thread@LIR_List@@QAEXPAVLIR_OprDesc@@@Z 08076c80 f i c1_LIRGenerator_x86.obj
 0001:00075d20       ?negate@LIR_List@@QAEXPAVLIR_OprDesc@@0@Z 08076d20 f i c1_LIRGenerator_x86.obj
 0001:00075dd0       ?volatile_move@LIR_List@@QAEXPAVLIR_OprDesc@@0W4BasicType@@PAVCodeEmitInfo@@W4LIR_PatchCode@@@Z 08076dd0 f i c1_LIRGenerator_x86.obj
 0001:00075e50       ?abs@LIR_List@@QAEXPAVLIR_OprDesc@@00@Z 08076e50 f i c1_LIRGenerator_x86.obj
 0001:00075f10       ?sqrt@LIR_List@@QAEXPAVLIR_OprDesc@@00@Z 08076f10 f i c1_LIRGenerator_x86.obj
 0001:00075fd0       ?log@LIR_List@@QAEXPAVLIR_OprDesc@@00@Z 08076fd0 f i c1_LIRGenerator_x86.obj
 0001:00076090       ?log10@LIR_List@@QAEXPAVLIR_OprDesc@@00@Z 08077090 f i c1_LIRGenerator_x86.obj
 0001:00076150       ?sin@LIR_List@@QAEXPAVLIR_OprDesc@@000@Z 08077150 f i c1_LIRGenerator_x86.obj
 0001:00076200       ?cos@LIR_List@@QAEXPAVLIR_OprDesc@@000@Z 08077200 f i c1_LIRGenerator_x86.obj
 0001:000762b0       ?tan@LIR_List@@QAEXPAVLIR_OprDesc@@000@Z 080772b0 f i c1_LIRGenerator_x86.obj
 0001:00076360       ?branch@LIR_List@@QAEXW4LIR_Condition@@W4BasicType@@PAVBlockBegin@@2@Z 08077360 f i c1_LIRGenerator_x86.obj
 0001:00076400       ?lcmp2int@LIR_List@@QAEXPAVLIR_OprDesc@@00@Z 08077400 f i c1_LIRGenerator_x86.obj
 0001:000764c0       ?arraycopy@LIR_List@@QAEXPAVLIR_OprDesc@@00000PAVciArrayKlass@@HPAVCodeEmitInfo@@@Z 080774c0 f i c1_LIRGenerator_x86.obj
 0001:00076550       ?print_name@ConversionStub@@UBEXPAVoutputStream@@@Z 08077550 f i c1_LIRGenerator_x86.obj
 0001:00076570       ?info@SimpleExceptionStub@@UBEPAVCodeEmitInfo@@XZ 08077570 f i c1_LIRGenerator_x86.obj
 0001:00076570       ?info@MonitorEnterStub@@UBEPAVCodeEmitInfo@@XZ 08077570 f i c1_CodeStubs_x86.obj
 0001:00076580       ?print_name@SimpleExceptionStub@@UBEXPAVoutputStream@@@Z 08077580 f i c1_LIRGenerator_x86.obj
 0001:000765a0       ?can_inline_as_constant@LIRGenerator@@ABE_NPAVInstruction@@@Z 080775a0 f   c1_LIRGenerator_x86.obj
 0001:00076600       ?can_inline_as_constant@LIRGenerator@@ABE_NPAVLIR_Const@@@Z 08077600 f   c1_LIRGenerator_x86.obj
 0001:00076660       ?do_MonitorExit@LIRGenerator@@UAEXPAVMonitorExit@@@Z 08077660 f   c1_LIRGenerator_x86.obj
 0001:00076710       ?getThreadPointer@LIRGenerator@@AAEPAVLIR_OprDesc@@XZ 08077710 f   c1_LIRGenerator_x86.obj
 0001:00076750       ?visit@ConversionStub@@UAEXPAVLIR_OpVisitState@@@Z 08077750 f i c1_LIRGenerator_x86.obj
 0001:00076790       ?visit@SimpleExceptionStub@@UAEXPAVLIR_OpVisitState@@@Z 08077790 f i c1_LIRGenerator_x86.obj
 0001:000767d0       ??0BlockListList@@QAE@HQAVBlockList@@@Z 080777d0 f i c1_IR.obj
 0001:000767d0       ??0LIRItemList@@QAE@HQAVLIRItem@@@Z 080777d0 f i c1_LIRGenerator_x86.obj
 0001:000767d0       ??0IntervalsList@@QAE@HQAVIntervalList@@@Z 080777d0 f i c1_LinearScan.obj
 0001:000767d0       ??0ValueSetList@@QAE@HQAVValueSet@@@Z 080777d0 f i c1_Optimizer.obj
 0001:000767d0       ??0_BlockList@@QAE@HQAVBlockBegin@@@Z 080777d0 f i c1_GraphBuilder.obj
 0001:000767d0       ??0Values@@QAE@HQAVInstruction@@@Z 080777d0 f i c1_GraphBuilder.obj
 0001:00076830       ?is_vreg_flag_set@LIRGenerator@@QAE_NPAVLIR_OprDesc@@W4VregFlag@1@@Z 08077830 f i c1_LIRGenerator_x86.obj
 0001:00076890       ?is_register@LIRItem@@QAE_NXZ 08077890 f i c1_LIRGenerator_x86.obj
 0001:000768d0       ?load_nonconstant@LIRItem@@QAEXXZ 080778d0 f   c1_LIRGenerator_x86.obj
 0001:00076900       ?result_register_for@LIRGenerator@@CAPAVLIR_OprDesc@@PAVValueType@@_N@Z 08077900 f   c1_LIRGenerator_x86.obj
 0001:000769d0       ?rlock_byte@LIRGenerator@@AAEPAVLIR_OprDesc@@W4BasicType@@@Z 080779d0 f   c1_LIRGenerator_x86.obj
 0001:000769f0       ?generate_address@LIRGenerator@@AAEPAVLIR_Address@@PAVLIR_OprDesc@@0HHW4BasicType@@@Z 080779f0 f   c1_LIRGenerator_x86.obj
 0001:00076b70       ?increment_counter@LIRGenerator@@AAEXPAVLIR_Address@@H@Z 08077b70 f   c1_LIRGenerator_x86.obj
 0001:00076bc0       ?cmp_reg_mem@LIRGenerator@@AAEXW4LIR_Condition@@PAVLIR_OprDesc@@1HW4BasicType@@PAVCodeEmitInfo@@@Z 08077bc0 f   c1_LIRGenerator_x86.obj
 0001:00076c70       ?strength_reduce_multiply@LIRGenerator@@AAE_NPAVLIR_OprDesc@@H00@Z 08077c70 f   c1_LIRGenerator_x86.obj
 0001:00076e10       ?store_stack_parameter@LIRGenerator@@AAEXPAVLIR_OprDesc@@VByteSize@@@Z 08077e10 f   c1_LIRGenerator_x86.obj
 0001:00076ef0       ?do_MonitorEnter@LIRGenerator@@UAEXPAVMonitorEnter@@@Z 08077ef0 f   c1_LIRGenerator_x86.obj
 0001:00076ff0       ?do_NegateOp@LIRGenerator@@UAEXPAVNegateOp@@@Z 08077ff0 f   c1_LIRGenerator_x86.obj
 0001:00077070       ?do_ArithmeticOp_FPU@LIRGenerator@@AAEXPAVArithmeticOp@@@Z 08078070 f   c1_LIRGenerator_x86.obj
 0001:000773f0       ?do_ArithmeticOp_Long@LIRGenerator@@AAEXPAVArithmeticOp@@@Z 080783f0 f   c1_LIRGenerator_x86.obj
 0001:00077830       ?do_ArithmeticOp_Int@LIRGenerator@@AAEXPAVArithmeticOp@@@Z 08078830 f   c1_LIRGenerator_x86.obj
 0001:00077c10       ?do_ArithmeticOp@LIRGenerator@@UAEXPAVArithmeticOp@@@Z 08078c10 f   c1_LIRGenerator_x86.obj
 0001:00077cf0       ?do_ShiftOp@LIRGenerator@@UAEXPAVShiftOp@@@Z 08078cf0 f   c1_LIRGenerator_x86.obj
 0001:00077d80       ?do_LogicOp@LIRGenerator@@UAEXPAVLogicOp@@@Z 08078d80 f   c1_LIRGenerator_x86.obj
 0001:00077e40       ?do_CompareOp@LIRGenerator@@UAEXPAVCompareOp@@@Z 08078e40 f   c1_LIRGenerator_x86.obj
 0001:00077f70       ?do_AttemptUpdate@LIRGenerator@@AAEXPAVIntrinsic@@@Z 08078f70 f   c1_LIRGenerator_x86.obj
 0001:00078130       ?do_CompareAndSwap@LIRGenerator@@AAEXPAVIntrinsic@@PAVValueType@@@Z 08079130 f   c1_LIRGenerator_x86.obj
 0001:00078650       ?do_MathIntrinsic@LIRGenerator@@AAEXPAVIntrinsic@@@Z 08079650 f   c1_LIRGenerator_x86.obj
 0001:00078920       ?do_ArrayCopy@LIRGenerator@@AAEXPAVIntrinsic@@@Z 08079920 f   c1_LIRGenerator_x86.obj
 0001:00078b30       ?do_Convert@LIRGenerator@@UAEXPAVConvert@@@Z 08079b30 f   c1_LIRGenerator_x86.obj
 0001:00078ed0       ?do_NewInstance@LIRGenerator@@UAEXPAVNewInstance@@@Z 08079ed0 f   c1_LIRGenerator_x86.obj
 0001:00078fb0       ?do_NewTypeArray@LIRGenerator@@UAEXPAVNewTypeArray@@@Z 08079fb0 f   c1_LIRGenerator_x86.obj
 0001:00079140       ?do_NewObjectArray@LIRGenerator@@UAEXPAVNewObjectArray@@@Z 0807a140 f   c1_LIRGenerator_x86.obj
 0001:00079300       ?do_NewMultiArray@LIRGenerator@@UAEXPAVNewMultiArray@@@Z 0807a300 f   c1_LIRGenerator_x86.obj
 0001:00079730       ?do_CheckCast@LIRGenerator@@UAEXPAVCheckCast@@@Z 0807a730 f   c1_LIRGenerator_x86.obj
 0001:000799c0       ?do_InstanceOf@LIRGenerator@@UAEXPAVInstanceOf@@@Z 0807a9c0 f   c1_LIRGenerator_x86.obj
 0001:00079ab0       ?do_If@LIRGenerator@@UAEXPAVIf@@@Z 0807aab0 f   c1_LIRGenerator_x86.obj
 0001:00079eb0       ?trace_block_entry@LIRGenerator@@AAEXPAVBlockBegin@@@Z 0807aeb0 f   c1_LIRGenerator_x86.obj
 0001:00079f40       ?volatile_field_store@LIRGenerator@@AAEXPAVLIR_OprDesc@@PAVLIR_Address@@PAVCodeEmitInfo@@@Z 0807af40 f   c1_LIRGenerator_x86.obj
 0001:0007a0b0       ?volatile_field_load@LIRGenerator@@AAEXPAVLIR_Address@@PAVLIR_OprDesc@@PAVCodeEmitInfo@@@Z 0807b0b0 f   c1_LIRGenerator_x86.obj
 0001:0007a1f0       ?get_Object_unsafe@LIRGenerator@@AAEXPAVLIR_OprDesc@@00W4BasicType@@_N@Z 0807b1f0 f   c1_LIRGenerator_x86.obj
 0001:0007a3a0       ?put_Object_unsafe@LIRGenerator@@AAEXPAVLIR_OprDesc@@00W4BasicType@@_N@Z 0807b3a0 f   c1_LIRGenerator_x86.obj
 0001:0007a5d0       ?load_byte_item@LIRItem@@QAEXXZ 0807b5d0 f   c1_LIRGenerator_x86.obj
 0001:0007a690       ?emit_array_address@LIRGenerator@@AAEPAVLIR_Address@@PAVLIR_OprDesc@@0W4BasicType@@_N@Z 0807b690 f   c1_LIRGenerator_x86.obj
 0001:0007a880       ?increment_counter@LIRGenerator@@AAEXPAEH@Z 0807b880 f   c1_LIRGenerator_x86.obj
 0001:0007a970       ?do_StoreIndexed@LIRGenerator@@UAEXPAVStoreIndexed@@@Z 0807b970 f   c1_LIRGenerator_x86.obj
 0001:0007ae10       ?use_fpu_stack_allocation@LinearScan@@ABE_NXZ 0807be10 f i c1_LinearScan.obj
 0001:0007ae30       ?register_blocked@MoveResolver@@AAEHH@Z 0807be30 f i c1_LinearScan.obj
 0001:0007ae70       ?set_type@Interval@@QAEXW4BasicType@@@Z 0807be70 f i c1_LinearScan.obj
 0001:0007aed0       ?canonical_spill_slot@Interval@@QBEHXZ 0807bed0 f i c1_LinearScan.obj
 0001:0007af10       ?set_canonical_spill_slot@Interval@@QAEXH@Z 0807bf10 f i c1_LinearScan.obj
 0001:0007afa0       ?spill_state@Interval@@QBE?AW4IntervalSpillState@@XZ 0807bfa0 f i c1_LinearScan.obj
 0001:0007afe0       ?spill_definition_pos@Interval@@QBEHXZ 0807bfe0 f i c1_LinearScan.obj
 0001:0007b020       ?set_spill_state@Interval@@QAEXW4IntervalSpillState@@@Z 0807c020 f i c1_LinearScan.obj
 0001:0007b0b0       ?set_spill_definition_pos@Interval@@QAEXH@Z 0807c0b0 f i c1_LinearScan.obj
 0001:0007b140       ?always_in_memory@Interval@@QBE_NXZ 0807c140 f i c1_LinearScan.obj
 0001:0007b1a0       ?is_caller_save@LinearScan@@CA_NH@Z 0807c1a0 f i c1_LinearScan.obj
 0001:0007b1d0       ?pd_init_regs_for_alloc@LinearScanWalker@@AAE_NPAVInterval@@@Z 0807c1d0 f i c1_LinearScan.obj
 0001:0007b300       ?is_precolored_cpu_interval@LinearScan@@CA_NPBVInterval@@@Z 0807c300 f   c1_LinearScan.obj
 0001:0007b320       ?is_virtual_cpu_interval@LinearScan@@CA_NPBVInterval@@@Z 0807c320 f   c1_LinearScan.obj
 0001:0007b350       ?is_precolored_fpu_interval@LinearScan@@CA_NPBVInterval@@@Z 0807c350 f   c1_LinearScan.obj
 0001:0007b370       ?is_virtual_fpu_interval@LinearScan@@CA_NPBVInterval@@@Z 0807c370 f   c1_LinearScan.obj
 0001:0007b3a0       ?is_in_fpu_register@LinearScan@@CA_NPBVInterval@@@Z 0807c3a0 f   c1_LinearScan.obj
 0001:0007b3d0       ?is_oop_interval@LinearScan@@CA_NPBVInterval@@@Z 0807c3d0 f   c1_LinearScan.obj
 0001:0007b420       ?copy_register_flags@LinearScan@@AAEXPAVInterval@@0@Z 0807c420 f   c1_LinearScan.obj
 0001:0007b480       ?must_store_at_definition@LinearScan@@CA_NPBVInterval@@@Z 0807c480 f   c1_LinearScan.obj
 0001:0007b4d0       ?interval_cmp@LinearScan@@CAHPAPAVInterval@@0@Z 0807c4d0 f   c1_LinearScan.obj
 0001:0007b510       ?print_lir@LinearScan@@AAEXHPBD_N@Z 0807c510 f   c1_LinearScan.obj
 0001:0007b5d0       ?block_registers@MoveResolver@@AAEXPAVInterval@@@Z 0807c5d0 f   c1_LinearScan.obj
 0001:0007b6c0       ?unblock_registers@MoveResolver@@AAEXPAVInterval@@@Z 0807c6c0 f   c1_LinearScan.obj
 0001:0007b7b0       ?save_to_process_move@MoveResolver@@AAE_NPAVInterval@@0@Z 0807c7b0 f   c1_LinearScan.obj
 0001:0007b880       ?intersects_at@Range@@ABEHPAV1@@Z 0807c880 f   c1_LinearScan.obj
 0001:0007b930       ?calc_to@Interval@@AAEHXZ  0807c930 f   c1_LinearScan.obj
 0001:0007b980       ?covers@Interval@@QBE_NHW4OprMode@LIR_OpVisitState@@@Z 0807c980 f   c1_LinearScan.obj
 0001:0007ba00       ?remove_from_list@IntervalWalker@@IAE_NPAPAVInterval@@PAV2@@Z 0807ca00 f i c1_LinearScan.obj
 0001:0007ba60       ?walk_to@IntervalWalker@@IAEXW4IntervalState@@H@Z 0807ca60 f   c1_LinearScan.obj
 0001:0007bd20       ?next_interval@IntervalWalker@@IAEXXZ 0807cd20 f   c1_LinearScan.obj
 0001:0007be00       ?walk_to@IntervalWalker@@QAEXH@Z 0807ce00 f   c1_LinearScan.obj
 0001:0007bf40       ?exclude_from_use@LinearScanWalker@@AAEXPAVInterval@@@Z 0807cf40 f i c1_LinearScan.obj
 0001:0007bfe0       ?set_block_pos@LinearScanWalker@@AAEXPAVInterval@@H@Z 0807cfe0 f i c1_LinearScan.obj
 0001:0007c070       ?free_exclude_active_fixed@LinearScanWalker@@AAEXXZ 0807d070 f   c1_LinearScan.obj
 0001:0007c0c0       ?find_free_reg@LinearScanWalker@@AAEHHHHHPA_N@Z 0807d0c0 f   c1_LinearScan.obj
 0001:0007c160       ?find_free_double_reg@LinearScanWalker@@AAEHHHHPA_N@Z 0807d160 f   c1_LinearScan.obj
 0001:0007c240       ?find_locked_reg@LinearScanWalker@@AAEHHHHHPA_N@Z 0807d240 f   c1_LinearScan.obj
 0001:0007c2b0       ?find_locked_double_reg@LinearScanWalker@@AAEHHHHPA_N@Z 0807d2b0 f   c1_LinearScan.obj
 0001:0007c350       ?init_vars_for_alloc@LinearScanWalker@@AAEXPAVInterval@@@Z 0807d350 f   c1_LinearScan.obj
 0001:0007c420       ?counter_name@LinearScanStatistic@@AAEPBDH@Z 0807d420 f   c1_LinearScan.obj
 0001:0007c680       ?base_counter@LinearScanStatistic@@AAE?AW4Counter@1@H@Z 0807d680 f   c1_LinearScan.obj
 0001:0007c6e0       ??0LinearScanStatistic@@QAE@XZ 0807d6e0 f   c1_LinearScan.obj
 0001:0007c720       ?print@LinearScanStatistic@@QAEXPBD@Z 0807d720 f   c1_LinearScan.obj
 0001:0007c850       ?timer_name@LinearScanTimers@@AAEPBDH@Z 0807d850 f   c1_LinearScan.obj
 0001:0007c930       ?print@LinearScanTimers@@QAEXN@Z 0807d930 f   c1_LinearScan.obj
 0001:0007c9e0       ?truncate@LIR_OpList@@QAEXH@Z 0807d9e0 f i c1_LinearScan.obj
 0001:0007ca20       ?insert_before@LIR_OpList@@QAEXHQAVLIR_Op@@@Z 0807da20 f i c1_LinearScan.obj
 0001:0007cab0       ?at_put@IntervalArray@@QAEXHQAVInterval@@@Z 0807dab0 f i c1_LinearScan.obj
 0001:0007cb00       ?grow@IntervalList@@IAEXHQAVInterval@@@Z 0807db00 f i c1_LinearScan.obj
 0001:0007cb60       ?push_all@Values@@QAEXPBV1@@Z 0807db60 f i c1_ValueStack.obj
 0001:0007cb60       ?push_all@_BlockList@@QAEXPBV1@@Z 0807db60 f i c1_GraphBuilder.obj
 0001:0007cb60       ?push_all@IntervalList@@QAEXPBV1@@Z 0807db60 f i c1_LinearScan.obj
 0001:0007cbc0       ?at@ScopeValueArray@@QBEPAVScopeValue@@H@Z 0807dbc0 f i c1_LinearScan.obj
 0001:0007cc00       ?at_put@ScopeValueArray@@QAEXHQAVScopeValue@@@Z 0807dc00 f i c1_LinearScan.obj
 0001:0007cc50       ?block_count@LinearScan@@ABEHXZ 0807dc50 f i c1_LinearScan.obj
 0001:0007ccb0       ?block_at@LinearScan@@ABEPAVBlockBegin@@H@Z 0807dcb0 f i c1_LinearScan.obj
 0001:0007cd80       ?interval_at@LinearScan@@ABEPAVInterval@@H@Z 0807dd80 f i c1_LinearScan.obj
 0001:0007cdc0       ?max_lir_op_id@LinearScan@@ABEHXZ 0807ddc0 f i c1_LinearScan.obj
 0001:0007cdf0       ?lir_op_with_id@LinearScan@@ABEPAVLIR_Op@@H@Z 0807ddf0 f i c1_LinearScan.obj
 0001:0007ce90       ?block_of_op_with_id@LinearScan@@ABEPAVBlockBegin@@H@Z 0807de90 f i c1_LinearScan.obj
 0001:0007cf30       ?is_block_begin@LinearScan@@AAE_NH@Z 0807df30 f i c1_LinearScan.obj
 0001:0007cf70       ?to@Interval@@QAEHXZ       0807df70 f i c1_LinearScan.obj
 0001:0007cfb0       ?remove_first_use_pos@Interval@@QAEXXZ 0807dfb0 f i c1_LinearScan.obj
 0001:0007cfe0       ?allocate_spill_slot@LinearScan@@AAEH_N@Z 0807dfe0 f   c1_LinearScan.obj
 0001:0007d090       ?assign_spill_slot@LinearScan@@AAEXPAVInterval@@@Z 0807e090 f   c1_LinearScan.obj
 0001:0007d150       ?append_interval@LinearScan@@AAEXPAVInterval@@@Z 0807e150 f   c1_LinearScan.obj
 0001:0007d1e0       ?change_spill_definition_pos@LinearScan@@AAEXPAVInterval@@H@Z 0807e1e0 f   c1_LinearScan.obj
 0001:0007d380       ?change_spill_state@LinearScan@@AAEXPAVInterval@@H@Z 0807e380 f   c1_LinearScan.obj
 0001:0007d450       ?is_sorted@LinearScan@@AAE_NPAVIntervalArray@@@Z 0807e450 f   c1_LinearScan.obj
 0001:0007d6d0       ?create_unhandled_lists@LinearScan@@AAEXPAPAVInterval@@0P6A_NPBV2@@Z2@Z 0807e6d0 f   c1_LinearScan.obj
 0001:0007d840       ?calc_operand_for_interval@LinearScan@@CAPAVLIR_OprDesc@@PBVInterval@@@Z 0807e840 f   c1_LinearScan.obj
 0001:0007dbb0       ?canonical_spill_opr@LinearScan@@AAEPAVLIR_OprDesc@@PAVInterval@@@Z 0807ebb0 f   c1_LinearScan.obj
 0001:0007dc60       ?assert_equal@@YAXPAVScopeValue@@0@Z 0807ec60 f   c1_LinearScan.obj
 0001:0007de70       ?assert_equal@@YAXPAVIRScopeDebugInfo@@0@Z 0807ee70 f   c1_LinearScan.obj
 0001:0007e290       ?print_timers@LinearScan@@SAXN@Z 0807f290 f   c1_LinearScan.obj
 0001:0007e2b0       ?print_statistics@LinearScan@@SAXXZ 0807f2b0 f   c1_LinearScan.obj
 0001:0007e2e0       ?set_state_for_block@RegisterVerifier@@AAEXPAVBlockBegin@@PAVIntervalList@@@Z 0807f2e0 f i c1_LinearScan.obj
 0001:0007e330       ?add_to_work_list@RegisterVerifier@@AAEXPAVBlockBegin@@@Z 0807f330 f i c1_LinearScan.obj
 0001:0007e380       ?state_put@RegisterVerifier@@AAEXPAVIntervalList@@HPAVInterval@@@Z 0807f380 f   c1_LinearScan.obj
 0001:0007e410       ?check_empty@MoveResolver@@QAEXXZ 0807f410 f   c1_LinearScan.obj
 0001:0007e4c0       ?add_mapping@MoveResolver@@QAEXPAVInterval@@0@Z 0807f4c0 f   c1_LinearScan.obj
 0001:0007e590       ?initialize@Range@@SAXXZ   0807f590 f   c1_LinearScan.obj
 0001:0007e600       ?check_split_children@Interval@@QAEXXZ 0807f600 f   c1_LinearScan.obj
 0001:0007ecc0       ?register_hint@Interval@@QBEPAV1@_N@Z 0807fcc0 f   c1_LinearScan.obj
 0001:0007ed80       ?split_child_before_op_id@Interval@@QAEPAV1@H@Z 0807fd80 f   c1_LinearScan.obj
 0001:0007efa0       ?first_usage@Interval@@QBEHW4IntervalUseKind@@@Z 0807ffa0 f   c1_LinearScan.obj
 0001:0007f060       ?next_usage@Interval@@QBEHW4IntervalUseKind@@H@Z 08080060 f   c1_LinearScan.obj
 0001:0007f130       ?next_usage_exact@Interval@@QBEHW4IntervalUseKind@@H@Z 08080130 f   c1_LinearScan.obj
 0001:0007f200       ?previous_usage@Interval@@QBEHW4IntervalUseKind@@H@Z 08080200 f   c1_LinearScan.obj
 0001:0007f2e0       ?add_use_pos@Interval@@QAEXHW4IntervalUseKind@@@Z 080802e0 f   c1_LinearScan.obj
 0001:0007f5d0       ?add_range@Interval@@QAEXHH@Z 080805d0 f   c1_LinearScan.obj
 0001:0007f6d0       ?has_hole_between@Interval@@QAE_NHH@Z 080806d0 f   c1_LinearScan.obj
 0001:0007f7b0       ?print@Interval@@QBEXPAVoutputStream@@@Z 080807b0 f   c1_LinearScan.obj
 0001:0007fb50       ??0IntervalWalker@@QAE@PAVLinearScan@@PAVInterval@@1@Z 08080b50 f   c1_LinearScan.obj
 0001:0007fbc0       ?append_to_unhandled@IntervalWalker@@IAEXPAPAVInterval@@PAV2@@Z 08080bc0 f   c1_LinearScan.obj
 0001:0007fc50       ?interval_moved@IntervalWalker@@MAEXPAVInterval@@W4IntervalKind@@W4IntervalState@@2@Z 08080c50 f   c1_LinearScan.obj
 0001:0007fdb0       ?init_use_lists@LinearScanWalker@@AAEX_N@Z 08080db0 f i c1_LinearScan.obj
 0001:0007fe30       ?free_collect_inactive_fixed@LinearScanWalker@@AAEXPAVInterval@@@Z 08080e30 f   c1_LinearScan.obj
 0001:00080070       ?free_collect_inactive_any@LinearScanWalker@@AAEXPAVInterval@@@Z 08081070 f   c1_LinearScan.obj
 0001:00080150       ?spill_block_inactive_fixed@LinearScanWalker@@AAEXPAVInterval@@@Z 08081150 f   c1_LinearScan.obj
 0001:00080280       ?spill_collect_active_any@LinearScanWalker@@AAEXXZ 08081280 f   c1_LinearScan.obj
 0001:00080480       ?spill_collect_inactive_any@LinearScanWalker@@AAEXPAVInterval@@@Z 08081480 f   c1_LinearScan.obj
 0001:00080690       ?find_optimal_split_pos@LinearScanWalker@@AAEHPAVBlockBegin@@0H@Z 08081690 f   c1_LinearScan.obj
 0001:000807e0       ?find_optimal_split_pos@LinearScanWalker@@AAEHPAVInterval@@HH_N@Z 080817e0 f   c1_LinearScan.obj
 0001:00080a80       ?init_instructions@EdgeMoveOptimizer@@AAEXXZ 08081a80 f   c1_LinearScan.obj
 0001:00080ad0       ?append_instructions@EdgeMoveOptimizer@@AAEXPAVLIR_OpList@@H@Z 08081ad0 f   c1_LinearScan.obj
 0001:00080b30       ?instruction_at@EdgeMoveOptimizer@@AAEPAVLIR_Op@@H@Z 08081b30 f   c1_LinearScan.obj
 0001:00080bc0       ?operations_different@EdgeMoveOptimizer@@AAE_NPAVLIR_Op@@0@Z 08081bc0 f   c1_LinearScan.obj
 0001:00080cf0       ?optimize_moves_at_block_end@EdgeMoveOptimizer@@AAEXPAVBlockBegin@@@Z 08081cf0 f   c1_LinearScan.obj
 0001:00081240       ?optimize_moves_at_block_begin@EdgeMoveOptimizer@@AAEXPAVBlockBegin@@@Z 08082240 f   c1_LinearScan.obj
 0001:00081740       ?reorder_short_loop@ControlFlowOptimizer@@AAEXPAVBlockList@@PAVBlockBegin@@H@Z 08082740 f   c1_LinearScan.obj
 0001:00081a60       ?can_delete_block@ControlFlowOptimizer@@AAE_NPAVBlockBegin@@@Z 08082a60 f   c1_LinearScan.obj
 0001:00081bf0       ?substitute_branch_target@ControlFlowOptimizer@@AAEXPAVBlockBegin@@00@Z 08082bf0 f   c1_LinearScan.obj
 0001:00081d10       ?verify@ControlFlowOptimizer@@AAEXPAVBlockList@@@Z 08082d10 f   c1_LinearScan.obj
 0001:00081f60       ?sum_up@LinearScanStatistic@@AAEXAAV1@@Z 08082f60 f   c1_LinearScan.obj
 0001:00082000       ??0LinearScanTimers@@QAE@XZ 08083000 f   c1_LinearScan.obj
 0001:00082040       ?end_method@LinearScanTimers@@QAEXPAVLinearScan@@@Z 08083040 f   c1_LinearScan.obj
 0001:000822b0       ?depth@Bytecodes@@SAHW4Code@1@@Z 080832b0 f i c1_LinearScan.obj
 0001:000822f0       ?get_next_one_offset_inline@BitMap@@QBEIII@Z 080832f0 f i c1_LinearScan.obj
 0001:00082420       ?next@VMRegImpl@@QAEPAV1@XZ 08083420 f i c1_LinearScan.obj
 0001:00082460       ?new_reg_loc@Location@@SA?AV1@W4Type@1@PAVVMRegImpl@@@Z 08083460 f i c1_LinearScan.obj
 0001:00082480       ?make_last_use@LIR_OprDesc@@QAEPAV1@XZ 08083480 f i c1_LinearScan.obj
 0001:000824d0       ?fpu_regnrHi@LIR_OprDesc@@QBEHXZ 080834d0 f i c1_LinearScan.obj
 0001:00082540       ??0LIR_InsertionBuffer@@QAE@XZ 08083540 f i c1_LinearScan.obj
 0001:00082610       ?init@LIR_InsertionBuffer@@QAEXPAVLIR_List@@@Z 08083610 f i c1_LinearScan.obj
 0001:00082690       ?move@LIR_InsertionBuffer@@QAEXHPAVLIR_OprDesc@@0PAVCodeEmitInfo@@@Z 08083690 f i c1_LinearScan.obj
 0001:00082760       ?has_call@LinearScan@@AAE_NH@Z 08083760 f i c1_LinearScan.obj
 0001:000827e0       ?has_info@LinearScan@@AAE_NH@Z 080837e0 f i c1_LinearScan.obj
 0001:00082860       ?is_processed_reg_num@LinearScan@@CA_NH@Z 08083860 f i c1_LinearScan.obj
 0001:000828f0       ?as_VMReg@XMMRegisterImpl@@QAEPAVVMRegImpl@@XZ 080838f0 f i c1_LinearScan.obj
 0001:00082940       ?reg_num@LinearScan@@CAHPAVLIR_OprDesc@@@Z 08083940 f   c1_LinearScan.obj
 0001:00082a90       ?reg_numHi@LinearScan@@CAHPAVLIR_OprDesc@@@Z 08083a90 f   c1_LinearScan.obj
 0001:00082ba0       ?set_live_gen_kill@LinearScan@@AAEXPAVInstruction@@PAVLIR_Op@@AAVBitMap@@2@Z 08083ba0 f   c1_LinearScan.obj
 0001:00082d50       ?use_kind_of_output_operand@LinearScan@@AAE?AW4IntervalUseKind@@PAVLIR_Op@@PAVLIR_OprDesc@@@Z 08083d50 f   c1_LinearScan.obj
 0001:00082e80       ?handle_method_arguments@LinearScan@@AAEXPAVLIR_Op@@@Z 08083e80 f   c1_LinearScan.obj
 0001:000830c0       ?add_register_hints@LinearScan@@AAEXPAVLIR_Op@@@Z 080840c0 f   c1_LinearScan.obj
 0001:00083260       ?sort_intervals_before_allocation@LinearScan@@AAEXXZ 08084260 f   c1_LinearScan.obj
 0001:00083510       ?sort_intervals_after_allocation@LinearScan@@AAEXXZ 08084510 f   c1_LinearScan.obj
 0001:00083770       ?operand_for_interval@LinearScan@@CAPAVLIR_OprDesc@@PAVInterval@@@Z 08084770 f   c1_LinearScan.obj
 0001:000837c0       ?location_for_monitor_index@LinearScan@@AAEPAVMonitorValue@@H@Z 080847c0 f   c1_LinearScan.obj
 0001:00083880       ?location_for_name@LinearScan@@AAEPAVLocationValue@@HW4Type@Location@@@Z 08084880 f   c1_LinearScan.obj
 0001:000838e0       ?append_scope_value_for_constant@LinearScan@@AAEHPAVLIR_OprDesc@@PAV?$GrowableArray@PAVScopeValue@@@@@Z 080848e0 f   c1_LinearScan.obj
 0001:00083b40       ?print_bitmap@LinearScan@@CAXAAVBitMap@@@Z 08084b40 f   c1_LinearScan.obj
 0001:00083bb0       ?print_intervals@LinearScan@@AAEXPBD@Z 08084bb0 f   c1_LinearScan.obj
 0001:00083d20       ?verify_intervals@LinearScan@@AAEXXZ 08084d20 f   c1_LinearScan.obj
 0001:00084210       ?verify_constants@LinearScan@@AAEXXZ 08085210 f   c1_LinearScan.obj
 0001:000843e0       ??0RegisterVerifier@@QAE@PAVLinearScan@@@Z 080853e0 f i c1_LinearScan.obj
 0001:00084480       ?copy@RegisterVerifier@@AAEPAVIntervalList@@PAV2@@Z 08085480 f   c1_LinearScan.obj
 0001:000844e0       ??0MoveResolver@@QAE@PAVLinearScan@@@Z 080854e0 f   c1_LinearScan.obj
 0001:000846d0       ?verify_before_resolve@MoveResolver@@AAEXXZ 080856d0 f   c1_LinearScan.obj
 0001:00084e20       ?insert_move@MoveResolver@@AAEXPAVInterval@@0@Z 08085e20 f   c1_LinearScan.obj
 0001:00085020       ?insert_move@MoveResolver@@AAEXPAVLIR_OprDesc@@PAVInterval@@@Z 08086020 f   c1_LinearScan.obj
 0001:00085180       ?set_insert_position@MoveResolver@@QAEXPAVLIR_List@@H@Z 08086180 f   c1_LinearScan.obj
 0001:00085220       ?add_mapping@MoveResolver@@QAEXPAVLIR_OprDesc@@PAVInterval@@@Z 08086220 f   c1_LinearScan.obj
 0001:00085320       ??0Interval@@QAE@H@Z       08086320 f   c1_LinearScan.obj
 0001:00085440       ?split_child_at_op_id@Interval@@QAEPAV1@HW4OprMode@LIR_OpVisitState@@@Z 08086440 f   c1_LinearScan.obj
 0001:00085790       ??0LinearScanWalker@@QAE@PAVLinearScan@@PAVInterval@@1@Z 08086790 f   c1_LinearScan.obj
 0001:00085860       ?is_move@LinearScanWalker@@AAE_NPAVLIR_Op@@PAVInterval@@1@Z 08086860 f   c1_LinearScan.obj
 0001:00085930       ?combine_spilled_intervals@LinearScanWalker@@AAEXPAVInterval@@@Z 08086930 f   c1_LinearScan.obj
 0001:00085b50       ??0EdgeMoveOptimizer@@AAE@XZ 08086b50 f   c1_LinearScan.obj
 0001:00085c20       ?optimize@EdgeMoveOptimizer@@SAXPAVBlockList@@@Z 08086c20 f   c1_LinearScan.obj
 0001:00085ce0       ??0ControlFlowOptimizer@@AAE@XZ 08086ce0 f   c1_LinearScan.obj
 0001:00085d60       ?reorder_short_loops@ControlFlowOptimizer@@AAEXPAVBlockList@@@Z 08086d60 f   c1_LinearScan.obj
 0001:00085dc0       ?delete_empty_blocks@ControlFlowOptimizer@@AAEXPAVBlockList@@@Z 08086dc0 f   c1_LinearScan.obj
 0001:00086080       ?delete_unnecessary_jumps@ControlFlowOptimizer@@AAEXPAVBlockList@@@Z 08087080 f   c1_LinearScan.obj
 0001:00086330       ?delete_jumps_to_return@ControlFlowOptimizer@@AAEXPAVBlockList@@@Z 08087330 f   c1_LinearScan.obj
 0001:00086670       ?collect@LinearScanStatistic@@AAEXPAVLinearScan@@@Z 08087670 f   c1_LinearScan.obj
 0001:00086b10       ?compute@LinearScanStatistic@@SAXPAVLinearScan@@AAV1@@Z 08087b10 f   c1_LinearScan.obj
 0001:00086b70       ?is_same_register@LIR_OprDesc@@QAE_NPAV1@@Z 08087b70 f i c1_LinearScan.obj
 0001:00086be0       ?type_register@LIR_OprDesc@@QBE?AW4BasicType@@XZ 08087be0 f i c1_LinearScan.obj
 0001:00086c70       ?create_interval@LinearScan@@AAEPAVInterval@@H@Z 08087c70 f   c1_LinearScan.obj
 0001:00086d50       ?eliminate_spill_moves@LinearScan@@AAEXXZ 08087d50 f   c1_LinearScan.obj
 0001:00087590       ?compute_local_live_sets@LinearScan@@AAEXXZ 08088590 f   c1_LinearScan.obj
 0001:000886a0       ?compute_global_live_sets@LinearScan@@AAEXXZ 080896a0 f   c1_LinearScan.obj
 0001:00088d60       ?add_def@LinearScan@@AAEXHHW4IntervalUseKind@@W4BasicType@@@Z 08089d60 f   c1_LinearScan.obj
 0001:00088eb0       ?add_use@LinearScan@@AAEXHHHW4IntervalUseKind@@W4BasicType@@@Z 08089eb0 f   c1_LinearScan.obj
 0001:00088f40       ?add_temp@LinearScan@@AAEXHHW4IntervalUseKind@@W4BasicType@@@Z 08089f40 f   c1_LinearScan.obj
 0001:00088fd0       ?use_kind_of_input_operand@LinearScan@@AAE?AW4IntervalUseKind@@PAVLIR_Op@@PAVLIR_OprDesc@@@Z 08089fd0 f   c1_LinearScan.obj
 0001:00089340       ?split_child_at_op_id@LinearScan@@AAEPAVInterval@@PAV2@HW4OprMode@LIR_OpVisitState@@@Z 0808a340 f   c1_LinearScan.obj
 0001:00089400       ?interval_at_block_begin@LinearScan@@AAEPAVInterval@@PAVBlockBegin@@H@Z 0808a400 f   c1_LinearScan.obj
 0001:000894b0       ?interval_at_block_end@LinearScan@@AAEPAVInterval@@PAVBlockBegin@@H@Z 0808a4b0 f   c1_LinearScan.obj
 0001:00089560       ?interval_at_op_id@LinearScan@@AAEPAVInterval@@HH@Z 0808a560 f   c1_LinearScan.obj
 0001:00089610       ?resolve_collect_mappings@LinearScan@@AAEXPAVBlockBegin@@0AAVMoveResolver@@@Z 0808a610 f   c1_LinearScan.obj
 0001:00089770       ?resolve_find_insert_pos@LinearScan@@AAEXPAVBlockBegin@@0AAVMoveResolver@@@Z 0808a770 f   c1_LinearScan.obj
 0001:00089950       ?resolve_exception_edge@LinearScan@@AAEXPAVXHandler@@HHPAVPhi@@AAVMoveResolver@@@Z 0808a950 f   c1_LinearScan.obj
 0001:00089a80       ?vm_reg_for_interval@LinearScan@@AAEPAVVMRegImpl@@PAVInterval@@@Z 0808aa80 f   c1_LinearScan.obj
 0001:00089b30       ?color_lir_opr@LinearScan@@AAEPAVLIR_OprDesc@@PAV2@HW4OprMode@LIR_OpVisitState@@@Z 0808ab30 f   c1_LinearScan.obj
 0001:00089e10       ?check_stack_depth@@YAXPAVCodeEmitInfo@@H@Z 0808ae10 f   c1_LinearScan.obj
 0001:00089f00       ?init_compute_oop_maps@LinearScan@@AAEPAVIntervalWalker@@XZ 0808af00 f   c1_LinearScan.obj
 0001:00089ff0       ?compute_oop_map@LinearScan@@AAEPAVOopMap@@PAVIntervalWalker@@PAVLIR_Op@@PAVCodeEmitInfo@@_N@Z 0808aff0 f   c1_LinearScan.obj
 0001:0008a3d0       ?compute_oop_map@LinearScan@@AAEXPAVIntervalWalker@@ABVLIR_OpVisitState@@PAVLIR_Op@@@Z 0808b3d0 f   c1_LinearScan.obj
 0001:0008a500       ?init_compute_debug_info@LinearScan@@AAEXXZ 0808b500 f   c1_LinearScan.obj
 0001:0008a570       ?append_scope_value_for_operand@LinearScan@@AAEHPAVLIR_OprDesc@@PAV?$GrowableArray@PAVScopeValue@@@@@Z 0808b570 f   c1_LinearScan.obj
 0001:0008abf0       ?append_scope_value@LinearScan@@AAEHHPAVInstruction@@PAV?$GrowableArray@PAVScopeValue@@@@@Z 0808bbf0 f   c1_LinearScan.obj
 0001:0008aee0       ?compute_debug_info_for_scope@LinearScan@@AAEPAVIRScopeDebugInfo@@HPAVIRScope@@PAVValueStack@@1HHH@Z 0808bee0 f   c1_LinearScan.obj
 0001:0008b240       ?compute_debug_info@LinearScan@@AAEXPAVCodeEmitInfo@@H@Z 0808c240 f   c1_LinearScan.obj
 0001:0008b310       ?assign_reg_num@LinearScan@@AAEXPAVLIR_OpList@@PAVIntervalWalker@@@Z 0808c310 f   c1_LinearScan.obj
 0001:0008b7f0       ?assign_reg_num@LinearScan@@AAEXXZ 0808c7f0 f   c1_LinearScan.obj
 0001:0008b890       ?verify_no_oops_in_fixed_intervals@LinearScan@@AAEXXZ 0808c890 f   c1_LinearScan.obj
 0001:0008c010       ?process_successor@RegisterVerifier@@AAEXPAVBlockBegin@@PAVIntervalList@@@Z 0808d010 f   c1_LinearScan.obj
 0001:0008c210       ?resolve_mappings@MoveResolver@@AAEXXZ 0808d210 f   c1_LinearScan.obj
 0001:0008c5c0       ?move_insert_position@MoveResolver@@QAEXPAVLIR_List@@H@Z 0808d5c0 f   c1_LinearScan.obj
 0001:0008c690       ?resolve_and_append_moves@MoveResolver@@QAEXXZ 0808d690 f   c1_LinearScan.obj
 0001:0008c6e0       ?initialize@Interval@@SAXXZ 0808d6e0 f   c1_LinearScan.obj
 0001:0008c750       ?new_split_child@Interval@@AAEPAV1@XZ 0808d750 f   c1_LinearScan.obj
 0001:0008c920       ?split_from_start@Interval@@QAEPAV1@H@Z 0808d920 f   c1_LinearScan.obj
 0001:0008ca50       ?insert_move@LinearScanWalker@@AAEXHPAVInterval@@0@Z 0808da50 f   c1_LinearScan.obj
 0001:0008cc20       ?optimize@ControlFlowOptimizer@@SAXPAVBlockList@@@Z 0808dc20 f   c1_LinearScan.obj
 0001:0008cd40       ?pd_add_temps@LinearScan@@AAEXPAVLIR_Op@@@Z 0808dd40 f i c1_LinearScan.obj
 0001:0008cde0       ?number_instructions@LinearScan@@AAEXXZ 0808dde0 f   c1_LinearScan.obj
 0001:0008d1b0       ?add_def@LinearScan@@AAEXPAVLIR_OprDesc@@HW4IntervalUseKind@@@Z 0808e1b0 f   c1_LinearScan.obj
 0001:0008d330       ?add_use@LinearScan@@AAEXPAVLIR_OprDesc@@HHW4IntervalUseKind@@@Z 0808e330 f   c1_LinearScan.obj
 0001:0008d4c0       ?add_temp@LinearScan@@AAEXPAVLIR_OprDesc@@HW4IntervalUseKind@@@Z 0808e4c0 f   c1_LinearScan.obj
 0001:0008d640       ?handle_doubleword_moves@LinearScan@@AAEXPAVLIR_Op@@@Z 0808e640 f   c1_LinearScan.obj
 0001:0008d6f0       ?allocate_registers@LinearScan@@AAEXXZ 0808e6f0 f   c1_LinearScan.obj
 0001:0008d820       ?resolve_data_flow@LinearScan@@AAEXXZ 0808e820 f   c1_LinearScan.obj
 0001:0008dd80       ?resolve_exception_edge@LinearScan@@AAEXPAVXHandler@@HAAVMoveResolver@@@Z 0808ed80 f   c1_LinearScan.obj
 0001:0008e1e0       ?process_operations@RegisterVerifier@@AAEXPAVLIR_List@@PAVIntervalList@@@Z 0808f1e0 f   c1_LinearScan.obj
 0001:0008ec10       ?split@Interval@@QAEPAV1@H@Z 0808fc10 f   c1_LinearScan.obj
 0001:0008f0e0       ?split_before_usage@LinearScanWalker@@AAEXPAVInterval@@HH@Z 080900e0 f   c1_LinearScan.obj
 0001:0008f4f0       ?split_for_spilling@LinearScanWalker@@AAEXPAVInterval@@@Z 080904f0 f   c1_LinearScan.obj
 0001:0008fa40       ?split_stack_interval@LinearScanWalker@@AAEXPAVInterval@@@Z 08090a40 f   c1_LinearScan.obj
 0001:0008fab0       ?split_and_spill_interval@LinearScanWalker@@AAEXPAVInterval@@@Z 08090ab0 f   c1_LinearScan.obj
 0001:0008fbc0       ?alloc_free_reg@LinearScanWalker@@AAE_NPAVInterval@@@Z 08090bc0 f   c1_LinearScan.obj
 0001:0008ffa0       ?split_and_spill_intersecting_intervals@LinearScanWalker@@AAEXHH@Z 08090fa0 f   c1_LinearScan.obj
 0001:00090180       ?alloc_locked_reg@LinearScanWalker@@AAEXPAVInterval@@@Z 08091180 f   c1_LinearScan.obj
 0001:00090680       ?no_allocation_possible@LinearScanWalker@@AAE_NPAVInterval@@@Z 08091680 f   c1_LinearScan.obj
 0001:00090730       ?activate_current@LinearScanWalker@@EAE_NXZ 08091730 f   c1_LinearScan.obj
 0001:00090a20       ?add_use@LinearScan@@AAEXPAVInstruction@@HHW4IntervalUseKind@@@Z 08091a20 f   c1_LinearScan.obj
 0001:00090ae0       ?build_intervals@LinearScan@@AAEXXZ 08091ae0 f   c1_LinearScan.obj
 0001:00091650       ?resolve_exception_entry@LinearScan@@AAEXPAVBlockBegin@@HAAVMoveResolver@@@Z 08092650 f   c1_LinearScan.obj
 0001:000917d0       ?resolve_exception_entry@LinearScan@@AAEXPAVBlockBegin@@AAVMoveResolver@@@Z 080927d0 f   c1_LinearScan.obj
 0001:00091a80       ?resolve_exception_handlers@LinearScan@@AAEXXZ 08092a80 f   c1_LinearScan.obj
 0001:00091ce0       ?process_block@RegisterVerifier@@AAEXPAVBlockBegin@@@Z 08092ce0 f   c1_LinearScan.obj
 0001:00091e90       ??0LinearScan@@QAE@PAVIR@@PAVLIRGenerator@@PAVFrameMap@@@Z 08092e90 f   c1_LinearScan.obj
 0001:000920e0       ?verify@RegisterVerifier@@QAEXPAVBlockBegin@@@Z 080930e0 f   c1_LinearScan.obj
 0001:00092360       ?verify_registers@LinearScan@@AAEXXZ 08093360 f   c1_LinearScan.obj
 0001:00092430       ?verify@LinearScan@@AAEXXZ 08093430 f   c1_LinearScan.obj
 0001:000924f0       ?do_linear_scan@LinearScan@@QAEXXZ 080934f0 f   c1_LinearScan.obj
 0001:00092740       ?merge_rename@FpuStackAllocator@@AAE_NPAVFpuStackSim@@0HH@Z 08093740 f   c1_LinearScan_x86.obj
 0001:000927d0       ?insert_before@LIR_OpList@@QAEXHPBV1@@Z 080937d0 f i c1_LinearScan_x86.obj
 0001:00092870       ?check_invalid_lir_op@FpuStackAllocator@@AAEXPAVLIR_Op@@@Z 08093870 f   c1_LinearScan_x86.obj
 0001:000928f0       ?merge_insert_pop@FpuStackAllocator@@AAEXPAVLIR_List@@PAVFpuStackSim@@@Z 080938f0 f   c1_LinearScan_x86.obj
 0001:000929f0       ?fpu_num@FpuStackAllocator@@AAEHPAVLIR_OprDesc@@@Z 080939f0 f   c1_LinearScan_x86.obj
 0001:00092a60       ?tos_offset@FpuStackAllocator@@AAEHPAVLIR_OprDesc@@@Z 08093a60 f   c1_LinearScan_x86.obj
 0001:00092a80       ?to_fpu_stack@FpuStackAllocator@@QAEPAVLIR_OprDesc@@PAV2@@Z 08093a80 f   c1_LinearScan_x86.obj
 0001:00092bc0       ?to_fpu_stack_top@FpuStackAllocator@@AAEPAVLIR_OprDesc@@PAV2@_N@Z 08093bc0 f   c1_LinearScan_x86.obj
 0001:00092cc0       ?insert_exchange@FpuStackAllocator@@AAEXH@Z 08093cc0 f   c1_LinearScan_x86.obj
 0001:00092de0       ?insert_exchange@FpuStackAllocator@@AAEXPAVLIR_OprDesc@@@Z 08093de0 f   c1_LinearScan_x86.obj
 0001:00092e10       ?insert_free@FpuStackAllocator@@AAEXH@Z 08093e10 f   c1_LinearScan_x86.obj
 0001:00092ef0       ?insert_free_if_dead@FpuStackAllocator@@AAEXPAVLIR_OprDesc@@@Z 08093ef0 f   c1_LinearScan_x86.obj
 0001:00092f40       ?insert_free_if_dead@FpuStackAllocator@@AAEXPAVLIR_OprDesc@@0@Z 08093f40 f   c1_LinearScan_x86.obj
 0001:00092fa0       ?insert_copy@FpuStackAllocator@@AAEXPAVLIR_OprDesc@@0@Z 08093fa0 f   c1_LinearScan_x86.obj
 0001:000930f0       ?do_rename@FpuStackAllocator@@AAEXPAVLIR_OprDesc@@0@Z 080940f0 f   c1_LinearScan_x86.obj
 0001:00093120       ?do_push@FpuStackAllocator@@AAEXPAVLIR_OprDesc@@@Z 08094120 f   c1_LinearScan_x86.obj
 0001:00093140       ?pop_if_last_use@FpuStackAllocator@@AAEXPAVLIR_Op@@PAVLIR_OprDesc@@@Z 08094140 f   c1_LinearScan_x86.obj
 0001:00093200       ?pop_always@FpuStackAllocator@@AAEXPAVLIR_Op@@PAVLIR_OprDesc@@@Z 08094200 f   c1_LinearScan_x86.obj
 0001:00093280       ?clear_fpu_stack@FpuStackAllocator@@AAEXPAVLIR_OprDesc@@@Z 08094280 f   c1_LinearScan_x86.obj
 0001:00093350       ?handle_op1@FpuStackAllocator@@AAEXPAVLIR_Op1@@@Z 08094350 f   c1_LinearScan_x86.obj
 0001:00093910       ?handle_op2@FpuStackAllocator@@AAEXPAVLIR_Op2@@@Z 08094910 f   c1_LinearScan_x86.obj
 0001:00094100       ?merge_insert_add@FpuStackAllocator@@AAEXPAVLIR_List@@PAVFpuStackSim@@H@Z 08095100 f   c1_LinearScan_x86.obj
 0001:00094270       ?merge_insert_xchg@FpuStackAllocator@@AAEXPAVLIR_List@@PAVFpuStackSim@@H@Z 08095270 f   c1_LinearScan_x86.obj
 0001:000943a0       ?merge_fpu_stack@FpuStackAllocator@@AAEXPAVLIR_List@@PAVFpuStackSim@@1@Z 080953a0 f   c1_LinearScan_x86.obj
 0001:000947b0       ?merge_cleanup_fpu_stack@FpuStackAllocator@@AAEXPAVLIR_List@@PAVFpuStackSim@@AAVBitMap@@@Z 080957b0 f   c1_LinearScan_x86.obj
 0001:00094980       ?merge_fpu_stack_with_successors@FpuStackAllocator@@AAE_NPAVBlockBegin@@@Z 08095980 f   c1_LinearScan_x86.obj
 0001:00094f70       ?allocate_exception_handler@FpuStackAllocator@@AAEXPAVXHandler@@@Z 08095f70 f   c1_LinearScan_x86.obj
 0001:000951e0       ?compute_debug_information@FpuStackAllocator@@AAEXPAVLIR_Op@@@Z 080961e0 f   c1_LinearScan_x86.obj
 0001:00095340       ?handle_opCall@FpuStackAllocator@@AAEXPAVLIR_OpCall@@@Z 08096340 f   c1_LinearScan_x86.obj
 0001:000953e0       ?allocate_block@FpuStackAllocator@@AAEXPAVBlockBegin@@@Z 080963e0 f   c1_LinearScan_x86.obj
 0001:00095540       ?allocate@FpuStackAllocator@@QAEXXZ 08096540 f   c1_LinearScan_x86.obj
 0001:00095670       ?allocate_fpu_stack@LinearScan@@AAEXXZ 08096670 f   c1_LinearScan_x86.obj
 0001:000959c0       ?verified_entry@C1_MacroAssembler@@QAEXXZ 080969c0 f   c1_MacroAssembler_x86.obj
 0001:000959f0       ?invalidate_registers@C1_MacroAssembler@@QAEX_N00000@Z 080969f0 f   c1_MacroAssembler_x86.obj
 0001:00095aa0       ?assert_different_registers@@YAXPAVAbstractRegisterImpl@@0000@Z 08096aa0 f i c1_MacroAssembler_x86.obj
 0001:00095b00       ?lock_object@C1_MacroAssembler@@QAEHPAVRegisterImpl@@000AAVLabel@@@Z 08096b00 f   c1_MacroAssembler_x86.obj
 0001:00095dc0       ?unlock_object@C1_MacroAssembler@@QAEXPAVRegisterImpl@@00AAVLabel@@@Z 08096dc0 f   c1_MacroAssembler_x86.obj
 0001:00095fc0       ?initialize_body@C1_MacroAssembler@@QAEXPAVRegisterImpl@@0H0@Z 08096fc0 f   c1_MacroAssembler_x86.obj
 0001:00096270       ?inline_cache_check@C1_MacroAssembler@@QAEXPAVRegisterImpl@@0@Z 08097270 f   c1_MacroAssembler_x86.obj
 0001:00096380       ?build_frame@C1_MacroAssembler@@QAEXH@Z 08097380 f   c1_MacroAssembler_x86.obj
 0001:000963b0       ?verify_stack_oop@C1_MacroAssembler@@QAEXH@Z 080973b0 f   c1_MacroAssembler_x86.obj
 0001:00096420       ?verify_not_null_oop@C1_MacroAssembler@@QAEXPAVRegisterImpl@@@Z 08097420 f   c1_MacroAssembler_x86.obj
 0001:00096490       ?initialize_header@C1_MacroAssembler@@QAEXPAVRegisterImpl@@0000@Z 08097490 f   c1_MacroAssembler_x86.obj
 0001:00096650       ?initialize_object@C1_MacroAssembler@@QAEXPAVRegisterImpl@@00H00@Z 08097650 f   c1_MacroAssembler_x86.obj
 0001:000968b0       ?allocate_array@C1_MacroAssembler@@QAEXPAVRegisterImpl@@000HW4ScaleFactor@Address@@0AAVLabel@@@Z 080978b0 f   c1_MacroAssembler_x86.obj
 0001:00096a40       ?allocate_object@C1_MacroAssembler@@QAEXPAVRegisterImpl@@00HH0AAVLabel@@@Z 08097a40 f   c1_MacroAssembler_x86.obj
 0001:00096b20       ?do_ArithmeticOp@NullCheckVisitor@@UAEXPAVArithmeticOp@@@Z 08097b20 f   c1_Optimizer.obj
 0001:00096b50       ?do_Throw@NullCheckVisitor@@UAEXPAVThrow@@@Z 08097b50 f   c1_Optimizer.obj
 0001:00096b50       ?do_Intrinsic@NullCheckVisitor@@UAEXPAVIntrinsic@@@Z 08097b50 f   c1_Optimizer.obj
 0001:00096b50       ?do_ProfileCall@NullCheckVisitor@@UAEXPAVProfileCall@@@Z 08097b50 f   c1_Optimizer.obj
 0001:00096b60       ??0ValueSet@@QAE@XZ        08097b60 f i c1_Optimizer.obj
 0001:00096ba0       ?copy@ValueSet@@QAEPAV1@XZ 08097ba0 f i c1_Optimizer.obj
 0001:00096c40       ?put@ValueSet@@QAEXPAVInstruction@@@Z 08097c40 f i c1_Optimizer.obj
 0001:00096c90       ??0Optimizer@@QAE@PAVIR@@@Z 08097c90 f   c1_Optimizer.obj
 0001:00096cd0       ?eliminate_blocks@Optimizer@@QAEXXZ 08097cd0 f   c1_Optimizer.obj
 0001:00096d00       ?mark_visited@NullCheckEliminator@@AAEXPAVInstruction@@@Z 08097d00 f i c1_Optimizer.obj
 0001:00096d80       ?mark_visitable@NullCheckEliminator@@AAEXPAVInstruction@@@Z 08097d80 f i c1_Optimizer.obj
 0001:00096df0       ?set_put@NullCheckEliminator@@AAEXPAVInstruction@@@Z 08097df0 f i c1_Optimizer.obj
 0001:00096e60       ?set_remove@NullCheckEliminator@@AAEXPAVInstruction@@@Z 08097e60 f i c1_Optimizer.obj
 0001:00096ee0       ?set_state_for@NullCheckEliminator@@AAEXPAVBlockBegin@@PAVValueSet@@@Z 08097ee0 f i c1_Optimizer.obj
 0001:00096f30       ?merge_state_for@NullCheckEliminator@@AAE_NPAVBlockBegin@@PAVValueSet@@@Z 08097f30 f   c1_Optimizer.obj
 0001:00096fd0       ?block_do@CE_Eliminator@@UAEXPAVBlockBegin@@@Z 08097fd0 f i c1_Optimizer.obj
 0001:000977a0       ??0IfOp@@QAE@PAVInstruction@@W4Condition@1@000@Z 080987a0 f i c1_Optimizer.obj
 0001:00097840       ?name@IfOp@@UBEPBDXZ       08098840 f i c1_Optimizer.obj
 0001:00097850       ?visit@IfOp@@UAEXPAVInstructionVisitor@@@Z 08098850 f i c1_Optimizer.obj
 0001:00097870       ?input_values_do@IfOp@@UAEXP6AXPAPAVInstruction@@@Z@Z 08098870 f i c1_Optimizer.obj
 0001:000978a0       ?adjust_exception_edges@CE_Eliminator@@QAEXPAVBlockBegin@@0@Z 080988a0 f i c1_Optimizer.obj
 0001:00097980       ?eliminate_conditional_expressions@Optimizer@@QAEXXZ 08098980 f   c1_Optimizer.obj
 0001:000979d0       ?block_do@BlockMerger@@UAEXPAVBlockBegin@@@Z 080989d0 f i c1_Optimizer.obj
 0001:00097a10       ?try_merge@BlockMerger@@QAE_NPAVBlockBegin@@@Z 08098a10 f i c1_Optimizer.obj
 0001:00098000       ?visitable@NullCheckEliminator@@AAE_NPAVInstruction@@@Z 08099000 f i c1_Optimizer.obj
 0001:00098070       ?set_contains@NullCheckEliminator@@AAE_NPAVInstruction@@@Z 08099070 f i c1_Optimizer.obj
 0001:000980e0       ??0NullCheckEliminator@@QAE@PAVOptimizer@@@Z 080990e0 f i c1_Optimizer.obj
 0001:00098250       ?do_NewInstance@NullCheckVisitor@@UAEXPAVNewInstance@@@Z 08099250 f   c1_Optimizer.obj
 0001:00098290       ?do_NewObjectArray@NullCheckVisitor@@UAEXPAVNewObjectArray@@@Z 08099290 f   c1_Optimizer.obj
 0001:00098290       ?do_NewMultiArray@NullCheckVisitor@@UAEXPAVNewMultiArray@@@Z 08099290 f   c1_Optimizer.obj
 0001:00098290       ?do_NewTypeArray@NullCheckVisitor@@UAEXPAVNewTypeArray@@@Z 08099290 f   c1_Optimizer.obj
 0001:000982d0       ?do_ExceptionObject@NullCheckVisitor@@UAEXPAVExceptionObject@@@Z 080992d0 f   c1_Optimizer.obj
 0001:00098310       ?do_value@NullCheckEliminator@@CAXPAPAVInstruction@@@Z 08099310 f   c1_Optimizer.obj
 0001:00098370       ?iterate_one@NullCheckEliminator@@AAEXPAVBlockBegin@@@Z 08099370 f   c1_Optimizer.obj
 0001:00098990       ?handle_AccessField@NullCheckEliminator@@QAEXPAVAccessField@@@Z 08099990 f   c1_Optimizer.obj
 0001:00098b50       ?handle_ArrayLength@NullCheckEliminator@@QAEXPAVArrayLength@@@Z 08099b50 f   c1_Optimizer.obj
 0001:00098c70       ?handle_LoadIndexed@NullCheckEliminator@@QAEXPAVLoadIndexed@@@Z 08099c70 f   c1_Optimizer.obj
 0001:00098d90       ?handle_StoreIndexed@NullCheckEliminator@@QAEXPAVStoreIndexed@@@Z 08099d90 f   c1_Optimizer.obj
 0001:00098e20       ?handle_NullCheck@NullCheckEliminator@@QAEXPAVNullCheck@@@Z 08099e20 f   c1_Optimizer.obj
 0001:00098ec0       ?handle_Invoke@NullCheckEliminator@@QAEXPAVInvoke@@@Z 08099ec0 f   c1_Optimizer.obj
 0001:00098f20       ?handle_AccessMonitor@NullCheckEliminator@@QAEXPAVAccessMonitor@@@Z 08099f20 f   c1_Optimizer.obj
 0001:00098fb0       ?handle_Phi@NullCheckEliminator@@QAEXPAVPhi@@@Z 08099fb0 f   c1_Optimizer.obj
 0001:00099050       ?do_Phi@NullCheckVisitor@@UAEXPAVPhi@@@Z 0809a050 f   c1_Optimizer.obj
 0001:00099060       ?do_LoadField@NullCheckVisitor@@UAEXPAVLoadField@@@Z 0809a060 f   c1_Optimizer.obj
 0001:00099060       ?do_StoreField@NullCheckVisitor@@UAEXPAVStoreField@@@Z 0809a060 f   c1_Optimizer.obj
 0001:00099070       ?do_ArrayLength@NullCheckVisitor@@UAEXPAVArrayLength@@@Z 0809a070 f   c1_Optimizer.obj
 0001:00099080       ?do_LoadIndexed@NullCheckVisitor@@UAEXPAVLoadIndexed@@@Z 0809a080 f   c1_Optimizer.obj
 0001:00099090       ?do_StoreIndexed@NullCheckVisitor@@UAEXPAVStoreIndexed@@@Z 0809a090 f   c1_Optimizer.obj
 0001:000990a0       ?do_NullCheck@NullCheckVisitor@@UAEXPAVNullCheck@@@Z 0809a0a0 f   c1_Optimizer.obj
 0001:000990b0       ?do_Invoke@NullCheckVisitor@@UAEXPAVInvoke@@@Z 0809a0b0 f   c1_Optimizer.obj
 0001:000990c0       ?do_MonitorExit@NullCheckVisitor@@UAEXPAVMonitorExit@@@Z 0809a0c0 f   c1_Optimizer.obj
 0001:000990c0       ?do_MonitorEnter@NullCheckVisitor@@UAEXPAVMonitorEnter@@@Z 0809a0c0 f   c1_Optimizer.obj
 0001:000990d0       ?iterate_all@NullCheckEliminator@@AAEXXZ 0809a0d0 f   c1_Optimizer.obj
 0001:00099120       ?eliminate_null_checks@Optimizer@@QAEXXZ 0809a120 f   c1_Optimizer.obj
 0001:00099540       ?is_subtype_of@Klass@@QBE_NPAVklassOopDesc@@@Z 0809a540 f i c1_Runtime1.obj
 0001:00099570       ?set_info@StubAssembler@@QAEXPBD_N@Z 0809a570 f   c1_Runtime1.obj
 0001:00099590       ?set_frame_size@StubAssembler@@QAEXH@Z 0809a590 f   c1_Runtime1.obj
 0001:000995c0       ?set_num_rt_args@StubAssembler@@QAEXH@Z 0809a5c0 f   c1_Runtime1.obj
 0001:000995f0       ?get_buffer_blob@Runtime1@@SAPAVBufferBlob@@XZ 0809a5f0 f   c1_Runtime1.obj
 0001:00099650       ?trace_block_entry@Runtime1@@SAXH@Z 0809a650 f   c1_Runtime1.obj
 0001:00099720       ?log2_element_size@arrayKlass@@QBEHXZ 0809a720 f i c1_Runtime1.obj
 0001:00099770       ?print_statistics@Runtime1@@SAXXZ 0809a770 f   c1_Runtime1.obj
 0001:000999d0       ??0RelocIterator@@QAE@PAVCodeBlob@@PAE1@Z 0809a9d0 f i c1_Runtime1.obj
 0001:00099a10       ?cast@instanceKlass@@SAPAV1@PAVklassOopDesc@@@Z 0809aa10 f i c1_Runtime1.obj
 0001:00099a50       ?pc_desc_at@nmethod@@QAEPAVPcDesc@@PAE@Z 0809aa50 f i c1_Runtime1.obj
 0001:00099a80       ?set_data@NativeMovConstReg@@QAEXH@Z 0809aa80 f i c1_Runtime1.obj
 0001:00099aa0       ?returns_to_call_stub@StubRoutines@@SA_NPAE@Z 0809aaa0 f i c1_Runtime1.obj
 0001:00099ad0       ?stack_yellow_zone_enabled@JavaThread@@QAE_NXZ 0809aad0 f i c1_Runtime1.obj
 0001:00099b10       ?Throwable_klass@SystemDictionary@@SAPAVklassOopDesc@@XZ 0809ab10 f i c1_Runtime1.obj
 0001:00099b40       ??0frame@@QAE@PAH0PAE@Z    0809ab40 f i c1_Runtime1.obj
 0001:00099bb0       ??0frame@@QAE@PAH0@Z       0809abb0 f i c1_Runtime1.obj
 0001:00099c00       ??1HandleMarkCleaner@@QAE@XZ 0809ac00 f i c1_Runtime1.obj
 0001:00099c50       ?transition_from_java@ThreadStateTransition@@SAXPAVJavaThread@@W4JavaThreadState@@@Z 0809ac50 f i c1_Runtime1.obj
 0001:00099c90       ??1ThreadInVMfromJava@@QAE@XZ 0809ac90 f i c1_Runtime1.obj
 0001:00099cd0       ??0ThreadInVMfromJava@@QAE@PAVJavaThread@@@Z 0809acd0 f i c1_Runtime1.obj
 0001:00099cd0       ??0ThreadInVMfromJavaNoAsyncException@@QAE@PAVJavaThread@@@Z 0809acd0 f i c1_Runtime1.obj
 0001:00099d50       ??1ThreadInVMfromJavaNoAsyncException@@QAE@XZ 0809ad50 f i c1_Runtime1.obj
 0001:00099d90       ??1VMEntryWrapper@@QAE@XZ  0809ad90 f i c1_Runtime1.obj
 0001:00099df0       ?cast@objArrayKlass@@SAPAV1@PAVklassOopDesc@@@Z 0809adf0 f i c1_Runtime1.obj
 0001:00099e30       ?Bytecode_instanceof_at@@YAPAVBytecode_instanceof@@PAE@Z 0809ae30 f i c1_Runtime1.obj
 0001:00099e70       ?nm@vframeStreamCommon@@QBEPAVnmethod@@XZ 0809ae70 f i c1_Runtime1.obj
 0001:00099ea0       ?fill_from_compiled_native_frame@vframeStreamCommon@@IAEXXZ 0809aea0 f i c1_Runtime1.obj
 0001:00099f00       ?setup_code_buffer@Runtime1@@SAXPAVCodeBuffer@@H@Z 0809af00 f   c1_Runtime1.obj
 0001:00099f60       ?unimplemented_entry@Runtime1@@CAXPAVJavaThread@@W4StubID@1@@Z 0809af60 f   c1_Runtime1.obj
 0001:0009a0a0       ?throw_range_check_exception@Runtime1@@CAXPAVJavaThread@@H@Z 0809b0a0 f   c1_Runtime1.obj
 0001:0009a200       ?throw_index_exception@Runtime1@@CAXPAVJavaThread@@H@Z 0809b200 f   c1_Runtime1.obj
 0001:0009a360       ?throw_div0_exception@Runtime1@@CAXPAVJavaThread@@@Z 0809b360 f   c1_Runtime1.obj
 0001:0009a4a0       ?throw_null_pointer_exception@Runtime1@@CAXPAVJavaThread@@@Z 0809b4a0 f   c1_Runtime1.obj
 0001:0009a5e0       ?pd_last_frame@JavaThread@@AAE?AVframe@@XZ 0809b5e0 f i c1_Runtime1.obj
 0001:0009a660       ?conjoint_bytes@Copy@@SAXPAX0I@Z 0809b660 f i c1_Runtime1.obj
 0001:0009a690       ?conjoint_oops_atomic@Copy@@SAXPAPAVoopDesc@@0I@Z 0809b690 f i c1_Runtime1.obj
 0001:0009a700       ?is_a@oopDesc@@QBE_NPAVklassOopDesc@@@Z 0809b700 f i c1_Runtime1.obj
 0001:0009a730       ?is_method@oopDesc@@QBE_NXZ 0809b730 f i c1_Runtime1.obj
 0001:0009a740       ?read_oop@DebugInfoReadStream@@QAEPAVoopDesc@@XZ 0809b740 f i c1_Runtime1.obj
 0001:0009a7a0       ?java_code@Bytecode@@QBE?AW4Code@Bytecodes@@XZ 0809b7a0 f i c1_Runtime1.obj
 0001:0009a800       ?verify@Bytecode_checkcast@@QBEXXZ 0809b800 f i c1_Runtime1.obj
 0001:0009a870       ?Bytecode_checkcast_at@@YAPAVBytecode_checkcast@@PAE@Z 0809b870 f i c1_Runtime1.obj
 0001:0009a890       ?Bytecode_new_at@@YAPAVBytecode_new@@PAE@Z 0809b890 f i c1_Runtime1.obj
 0001:0009a8d0       ?Bytecode_multianewarray_at@@YAPAVBytecode_multianewarray@@PAE@Z 0809b8d0 f i c1_Runtime1.obj
 0001:0009a910       ?Bytecode_anewarray_at@@YAPAVBytecode_anewarray@@PAE@Z 0809b910 f i c1_Runtime1.obj
 0001:0009a950       ?verify@Bytecode_loadconstant@@QBEXXZ 0809b950 f i c1_Runtime1.obj
 0001:0009a9d0       ?Bytecode_loadconstant_at@@YAPAVBytecode_loadconstant@@QAVmethodOopDesc@@PAE@Z 0809b9d0 f i c1_Runtime1.obj
 0001:0009a9f0       ?fill_from_compiled_frame@vframeStreamCommon@@IAEXH@Z 0809b9f0 f i c1_Runtime1.obj
 0001:0009ac10       ??0methodHandle@@QAE@PAVThread@@PAVmethodOopDesc@@@Z 0809bc10 f i c1_Runtime1.obj
 0001:0009ac70       ?generate_blob_for@Runtime1@@CAXW4StubID@1@@Z 0809bc70 f   c1_Runtime1.obj
 0001:0009ae90       ?initialize@Runtime1@@SAXXZ 0809be90 f   c1_Runtime1.obj
 0001:0009af40       ?blob_for@Runtime1@@SAPAVCodeBlob@@W4StubID@1@@Z 0809bf40 f   c1_Runtime1.obj
 0001:0009af80       ?new_instance@Runtime1@@CAXPAVJavaThread@@PAVklassOopDesc@@@Z 0809bf80 f   c1_Runtime1.obj
 0001:0009b1b0       ?new_multi_array@Runtime1@@CAXPAVJavaThread@@PAVklassOopDesc@@HPAH@Z 0809c1b0 f   c1_Runtime1.obj
 0001:0009b3b0       ?throw_array_store_exception@Runtime1@@CAXPAVJavaThread@@@Z 0809c3b0 f   c1_Runtime1.obj
 0001:0009b4f0       ?throw_class_cast_exception@Runtime1@@CAXPAVJavaThread@@PAVoopDesc@@@Z 0809c4f0 f   c1_Runtime1.obj
 0001:0009b6b0       ?throw_incompatible_class_change_error@Runtime1@@CAXPAVJavaThread@@@Z 0809c6b0 f   c1_Runtime1.obj
 0001:0009b830       ?monitorenter@Runtime1@@CAXPAVJavaThread@@PAVoopDesc@@PAVBasicObjectLock@@@Z 0809c830 f   c1_Runtime1.obj
 0001:0009ba50       ?monitorexit@Runtime1@@CAXPAVJavaThread@@PAVBasicObjectLock@@@Z 0809ca50 f   c1_Runtime1.obj
 0001:0009bcd0       ?primitive_arraycopy@Runtime1@@SAXPAVHeapWord@@0H@Z 0809ccd0 f   c1_Runtime1.obj
 0001:0009bdb0       ?oop_arraycopy@Runtime1@@SAXPAVHeapWord@@0H@Z 0809cdb0 f   c1_Runtime1.obj
 0001:0009bf10       ??$obj_arraycopy_work@PAVoopDesc@@@@YAHPAVoopDesc@@PAPAV0@01H@Z 0809cf10 f i c1_Runtime1.obj
 0001:0009c030       ?klass_at@constantPoolOopDesc@@QAEPAVklassOopDesc@@HPAVThread@@@Z 0809d030 f i c1_Runtime1.obj
 0001:0009c1b0       ?name_for_address@Runtime1@@SAPBDPAE@Z 0809d1b0 f   c1_Runtime1.obj
 0001:0009c410       ?new_type_array@Runtime1@@CAXPAVJavaThread@@PAVklassOopDesc@@H@Z 0809d410 f   c1_Runtime1.obj
 0001:0009c5f0       ?new_object_array@Runtime1@@CAXPAVJavaThread@@PAVklassOopDesc@@H@Z 0809d5f0 f   c1_Runtime1.obj
 0001:0009cd10       ?exception_handler_for_pc@Runtime1@@CAPAEPAVJavaThread@@@Z 0809dd10 f   c1_Runtime1.obj
 0001:0009cd90       ?fill_from_frame@vframeStreamCommon@@IAE_NXZ 0809dd90 f i c1_Runtime1.obj
 0001:0009ceb0       ??$obj_at_addr@PAVoopDesc@@@objArrayOopDesc@@ABEPAPAVoopDesc@@H@Z 0809deb0 f i c1_Runtime1.obj
 0001:0009cf20       ?arraycopy@Runtime1@@SAHPAVoopDesc@@H0HH@Z 0809df20 f   c1_Runtime1.obj
 0001:0009d160       ??0vframeStream@@QAE@PAVJavaThread@@_N@Z 0809e160 f i c1_Runtime1.obj
 0001:0009d250       ?post_jvmti_exception_throw@Runtime1@@CAXPAVJavaThread@@@Z 0809e250 f   c1_Runtime1.obj
 0001:0009d3b0       ?patch_code@Runtime1@@CAXPAVJavaThread@@W4StubID@1@@Z 0809e3b0 f   c1_Runtime1.obj
 0001:0009dee0       ?move_klass_patching@Runtime1@@CAHPAVJavaThread@@@Z 0809eee0 f   c1_Runtime1.obj
 0001:0009df30       ?access_field_patching@Runtime1@@CAHPAVJavaThread@@@Z 0809ef30 f   c1_Runtime1.obj
 0001:0009df80       ??1StubFrame@@QAE@XZ       0809ef80 f   c1_Runtime1_x86.obj
 0001:0009dfa0       ?addptr@MacroAssembler@@QAEXPAVRegisterImpl@@VAddress@@@Z 0809efa0 f i c1_Runtime1_x86.obj
 0001:0009dfd0       ?fldcw@MacroAssembler@@QAEXVAddress@@@Z 0809efd0 f i c1_Runtime1_x86.obj
 0001:0009e000       ?call_RT@StubAssembler@@QAEHPAVRegisterImpl@@0PAEH@Z 0809f000 f   c1_Runtime1_x86.obj
 0001:0009e4a0       ?call_RT@StubAssembler@@QAEHPAVRegisterImpl@@0PAE0@Z 0809f4a0 f   c1_Runtime1_x86.obj
 0001:0009e4d0       ?call_RT@StubAssembler@@QAEHPAVRegisterImpl@@0PAE00@Z 0809f4d0 f   c1_Runtime1_x86.obj
 0001:0009e510       ?call_RT@StubAssembler@@QAEHPAVRegisterImpl@@0PAE000@Z 0809f510 f   c1_Runtime1_x86.obj
 0001:0009e550       ??0StubFrame@@QAE@PAVStubAssembler@@PBD_N@Z 0809f550 f   c1_Runtime1_x86.obj
 0001:0009e580       ?load_argument@StubFrame@@QAEXHPAVRegisterImpl@@@Z 0809f580 f   c1_Runtime1_x86.obj
 0001:0009e5f0       ?generate_unwind_exception@Runtime1@@CAXPAVStubAssembler@@@Z 0809f5f0 f   c1_Runtime1_x86.obj
 0001:0009faa0       ?generate_exception_throw@Runtime1@@CAPAVOopMapSet@@PAVStubAssembler@@PAE_N@Z 080a0aa0 f   c1_Runtime1_x86.obj
 0001:0009fb90       ?generate_handle_exception@Runtime1@@CAXPAVStubAssembler@@PAVOopMapSet@@PAVOopMap@@_N@Z 080a0b90 f   c1_Runtime1_x86.obj
 0001:000a0090       ?generate_patching@Runtime1@@CAPAVOopMapSet@@PAVStubAssembler@@PAE@Z 080a1090 f   c1_Runtime1_x86.obj
 0001:000a0640       ?generate_code_for@Runtime1@@CAPAVOopMapSet@@W4StubID@1@PAVStubAssembler@@@Z 080a1640 f   c1_Runtime1_x86.obj
 0001:000a2310       ?set_value_map_of@GlobalValueNumbering@@QAEXPAVBlockBegin@@PAVValueMap@@@Z 080a3310 f i c1_ValueMap.obj
 0001:000a23a0       ?kill_memory@ValueMap@@QAEXXZ 080a33a0 f   c1_ValueMap.obj
 0001:000a2530       ?kill_array@ValueMap@@QAEXPAVValueType@@@Z 080a3530 f   c1_ValueMap.obj
 0001:000a26c0       ?kill_field@ValueMap@@QAEXPAVciField@@@Z 080a36c0 f   c1_ValueMap.obj
 0001:000a28b0       ?kill_exception@ValueMap@@QAEXXZ 080a38b0 f   c1_ValueMap.obj
 0001:000a2a50       ?kill_all@ValueMap@@QAEXXZ 080a3a50 f   c1_ValueMap.obj
 0001:000a2ac0       ?process@ShortLoopOptimizer@@QAE_NPAVBlockBegin@@@Z 080a3ac0 f   c1_ValueMap.obj
 0001:000a2d20       ??0intArray@@QAE@HH@Z      080a3d20 f i c1_FrameMap.obj
 0001:000a2d20       ??0ValueMapArray@@QAE@HQAVValueMap@@@Z 080a3d20 f i c1_ValueMap.obj
 0001:000a2d20       ??0ScopeValueArray@@QAE@HQAVScopeValue@@@Z 080a3d20 f i c1_LinearScan.obj
 0001:000a2d20       ??0ValueMapEntryArray@@QAE@HQAVValueMapEntry@@@Z 080a3d20 f i c1_ValueMap.obj
 0001:000a2d80       ??0ValueMap@@QAE@XZ        080a3d80 f   c1_ValueMap.obj
 0001:000a2df0       ??0ValueMap@@QAE@PAV0@@Z   080a3df0 f   c1_ValueMap.obj
 0001:000a2ee0       ?print@ValueMap@@QAEXXZ    080a3ee0 f   c1_ValueMap.obj
 0001:000a3090       ??0ShortLoopOptimizer@@QAE@PAVGlobalValueNumbering@@@Z 080a4090 f i c1_ValueMap.obj
 0001:000a30f0       ?kill_memory@ShortLoopOptimizer@@EAEXXZ 080a40f0 f i c1_ValueMap.obj
 0001:000a3100       ?kill_field@ShortLoopOptimizer@@EAEXPAVciField@@@Z 080a4100 f i c1_ValueMap.obj
 0001:000a3110       ?kill_array@ShortLoopOptimizer@@EAEXPAVValueType@@@Z 080a4110 f i c1_ValueMap.obj
 0001:000a3120       ?increase_table_size@ValueMap@@AAEXXZ 080a4120 f   c1_ValueMap.obj
 0001:000a33c0       ?find_insert@ValueMap@@QAEPAVInstruction@@PAV2@@Z 080a43c0 f   c1_ValueMap.obj
 0001:000a3660       ??0GlobalValueNumbering@@QAE@PAVIR@@@Z 080a4660 f   c1_ValueMap.obj
 0001:000a3c70       ?kill_array@GlobalValueNumbering@@UAEXPAVValueType@@@Z 080a4c70 f i c1_ValueMap.obj
 0001:000a3c70       ?kill_array@ValueNumberingEffects@@UAEXPAVValueType@@@Z 080a4c70 f i c1_GraphBuilder.obj
 0001:000a3c80       ?caller_state@ValueStack@@QBEPAV1@XZ 080a4c80 f   c1_ValueStack.obj
 0001:000a3c90       ??0Phi@@QAE@PAVValueType@@PAVBlockBegin@@H@Z 080a4c90 f i c1_ValueStack.obj
 0001:000a3d70       ?name@Phi@@UBEPBDXZ        080a4d70 f i c1_ValueStack.obj
 0001:000a3d80       ?visit@Phi@@UAEXPAVInstructionVisitor@@@Z 080a4d80 f i c1_ValueStack.obj
 0001:000a3da0       ?is_same_across_scopes@ValueStack@@QAE_NPAV1@@Z 080a4da0 f   c1_ValueStack.obj
 0001:000a3f00       ?clear_locals@ValueStack@@QAEXXZ 080a4f00 f   c1_ValueStack.obj
 0001:000a3f40       ?replace_locals@ValueStack@@QAEXPAV1@@Z 080a4f40 f   c1_ValueStack.obj
 0001:000a3fd0       ?pin_stack_for_linear_scan@ValueStack@@QAEXXZ 080a4fd0 f   c1_ValueStack.obj
 0001:000a40f0       ?apply@ValueStack@@CAXVValues@@P6AXPAPAVInstruction@@@Z@Z 080a50f0 f   c1_ValueStack.obj
 0001:000a41f0       ?lock@ValueStack@@QAEHPAVIRScope@@PAVInstruction@@@Z 080a51f0 f   c1_ValueStack.obj
 0001:000a4240       ?unlock@ValueStack@@QAEHXZ 080a5240 f   c1_ValueStack.obj
 0001:000a4270       ?setup_phi_for_stack@ValueStack@@QAEXPAVBlockBegin@@H@Z 080a5270 f   c1_ValueStack.obj
 0001:000a4380       ?setup_phi_for_local@ValueStack@@QAEXPAVBlockBegin@@H@Z 080a5380 f   c1_ValueStack.obj
 0001:000a44a0       ?print@ValueStack@@QAEXXZ  080a54a0 f   c1_ValueStack.obj
 0001:000a46a0       ??0ValueStack@@QAE@PAVIRScope@@HH@Z 080a56a0 f   c1_ValueStack.obj
 0001:000a4780       ?copy@ValueStack@@QAEPAV1@XZ 080a5780 f   c1_ValueStack.obj
 0001:000a4800       ?copy_locks@ValueStack@@QAEPAV1@XZ 080a5800 f   c1_ValueStack.obj
 0001:000a4960       ?pop_arguments@ValueStack@@QAEPAVValues@@H@Z 080a5960 f   c1_ValueStack.obj
 0001:000a4a70       ?push_scope@ValueStack@@QAEPAV1@PAVIRScope@@@Z 080a5a70 f   c1_ValueStack.obj
 0001:000a4b80       ?pop_scope@ValueStack@@QAEPAV1@XZ 080a5b80 f   c1_ValueStack.obj
 0001:000a4d80       ?values_do@ValueStack@@QAEXP6AXPAPAVInstruction@@@Z@Z 080a5d80 f   c1_ValueStack.obj
 0001:000a4e80       ?create_variable@PerfDataManager@@SAPAVPerfLongVariable@@W4CounterNS@@PBDW4Units@PerfData@@_JPAVThread@@@Z 080a5e80 f i cSpaceCounters.obj
 0001:000a4eb0       ?take_sample@ContiguousSpaceUsedHelper@@UAE_JXZ 080a5eb0 f i cSpaceCounters.obj
 0001:000a4ec0       ??0CSpaceCounters@@QAE@PBDHIPAVContiguousSpace@@PAVGenerationCounters@@@Z 080a5ec0 f   cSpaceCounters.obj
 0001:000a5100       ?contains@MemRegion@@QBE_NV1@@Z 080a6100 f i cardTableExtension.obj
 0001:000a5130       ?do_oop_v@OopClosure@@UAEXPAPAVoopDesc@@@Z 080a6130 f i cardTableExtension.obj
 0001:000a5140       ?do_oop_v@OopClosure@@UAEXPAI@Z 080a6140 f i cardTableExtension.obj
 0001:000a5150       ?should_remember_klasses@OopClosure@@UBE?B_NXZ 080a6150 f i cardTableExtension.obj
 0001:000a5180       ?addr_for@CardTableModRefBS@@QBEPAVHeapWord@@PBC@Z 080a6180 f i cardTableExtension.obj
 0001:000a51f0       ?block_for_addr@ObjectStartArray@@IBEPACPAX@Z 080a61f0 f i cardTableExtension.obj
 0001:000a5260       ?offset_addr_for_block@ObjectStartArray@@IBEPAVHeapWord@@PAC@Z 080a6260 f i cardTableExtension.obj
 0001:000a52f0       ?size@TaskQueueSuper@@QAEIXZ 080a62f0 f i cardTableExtension.obj
 0001:000a5310       ?verify_all_young_refs_imprecise@CardTableExtension@@SAXXZ 080a6310 f   cardTableExtension.obj
 0001:000a53b0       ?resize_update_committed_table@CardTableExtension@@AAEXHVMemRegion@@@Z 080a63b0 f   cardTableExtension.obj
 0001:000a5420       ?resize_update_covered_table@CardTableExtension@@AAEXHVMemRegion@@@Z 080a6420 f   cardTableExtension.obj
 0001:000a5520       ?lowest_prev_committed_start@CardTableExtension@@QBEPAVHeapWord@@H@Z 080a6520 f   cardTableExtension.obj
 0001:000a55c0       ?push_contents@oopDesc@@QAEXPAVPSPromotionManager@@@Z 080a65c0 f i cardTableExtension.obj
 0001:000a5620       ?do_object@CheckForUnmarkedObjects@@UAEXPAVoopDesc@@@Z 080a6620 f i cardTableExtension.obj
 0001:000a56a0       ??0CheckForUnmarkedOops@@QAE@PAVPSYoungGen@@PAVCardTableExtension@@@Z 080a66a0 f i cardTableExtension.obj
 0001:000a56d0       ?oop_iterate@oopDesc@@QAEHPAVOopClosure@@@Z 080a66d0 f i cardTableExtension.obj
 0001:000a56f0       ?do_oop@CheckForUnmarkedOops@@UAEXPAPAVoopDesc@@@Z 080a66f0 f i cardTableExtension.obj
 0001:000a5700       ??$do_oop_work@PAVoopDesc@@@CheckForUnmarkedOops@@IAEXPAPAVoopDesc@@@Z 080a6700 f i cardTableExtension.obj
 0001:000a5780       ?do_oop@CheckForUnmarkedOops@@UAEXPAI@Z 080a6780 f i cardTableExtension.obj
 0001:000a5790       ??$do_oop_work@I@CheckForUnmarkedOops@@IAEXPAI@Z 080a6790 f i cardTableExtension.obj
 0001:000a5820       ?do_oop@CheckForPreciseMarks@@UAEXPAPAVoopDesc@@@Z 080a6820 f i cardTableExtension.obj
 0001:000a5830       ??$do_oop_work@PAVoopDesc@@@CheckForPreciseMarks@@IAEXPAPAVoopDesc@@@Z 080a6830 f i cardTableExtension.obj
 0001:000a58c0       ?do_oop@CheckForPreciseMarks@@UAEXPAI@Z 080a68c0 f i cardTableExtension.obj
 0001:000a58d0       ??$do_oop_work@I@CheckForPreciseMarks@@IAEXPAI@Z 080a68d0 f i cardTableExtension.obj
 0001:000a5970       ?resize_commit_uncommit@CardTableExtension@@AAEXHVMemRegion@@@Z 080a6970 f   cardTableExtension.obj
 0001:000a5b70       ?object_start@ObjectStartArray@@QBEPAVHeapWord@@PAV2@@Z 080a6b70 f i cardTableExtension.obj
 0001:000a5c40       ?scavenge_contents@CardTableExtension@@QAEXPAVObjectStartArray@@PAVMutableSpace@@PAVHeapWord@@PAVPSPromotionManager@@@Z 080a6c40 f   cardTableExtension.obj
 0001:000a6080       ?scavenge_contents_parallel@CardTableExtension@@QAEXPAVObjectStartArray@@PAVMutableSpace@@PAVHeapWord@@PAVPSPromotionManager@@I@Z 080a7080 f   cardTableExtension.obj
 0001:000a68b0       ?resize_covered_region_by_end@CardTableExtension@@QAEXHVMemRegion@@@Z 080a78b0 f   cardTableExtension.obj
 0001:000a6b10       ?resize_covered_region@CardTableExtension@@UAEXVMemRegion@@@Z 080a7b10 f   cardTableExtension.obj
 0001:000a6c20       ?find_covering_region_containing@CardTableModRefBS@@IAEHPAVHeapWord@@@Z 080a7c20 f   cardTableModRefBS.obj
 0001:000a6c70       ?largest_prev_committed_end@CardTableModRefBS@@IBEPAVHeapWord@@H@Z 080a7c70 f   cardTableModRefBS.obj
 0001:000a6ca0       ?committed_unique_to_self@CardTableModRefBS@@IBE?AVMemRegion@@HV2@@Z 080a7ca0 f   cardTableModRefBS.obj
 0001:000a6d30       ?ct_max_alignment_constraint@CardTableModRefBS@@SAIXZ 080a7d30 f   cardTableModRefBS.obj
 0001:000a6d40       ?verify@CardTableModRefBS@@QAEXXZ 080a7d40 f   cardTableModRefBS.obj
 0001:000a6d40       ?verify_guard@CardTableModRefBS@@QAEXXZ 080a7d40 f   cardTableModRefBS.obj
 0001:000a6d70       ?card_may_have_been_dirty@CardTableModRefBS@@MAE_NC@Z 080a7d70 f i cardTableModRefBS.obj
 0001:000a6d70       ?card_will_be_scanned@CardTableModRefBS@@MAE_NC@Z 080a7d70 f i cardTableModRefBS.obj
 0001:000a6d90       ?index_for@CardTableModRefBS@@QAEIPAX@Z 080a7d90 f i cardTableModRefBS.obj
 0001:000a6de0       ?compute_byte_map_size@CardTableModRefBS@@IAEIXZ 080a7de0 f i cardTableModRefBS.obj
 0001:000a6e40       ?find_covering_region_by_base@CardTableModRefBS@@IAEHPAVHeapWord@@@Z 080a7e40 f   cardTableModRefBS.obj
 0001:000a6f60       ?resize_covered_region@CardTableModRefBS@@MAEXVMemRegion@@@Z 080a7f60 f   cardTableModRefBS.obj
 0001:000a7770       ?write_ref_field_work@CardTableModRefBS@@MAEXPAXPAVoopDesc@@@Z 080a8770 f   cardTableModRefBS.obj
 0001:000a7790       ?mark_card_deferred@CardTableModRefBS@@QAE_NI@Z 080a8790 f   cardTableModRefBS.obj
 0001:000a77f0       ?non_clean_card_iterate_work@CardTableModRefBS@@IAEXVMemRegion@@PAVMemRegionClosure@@_N@Z 080a87f0 f   cardTableModRefBS.obj
 0001:000a79c0       ?dirty_MemRegion@CardTableModRefBS@@IAEXVMemRegion@@@Z 080a89c0 f   cardTableModRefBS.obj
 0001:000a7a50       ?invalidate@CardTableModRefBS@@UAEXVMemRegion@@_N@Z 080a8a50 f   cardTableModRefBS.obj
 0001:000a7b10       ?clear_MemRegion@CardTableModRefBS@@IAEXVMemRegion@@@Z 080a8b10 f   cardTableModRefBS.obj
 0001:000a7b90       ?clear@CardTableModRefBS@@UAEXVMemRegion@@@Z 080a8b90 f   cardTableModRefBS.obj
 0001:000a7c00       ?dirty@CardTableModRefBS@@QAEXVMemRegion@@@Z 080a8c00 f   cardTableModRefBS.obj
 0001:000a7c50       ?dirty_card_iterate@CardTableModRefBS@@QAEXVMemRegion@@PAVMemRegionClosure@@@Z 080a8c50 f   cardTableModRefBS.obj
 0001:000a7d90       ?dirty_card_range_after_reset@CardTableModRefBS@@QAE?AVMemRegion@@V2@_NH@Z 080a8d90 f   cardTableModRefBS.obj
 0001:000a7f10       ?do_MemRegion@GuaranteeNotModClosure@@UAEXVMemRegion@@@Z 080a8f10 f i cardTableModRefBS.obj
 0001:000a7f40       ?verify_clean_region@CardTableModRefBS@@UAEXVMemRegion@@@Z 080a8f40 f   cardTableModRefBS.obj
 0001:000a7f80       ?do_MemRegion@GuaranteeDirtyClosure@@UAEXVMemRegion@@@Z 080a8f80 f i cardTableModRefBS.obj
 0001:000a7fb0       ?equals@MemRegion@@QBE_NV1@@Z 080a8fb0 f i cardTableModRefBS.obj
 0001:000a7ff0       ?verify_dirty_region@CardTableModRefBS@@QAEXVMemRegion@@@Z 080a8ff0 f   cardTableModRefBS.obj
 0001:000a8050       ?card_will_be_scanned@CardTableModRefBSForCTRS@@MAE_NC@Z 080a9050 f   cardTableModRefBS.obj
 0001:000a8080       ?card_may_have_been_dirty@CardTableModRefBSForCTRS@@MAE_NC@Z 080a9080 f   cardTableModRefBS.obj
 0001:000a80b0       ?write_ref_field_pre_work@BarrierSet@@EAEXPAXPAVoopDesc@@@Z 080a90b0 f i cardTableModRefBS.obj
 0001:000a80d0       ?is_a@ModRefBarrierSet@@UAE_NW4Name@BarrierSet@@@Z 080a90d0 f i cardTableModRefBS.obj
 0001:000a80f0       ?compiled_match@ProfilerNode@@UBE_NPAVmethodOopDesc@@@Z 080a90f0 f i fprofiler.obj
 0001:000a80f0       ?interpreted_match@ProfilerNode@@UBE_NPAVmethodOopDesc@@@Z 080a90f0 f i fprofiler.obj
 0001:000a80f0       ?possible_gc_point@OopMapForCacheEntry@@EAE_NPAVBytecodeStream@@@Z 080a90f0 f i oopMapCache.obj
 0001:000a80f0       ?equals@ConstantOopWriteValue@@UBE_NPAVScopeValue@@@Z 080a90f0 f i c1_LinearScan.obj
 0001:000a80f0       ?equals@ScopeValue@@UBE_NPAV1@@Z 080a90f0 f i c1_LinearScan.obj
 0001:000a80f0       ?possible_gc_point@GeneratePairingInfo@@EAE_NPAVBytecodeStream@@@Z 080a90f0 f i ciMethod.obj
 0001:000a80f0       ?read_ref_needs_barrier@ModRefBarrierSet@@UAE_NPAX@Z 080a90f0 f i cardTableModRefBS.obj
 0001:000a80f0       ?equals@ConstantDoubleValue@@UBE_NPAVScopeValue@@@Z 080a90f0 f i debugInfo.obj
 0001:000a80f0       ?equals@ConstantIntValue@@UBE_NPAVScopeValue@@@Z 080a90f0 f i c1_LinearScan.obj
 0001:000a80f0       ?caller_must_gc_arguments@CodeBlob@@UBE_NPAVJavaThread@@@Z 080a90f0 f i codeBlob.obj
 0001:000a80f0       ?possible_gc_point@ResolveOopMapConflicts@@EAE_NPAVBytecodeStream@@@Z 080a90f0 f i rewriter.obj
 0001:000a80f0       ?oop_partially_loaded@Klass@@UBE_NPAVoopDesc@@@Z 080a90f0 f i arrayKlassKlass.obj
 0001:000a80f0       ?is_equal@Instruction@@UBE_NPAV1@@Z 080a90f0 f i c1_Canonicalizer.obj
 0001:000a80f0       ?unknown_compiled_match@ProfilerNode@@UBE_NPBVCodeBlob@@@Z 080a90f0 f i fprofiler.obj
 0001:000a80f0       ?equals@ConstantOopReadValue@@UBE_NPAVScopeValue@@@Z 080a90f0 f i debugInfo.obj
 0001:000a80f0       ?equals@ConstantLongValue@@UBE_NPAVScopeValue@@@Z 080a90f0 f i debugInfo.obj
 0001:000a8100       ?lab_is_valid@PSPromotionLAB@@MAE_NVMemRegion@@@Z 080a9100 f i psPromotionManager.obj
 0001:000a8100       ?stub_match@ProfilerNode@@UBE_NPAVmethodOopDesc@@PBD@Z 080a9100 f i fprofiler.obj
 0001:000a8100       ?read_prim_needs_barrier@ModRefBarrierSet@@UAE_NPAVHeapWord@@I@Z 080a9100 f i cardTableModRefBS.obj
 0001:000a8100       ?adjust@ChangeItem@@UAE_NHH@Z 080a9100 f i relocator.obj
 0001:000a8100       ?runtimeStub_match@ProfilerNode@@UBE_NPBVCodeBlob@@PBD@Z 080a9100 f i fprofiler.obj
 0001:000a8110       ?write_prim_needs_barrier@ModRefBarrierSet@@UAE_NPAVHeapWord@@III@Z 080a9110 f i cardTableModRefBS.obj
 0001:000a8120       ?read_ref_array@ModRefBarrierSet@@UAEXVMemRegion@@@Z 080a9120 f i cardTableModRefBS.obj
 0001:000a8140       ?read_prim_array@ModRefBarrierSet@@UAEXVMemRegion@@@Z 080a9140 f i cardTableModRefBS.obj
 0001:000a8160       ?write_prim_array@ModRefBarrierSet@@UAEXVMemRegion@@@Z 080a9160 f i cardTableModRefBS.obj
 0001:000a8180       ?read_region@ModRefBarrierSet@@UAEXVMemRegion@@@Z 080a9180 f i cardTableModRefBS.obj
 0001:000a81a0       ??0CardTableModRefBS@@QAE@VMemRegion@@H@Z 080a91a0 f   cardTableModRefBS.obj
 0001:000a8590       ?is_a@CardTableModRefBS@@UAE_NW4Name@BarrierSet@@@Z 080a9590 f i cardTableModRefBS.obj
 0001:000a85b0       ?write_ref_needs_barrier@CardTableModRefBS@@UAE_NPAXPAVoopDesc@@@Z 080a95b0 f i cardTableModRefBS.obj
 0001:000a85e0       ?write_region_work@CardTableModRefBS@@MAEXVMemRegion@@@Z 080a95e0 f i cardTableModRefBS.obj
 0001:000a85e0       ?write_ref_array_work@CardTableModRefBS@@MAEXVMemRegion@@@Z 080a95e0 f i cardTableModRefBS.obj
 0001:000a8600       ?non_clean_card_iterate@CardTableModRefBS@@IAEXPAVSpace@@VMemRegion@@PAVDirtyCardToOopClosure@@PAVMemRegionClosure@@_N@Z 080a9600 f   cardTableModRefBS.obj
 0001:000a8660       ?mod_oop_in_space_iterate@CardTableModRefBS@@UAEXPAVSpace@@PAVOopClosure@@_N2@Z 080a9660 f   cardTableModRefBS.obj
 0001:000a86c0       ?is_aligned@CardTableModRefBS@@UAE_NPAVHeapWord@@@Z 080a96c0 f i cardTableModRefBS.obj
 0001:000a86f0       ?find_unused_youngergenP_card_value@CardTableRS@@AAECXZ 080a96f0 f   cardTableRS.obj
 0001:000a8730       ?prepare_for_younger_refs_iterate@CardTableRS@@UAEX_N@Z 080a9730 f   cardTableRS.obj
 0001:000a8760       ?resize_covered_region@CardTableRS@@UAEXVMemRegion@@@Z 080a9760 f   cardTableRS.obj
 0001:000a8790       ?younger_refs_iterate@CardTableRS@@UAEXPAVGeneration@@PAVOopsInGenClosure@@@Z 080a9790 f   cardTableRS.obj
 0001:000a87c0       ?do_MemRegion@ClearNoncleanCardWrapper@@UAEXVMemRegion@@@Z 080a97c0 f i cardTableRS.obj
 0001:000a8920       ?clear_card@ClearNoncleanCardWrapper@@AAE_NPAC@Z 080a9920 f i cardTableRS.obj
 0001:000a8a30       ?write_ref_field_gc_par@CardTableRS@@UAEXPAXPAVoopDesc@@@Z 080a9a30 f   cardTableRS.obj
 0001:000a8ac0       ?younger_refs_in_space_iterate@CardTableRS@@EAEXPAVSpace@@PAVOopsInGenClosure@@@Z 080a9ac0 f   cardTableRS.obj
 0001:000a8b20       ?clear_into_younger@CardTableRS@@UAEXPAVGeneration@@_N@Z 080a9b20 f   cardTableRS.obj
 0001:000a8ba0       ?invalidate_or_clear@CardTableRS@@UAEXPAVGeneration@@_N1@Z 080a9ba0 f   cardTableRS.obj
 0001:000a8ce0       ?verify_aligned_region_empty@CardTableRS@@UAEXVMemRegion@@@Z 080a9ce0 f   cardTableRS.obj
 0001:000a8d50       ??0CardTableRS@@QAE@VMemRegion@@H@Z 080a9d50 f   cardTableRS.obj
 0001:000a8e30       ?write_ref_field_gc_work@CardTableRS@@UAEXPAXPAVoopDesc@@@Z 080a9e30 f i cardTableRS.obj
 0001:000a8e50       ?clear@CardTableRS@@UAEXVMemRegion@@@Z 080a9e50 f i cardTableRS.obj
 0001:000a8e80       ?invalidate@CardTableRS@@UAEXVMemRegion@@_N@Z 080a9e80 f i cardTableRS.obj
 0001:000a8eb0       ?is_aligned@CardTableRS@@UAE_NPAVHeapWord@@@Z 080a9eb0 f i cardTableRS.obj
 0001:000a8ee0       ?do_oop@VerifyCleanCardClosure@@UAEXPAPAVoopDesc@@@Z 080a9ee0 f i cardTableRS.obj
 0001:000a8ef0       ??$do_oop_work@PAVoopDesc@@@VerifyCleanCardClosure@@IAEXPAPAVoopDesc@@@Z 080a9ef0 f i cardTableRS.obj
 0001:000a8f30       ?do_oop@VerifyCleanCardClosure@@UAEXPAI@Z 080a9f30 f i cardTableRS.obj
 0001:000a8f40       ??$do_oop_work@I@VerifyCleanCardClosure@@IAEXPAI@Z 080a9f40 f i cardTableRS.obj
 0001:000a8f90       ?do_generation@VerifyCTGenClosure@@UAEXPAVGeneration@@@Z 080a9f90 f i cardTableRS.obj
 0001:000a8fd0       ?verify_space@CardTableRS@@AAEXPAVSpace@@PAVHeapWord@@@Z 080a9fd0 f   cardTableRS.obj
 0001:000a91a0       ?verify@CardTableRS@@UAEXXZ 080aa1a0 f   cardTableRS.obj
 0001:000a9260       ?do_space@VerifyCTSpaceClosure@@UAEXPAVSpace@@@Z 080aa260 f i cardTableRS.obj
 0001:000a9280       ?print_impl@ciArray@@MAEXPAVoutputStream@@@Z 080aa280 f   ciArray.obj
 0001:000a92c0       ??0ciArrayKlass@@IAE@PAVciSymbol@@HPAVciKlass@@@Z 080aa2c0 f   ciArrayKlass.obj
 0001:000a92f0       ?resolve_non_null@JNIHandles@@SAPAVoopDesc@@PAV_jobject@@@Z 080aa2f0 f i ciArrayKlass.obj
 0001:000a9380       ?get_oop@ciObject@@IBEPAVoopDesc@@XZ 080aa380 f i ciArrayKlass.obj
 0001:000a93b0       ?as_obj_array_klass@ciObject@@QAEPAVciObjArrayKlass@@XZ 080aa3b0 f i ciArrayKlass.obj
 0001:000a93e0       ?is_classless@ciType@@UBE_NXZ 080aa3e0 f i ciArrayKlass.obj
 0001:000a9400       ?get_klassOop@ciKlass@@IBEPAVklassOopDesc@@XZ 080aa400 f i ciArrayKlass.obj
 0001:000a9450       ?get_Klass@ciKlass@@IBEPAVKlass@@XZ 080aa450 f i ciArrayKlass.obj
 0001:000a9450       ?get_instanceKlass@ciInstanceKlass@@IBEPAVinstanceKlass@@XZ 080aa450 f i ciEnv.obj
 0001:000a9450       ?get_objArrayKlass@ciObjArrayKlass@@IAEPAVobjArrayKlass@@XZ 080aa450 f i ciObjArrayKlass.obj
 0001:000a94a0       ?type_string@ciArrayKlass@@MAEPBDXZ 080aa4a0 f i ciArrayKlass.obj
 0001:000a94b0       ??0ciArrayKlass@@IAE@VKlassHandle@@@Z 080aa4b0 f   ciArrayKlass.obj
 0001:000a9580       ?element_type@ciArrayKlass@@QAEPAVciType@@XZ 080aa580 f   ciArrayKlass.obj
 0001:000a9620       ?base_element_type@ciArrayKlass@@QAEPAVciType@@XZ 080aa620 f   ciArrayKlass.obj
 0001:000a96d0       ?is_leaf_type@ciArrayKlass@@UAE_NXZ 080aa6d0 f   ciArrayKlass.obj
 0001:000a9710       ??0VMNativeEntryWrapper@@QAE@XZ 080aa710 f i ciCallSite.obj
 0001:000a9740       ??1VMNativeEntryWrapper@@QAE@XZ 080aa740 f i ciCallSite.obj
 0001:000a9770       ?get_object@ciEnv@@AAEPAVciObject@@PAVoopDesc@@@Z 080aa770 f i ciCallSite.obj
 0001:000a9790       ??2ResourceObj@@SAPAXIPAVArena@@@Z 080aa790 f i ciConstantPoolCache.obj
 0001:000a97b0       ?find@ciConstantPoolCache@@AAEHH@Z 080aa7b0 f   ciConstantPoolCache.obj
 0001:000a9850       ?get@ciConstantPoolCache@@QAEPAXH@Z 080aa850 f   ciConstantPoolCache.obj
 0001:000a98e0       ??0ciConstantPoolCache@@QAE@PAVArena@@H@Z 080aa8e0 f   ciConstantPoolCache.obj
 0001:000a99b0       ?insert@ciConstantPoolCache@@QAEXHPAX@Z 080aa9b0 f   ciConstantPoolCache.obj
 0001:000a9bf0       ?cache_dtrace_flags@ciEnv@@QAEXXZ 080aabf0 f   ciEnv.obj
 0001:000a9c30       ?lock_stack@AccessField@@UBEPAVValueStack@@XZ 080aac30 f   c1_Canonicalizer.obj
 0001:000a9c30       ?num_inlined_bytecodes@ciEnv@@QBEHXZ 080aac30 f   ciEnv.obj
 0001:000a9c40       ?resolve@JNIHandles@@SAPAVoopDesc@@PAV_jobject@@@Z 080aac40 f i ciEnv.obj
 0001:000a9cb0       ?as_symbol@ciObject@@QAEPAVciSymbol@@XZ 080aacb0 f i ciEnv.obj
 0001:000a9ce0       ?byte_at@symbolOopDesc@@QBEHH@Z 080aace0 f i ciEnv.obj
 0001:000a9d20       ?get_handle_wrong_method_stub@SharedRuntime@@SAPAEXZ 080aad20 f i ciEnv.obj
 0001:000a9d50       ?ThreadDeath_klass@SystemDictionary@@SAPAVklassOopDesc@@XZ 080aad50 f i ciEnv.obj
 0001:000a9d80       ?get_methodOop@ciMethod@@ABEPAVmethodOopDesc@@XZ 080aad80 f i ciEnv.obj
 0001:000a9dd0       ??0DepStream@Dependencies@@QAE@PAV1@@Z 080aadd0 f i ciEnv.obj
 0001:000a9e50       ?get_unloaded_klass@ciEnv@@AAEPAVciKlass@@PAV2@PAVciSymbol@@@Z 080aae50 f i ciEnv.obj
 0001:000a9e70       ??0ciConstant@@QAE@W4BasicType@@H@Z 080aae70 f i ciEnv.obj
 0001:000a9eb0       ?new_symbol@oopFactory@@SAPAVsymbolOopDesc@@PBDHPAVThread@@@Z 080aaeb0 f i ciEnv.obj
 0001:000a9ef0       ?check_klass_accessibility@ciEnv@@AAE_NPAVciKlass@@PAVklassOopDesc@@@Z 080aaef0 f   ciEnv.obj
 0001:000a9f80       ?get_field_by_index_impl@ciEnv@@AAEPAVciField@@PAVciInstanceKlass@@H@Z 080aaf80 f   ciEnv.obj
 0001:000aa060       ?name_buffer@ciEnv@@AAEPADH@Z 080ab060 f   ciEnv.obj
 0001:000aa0b0       ?comp_level@ciEnv@@QAEHXZ  080ab0b0 f   ciEnv.obj
 0001:000aa0d0       ?notice_inlined_method@ciEnv@@QAEXPAVciMethod@@@Z 080ab0d0 f   ciEnv.obj
 0001:000aa110       ?record_failure@ciEnv@@QAEXPBD@Z 080ab110 f   ciEnv.obj
 0001:000aa140       ?record_method_not_compilable@ciEnv@@QAEXPBD_N@Z 080ab140 f   ciEnv.obj
 0001:000aa1b0       ?record_out_of_memory_failure@ciEnv@@QAEXXZ 080ab1b0 f   ciEnv.obj
 0001:000aa210       ?secondary_entry_at@constantPoolCacheOopDesc@@QBEPAVConstantPoolCacheEntry@@H@Z 080ab210 f i ciEnv.obj
 0001:000aa2a0       ??0Handle@@QAE@PAVoopDesc@@@Z 080ab2a0 f i ciEnv.obj
 0001:000aa300       ??0ciEnv@@QAE@PAVCompileTask@@H@Z 080ab300 f   ciEnv.obj
 0001:000aa5e0       ??1ciEnv@@QAE@XZ           080ab5e0 f   ciEnv.obj
 0001:000aa610       ?cache_jvmti_state@ciEnv@@QAEXXZ 080ab610 f   ciEnv.obj
 0001:000aa750       ?get_method_from_handle@ciEnv@@AAEPAVciMethod@@PAV_jobject@@@Z 080ab750 f   ciEnv.obj
 0001:000aa890       ?get_fake_invokedynamic_method_impl@ciEnv@@AAEPAVciMethod@@VconstantPoolHandle@@HW4Code@Bytecodes@@@Z 080ab890 f   ciEnv.obj
 0001:000aaa60       ?get_instance_klass_for_declared_method_holder@ciEnv@@SAPAVciInstanceKlass@@PAVciKlass@@@Z 080aba60 f   ciEnv.obj
 0001:000aaad0       ?is_in_vm@ciEnv@@CA_NXZ    080abad0 f   ciEnv.obj
 0001:000aab20       ?check_for_system_dictionary_modification@ciEnv@@AAEXPAVciMethod@@@Z 080abb20 f   ciEnv.obj
 0001:000aac00       ??0KlassHandle@@QAE@PAVThread@@PAVKlass@@@Z 080abc00 f i ciEnv.obj
 0001:000aac60       ?string_at@constantPoolOopDesc@@QAEPAVoopDesc@@HPAVThread@@@Z 080abc60 f i ciEnv.obj
 0001:000aac90       ?new_symbol_handle@oopFactory@@SA?AVsymbolHandle@@PBDHPAVThread@@@Z 080abc90 f i ciEnv.obj
 0001:000aace0       ??0ciEnv@@QAE@PAVArena@@@Z 080abce0 f   ciEnv.obj
 0001:000aaf40       ?get_klass_by_name_impl@ciEnv@@AAEPAVciKlass@@PAV2@PAVciSymbol@@_N@Z 080abf40 f   ciEnv.obj
 0001:000ab450       ?get_klass_by_name@ciEnv@@AAEPAVciKlass@@PAV2@PAVciSymbol@@_N@Z 080ac450 f   ciEnv.obj
 0001:000ab590       ?get_field_by_index@ciEnv@@AAEPAVciField@@PAVciInstanceKlass@@H@Z 080ac590 f   ciEnv.obj
 0001:000ab6c0       ?lookup_method@ciEnv@@AAEPAVmethodOopDesc@@PAVinstanceKlass@@0PAVsymbolOopDesc@@1W4Code@Bytecodes@@@Z 080ac6c0 f   ciEnv.obj
 0001:000ab850       ?register_method@ciEnv@@QAEXPAVciMethod@@HPAVCodeOffsets@@HPAVCodeBuffer@@HPAVOopMapSet@@PAVExceptionHandlerTable@@PAVImplicitExceptionTable@@PAVAbstractCompiler@@H_N7@Z 080ac850 f   ciEnv.obj
 0001:000abe30       ?unresolved_klass_at@constantPoolOopDesc@@QAEPAVsymbolOopDesc@@H@Z 080ace30 f i ciEnv.obj
 0001:000abec0       ?symbol_at@constantPoolOopDesc@@QAEPAVsymbolOopDesc@@H@Z 080acec0 f i ciEnv.obj
 0001:000abf50       ?pseudo_string_at@constantPoolOopDesc@@QAEPAVoopDesc@@H@Z 080acf50 f i ciEnv.obj
 0001:000abfe0       ?get_klass_by_index_impl@ciEnv@@AAEPAVciKlass@@VconstantPoolHandle@@HAA_NPAVciInstanceKlass@@@Z 080acfe0 f   ciEnv.obj
 0001:000ac290       ?get_klass_by_index@ciEnv@@AAEPAVciKlass@@VconstantPoolHandle@@HAA_NPAVciInstanceKlass@@@Z 080ad290 f   ciEnv.obj
 0001:000ac3d0       ?get_constant_by_index_impl@ciEnv@@AAE?AVciConstant@@VconstantPoolHandle@@HPAVciInstanceKlass@@@Z 080ad3d0 f   ciEnv.obj
 0001:000ac690       ?get_constant_by_index@ciEnv@@AAE?AVciConstant@@VconstantPoolHandle@@HPAVciInstanceKlass@@@Z 080ad690 f   ciEnv.obj
 0001:000ac7d0       ?get_method_by_index_impl@ciEnv@@AAEPAVciMethod@@VconstantPoolHandle@@HW4Code@Bytecodes@@PAVciInstanceKlass@@@Z 080ad7d0 f   ciEnv.obj
 0001:000ac930       ?get_method_by_index@ciEnv@@AAEPAVciMethod@@VconstantPoolHandle@@HW4Code@Bytecodes@@PAVciInstanceKlass@@@Z 080ad930 f   ciEnv.obj
 0001:000acaf0       ?obj_at@objArrayOopDesc@@QBEPAVoopDesc@@H@Z 080adaf0 f i ciEnv.obj
 0001:000acb10       ?obj_at_put@objArrayOopDesc@@QAEXHPAVoopDesc@@@Z 080adb10 f i ciEnv.obj
 0001:000acb70       ??0constantPoolHandle@@QAE@PAVconstantPoolOopDesc@@@Z 080adb70 f i ciExceptionHandler.obj
 0001:000acbd0       ?catch_klass@ciExceptionHandler@@QAEPAVciInstanceKlass@@XZ 080adbd0 f   ciExceptionHandler.obj
 0001:000ace40       ?field_holder@fieldDescriptor@@QBEPAVklassOopDesc@@XZ 080ade40 f i ciField.obj
 0001:000ace70       ?System_klass@SystemDictionary@@SAPAVklassOopDesc@@XZ 080ade70 f i ciField.obj
 0001:000acef0       ?is_shared@ciField@@QAE_NXZ 080adef0 f i ciField.obj
 0001:000acf10       ?compute_type_impl@ciField@@AAEPAVciType@@XZ 080adf10 f   ciField.obj
 0001:000acf90       ?compute_type@ciField@@AAEPAVciType@@XZ 080adf90 f   ciField.obj
 0001:000ad070       ?will_link@ciField@@QAE_NPAVciInstanceKlass@@W4Code@Bytecodes@@@Z 080ae070 f   ciField.obj
 0001:000ad260       ?name@fieldDescriptor@@QBEPAVsymbolOopDesc@@XZ 080ae260 f i ciField.obj
 0001:000ad290       ?signature@fieldDescriptor@@QBEPAVsymbolOopDesc@@XZ 080ae290 f i ciField.obj
 0001:000ad2c0       ?field_type@fieldDescriptor@@QBE?AW4BasicType@@XZ 080ae2c0 f i ciField.obj
 0001:000ad300       ?initialize_from@ciField@@AAEXPAVfieldDescriptor@@@Z 080ae300 f   ciField.obj
 0001:000ad6c0       ??0ciField@@AAE@PAVciInstanceKlass@@H@Z 080ae6c0 f   ciField.obj
 0001:000adad0       ??0ciField@@AAE@PAVfieldDescriptor@@@Z 080aead0 f   ciField.obj
 0001:000adca0       ?print_klass_flags@ciFlags@@QAEXPAVoutputStream@@@Z 080aeca0 f   ciFlags.obj
 0001:000add30       ?print_member_flags@ciFlags@@QAEXPAVoutputStream@@@Z 080aed30 f   ciFlags.obj
 0001:000ade40       ?print_impl@ciInstance@@MAEXPAVoutputStream@@@Z 080aee40 f   ciInstance.obj
 0001:000ade70       ?Class_klass@SystemDictionary@@SAPAVklassOopDesc@@XZ 080aee70 f i ciInstance.obj
 0001:000adea0       ?loader_handle@ciInstanceKlass@@MAEPAV_jobject@@XZ 080aeea0 f   ciInstanceKlass.obj
 0001:000adeb0       ?protection_domain_handle@ciInstanceKlass@@MAEPAV_jobject@@XZ 080aeeb0 f   ciInstanceKlass.obj
 0001:000adec0       ?nonstatic_field_size@ciInstanceKlass@@QAEHXZ 080aeec0 f i ciInstanceKlass.obj
 0001:000adef0       ?has_nonstatic_fields@ciInstanceKlass@@QAEHXZ 080aeef0 f i ciInstanceKlass.obj
 0001:000adf30       ??0ciInstanceKlass@@IAE@PAVciSymbol@@PAV_jobject@@1@Z 080aef30 f   ciInstanceKlass.obj
 0001:000adfb0       ?type_string@ciInstanceKlass@@MAEPBDXZ 080aefb0 f i ciInstanceKlass.obj
 0001:000adfc0       ?is_interface@ciInstanceKlass@@UAE_NXZ 080aefc0 f i ciInstanceKlass.obj
 0001:000ae000       ?is_abstract@ciInstanceKlass@@UAE_NXZ 080af000 f i ciInstanceKlass.obj
 0001:000ae040       ?loader@ciInstanceKlass@@MAEPAVoopDesc@@XZ 080af040 f   ciInstanceKlass.obj
 0001:000ae080       ?protection_domain@ciInstanceKlass@@MAEPAVoopDesc@@XZ 080af080 f   ciInstanceKlass.obj
 0001:000ae0c0       ?is_in_package_impl@ciInstanceKlass@@IAE_NPBDH@Z 080af0c0 f   ciInstanceKlass.obj
 0001:000ae150       ?java_mirror@ciInstanceKlass@@UAEPAVciInstance@@XZ 080af150 f   ciInstanceKlass.obj
 0001:000ae200       ?is_leaf_type@ciInstanceKlass@@UAE_NXZ 080af200 f   ciInstanceKlass.obj
 0001:000ae280       ?compute_shared_is_initialized@ciInstanceKlass@@IAE_NXZ 080af280 f   ciInstanceKlass.obj
 0001:000ae380       ?compute_shared_has_subklass@ciInstanceKlass@@IAE_NXZ 080af380 f   ciInstanceKlass.obj
 0001:000ae480       ?compute_shared_nof_implementors@ciInstanceKlass@@IAEHXZ 080af480 f   ciInstanceKlass.obj
 0001:000ae570       ?field_cache@ciInstanceKlass@@IAEPAVciConstantPoolCache@@XZ 080af570 f   ciInstanceKlass.obj
 0001:000ae610       ?is_java_lang_Object@ciInstanceKlass@@UAE_NXZ 080af610 f   ciInstanceKlass.obj
 0001:000ae630       ?is_in_package@ciInstanceKlass@@QAE_NPBDH@Z 080af630 f   ciInstanceKlass.obj
 0001:000ae720       ?super@ciInstanceKlass@@QAEPAV1@XZ 080af720 f   ciInstanceKlass.obj
 0001:000ae890       ?has_finalizable_subclass@ciInstanceKlass@@QAE_NXZ 080af890 f   ciInstanceKlass.obj
 0001:000ae980       ?implementor@ciInstanceKlass@@QAEPAV1@H@Z 080af980 f   ciInstanceKlass.obj
 0001:000aeab0       ?appendAll@?$GrowableArray@PAVciField@@@@QAEXPBV1@@Z 080afab0 f i ciInstanceKlass.obj
 0001:000aeab0       ?appendAll@?$GrowableArray@PAVciObject@@@@QAEXPBV1@@Z 080afab0 f i ciObjectFactory.obj
 0001:000aeab0       ?appendAll@?$GrowableArray@PAVPerfData@@@@QAEXPBV1@@Z 080afab0 f i perfData.obj
 0001:000aeb30       ??0ciInstanceKlass@@IAE@VKlassHandle@@@Z 080afb30 f   ciInstanceKlass.obj
 0001:000aedd0       ?print_impl@ciInstanceKlass@@MAEXPAVoutputStream@@@Z 080afdd0 f   ciInstanceKlass.obj
 0001:000af010       ?do_field@NonStaticFieldFiller@@UAEXPAVfieldDescriptor@@@Z 080b0010 f i ciInstanceKlass.obj
 0001:000af0a0       ?compute_nonstatic_fields_impl@ciInstanceKlass@@IAEPAV?$GrowableArray@PAVciField@@@@PAV2@@Z 080b00a0 f   ciInstanceKlass.obj
 0001:000af2d0       ?compute_nonstatic_fields@ciInstanceKlass@@IAEHXZ 080b02d0 f   ciInstanceKlass.obj
 0001:000af690       ?make@ciInstanceKlassKlass@@SAPAV1@XZ 080b0690 f   ciInstanceKlassKlass.obj
 0001:000af6a0       ??0ciKlass@@IAE@PAVciSymbol@@PAV0@@Z 080b06a0 f   ciKlass.obj
 0001:000af6d0       ?print_impl@ciKlass@@MAEXPAVoutputStream@@@Z 080b06d0 f   ciKlass.obj
 0001:000af700       ?primary_super_limit@Klass@@SAIXZ 080b0700 f i ciKlass.obj
 0001:000af730       ?type_string@ciKlass@@MAEPBDXZ 080b0730 f i ciKlass.obj
 0001:000af740       ?print_name_on@ciKlass@@UAEXPAVoutputStream@@@Z 080b0740 f   ciKlass.obj
 0001:000af750       ?super_depth@Klass@@QBEIXZ 080b0750 f i ciKlass.obj
 0001:000af800       ??0ciKlass@@QAE@VKlassHandle@@@Z 080b0800 f   ciKlass.obj
 0001:000af920       ??0ciKlass@@IAE@VKlassHandle@@PAVciSymbol@@@Z 080b0920 f   ciKlass.obj
 0001:000af9a0       ?is_subtype_of@ciKlass@@QAE_NPAV1@@Z 080b09a0 f   ciKlass.obj
 0001:000afb10       ?is_subclass_of@ciKlass@@QAE_NPAV1@@Z 080b0b10 f   ciKlass.obj
 0001:000afd00       ?super_check_offset@ciKlass@@QAEIXZ 080b0d00 f   ciKlass.obj
 0001:000afe80       ?java_mirror@ciKlass@@UAEPAVciInstance@@XZ 080b0e80 f   ciKlass.obj
 0001:000afff0       ?modifier_flags@ciKlass@@QAEHXZ 080b0ff0 f   ciKlass.obj
 0001:000b0100       ?primary_super_of_depth@Klass@@QBEPAVklassOopDesc@@I@Z 080b1100 f i ciKlass.obj
 0001:000b0180       ?oop_is_javaArray@Klass@@QBE_NXZ 080b1180 f i ciMethod.obj
 0001:000b01d0       ??0HandleMark@@QAE@PAVThread@@@Z 080b11d0 f i ciMethod.obj
 0001:000b01f0       ?as_method_data@ciObject@@QAEPAVciMethodData@@XZ 080b11f0 f i ciMethod.obj
 0001:000b0220       ?code@methodOopDesc@@QBERAVnmethod@@XZ 080b1220 f i ciMethod.obj
 0001:000b0250       ?vtable_index@methodOopDesc@@QBEHXZ 080b1250 f i ciMethod.obj
 0001:000b0280       ?has_loops@methodOopDesc@@QAE_NXZ 080b1280 f i ciMethod.obj
 0001:000b02a0       ?receiver_count@ReceiverTypeData@@QAEII@Z 080b12a0 f i ciMethod.obj
 0001:000b0310       ?is_public@ciMethod@@QBE_NXZ 080b1310 f i ciMethod.obj
 0001:000b0340       ?is_protected@ciMethod@@QBE_NXZ 080b1340 f i ciMethod.obj
 0001:000b0380       ?will_link@ciMethod@@QAE_NPAVciKlass@@0W4Code@Bytecodes@@@Z 080b1380 f   ciMethod.obj
 0001:000b03a0       ?can_be_compiled@ciMethod@@QAE_NXZ 080b13a0 f   ciMethod.obj
 0001:000b03d0       ?print_impl@ciMethod@@EAEXPAVoutputStream@@@Z 080b13d0 f   ciMethod.obj
 0001:000b04a0       ?code_at_put@ciMethod@@AAEXHW4Code@Bytecodes@@@Z 080b14a0 f i ciMethod.obj
 0001:000b0540       ??0ciMethod@@AAE@PAVciInstanceKlass@@PAVciSymbol@@1@Z 080b1540 f   ciMethod.obj
 0001:000b05e0       ?type_string@ciMethod@@EAEPBDXZ 080b15e0 f i ciMethod.obj
 0001:000b05f0       ?raw_liveness_at_bci@ciMethod@@QAE?AVMethodLivenessResult@@H@Z 080b15f0 f   ciMethod.obj
 0001:000b06a0       ?liveness_at_bci@ciMethod@@QAE?AVMethodLivenessResult@@H@Z 080b16a0 f   ciMethod.obj
 0001:000b0710       ?bci_block_start@ciMethod@@QAE?BVBitMap@@XZ 080b1710 f   ciMethod.obj
 0001:000b07c0       ?build_method_data@ciMethod@@AAEXVmethodHandle@@@Z 080b17c0 f   ciMethod.obj
 0001:000b08e0       ?log_nmethod_identity@ciMethod@@QAEXPAVxmlStream@@@Z 080b18e0 f   ciMethod.obj
 0001:000b0a30       ?print_codes_on@ciMethod@@QAEXPAVoutputStream@@@Z 080b1a30 f   ciMethod.obj
 0001:000b0b50       ?has_jsrs@ciMethod@@QBE_NXZ 080b1b50 f   ciMethod.obj
 0001:000b0cb0       ?get_method_blocks@ciMethod@@QAEPAVciMethodBlocks@@XZ 080b1cb0 f   ciMethod.obj
 0001:000b0d20       ?print_codes_on@ciMethod@@QAEXHHPAVoutputStream@@@Z 080b1d20 f   ciMethod.obj
 0001:000b0e50       ?print_name@ciMethod@@QAEXPAVoutputStream@@@Z 080b1e50 f   ciMethod.obj
 0001:000b0f70       ?print_short_name@ciMethod@@QAEXPAVoutputStream@@@Z 080b1f70 f   ciMethod.obj
 0001:000b1090       ??0methodHandle@@QAE@PAVmethodOopDesc@@@Z 080b2090 f i ciMethod.obj
 0001:000b10f0       ?has_balanced_monitors@ciMethod@@QAE_NXZ 080b20f0 f   ciMethod.obj
 0001:000b13a0       ?live_local_oops_at_bci@ciMethod@@QAE?AVBitMap@@H@Z 080b23a0 f   ciMethod.obj
 0001:000b15d0       ?resolve_invoke@ciMethod@@QAEPAV1@PAVciKlass@@0@Z 080b25d0 f   ciMethod.obj
 0001:000b19f0       ?method_data@ciMethod@@QAEPAVciMethodData@@XZ 080b29f0 f   ciMethod.obj
 0001:000b1bc0       ?should_exclude@ciMethod@@QAE_NXZ 080b2bc0 f   ciMethod.obj
 0001:000b1d30       ?break_at_execute@ciMethod@@QAE_NXZ 080b2d30 f   ciMethod.obj
 0001:000b1ea0       ?int_at_addr@typeArrayOopDesc@@QBEPAHH@Z 080b2ea0 f i ciMethod.obj
 0001:000b1f10       ?name@methodOopDesc@@QBEPAVsymbolOopDesc@@XZ 080b2f10 f i ciMethod.obj
 0001:000b1f30       ?signature@methodOopDesc@@QBEPAVsymbolOopDesc@@XZ 080b2f30 f i ciMethod.obj
 0001:000b1f50       ??0ciMethod@@AAE@VmethodHandle@@@Z 080b2f50 f   ciMethod.obj
 0001:000b2300       ?load_code@ciMethod@@AAEXXZ 080b3300 f   ciMethod.obj
 0001:000b2730       ?find_monomorphic_target@ciMethod@@QAEPAV1@PAVciInstanceKlass@@00@Z 080b3730 f   ciMethod.obj
 0001:000b29e0       ?set_exception_range@ciBlock@@QAEXHH@Z 080b39e0 f   ciMethodBlocks.obj
 0001:000b2a50       ?zero_to_words@Copy@@SAXPAVHeapWord@@I@Z 080b3a50 f i ciMethodBlocks.obj
 0001:000b2a80       ?split_block_at@ciMethodBlocks@@QAEPAVciBlock@@H@Z 080b3a80 f   ciMethodBlocks.obj
 0001:000b2b90       ?make_block_at@ciMethodBlocks@@QAEPAVciBlock@@H@Z 080b3b90 f   ciMethodBlocks.obj
 0001:000b2c70       ?do_analysis@ciMethodBlocks@@AAEXXZ 080b3c70 f   ciMethodBlocks.obj
 0001:000b2fe0       ??0ciMethodBlocks@@QAE@PAVArena@@PAVciMethod@@@Z 080b3fe0 f   ciMethodBlocks.obj
 0001:000b32f0       ?print_on@ciBlock@@UBEXPAVoutputStream@@@Z 080b42f0 f   ciMethodBlocks.obj
 0001:000b33e0       ?cell_count@ProfileData@@UAEHXZ 080b43e0 f i ciMethodData.obj
 0001:000b3400       ?print_data_on@ProfileData@@UAEXPAVoutputStream@@@Z 080b4400 f i ciMethodData.obj
 0001:000b3420       ??0JumpData@@QAE@PAVDataLayout@@@Z 080b4420 f i ciMethodData.obj
 0001:000b3460       ??0ReceiverTypeData@@QAE@PAVDataLayout@@@Z 080b4460 f i ciMethodData.obj
 0001:000b34a0       ?cell_count@ReceiverTypeData@@UAEHXZ 080b44a0 f i ciMethodData.obj
 0001:000b34a0       ?cell_count@VirtualCallData@@UAEHXZ 080b44a0 f i ciMethodData.obj
 0001:000b34b0       ?receiver_unchecked@ReceiverTypeData@@QAEPAVklassOopDesc@@I@Z 080b44b0 f i ciMethodData.obj
 0001:000b3520       ??0VirtualCallData@@QAE@PAVDataLayout@@@Z 080b4520 f i ciMethodData.obj
 0001:000b3580       ??0RetData@@QAE@PAVDataLayout@@@Z 080b4580 f i ciMethodData.obj
 0001:000b35c0       ?cell_count@RetData@@UAEHXZ 080b45c0 f i ciMethodData.obj
 0001:000b35d0       ??0BranchData@@QAE@PAVDataLayout@@@Z 080b45d0 f i ciMethodData.obj
 0001:000b3630       ?cell_count@ArrayData@@UAEHXZ 080b4630 f i ciMethodData.obj
 0001:000b3640       ??0MultiBranchData@@QAE@PAVDataLayout@@@Z 080b4640 f i ciMethodData.obj
 0001:000b3680       ??0ArgInfoData@@QAE@PAVDataLayout@@@Z 080b4680 f i ciMethodData.obj
 0001:000b36c0       ??0ciJumpData@@QAE@PAVDataLayout@@@Z 080b46c0 f i ciMethodData.obj
 0001:000b3710       ??0ciReceiverTypeData@@QAE@PAVDataLayout@@@Z 080b4710 f i ciMethodData.obj
 0001:000b3760       ?set_receiver@ciReceiverTypeData@@QAEXIPAVciKlass@@@Z 080b4760 f i ciMethodData.obj
 0001:000b37e0       ??0ciVirtualCallData@@QAE@PAVDataLayout@@@Z 080b47e0 f i ciMethodData.obj
 0001:000b3800       ??0ciRetData@@QAE@PAVDataLayout@@@Z 080b4800 f i ciMethodData.obj
 0001:000b3840       ??0ciBranchData@@QAE@PAVDataLayout@@@Z 080b4840 f i ciMethodData.obj
 0001:000b3860       ??0ciMultiBranchData@@QAE@PAVDataLayout@@@Z 080b4860 f i ciMethodData.obj
 0001:000b38a0       ??0ciArgInfoData@@QAE@PAVDataLayout@@@Z 080b48a0 f i ciMethodData.obj
 0001:000b38e0       ?data_at@ciMethodData@@QAEPAVProfileData@@H@Z 080b48e0 f   ciMethodData.obj
 0001:000b3a80       ?offset_of_slot@ciMethodData@@QAE?AVByteSize@@PAVProfileData@@V2@@Z 080b4a80 f   ciMethodData.obj
 0001:000b3aa0       ?print_receiver_data_on@ciReceiverTypeData@@QAEXPAVoutputStream@@@Z 080b4aa0 f   ciMethodData.obj
 0001:000b3b70       ?print_data_on@ciReceiverTypeData@@UAEXPAVoutputStream@@@Z 080b4b70 f   ciMethodData.obj
 0001:000b3ba0       ?print_data_on@ciVirtualCallData@@UAEXPAVoutputStream@@@Z 080b4ba0 f   ciMethodData.obj
 0001:000b3bd0       ??0ciMethodData@@AAE@VmethodDataHandle@@@Z 080b4bd0 f   ciMethodData.obj
 0001:000b3c80       ?type_string@ciMethodData@@EAEPBDXZ 080b4c80 f i ciMethodData.obj
 0001:000b3c90       ??0ciMethodData@@AAE@XZ    080b4c90 f   ciMethodData.obj
 0001:000b3d20       ?load_data@ciMethodData@@QAEXXZ 080b4d20 f   ciMethodData.obj
 0001:000b3ea0       ?data_before@ciMethodData@@AAEPAVProfileData@@H@Z 080b4ea0 f i ciMethodData.obj
 0001:000b3f00       ?translate_receiver_data_from@ciReceiverTypeData@@QAEXPAVProfileData@@@Z 080b4f00 f   ciMethodData.obj
 0001:000b4050       ?bci_to_data@ciMethodData@@QAEPAVProfileData@@H@Z 080b5050 f   ciMethodData.obj
 0001:000b41b0       ?translate_from@ciVirtualCallData@@UAEXPAVProfileData@@@Z 080b51b0 f i ciMethodData.obj
 0001:000b41b0       ?translate_from@ciReceiverTypeData@@UAEXPAVProfileData@@@Z 080b51b0 f i ciMethodData.obj
 0001:000b41c0       ?print_impl@ciMethodHandle@@MAEXPAVoutputStream@@@Z 080b51c0 f   ciMethodHandle.obj
 0001:000b4210       ?make@ciMethodKlass@@SAPAV1@XZ 080b5210 f   ciMethodKlass.obj
 0001:000b4220       ?print_impl@ciNullObject@@EAEXPAVoutputStream@@@Z 080b5220 f   ciNullObject.obj
 0001:000b4240       ?make@ciNullObject@@SAPAV1@XZ 080b5240 f   ciNullObject.obj
 0001:000b4280       ??0ciObjArrayKlass@@IAE@PAVciSymbol@@PAVciKlass@@H@Z 080b5280 f   ciObjArrayKlass.obj
 0001:000b42f0       ?type_string@ciObjArrayKlass@@MAEPBDXZ 080b52f0 f i ciObjArrayKlass.obj
 0001:000b4300       ?loader@ciObjArrayKlass@@MAEPAVoopDesc@@XZ 080b5300 f i ciObjArrayKlass.obj
 0001:000b4310       ?loader_handle@ciObjArrayKlass@@MAEPAV_jobject@@XZ 080b5310 f i ciObjArrayKlass.obj
 0001:000b4320       ?protection_domain@ciObjArrayKlass@@MAEPAVoopDesc@@XZ 080b5320 f i ciObjArrayKlass.obj
 0001:000b4330       ?protection_domain_handle@ciObjArrayKlass@@MAEPAV_jobject@@XZ 080b5330 f i ciObjArrayKlass.obj
 0001:000b4340       ??0ciObjArrayKlass@@IAE@VKlassHandle@@@Z 080b5340 f   ciObjArrayKlass.obj
 0001:000b44f0       ?construct_array_name@ciObjArrayKlass@@KAPAVciSymbol@@PAV2@H@Z 080b54f0 f   ciObjArrayKlass.obj
 0001:000b46a0       ?make_impl@ciObjArrayKlass@@KAPAV1@PAVciKlass@@@Z 080b56a0 f   ciObjArrayKlass.obj
 0001:000b47a0       ?make@ciObjArrayKlass@@SAPAV1@PAVciKlass@@@Z 080b57a0 f   ciObjArrayKlass.obj
 0001:000b48b0       ?element_klass@ciObjArrayKlass@@QAEPAVciKlass@@XZ 080b58b0 f   ciObjArrayKlass.obj
 0001:000b4aa0       ?make@ciObjArrayKlassKlass@@SAPAV1@XZ 080b5aa0 f   ciObjArrayKlassKlass.obj
 0001:000b4ab0       ?set_ident@ciObject@@IAEXI@Z 080b5ab0 f   ciObject.obj
 0001:000b4b30       ?ident@ciObject@@QAEIXZ    080b5b30 f   ciObject.obj
 0001:000b4b60       ?equals@ciObject@@QAE_NPAV1@@Z 080b5b60 f   ciObject.obj
 0001:000b4b80       ?hash@ciObject@@QAEHXZ     080b5b80 f   ciObject.obj
 0001:000b4bb0       ?is_scavengable@oopDesc@@QBE_NXZ 080b5bb0 f i ciObject.obj
 0001:000b4bf0       ??0ciObject@@IAE@PAVciKlass@@@Z 080b5bf0 f   ciObject.obj
 0001:000b4c50       ?type_string@ciObject@@MAEPBDXZ 080b5c50 f i ciObject.obj
 0001:000b4c60       ??0ciObject@@IAE@XZ        080b5c60 f   ciObject.obj
 0001:000b4ca0       ?should_be_constant@ciObject@@QAE_NXZ 080b5ca0 f   ciObject.obj
 0001:000b4cd0       ?init_flags_from@ciObject@@IAEXPAVoopDesc@@@Z 080b5cd0 f i ciObject.obj
 0001:000b4d30       ??0ciObject@@IAE@VHandle@@@Z 080b5d30 f   ciObject.obj
 0001:000b4dc0       ?klass@ciObject@@QAEPAVciKlass@@XZ 080b5dc0 f   ciObject.obj
 0001:000b4f30       ?constant_encoding@ciObject@@QAEPAV_jobject@@XZ 080b5f30 f   ciObject.obj
 0001:000b4fa0       ?print@ciObject@@QAEXPAVoutputStream@@@Z 080b5fa0 f   ciObject.obj
 0001:000b5100       ??0ciCPCache@@QAE@VconstantPoolCacheHandle@@@Z 080b6100 f i ciObjectFactory.obj
 0001:000b5120       ?vm_symbol_at@ciObjectFactory@@SAPAVciSymbol@@H@Z 080b6120 f   ciObjectFactory.obj
 0001:000b5160       ??0ciKlassKlass@@IAE@VKlassHandle@@@Z 080b6160 f i ciObjectFactory.obj
 0001:000b51c0       ?type_string@ciKlassKlass@@MAEPBDXZ 080b61c0 f i ciObjectFactory.obj
 0001:000b51d0       ??0ciInstanceKlassKlass@@AAE@VKlassHandle@@@Z 080b61d0 f i ciObjectFactory.obj
 0001:000b5230       ?type_string@ciInstanceKlassKlass@@EAEPBDXZ 080b6230 f i ciObjectFactory.obj
 0001:000b5240       ?is_gte_jdk14x_version@JDK_Version@@SA_NXZ 080b6240 f i ciObjectFactory.obj
 0001:000b52a0       ?is_gte_jdk15x_version@JDK_Version@@SA_NXZ 080b62a0 f i ciObjectFactory.obj
 0001:000b5300       ?String_klass@SystemDictionary@@SAPAVklassOopDesc@@XZ 080b6300 f i ciObjectFactory.obj
 0001:000b5330       ?ClassLoader_klass@SystemDictionary@@SAPAVklassOopDesc@@XZ 080b6330 f i ciObjectFactory.obj
 0001:000b5360       ?Error_klass@SystemDictionary@@SAPAVklassOopDesc@@XZ 080b6360 f i ciObjectFactory.obj
 0001:000b5390       ?Exception_klass@SystemDictionary@@SAPAVklassOopDesc@@XZ 080b6390 f i ciObjectFactory.obj
 0001:000b53c0       ?RuntimeException_klass@SystemDictionary@@SAPAVklassOopDesc@@XZ 080b63c0 f i ciObjectFactory.obj
 0001:000b53f0       ?LinkageError_klass@SystemDictionary@@SAPAVklassOopDesc@@XZ 080b63f0 f i ciObjectFactory.obj
 0001:000b5420       ?OutOfMemoryError_klass@SystemDictionary@@SAPAVklassOopDesc@@XZ 080b6420 f i ciObjectFactory.obj
 0001:000b5450       ?Finalizer_klass@SystemDictionary@@SAPAVklassOopDesc@@XZ 080b6450 f i ciObjectFactory.obj
 0001:000b5480       ?Thread_klass@SystemDictionary@@SAPAVklassOopDesc@@XZ 080b6480 f i ciObjectFactory.obj
 0001:000b54b0       ?reflect_Method_klass@SystemDictionary@@SAPAVklassOopDesc@@XZ 080b64b0 f i ciObjectFactory.obj
 0001:000b54e0       ?reflect_Constructor_klass@SystemDictionary@@SAPAVklassOopDesc@@XZ 080b64e0 f i ciObjectFactory.obj
 0001:000b5510       ?type_string@ciNullObject@@EAEPBDXZ 080b6510 f i ciObjectFactory.obj
 0001:000b5520       ??0ciMethodKlass@@IAE@VKlassHandle@@@Z 080b6520 f i ciObjectFactory.obj
 0001:000b55c0       ?type_string@ciMethodKlass@@MAEPBDXZ 080b65c0 f i ciObjectFactory.obj
 0001:000b55d0       ?type_string@ciArrayKlassKlass@@MAEPBDXZ 080b65d0 f i ciObjectFactory.obj
 0001:000b55e0       ??0ciObjArrayKlassKlass@@AAE@VKlassHandle@@@Z 080b65e0 f i ciObjectFactory.obj
 0001:000b5640       ?type_string@ciObjArrayKlassKlass@@EAEPBDXZ 080b6640 f i ciObjectFactory.obj
 0001:000b5650       ??0ciSymbolKlass@@IAE@VKlassHandle@@@Z 080b6650 f i ciObjectFactory.obj
 0001:000b56f0       ?type_string@ciSymbolKlass@@MAEPBDXZ 080b66f0 f i ciObjectFactory.obj
 0001:000b5700       ??0ciTypeArrayKlassKlass@@AAE@VKlassHandle@@@Z 080b6700 f i ciObjectFactory.obj
 0001:000b5760       ?type_string@ciTypeArrayKlassKlass@@EAEPBDXZ 080b6760 f i ciObjectFactory.obj
 0001:000b5770       ?get_empty_methodData@ciObjectFactory@@QAEPAVciMethodData@@XZ 080b6770 f   ciObjectFactory.obj
 0001:000b57e0       ?find@ciObjectFactory@@AAEHPAVoopDesc@@PAV?$GrowableArray@PAVciObject@@@@@Z 080b67e0 f   ciObjectFactory.obj
 0001:000b5890       ?is_found_at@ciObjectFactory@@AAE_NHPAVoopDesc@@PAV?$GrowableArray@PAVciObject@@@@@Z 080b6890 f   ciObjectFactory.obj
 0001:000b5910       ?type_string@ciArray@@MAEPBDXZ 080b6910 f i ciObjectFactory.obj
 0001:000b5920       ?is_methodData@oopDesc@@QBE_NXZ 080b6920 f i ciObjectFactory.obj
 0001:000b5930       ??0ciInstance@@IAE@VinstanceHandle@@@Z 080b6930 f i ciObjectFactory.obj
 0001:000b59b0       ?type_string@ciInstance@@MAEPBDXZ 080b69b0 f i ciObjectFactory.obj
 0001:000b59c0       ??0ciCallSite@@QAE@VinstanceHandle@@@Z 080b69c0 f i ciObjectFactory.obj
 0001:000b59e0       ??0ciMethodHandle@@QAE@VinstanceHandle@@@Z 080b69e0 f i ciObjectFactory.obj
 0001:000b5a00       ??0ciObjArray@@IAE@VobjArrayHandle@@@Z 080b6a00 f i ciObjectFactory.obj
 0001:000b5a50       ?type_string@ciObjArray@@MAEPBDXZ 080b6a50 f i ciObjectFactory.obj
 0001:000b5a60       ??0ciTypeArray@@IAE@VtypeArrayHandle@@@Z 080b6a60 f i ciObjectFactory.obj
 0001:000b5ab0       ?type_string@ciTypeArray@@MAEPBDXZ 080b6ab0 f i ciObjectFactory.obj
 0001:000b5ac0       ?find_non_perm@ciObjectFactory@@AAEAAPAUNonPermObject@1@PAVoopDesc@@@Z 080b6ac0 f   ciObjectFactory.obj
 0001:000b5bf0       ?insert_non_perm@ciObjectFactory@@AAEXAAPAUNonPermObject@1@PAVoopDesc@@PAVciObject@@@Z 080b6bf0 f   ciObjectFactory.obj
 0001:000b5d20       ??0methodDataHandle@@QAE@PAVThread@@PAVmethodDataOopDesc@@@Z 080b6d20 f i ciObjectFactory.obj
 0001:000b5d80       ??0constantPoolCacheHandle@@QAE@PAVThread@@PAVconstantPoolCacheOopDesc@@@Z 080b6d80 f i ciObjectFactory.obj
 0001:000b5de0       ??0objArrayHandle@@QAE@PAVThread@@PAVobjArrayOopDesc@@@Z 080b6de0 f i ciObjectFactory.obj
 0001:000b5e30       ??0typeArrayHandle@@QAE@PAVThread@@PAVtypeArrayOopDesc@@@Z 080b6e30 f i ciObjectFactory.obj
 0001:000b5e80       ?is_subclass@java_dyn_MethodHandle@@SA_NPAVklassOopDesc@@@Z 080b6e80 f i ciObjectFactory.obj
 0001:000b5ed0       ?is_instance@java_dyn_MethodHandle@@SA_NPAVoopDesc@@@Z 080b6ed0 f i ciObjectFactory.obj
 0001:000b5f00       ?is_subclass@java_dyn_CallSite@@SA_NPAVklassOopDesc@@@Z 080b6f00 f i ciObjectFactory.obj
 0001:000b5f50       ?is_instance@java_dyn_CallSite@@SA_NPAVoopDesc@@@Z 080b6f50 f i ciObjectFactory.obj
 0001:000b5f80       ??0ciObjectFactory@@QAE@PAVArena@@H@Z 080b6f80 f   ciObjectFactory.obj
 0001:000b6120       ?create_new_object@ciObjectFactory@@AAEPAVciObject@@PAVoopDesc@@@Z 080b7120 f   ciObjectFactory.obj
 0001:000b66c0       ?get_unloaded_method@ciObjectFactory@@QAEPAVciMethod@@PAVciInstanceKlass@@PAVciSymbol@@1@Z 080b76c0 f   ciObjectFactory.obj
 0001:000b67f0       ?insert@ciObjectFactory@@AAEXHPAVciObject@@PAV?$GrowableArray@PAVciObject@@@@@Z 080b77f0 f   ciObjectFactory.obj
 0001:000b69d0       ?get@ciObjectFactory@@QAEPAVciObject@@PAVoopDesc@@@Z 080b79d0 f   ciObjectFactory.obj
 0001:000b6da0       ?init_shared_objects@ciObjectFactory@@QAEXXZ 080b7da0 f   ciObjectFactory.obj
 0001:000b8c20       ?get_unloaded_klass@ciObjectFactory@@QAEPAVciKlass@@PAV2@PAVciSymbol@@_N@Z 080b9c20 f   ciObjectFactory.obj
 0001:000b8f60       ?initialize@ciObjectFactory@@SAXXZ 080b9f60 f   ciObjectFactory.obj
 0001:000b9020       ?next@SignatureStream@@QAEXXZ 080ba020 f i ciSignature.obj
 0001:000b9180       ?return_type@ciSignature@@QBEPAVciType@@XZ 080ba180 f   ciSignature.obj
 0001:000b91c0       ?type_at@ciSignature@@QBEPAVciType@@H@Z 080ba1c0 f   ciSignature.obj
 0001:000b9220       ??0ciSignature@@AAE@PAVciKlass@@PAVciSymbol@@@Z 080ba220 f   ciSignature.obj
 0001:000b9450       ?wide@ciBytecodeStream@@AAE?AW4Code@Bytecodes@@XZ 080ba450 f   ciStreams.obj
 0001:000b9480       ?reset_to_bci@ciBytecodeStream@@QAEXH@Z 080ba480 f   ciStreams.obj
 0001:000b94a0       ?count@ciExceptionHandlerStream@@QAEHXZ 080ba4a0 f   ciStreams.obj
 0001:000b9500       ?table@ciBytecodeStream@@AAE?AW4Code@Bytecodes@@W423@@Z 080ba500 f   ciStreams.obj
 0001:000b95b0       ?get_klass_index@ciBytecodeStream@@QBEHXZ 080ba5b0 f   ciStreams.obj
 0001:000b9700       ?get_constant_index@ciBytecodeStream@@QBEHXZ 080ba700 f   ciStreams.obj
 0001:000b9760       ?get_field_index@ciBytecodeStream@@QAEHXZ 080ba760 f   ciStreams.obj
 0001:000b9840       ?get_field@ciBytecodeStream@@QAEPAVciField@@AA_N@Z 080ba840 f   ciStreams.obj
 0001:000b9890       ?get_index_int@ciBytecodeStream@@QBEHXZ 080ba890 f i ciStreams.obj
 0001:000b9900       ?get_klass@ciBytecodeStream@@QAEPAVciKlass@@AA_N@Z 080ba900 f   ciStreams.obj
 0001:000b9aa0       ?get_constant@ciBytecodeStream@@QAE?AVciConstant@@XZ 080baaa0 f   ciStreams.obj
 0001:000b9c40       ?get_method_index@ciBytecodeStream@@QAEHXZ 080bac40 f   ciStreams.obj
 0001:000b9ca0       ?get_method@ciBytecodeStream@@QAEPAVciMethod@@AA_N@Z 080baca0 f   ciStreams.obj
 0001:000b9e90       ?get_method_holder_index@ciBytecodeStream@@QAEHXZ 080bae90 f   ciStreams.obj
 0001:000b9f00       ?get_declared_method_holder@ciBytecodeStream@@QAEPAVciKlass@@XZ 080baf00 f   ciStreams.obj
 0001:000ba140       ??0ciSymbol@@AAE@VsymbolHandle@@@Z 080bb140 f   ciSymbol.obj
 0001:000ba160       ?type_string@ciSymbol@@EAEPBDXZ 080bb160 f i ciSymbol.obj
 0001:000ba170       ?as_utf8@ciSymbol@@QAEPBDXZ 080bb170 f   ciSymbol.obj
 0001:000ba230       ?base@ciSymbol@@AAEPACXZ   080bb230 f   ciSymbol.obj
 0001:000ba360       ?byte_at@ciSymbol@@QAEHH@Z 080bb360 f   ciSymbol.obj
 0001:000ba4e0       ?starts_with@ciSymbol@@QBE_NPBDH@Z 080bb4e0 f   ciSymbol.obj
 0001:000ba630       ?index_of_at@ciSymbol@@QBEHHPBDH@Z 080bb630 f   ciSymbol.obj
 0001:000ba780       ?utf8_length@ciSymbol@@QAEHXZ 080bb780 f   ciSymbol.obj
 0001:000ba8b0       ?print_symbol_on@ciSymbol@@QAEXPAVoutputStream@@@Z 080bb8b0 f   ciSymbol.obj
 0001:000ba9f0       ?make_impl@ciSymbol@@CAPAV1@PBD@Z 080bb9f0 f   ciSymbol.obj
 0001:000baaa0       ?make@ciSymbol@@SAPAV1@PBD@Z 080bbaa0 f   ciSymbol.obj
 0001:000bab90       ?print_impl@ciSymbol@@EAEXPAVoutputStream@@@Z 080bbb90 f   ciSymbol.obj
 0001:000babc0       ??0ciType@@AAE@W4BasicType@@@Z 080bbbc0 f   ciType.obj
 0001:000bac20       ??0ciType@@AAE@PAVciKlass@@@Z 080bbc20 f   ciType.obj
 0001:000bac60       ?print_impl@ciType@@EAEXPAVoutputStream@@@Z 080bbc60 f   ciType.obj
 0001:000bac90       ?make@ciType@@SAPAV1@W4BasicType@@@Z 080bbc90 f   ciType.obj
 0001:000bacf0       ?print_impl@ciReturnAddress@@EAEXPAVoutputStream@@@Z 080bbcf0 f   ciType.obj
 0001:000bad10       ?java_mirror@Universe@@SAPAVoopDesc@@W4BasicType@@@Z 080bbd10 f i ciType.obj
 0001:000bad60       ?type_string@ciType@@EAEPBDXZ 080bbd60 f i ciType.obj
 0001:000bad70       ?type_string@ciReturnAddress@@EAEPBDXZ 080bbd70 f i ciType.obj
 0001:000bad80       ?box_klass@SystemDictionary@@SAPAVklassOopDesc@@W4BasicType@@@Z 080bbd80 f i ciType.obj
 0001:000badd0       ?is_subtype_of@ciType@@QAE_NPAV1@@Z 080bbdd0 f   ciType.obj
 0001:000bae20       ?print_name_on@ciType@@UAEXPAVoutputStream@@@Z 080bbe20 f   ciType.obj
 0001:000bae60       ?java_mirror@ciType@@UAEPAVciInstance@@XZ 080bbe60 f   ciType.obj
 0001:000bafd0       ??0ciType@@AAE@VKlassHandle@@@Z 080bbfd0 f   ciType.obj
 0001:000bb040       ?char_at_addr@typeArrayOopDesc@@QBEPAGH@Z 080bc040 f i ciTypeArray.obj
 0001:000bb0b0       ?char_at@typeArrayOopDesc@@QBEGH@Z 080bc0b0 f i ciTypeArray.obj
 0001:000bb0d0       ?typeArrayKlassObj@Universe@@SAPAVklassOopDesc@@W4BasicType@@@Z 080bc0d0 f i ciTypeArrayKlass.obj
 0001:000bb130       ??0ciTypeArrayKlass@@IAE@VKlassHandle@@@Z 080bc130 f   ciTypeArrayKlass.obj
 0001:000bb260       ?type_string@ciTypeArrayKlass@@MAEPBDXZ 080bc260 f i ciTypeArrayKlass.obj
 0001:000bb270       ?make_impl@ciTypeArrayKlass@@KAPAV1@W4BasicType@@@Z 080bc270 f   ciTypeArrayKlass.obj
 0001:000bb2d0       ?make@ciTypeArrayKlass@@SAPAV1@W4BasicType@@@Z 080bc2d0 f   ciTypeArrayKlass.obj
 0001:000bb3c0       ?classfile_parse_error@ClassFileParser@@AAEXPBDPAVThread@@@Z 080bc3c0 f   classFileError.obj
 0001:000bb460       ?classfile_parse_error@ClassFileParser@@AAEXPBDHPAVThread@@@Z 080bc460 f   classFileError.obj
 0001:000bb500       ?classfile_parse_error@ClassFileParser@@AAEXPBD0PAVThread@@@Z 080bc500 f   classFileError.obj
 0001:000bb5a0       ?classfile_parse_error@ClassFileParser@@AAEXPBDH0PAVThread@@@Z 080bc5a0 f   classFileError.obj
 0001:000bb640       ?stackmap_format_error@StackMapStream@@SAXPBDPAVThread@@@Z 080bc640 f   classFileError.obj
 0001:000bb6b0       ?valid_cp_range@@YA_NHH@Z  080bc6b0 f i classFileParser.obj
 0001:000bb6d0       ?hash@@YAIPAVLocalVariableTableElement@@@Z 080bc6d0 f   classFileParser.obj
 0001:000bb710       ?clear_hashtable@@YAXPAPAVLVT_Hash@@@Z 080bc710 f   classFileParser.obj
 0001:000bb760       ?LVT_lookup@@YAPAVLVT_Hash@@PAVLocalVariableTableElement@@HPAPAV1@@Z 080bc760 f   classFileParser.obj
 0001:000bb7b0       ??8Handle@@QBE_NPAVoopDesc@@@Z 080bc7b0 f i classFileParser.obj
 0001:000bb7e0       ?has_illegal_visibility@ClassFileParser@@AAE_NH@Z 080bc7e0 f   classFileParser.obj
 0001:000bb820       ?verify_unqualified_name@ClassFileParser@@AAE_NPADIH@Z 080bc820 f   classFileParser.obj
 0001:000bb8a0       ??CobjArrayHandle@@QBEPAVobjArrayOopDesc@@XZ 080bc8a0 f i classFileParser.obj
 0001:000bb8a0       ??CHandle@@QBEPAVoopDesc@@XZ 080bc8a0 f i biasedLocking.obj
 0001:000bb8a0       ?non_null_obj@Handle@@IBEPAVoopDesc@@XZ 080bc8a0 f i arrayKlass.obj
 0001:000bb8a0       ??CconstantPoolHandle@@QBEPAVconstantPoolOopDesc@@XZ 080bc8a0 f i ciEnv.obj
 0001:000bb8a0       ??CsymbolHandle@@QBEPAVsymbolOopDesc@@XZ 080bc8a0 f i bytecodeTracer.obj
 0001:000bb8a0       ??CmethodHandle@@QBEPAVmethodOopDesc@@XZ 080bc8a0 f i bytecode.obj
 0001:000bb8a0       ??CtypeArrayHandle@@QBEPAVtypeArrayOopDesc@@XZ 080bc8a0 f i classFileParser.obj
 0001:000bb8d0       ?field_type_should_be_aligned@Universe@@SA_NW4BasicType@@@Z 080bc8d0 f i classFileParser.obj
 0001:000bb8f0       ?equals@symbolOopDesc@@QBE_NPBD@Z 080bc8f0 f i classFileParser.obj
 0001:000bb920       ?type_signature@vmSymbols@@SAPAVsymbolOopDesc@@W4BasicType@@@Z 080bc920 f i classFileParser.obj
 0001:000bb980       ?write@CompressedWriteStream@@AAEXE@Z 080bc980 f i classFileParser.obj
 0001:000bb980       ?write_byte@CompressedWriteStream@@QAEXC@Z 080bc980 f i classFileParser.obj
 0001:000bb9b0       ?size_helper@instanceKlass@@QBEHXZ 080bc9b0 f i classFileParser.obj
 0001:000bb9e0       ??0CompressedLineNumberWriteStream@@QAE@H@Z 080bc9e0 f i classFileParser.obj
 0001:000bba10       ??0CompressedLineNumberWriteStream@@QAE@PAEH@Z 080bca10 f i classFileParser.obj
 0001:000bba40       ?write_pair_inline@CompressedLineNumberWriteStream@@QAEXHH@Z 080bca40 f i classFileParser.obj
 0001:000bbab0       ?write_terminator@CompressedLineNumberWriteStream@@QAEXXZ 080bcab0 f i classFileParser.obj
 0001:000bbae0       ?inc@PerfLongVariant@@QAEX_J@Z 080bcae0 f i classFileParser.obj
 0001:000bbb00       ?guarantee_more@ClassFileStream@@QAEXHPAVThread@@@Z 080bcb00 f i classFileParser.obj
 0001:000bbb20       ?guarantee_property@ClassFileParser@@AAEX_NPBDPAVThread@@@Z 080bcb20 f i classFileParser.obj
 0001:000bbb40       ?guarantee_property@ClassFileParser@@AAEX_NPBDHPAVThread@@@Z 080bcb40 f i classFileParser.obj
 0001:000bbb60       ?guarantee_property@ClassFileParser@@AAEX_NPBDH1PAVThread@@@Z 080bcb60 f i classFileParser.obj
 0001:000bbb90       ?is_anonymous@ClassFileParser@@AAE_NXZ 080bcb90 f i classFileParser.obj
 0001:000bbbd0       ?initialize@PerfClassTraceTime@@QAEXXZ 080bcbd0 f i classFileParser.obj
 0001:000bbc90       ??1PerfClassTraceTime@@QAE@XZ 080bcc90 f i classFileParser.obj
 0001:000bbd60       ?is_gte_jdk16x_version@JDK_Version@@SA_NXZ 080bcd60 f i classFileParser.obj
 0001:000bbda0       ?push_int@JavaCallArguments@@QAEXH@Z 080bcda0 f i classFileParser.obj
 0001:000bbdd0       ?add_class_method_size@ClassLoadingService@@SAXH@Z 080bcdd0 f i classFileParser.obj
 0001:000bbe00       ?compute_oop_map_count@ClassFileParser@@AAEIVinstanceKlassHandle@@IH@Z 080bce00 f   classFileParser.obj
 0001:000bbeb0       ?fill_oop_maps@ClassFileParser@@AAEXVinstanceKlassHandle@@IPAHPAI@Z 080bceb0 f   classFileParser.obj
 0001:000bc020       ?is_supported_version@ClassFileParser@@AAE_NGG@Z 080bd020 f   classFileParser.obj
 0001:000bc0a0       ?verify_legal_utf8@ClassFileParser@@AAEXPBEHPAVThread@@@Z 080bd0a0 f   classFileParser.obj
 0001:000bc2f0       ?set_code@methodOopDesc@@QAEXPAE@Z 080bd2f0 f i classFileParser.obj
 0001:000bc320       ?get_u2_fast@ClassFileStream@@QAEGXZ 080bd320 f i classFileParser.obj
 0001:000bc340       ?get_u8_fast@ClassFileStream@@QAE_KXZ 080bd340 f i classFileParser.obj
 0001:000bc370       ?check_property@ClassFileParser@@AAEX_NPBDHPAVThread@@@Z 080bd370 f i classFileParser.obj
 0001:000bc3c0       ?has_cp_patch_at@ClassFileParser@@AAE_NH@Z 080bd3c0 f i classFileParser.obj
 0001:000bc460       ?cp_patch_at@ClassFileParser@@AAE?AVHandle@@H@Z 080bd460 f i classFileParser.obj
 0001:000bc4d0       ?clear_cp_patch_at@ClassFileParser@@AAE?AVHandle@@H@Z 080bd4d0 f i classFileParser.obj
 0001:000bc560       ??0PerfClassTraceTime@@QAE@PAVPerfLongCounter@@00PAHPAVelapsedTimer@@H@Z 080bd560 f i classFileParser.obj
 0001:000bc5b0       ?is_instance@java_lang_String@@SA_NPAVoopDesc@@@Z 080bd5b0 f i classFileParser.obj
 0001:000bc600       ?put_after_lookup@@YA_NPAVsymbolOopDesc@@0PAPAVNameSigHash@@@Z 080bd600 f   classFileParser.obj
 0001:000bc690       ?parse_linenumber_table@ClassFileParser@@AAEXIIPAPAVCompressedLineNumberWriteStream@@PAVThread@@@Z 080bd690 f   classFileParser.obj
 0001:000bc810       ?copy_lvt_element@@YAXPAVClassfile_LVT_Element@@PAVLocalVariableTableElement@@@Z 080bd810 f   classFileParser.obj
 0001:000bc880       ?set_precomputed_flags@ClassFileParser@@AAEXVinstanceKlassHandle@@@Z 080bd880 f   classFileParser.obj
 0001:000bcbe0       ?check_super_class_access@ClassFileParser@@SAXVinstanceKlassHandle@@PAVThread@@@Z 080bdbe0 f   classFileParser.obj
 0001:000bcca0       ?verify_legal_class_modifiers@ClassFileParser@@AAEXHPAVThread@@@Z 080bdca0 f   classFileParser.obj
 0001:000bcdc0       ?verify_legal_field_modifiers@ClassFileParser@@AAEXH_NPAVThread@@@Z 080bddc0 f   classFileParser.obj
 0001:000bcef0       ?verify_legal_method_modifiers@ClassFileParser@@AAEXH_NVsymbolHandle@@PAVThread@@@Z 080bdef0 f   classFileParser.obj
 0001:000bd110       ??$oop_store_without_check@PAVoopDesc@@@@YAXPCRAVoopDesc@@PAV0@@Z 080be110 f i classFileParser.obj
 0001:000bd160       ?LVT_put_after_lookup@@YA_NPAVLocalVariableTableElement@@PAPAVLVT_Hash@@@Z 080be160 f   classFileParser.obj
 0001:000bd1e0       ?skip_over_field_name@ClassFileParser@@AAEPADPAD_NI@Z 080be1e0 f   classFileParser.obj
 0001:000bd460       ?skip_over_field_signature@ClassFileParser@@AAEPADPAD_NIPAVThread@@@Z 080be460 f   classFileParser.obj
 0001:000bd590       ?short_at_addr@typeArrayOopDesc@@QBEPAFH@Z 080be590 f i classFileParser.obj
 0001:000bd600       ?ushort_at_addr@typeArrayOopDesc@@QBEPAGH@Z 080be600 f i classFileParser.obj
 0001:000bd670       ?byte_at_put@typeArrayOopDesc@@QAEXHC@Z 080be670 f i classFileParser.obj
 0001:000bd690       ?int_at_put@typeArrayOopDesc@@QAEXHH@Z 080be690 f i classFileParser.obj
 0001:000bd6b0       ?short_at_put@typeArrayOopDesc@@QAEXHF@Z 080be6b0 f i classFileParser.obj
 0001:000bd6d0       ?ushort_at@typeArrayOopDesc@@QBEGH@Z 080be6d0 f i classFileParser.obj
 0001:000bd6f0       ?tag_at_put@constantPoolOopDesc@@AAEXHC@Z 080be6f0 f i classFileParser.obj
 0001:000bd710       ?klass_at_put@constantPoolOopDesc@@QAEXHPAVklassOopDesc@@@Z 080be710 f i classFileParser.obj
 0001:000bd7d0       ?klass_index_at_put@constantPoolOopDesc@@QAEXHH@Z 080be7d0 f i classFileParser.obj
 0001:000bd820       ?int_at_put@constantPoolOopDesc@@QAEXHH@Z 080be820 f i classFileParser.obj
 0001:000bd870       ?long_at_put@constantPoolOopDesc@@QAEXH_J@Z 080be870 f i classFileParser.obj
 0001:000bd8c0       ?float_at_put@constantPoolOopDesc@@QAEXHM@Z 080be8c0 f i classFileParser.obj
 0001:000bd910       ?double_at_put@constantPoolOopDesc@@QAEXHN@Z 080be910 f i classFileParser.obj
 0001:000bd960       ?string_at_put@constantPoolOopDesc@@QAEXHPAVoopDesc@@@Z 080be960 f i classFileParser.obj
 0001:000bd9f0       ?string_index_at_put@constantPoolOopDesc@@QAEXHH@Z 080be9f0 f i classFileParser.obj
 0001:000bda40       ?field_at_put@constantPoolOopDesc@@QAEXHHH@Z 080bea40 f i classFileParser.obj
 0001:000bda90       ?method_at_put@constantPoolOopDesc@@QAEXHHH@Z 080bea90 f i classFileParser.obj
 0001:000bdae0       ?interface_method_at_put@constantPoolOopDesc@@QAEXHHH@Z 080beae0 f i classFileParser.obj
 0001:000bdb30       ?name_and_type_at_put@constantPoolOopDesc@@QAEXHHH@Z 080beb30 f i classFileParser.obj
 0001:000bdb80       ?pseudo_string_at_put@constantPoolOopDesc@@QAEXHPAVoopDesc@@@Z 080beb80 f i classFileParser.obj
 0001:000bdc50       ?klass_index_at@constantPoolOopDesc@@AAEHH@Z 080bec50 f i classFileParser.obj
 0001:000bdce0       ?string_index_at@constantPoolOopDesc@@AAEHH@Z 080bece0 f i classFileParser.obj
 0001:000bdd70       ?is_klass_reference@ClassFileParser@@AAE_NVconstantPoolHandle@@H@Z 080bed70 f i classFileParser.obj
 0001:000bde50       ?verify_constantvalue@ClassFileParser@@AAEXHHVconstantPoolHandle@@PAVThread@@@Z 080bee50 f   classFileParser.obj
 0001:000be000       ?parse_exception_table@ClassFileParser@@AAE?AVtypeArrayHandle@@IIVconstantPoolHandle@@PAVThread@@@Z 080bf000 f   classFileParser.obj
 0001:000be290       ?parse_stackmap_table@ClassFileParser@@AAEPAVtypeArrayOopDesc@@IPAVThread@@@Z 080bf290 f   classFileParser.obj
 0001:000be350       ?parse_checked_exceptions@ClassFileParser@@AAEPAGPAGIVconstantPoolHandle@@PAVThread@@@Z 080bf350 f   classFileParser.obj
 0001:000be530       ?assemble_annotations@ClassFileParser@@AAE?AVtypeArrayHandle@@PAEH0HPAVThread@@@Z 080bf530 f   classFileParser.obj
 0001:000be610       ?java_lang_ref_Reference_fix_pre@ClassFileParser@@AAEXPAVtypeArrayHandle@@VconstantPoolHandle@@PAUFieldAllocationCount@@PAVThread@@@Z 080bf610 f   classFileParser.obj
 0001:000bee20       ?java_dyn_MethodHandle_fix_pre@ClassFileParser@@AAEXVconstantPoolHandle@@PAVtypeArrayHandle@@PAUFieldAllocationCount@@PAVThread@@@Z 080bfe20 f   classFileParser.obj
 0001:000bf1f0       ?verify_legal_class_name@ClassFileParser@@AAEXVsymbolHandle@@PAVThread@@@Z 080c01f0 f   classFileParser.obj
 0001:000bf320       ?verify_legal_field_name@ClassFileParser@@AAEXVsymbolHandle@@PAVThread@@@Z 080c0320 f   classFileParser.obj
 0001:000bf400       ?verify_legal_method_name@ClassFileParser@@AAEXVsymbolHandle@@PAVThread@@@Z 080c0400 f   classFileParser.obj
 0001:000bf520       ?verify_legal_field_signature@ClassFileParser@@AAEXVsymbolHandle@@0PAVThread@@@Z 080c0520 f   classFileParser.obj
 0001:000bf630       ?verify_legal_method_signature@ClassFileParser@@AAEHVsymbolHandle@@0PAVThread@@@Z 080c0630 f   classFileParser.obj
 0001:000bf860       ?set_class_loader@instanceKlass@@QAEXPAVoopDesc@@@Z 080c0860 f i classFileParser.obj
 0001:000bf8b0       ?set_protection_domain@instanceKlass@@QAEXPAVoopDesc@@@Z 080c08b0 f i classFileParser.obj
 0001:000bf900       ?obj_field_put@oopDesc@@QAEXHPAV1@@Z 080c0900 f i classFileParser.obj
 0001:000bf950       ?parse_interfaces@ClassFileParser@@AAE?AVobjArrayHandle@@VconstantPoolHandle@@HVHandle@@1VsymbolHandle@@PAVThread@@@Z 080c0950 f   classFileParser.obj
 0001:000bfdf0       ?parse_field_attributes@ClassFileParser@@AAEXVconstantPoolHandle@@G_NGPAGPA_N2PAVtypeArrayHandle@@PAVThread@@@Z 080c0df0 f   classFileParser.obj
 0001:000c0200       ?parse_fields@ClassFileParser@@AAE?AVtypeArrayHandle@@VconstantPoolHandle@@_NPAUFieldAllocationCount@@PAVobjArrayHandle@@PAVThread@@@Z 080c1200 f   classFileParser.obj
 0001:000c0960       ?parse_localvariable_table@ClassFileParser@@AAEPAGIGIVconstantPoolHandle@@PAG_NPAVThread@@@Z 080c1960 f   classFileParser.obj
 0001:000c0d20       ?sort_methods@ClassFileParser@@AAE?AVtypeArrayHandle@@VobjArrayHandle@@000PAVThread@@@Z 080c1d20 f   classFileParser.obj
 0001:000c1220       ?append_interfaces@@YAXVobjArrayHandle@@AAHPAVobjArrayOopDesc@@@Z 080c2220 f   classFileParser.obj
 0001:000c1480       ?compute_transitive_interfaces@ClassFileParser@@AAE?AVobjArrayHandle@@VinstanceKlassHandle@@V2@PAVThread@@@Z 080c2480 f   classFileParser.obj
 0001:000c1860       ?check_super_interface_access@ClassFileParser@@SAXVinstanceKlassHandle@@PAVThread@@@Z 080c2860 f   classFileParser.obj
 0001:000c1a30       ?check_final_method_override@ClassFileParser@@SAXVinstanceKlassHandle@@PAVThread@@@Z 080c2a30 f   classFileParser.obj
 0001:000c1c90       ?check_illegal_static_method@ClassFileParser@@SAXVinstanceKlassHandle@@PAVThread@@@Z 080c2c90 f   classFileParser.obj
 0001:000c1e40       ?set_name@Klass@@QAEXPAVsymbolOopDesc@@@Z 080c2e40 f i classFileParser.obj
 0001:000c1ea0       ?set_stackmap_data@constMethodOopDesc@@QAEXPAVtypeArrayOopDesc@@@Z 080c2ea0 f i classFileParser.obj
 0001:000c1f00       ?set_exception_table@constMethodOopDesc@@QAEXPAVtypeArrayOopDesc@@@Z 080c2f00 f i classFileParser.obj
 0001:000c1f60       ?unresolved_klass_at_put@constantPoolOopDesc@@QAEXHPAVsymbolOopDesc@@@Z 080c2f60 f i classFileParser.obj
 0001:000c2020       ?unresolved_string_at_put@constantPoolOopDesc@@QAEXHPAVsymbolOopDesc@@@Z 080c3020 f i classFileParser.obj
 0001:000c20e0       ?symbol_at_put@constantPoolOopDesc@@QAEXHPAVsymbolOopDesc@@@Z 080c30e0 f i classFileParser.obj
 0001:000c2170       ?set_higher_dimension@arrayKlass@@QAEXPAVklassOopDesc@@@Z 080c3170 f i arrayKlass.obj
 0001:000c2170       ?set_methods@instanceKlass@@QAEXPAVobjArrayOopDesc@@@Z 080c3170 f i classFileParser.obj
 0001:000c21d0       ?set_local_interfaces@instanceKlass@@QAEXPAVobjArrayOopDesc@@@Z 080c31d0 f i classFileParser.obj
 0001:000c2230       ?set_transitive_interfaces@instanceKlass@@QAEXPAVobjArrayOopDesc@@@Z 080c3230 f i classFileParser.obj
 0001:000c2290       ?set_fields@instanceKlass@@QAEXPAVtypeArrayOopDesc@@@Z 080c3290 f i classFileParser.obj
 0001:000c22f0       ?set_inner_classes@instanceKlass@@QAEXPAVtypeArrayOopDesc@@@Z 080c32f0 f i classFileParser.obj
 0001:000c2350       ?set_source_file_name@instanceKlass@@QAEXPAVsymbolOopDesc@@@Z 080c3350 f i classFileParser.obj
 0001:000c23b0       ?set_source_debug_extension@instanceKlass@@QAEXPAVsymbolOopDesc@@@Z 080c33b0 f i classFileParser.obj
 0001:000c2410       ?set_generic_signature@instanceKlass@@QAEXPAVsymbolOopDesc@@@Z 080c3410 f i classFileParser.obj
 0001:000c2470       ?set_class_annotations@instanceKlass@@QAEXPAVtypeArrayOopDesc@@@Z 080c3470 f i classFileParser.obj
 0001:000c24d0       ?set_annotations@instanceKlass@@AAEXPAVobjArrayOopDesc@@PAPAV2@@Z 080c34d0 f i classFileParser.obj
 0001:000c2530       ?set_holder_klass@compiledICHolderOopDesc@@QAEXPAVklassOopDesc@@@Z 080c3530 f i compiledICHolderKlass.obj
 0001:000c2530       ?set_secondary_super_cache@Klass@@QAEXPAVklassOopDesc@@@Z 080c3530 f i klass.obj
 0001:000c2530       ?set_constant_pool@constantPoolCacheOopDesc@@QAEXPAVconstantPoolOopDesc@@@Z 080c3530 f i cpCacheKlass.obj
 0001:000c2530       ?set_constants@methodOopDesc@@QAEXPAVconstantPoolOopDesc@@@Z 080c3530 f i classFileParser.obj
 0001:000c2590       ?parse_constant_pool_entries@ClassFileParser@@AAEXVconstantPoolHandle@@HPAVThread@@@Z 080c3590 f   classFileParser.obj
 0001:000c2c70       ?patch_constant_pool@ClassFileParser@@AAEXVconstantPoolHandle@@HVHandle@@PAVThread@@@Z 080c3c70 f   classFileParser.obj
 0001:000c3060       ?parse_method@ClassFileParser@@AAE?AVmethodHandle@@VconstantPoolHandle@@_NPAVAccessFlags@@PAVtypeArrayHandle@@33PAVThread@@@Z 080c4060 f   classFileParser.obj
 0001:000c4500       ?parse_methods@ClassFileParser@@AAE?AVobjArrayHandle@@VconstantPoolHandle@@_NPAVAccessFlags@@PA_NPAPAVobjArrayOopDesc@@44PAVThread@@@Z 080c5500 f   classFileParser.obj
 0001:000c4940       ?parse_classfile_sourcefile_attribute@ClassFileParser@@AAEXVconstantPoolHandle@@VinstanceKlassHandle@@PAVThread@@@Z 080c5940 f   classFileParser.obj
 0001:000c4a50       ?parse_classfile_source_debug_extension_attribute@ClassFileParser@@AAEXVconstantPoolHandle@@VinstanceKlassHandle@@HPAVThread@@@Z 080c5a50 f   classFileParser.obj
 0001:000c4ae0       ?parse_classfile_inner_classes_attribute@ClassFileParser@@AAEGVconstantPoolHandle@@VinstanceKlassHandle@@PAVThread@@@Z 080c5ae0 f   classFileParser.obj
 0001:000c5070       ?parse_classfile_signature_attribute@ClassFileParser@@AAEXVconstantPoolHandle@@VinstanceKlassHandle@@PAVThread@@@Z 080c6070 f   classFileParser.obj
 0001:000c5160       ?parse_classfile_attributes@ClassFileParser@@AAEXVconstantPoolHandle@@VinstanceKlassHandle@@PAVThread@@@Z 080c6160 f   classFileParser.obj
 0001:000c5730       ?set_fields_annotations@instanceKlass@@QAEXPAVobjArrayOopDesc@@@Z 080c6730 f i classFileParser.obj
 0001:000c5750       ?set_methods_annotations@instanceKlass@@QAEXPAVobjArrayOopDesc@@@Z 080c6750 f i classFileParser.obj
 0001:000c5770       ?set_methods_parameter_annotations@instanceKlass@@QAEXPAVobjArrayOopDesc@@@Z 080c6770 f i classFileParser.obj
 0001:000c5790       ?set_methods_default_annotations@instanceKlass@@QAEXPAVobjArrayOopDesc@@@Z 080c6790 f i classFileParser.obj
 0001:000c57b0       ?parse_constant_pool@ClassFileParser@@AAE?AVconstantPoolHandle@@PAVThread@@@Z 080c67b0 f   classFileParser.obj
 0001:000c6200       ?parseClassFile@ClassFileParser@@QAE?AVinstanceKlassHandle@@VsymbolHandle@@VHandle@@1VKlassHandle@@PAV?$GrowableArray@VHandle@@@@AAV3@_NPAVThread@@@Z 080c7200 f   classFileParser.obj
 0001:000c7ec0       ?truncated_file_error@ClassFileStream@@AAEXPAVThread@@@Z 080c8ec0 f   classFileStream.obj
 0001:000c7ef0       ??0ClassFileStream@@QAE@PAEHPAD@Z 080c8ef0 f   classFileStream.obj
 0001:000c7f20       ?get_u2@ClassFileStream@@QAEGPAVThread@@@Z 080c8f20 f   classFileStream.obj
 0001:000c7fb0       ?skip_u1@ClassFileStream@@QAEXHPAVThread@@@Z 080c8fb0 f   classFileStream.obj
 0001:000c8000       ?close@hpi@@SAHH@Z         080c9000 f i classLoader.obj
 0001:000c8080       ?is_jar_file@LazyClassPathEntry@@UAE_NXZ 080c9080 f   classLoader.obj
 0001:000c80a0       ?print_raw@outputStream@@QAEXPBD@Z 080c90a0 f i classLoader.obj
 0001:000c80d0       ?new_entry@PackageHashtable@@QAEPAVPackageInfo@@PADH@Z 080c90d0 f i classLoader.obj
 0001:000c8100       ?copy_package_info_buckets@ClassLoader@@SAXPAPADPAD@Z 080c9100 f   classLoader.obj
 0001:000c8120       ?verify@ClassLoader@@SAXXZ 080c9120 f   classLoader.obj
 0001:000c8130       ?compile_the_world@ClassPathDirEntry@@UAEXVHandle@@PAVThread@@@Z 080c9130 f   classLoader.obj
 0001:000c8160       ?create_counter@PerfDataManager@@SAPAVPerfLongCounter@@W4CounterNS@@PBDW4Units@PerfData@@PAVThread@@@Z 080c9160 f i classLoader.obj
 0001:000c8190       ?native_path@hpi@@SAPADPAD@Z 080c9190 f i classLoader.obj
 0001:000c8210       ?open@hpi@@SAHPBDHH@Z      080c9210 f i classLoader.obj
 0001:000c82a0       ?dll_build_name@hpi@@SAXPADHPBD1@Z 080c92a0 f i classLoader.obj
 0001:000c8310       ?dll_load@hpi@@SAPAXPBDPADH@Z 080c9310 f i classLoader.obj
 0001:000c83a0       ?dll_lookup@hpi@@SAPAXPAXPBD@Z 080c93a0 f i classLoader.obj
 0001:000c8420       ?hash_to_index@BasicHashtable@@QAEHI@Z 080c9420 f i classLoader.obj
 0001:000c8460       ?classpath_entry@ClassLoader@@SAPAVClassPathEntry@@H@Z 080c9460 f i classLoader.obj
 0001:000c84a0       ?is_jdk12x_version@JDK_Version@@SA_NXZ 080c94a0 f i classLoader.obj
 0001:000c8500       ??0ThreadToNativeFromVM@@QAE@PAVJavaThread@@@Z 080c9500 f i classLoader.obj
 0001:000c85a0       ??1ThreadToNativeFromVM@@QAE@XZ 080c95a0 f i classLoader.obj
 0001:000c85c0       ?may_contain@MetaIndex@@QAE_NPBD@Z 080c95c0 f   classLoader.obj
 0001:000c8650       ?open_stream@ClassPathDirEntry@@UAEPAVClassFileStream@@PBD@Z 080c9650 f   classLoader.obj
 0001:000c8740       ??1ClassPathZipEntry@@QAE@XZ 080c9740 f   classLoader.obj
 0001:000c8820       ?add_to_list@ClassLoader@@SAXPAVClassPathEntry@@@Z 080c9820 f   classLoader.obj
 0001:000c8850       ?load_zip_library@ClassLoader@@CAXXZ 080c9850 f   classLoader.obj
 0001:000c8990       ?classloader_time_ms@ClassLoader@@SA_JXZ 080c9990 f   classLoader.obj
 0001:000c89c0       ?class_init_count@ClassLoader@@SA_JXZ 080c99c0 f   classLoader.obj
 0001:000c89e0       ?class_init_time_ms@ClassLoader@@SA_JXZ 080c99e0 f   classLoader.obj
 0001:000c8a10       ?class_verify_time_ms@ClassLoader@@SA_JXZ 080c9a10 f   classLoader.obj
 0001:000c8a40       ?is_rt_jar@ClassPathZipEntry@@UAE_NXZ 080c9a40 f   classLoader.obj
 0001:000c8a90       ??0BasicHashtable@@QAE@HH@Z 080c9a90 f i classLoader.obj
 0001:000c8b30       ??0MetaIndex@@QAE@PAPADH@Z 080c9b30 f   classLoader.obj
 0001:000c8bc0       ??0ClassPathDirEntry@@QAE@PAD@Z 080c9bc0 f   classLoader.obj
 0001:000c8c50       ??0ClassPathZipEntry@@QAE@PAPAXPBD@Z 080c9c50 f   classLoader.obj
 0001:000c8ce0       ?open_stream@ClassPathZipEntry@@UAEPAVClassFileStream@@PBD@Z 080c9ce0 f   classLoader.obj
 0001:000c8e40       ??0LazyClassPathEntry@@QAE@PADUstat@@@Z 080c9e40 f   classLoader.obj
 0001:000c8e90       ?get_entry@PackageHashtable@@AAEPAVPackageInfo@@HIPBDI@Z 080c9e90 f i classLoader.obj
 0001:000c8ef0       ?get_entry@PackageHashtable@@QAEPAVPackageInfo@@PBDH@Z 080c9ef0 f i classLoader.obj
 0001:000c8f60       ?copy_pkgnames@PackageHashtable@@QAEXPAPBD@Z 080c9f60 f i classLoader.obj
 0001:000c8fc0       ?copy_table@PackageHashtable@@QAEXPAPADPADPAV1@@Z 080c9fc0 f   classLoader.obj
 0001:000c90f0       ?copy_package_info_table@ClassLoader@@SAXPAPADPAD@Z 080ca0f0 f   classLoader.obj
 0001:000c9110       ?add_package@ClassLoader@@CA_NPBDHPAVThread@@@Z 080ca110 f   classLoader.obj
 0001:000c9220       ?get_system_package@ClassLoader@@SAPAVoopDesc@@PBDPAVThread@@@Z 080ca220 f   classLoader.obj
 0001:000c92d0       ?create_package_info_table@ClassLoader@@SAXPAVHashtableBucket@@HH@Z 080ca2d0 f   classLoader.obj
 0001:000c9370       ?create_package_info_table@ClassLoader@@SAXXZ 080ca370 f   classLoader.obj
 0001:000c93d0       ?get_canonical_path@ClassLoader@@CA_NPAD0H@Z 080ca3d0 f   classLoader.obj
 0001:000c9490       ?compile_the_world@ClassLoader@@SAXXZ 080ca490 f   classLoader.obj
 0001:000c95a0       ?setup_meta_index@ClassLoader@@CAXXZ 080ca5a0 f   classLoader.obj
 0001:000c9a50       ?create_class_path_entry@ClassLoader@@CAXPADUstat@@PAPAVClassPathEntry@@_N@Z 080caa50 f   classLoader.obj
 0001:000c9cf0       ?create_class_path_zip_entry@ClassLoader@@SAPAVClassPathZipEntry@@PBD@Z 080cacf0 f   classLoader.obj
 0001:000c9dd0       ?load_classfile@ClassLoader@@SA?AVinstanceKlassHandle@@VsymbolHandle@@PAVThread@@@Z 080cadd0 f   classLoader.obj
 0001:000ca050       ?resolve_entry@LazyClassPathEntry@@AAEPAVClassPathEntry@@XZ 080cb050 f   classLoader.obj
 0001:000ca100       ?open_stream@LazyClassPathEntry@@UAEPAVClassFileStream@@PBD@Z 080cb100 f   classLoader.obj
 0001:000ca140       ?setup_bootstrap_search_path@ClassLoader@@CAXXZ 080cb140 f   classLoader.obj
 0001:000ca300       ?initialize@ClassLoader@@SAXXZ 080cb300 f   classLoader.obj
 0001:000ca810       ?classLoader_init@@YAXXZ   080cb810 f   classLoader.obj
 0001:000ca820       ?compile_the_world@LazyClassPathEntry@@UAEXVHandle@@PAVThread@@@Z 080cb820 f   classLoader.obj
 0001:000ca830       ?is_rt_jar@LazyClassPathEntry@@UAE_NXZ 080cb830 f   classLoader.obj
 0001:000ca840       ?get_system_packages@ClassLoader@@SAPAVobjArrayOopDesc@@PAVThread@@@Z 080cb840 f   classLoader.obj
 0001:000caa80       ?compile_the_world_in@ClassLoader@@SAXPADVHandle@@PAVThread@@@Z 080cba80 f   classLoader.obj
 0001:000cade0       ?compile_the_world12@ClassPathZipEntry@@QAEXVHandle@@PAVThread@@@Z 080cbde0 f   classLoader.obj
 0001:000cade0       ?compile_the_world13@ClassPathZipEntry@@QAEXVHandle@@PAVThread@@@Z 080cbde0 f   classLoader.obj
 0001:000cae50       ?compile_the_world@ClassPathZipEntry@@UAEXVHandle@@PAVThread@@@Z 080cbe50 f   classLoader.obj
 0001:000caf60       ?loaded_class_count@ClassLoadingService@@SA_JXZ 080cbf60 f i classLoadingService.obj
 0001:000caf80       ?init@ClassLoadingService@@SAXXZ 080cbf80 f   classLoadingService.obj
 0001:000cb100       ?reset_trace_class_unloading@ClassLoadingService@@SAXXZ 080cc100 f   classLoadingService.obj
 0001:000cb180       ?compute_class_size@ClassLoadingService@@CAIPAVinstanceKlass@@@Z 080cc180 f   classLoadingService.obj
 0001:000cb250       ?set_verbose@ClassLoadingService@@SA_N_N@Z 080cc250 f   classLoadingService.obj
 0001:000cb2d0       ?notify_class_loaded@ClassLoadingService@@SAXPAVinstanceKlass@@_N@Z 080cc2d0 f   classLoadingService.obj
 0001:000cb340       ?notify_class_unloaded@ClassLoadingService@@SAXPAVinstanceKlass@@@Z 080cc340 f   classLoadingService.obj
 0001:000cb430       ?reset@ClassifyObjectClosure@@QAEXXZ 080cc430 f   classify.obj
 0001:000cb460       ?print@ClassifyObjectClosure@@QAEIXZ 080cc460 f   classify.obj
 0001:000cb550       ?print@ClassifyInstanceKlassClosure@@QAEXXZ 080cc550 f   classify.obj
 0001:000cb570       ?reset@ClassifyInstanceKlassClosure@@QAEXXZ 080cc570 f   classify.obj
 0001:000cb580       ?is_constMethod@oopDesc@@QBE_NXZ 080cc580 f i classify.obj
 0001:000cb590       ?is_compiledICHolder@oopDesc@@QBE_NXZ 080cc590 f i classify.obj
 0001:000cb5a0       ?classify_object@ClassifyObjectClosure@@SA?AW4oop_type@@PAVoopDesc@@_N@Z 080cc5a0 f   classify.obj
 0001:000cb820       ?do_object@ClassifyObjectClosure@@UAEXPAVoopDesc@@@Z 080cc820 f   classify.obj
 0001:000cb870       ?do_object@ClassifyInstanceKlassClosure@@UAEXPAVoopDesc@@@Z 080cc870 f   classify.obj
 0001:000cb9f0       ?scaled_concurrent_collection_time@CMSAdaptiveSizePolicy@@IAENXZ 080cc9f0 f   cmsAdaptiveSizePolicy.obj
 0001:000cba90       ?concurrent_marking_end@CMSAdaptiveSizePolicy@@QAEXXZ 080cca90 f   cmsAdaptiveSizePolicy.obj
 0001:000cbb10       ?concurrent_precleaning_end@CMSAdaptiveSizePolicy@@QAEXXZ 080ccb10 f   cmsAdaptiveSizePolicy.obj
 0001:000cbb90       ?concurrent_sweeping_end@CMSAdaptiveSizePolicy@@QAEXXZ 080ccb90 f   cmsAdaptiveSizePolicy.obj
 0001:000cbc10       ?clear_internal_time_intervals@CMSAdaptiveSizePolicy@@QAEXXZ 080ccc10 f   cmsAdaptiveSizePolicy.obj
 0001:000cbca0       ?clear_generation_free_space_flags@CMSAdaptiveSizePolicy@@EAEXXZ 080ccca0 f   cmsAdaptiveSizePolicy.obj
 0001:000cbcc0       ?concurrent_phases_resume@CMSAdaptiveSizePolicy@@QAEXXZ 080cccc0 f   cmsAdaptiveSizePolicy.obj
 0001:000cbd00       ?collection_cost@CMSAdaptiveSizePolicy@@IAENNN@Z 080ccd00 f   cmsAdaptiveSizePolicy.obj
 0001:000cbd40       ?scale_by_gen_gc_cost@CMSAdaptiveSizePolicy@@QAEIIN@Z 080ccd40 f   cmsAdaptiveSizePolicy.obj
 0001:000cbe10       ?adjusted_mutator_cost@AdaptiveSizePolicy@@IBENXZ 080cce10 f i cmsAdaptiveSizePolicy.obj
 0001:000cbe60       ?concurrent_collection_cost@CMSAdaptiveSizePolicy@@IAENN@Z 080cce60 f   cmsAdaptiveSizePolicy.obj
 0001:000cc050       ?concurrent_marking_begin@CMSAdaptiveSizePolicy@@QAEXXZ 080cd050 f   cmsAdaptiveSizePolicy.obj
 0001:000cc100       ?concurrent_precleaning_begin@CMSAdaptiveSizePolicy@@QAEXXZ 080cd100 f   cmsAdaptiveSizePolicy.obj
 0001:000cc150       ?concurrent_sweeping_begin@CMSAdaptiveSizePolicy@@QAEXXZ 080cd150 f   cmsAdaptiveSizePolicy.obj
 0001:000cc1a0       ?concurrent_phases_end@CMSAdaptiveSizePolicy@@QAEXW4Cause@GCCause@@II@Z 080cd1a0 f   cmsAdaptiveSizePolicy.obj
 0001:000cc600       ?checkpoint_roots_initial_begin@CMSAdaptiveSizePolicy@@QAEXXZ 080cd600 f   cmsAdaptiveSizePolicy.obj
 0001:000cc640       ?checkpoint_roots_initial_end@CMSAdaptiveSizePolicy@@QAEXW4Cause@GCCause@@@Z 080cd640 f   cmsAdaptiveSizePolicy.obj
 0001:000cc6e0       ?checkpoint_roots_final_begin@CMSAdaptiveSizePolicy@@QAEXXZ 080cd6e0 f   cmsAdaptiveSizePolicy.obj
 0001:000cc720       ?checkpoint_roots_final_end@CMSAdaptiveSizePolicy@@QAEXW4Cause@GCCause@@@Z 080cd720 f   cmsAdaptiveSizePolicy.obj
 0001:000cc7e0       ?msc_collection_begin@CMSAdaptiveSizePolicy@@QAEXXZ 080cd7e0 f   cmsAdaptiveSizePolicy.obj
 0001:000cc8b0       ?msc_collection_end@CMSAdaptiveSizePolicy@@QAEXW4Cause@GCCause@@@Z 080cd8b0 f   cmsAdaptiveSizePolicy.obj
 0001:000ccbd0       ?ms_collection_begin@CMSAdaptiveSizePolicy@@QAEXXZ 080cdbd0 f   cmsAdaptiveSizePolicy.obj
 0001:000ccca0       ?ms_collection_end@CMSAdaptiveSizePolicy@@QAEXW4Cause@GCCause@@@Z 080cdca0 f   cmsAdaptiveSizePolicy.obj
 0001:000ccf40       ?time_since_major_gc@CMSAdaptiveSizePolicy@@MBENXZ 080cdf40 f   cmsAdaptiveSizePolicy.obj
 0001:000ccfb0       ?cms_gc_cost@CMSAdaptiveSizePolicy@@QBENXZ 080cdfb0 f   cmsAdaptiveSizePolicy.obj
 0001:000ccfc0       ?ms_collection_marking_begin@CMSAdaptiveSizePolicy@@QAEXXZ 080cdfc0 f   cmsAdaptiveSizePolicy.obj
 0001:000ccfe0       ?ms_collection_marking_end@CMSAdaptiveSizePolicy@@QAEXW4Cause@GCCause@@@Z 080cdfe0 f   cmsAdaptiveSizePolicy.obj
 0001:000cd070       ?adjust_eden_for_footprint@CMSAdaptiveSizePolicy@@QAEII@Z 080ce070 f   cmsAdaptiveSizePolicy.obj
 0001:000cd0c0       ?adjust_promo_for_pause_time@CMSAdaptiveSizePolicy@@QAEII@Z 080ce0c0 f   cmsAdaptiveSizePolicy.obj
 0001:000cd1a0       ?adjust_promo_for_footprint@CMSAdaptiveSizePolicy@@QAEIII@Z 080ce1a0 f   cmsAdaptiveSizePolicy.obj
 0001:000cd1f0       ?print_adaptive_size_policy_on@CMSAdaptiveSizePolicy@@UBE_NPAVoutputStream@@@Z 080ce1f0 f   cmsAdaptiveSizePolicy.obj
 0001:000cd240       ??0CMSAdaptiveSizePolicy@@QAE@IIINNI@Z 080ce240 f   cmsAdaptiveSizePolicy.obj
 0001:000cd6b0       ?major_gc_interval_average_for_decay@CMSAdaptiveSizePolicy@@MBENXZ 080ce6b0 f   cmsAdaptiveSizePolicy.obj
 0001:000cd700       ?gc_cost@CMSAdaptiveSizePolicy@@UBENXZ 080ce700 f   cmsAdaptiveSizePolicy.obj
 0001:000cd780       ?adjust_eden_for_pause_time@CMSAdaptiveSizePolicy@@QAEII@Z 080ce780 f   cmsAdaptiveSizePolicy.obj
 0001:000cd7d0       ?adjust_eden_for_throughput@CMSAdaptiveSizePolicy@@QAEII@Z 080ce7d0 f   cmsAdaptiveSizePolicy.obj
 0001:000cd890       ?compute_young_generation_free_space@CMSAdaptiveSizePolicy@@UAEXII@Z 080ce890 f   cmsAdaptiveSizePolicy.obj
 0001:000cda00       ?adjust_promo_for_throughput@CMSAdaptiveSizePolicy@@QAEII@Z 080cea00 f   cmsAdaptiveSizePolicy.obj
 0001:000cdac0       ?compute_tenured_generation_free_space@CMSAdaptiveSizePolicy@@UAEXIII@Z 080ceac0 f   cmsAdaptiveSizePolicy.obj
 0001:000cdbc0       ?compute_survivor_space_size_and_threshold@CMSAdaptiveSizePolicy@@UAEH_NHI@Z 080cebc0 f   cmsAdaptiveSizePolicy.obj
 0001:000cde50       ?initialize_size_policy@ConcurrentMarkSweepPolicy@@UAEXIII@Z 080cee50 f   cmsCollectorPolicy.obj
 0001:000cdef0       ?initialize_gc_policy_counters@ConcurrentMarkSweepPolicy@@UAEXXZ 080ceef0 f   cmsCollectorPolicy.obj
 0001:000cdf60       ?has_soft_ended_eden@ConcurrentMarkSweepPolicy@@UAE_NXZ 080cef60 f   cmsCollectorPolicy.obj
 0001:000cdf70       ?initialize_all@GenCollectorPolicy@@UAEXXZ 080cef70 f i cmsCollectorPolicy.obj
 0001:000cdf90       ?initialize_gc_policy_counters@ASConcurrentMarkSweepPolicy@@UAEXXZ 080cef90 f   cmsCollectorPolicy.obj
 0001:000ce020       ?permanent_generation@CollectorPolicy@@UAEPAVPermanentGenerationSpec@@XZ 080cf020 f i cmsCollectorPolicy.obj
 0001:000ce050       ?initialize_gc_policy_counters@CollectorPolicy@@UAEXXZ 080cf050 f i cmsCollectorPolicy.obj
 0001:000ce070       ?generations@GenCollectorPolicy@@UAEPAPAVGenerationSpec@@XZ 080cf070 f i cmsCollectorPolicy.obj
 0001:000ce0a0       ?initialize_generations@ConcurrentMarkSweepPolicy@@MAEXXZ 080cf0a0 f   cmsCollectorPolicy.obj
 0001:000ce210       ?initialize_generations@TwoGenerationCollectorPolicy@@MAEXXZ 080cf210 f i cmsCollectorPolicy.obj
 0001:000ce230       ?type@VM_ThreadDump@@UBE?AW4VMOp_Type@VM_Operation@@XZ 080cf230 f i vm_operations.obj
 0001:000ce230       ?kind@GCAdaptivePolicyCounters@@UBE?AW4Name@GCPolicyCounters@@XZ 080cf230 f i gcAdaptivePolicyCounters.obj
 0001:000ce230       ?kind@CMSAdaptiveSizePolicy@@MBE?AW4GCPolicyKind@AdaptiveSizePolicy@@XZ 080cf230 f i cmsAdaptiveSizePolicy.obj
 0001:000ce230       ?number_of_generations@TwoGenerationCollectorPolicy@@UAEHXZ 080cf230 f i cmsCollectorPolicy.obj
 0001:000ce230       ?kind@DefNewGeneration@@UAE?AW4Name@Generation@@XZ 080cf230 f i defNewGeneration.obj
 0001:000ce230       ?kind@GenCollectedHeap@@UBE?AW4Name@CollectedHeap@@XZ 080cf230 f i genCollectedHeap.obj
 0001:000ce230       ?type@virtual_call_Relocation@@EAE?AW4relocType@relocInfo@@XZ 080cf230 f i c1_LIRAssembler_x86.obj
 0001:000ce230       ?kind@CopyMemoryManager@@UAE?AW4Name@MemoryManager@@XZ 080cf230 f i memoryManager.obj
 0001:000ce230       ?cell_count@JumpData@@UAEHXZ 080cf230 f i ciMethodData.obj
 0001:000ce240       ??0ConcurrentMarkSweepPolicy@@QAE@XZ 080cf240 f   cmsCollectorPolicy.obj
 0001:000ce280       ?cms_size_policy@CMSGCAdaptivePolicyCounters@@AAEPAVCMSAdaptiveSizePolicy@@XZ 080cf280 f i cmsGCAdaptivePolicyCounters.obj
 0001:000ce2b0       ?update_counters@CMSGCAdaptivePolicyCounters@@UAEXXZ 080cf2b0 f   cmsGCAdaptivePolicyCounters.obj
 0001:000ce2d0       ?update_avg_cms_STW_time_counter@CMSGCAdaptivePolicyCounters@@AAEXXZ 080cf2d0 f i cmsGCAdaptivePolicyCounters.obj
 0001:000ce330       ?update_avg_cms_STW_gc_cost_counter@CMSGCAdaptivePolicyCounters@@AAEXXZ 080cf330 f i cmsGCAdaptivePolicyCounters.obj
 0001:000ce390       ?update_avg_initial_pause_counter@CMSGCAdaptivePolicyCounters@@AAEXXZ 080cf390 f i cmsGCAdaptivePolicyCounters.obj
 0001:000ce3f0       ?update_avg_remark_pause_counter@CMSGCAdaptivePolicyCounters@@AAEXXZ 080cf3f0 f i cmsGCAdaptivePolicyCounters.obj
 0001:000ce450       ?update_initial_pause_counter@CMSGCAdaptivePolicyCounters@@AAEXXZ 080cf450 f i cmsGCAdaptivePolicyCounters.obj
 0001:000ce4b0       ?update_remark_pause_counter@CMSGCAdaptivePolicyCounters@@AAEXXZ 080cf4b0 f i cmsGCAdaptivePolicyCounters.obj
 0001:000ce510       ?update_avg_concurrent_time_counter@CMSGCAdaptivePolicyCounters@@AAEXXZ 080cf510 f i cmsGCAdaptivePolicyCounters.obj
 0001:000ce570       ?update_avg_concurrent_interval_counter@CMSGCAdaptivePolicyCounters@@AAEXXZ 080cf570 f i cmsGCAdaptivePolicyCounters.obj
 0001:000ce5d0       ?update_avg_concurrent_gc_cost_counter@CMSGCAdaptivePolicyCounters@@AAEXXZ 080cf5d0 f i cmsGCAdaptivePolicyCounters.obj
 0001:000ce630       ?update_avg_cms_free_counter@CMSGCAdaptivePolicyCounters@@AAEXXZ 080cf630 f i cmsGCAdaptivePolicyCounters.obj
 0001:000ce680       ?update_avg_cms_free_at_sweep_counter@CMSGCAdaptivePolicyCounters@@AAEXXZ 080cf680 f i cmsGCAdaptivePolicyCounters.obj
 0001:000ce6d0       ?update_avg_cms_promo_counter@CMSGCAdaptivePolicyCounters@@AAEXXZ 080cf6d0 f i cmsGCAdaptivePolicyCounters.obj
 0001:000ce720       ?update_avg_old_live_counter@CMSGCAdaptivePolicyCounters@@AAEXXZ 080cf720 f i cmsGCAdaptivePolicyCounters.obj
 0001:000ce770       ?update_avg_msc_pause_counter@CMSGCAdaptivePolicyCounters@@AAEXXZ 080cf770 f i cmsGCAdaptivePolicyCounters.obj
 0001:000ce7d0       ?update_avg_msc_interval_counter@CMSGCAdaptivePolicyCounters@@AAEXXZ 080cf7d0 f i cmsGCAdaptivePolicyCounters.obj
 0001:000ce830       ?update_msc_gc_cost_counter@CMSGCAdaptivePolicyCounters@@AAEXXZ 080cf830 f i cmsGCAdaptivePolicyCounters.obj
 0001:000ce890       ?update_avg_ms_pause_counter@CMSGCAdaptivePolicyCounters@@AAEXXZ 080cf890 f i cmsGCAdaptivePolicyCounters.obj
 0001:000ce8f0       ?update_avg_ms_interval_counter@CMSGCAdaptivePolicyCounters@@AAEXXZ 080cf8f0 f i cmsGCAdaptivePolicyCounters.obj
 0001:000ce950       ?update_ms_gc_cost_counter@CMSGCAdaptivePolicyCounters@@AAEXXZ 080cf950 f i cmsGCAdaptivePolicyCounters.obj
 0001:000ce9b0       ?update_major_gc_cost_counter@CMSGCAdaptivePolicyCounters@@AAEXXZ 080cf9b0 f i cmsGCAdaptivePolicyCounters.obj
 0001:000cea00       ?update_mutator_cost_counter@CMSGCAdaptivePolicyCounters@@AAEXXZ 080cfa00 f i cmsGCAdaptivePolicyCounters.obj
 0001:000cea50       ?update_remark_pause_old_slope_counter@CMSGCAdaptivePolicyCounters@@AAEXXZ 080cfa50 f i cmsGCAdaptivePolicyCounters.obj
 0001:000ceab0       ?update_initial_pause_old_slope_counter@CMSGCAdaptivePolicyCounters@@AAEXXZ 080cfab0 f i cmsGCAdaptivePolicyCounters.obj
 0001:000ceb10       ?update_remark_pause_young_slope_counter@CMSGCAdaptivePolicyCounters@@AAEXXZ 080cfb10 f i cmsGCAdaptivePolicyCounters.obj
 0001:000ceb70       ?update_initial_pause_young_slope_counter@CMSGCAdaptivePolicyCounters@@AAEXXZ 080cfb70 f i cmsGCAdaptivePolicyCounters.obj
 0001:000cebd0       ?update_change_young_gen_for_maj_pauses@CMSGCAdaptivePolicyCounters@@AAEXXZ 080cfbd0 f i cmsGCAdaptivePolicyCounters.obj
 0001:000cec20       ?update_counters@CMSGCAdaptivePolicyCounters@@QAEXPAVCMSGCStats@@@Z 080cfc20 f   cmsGCAdaptivePolicyCounters.obj
 0001:000cecb0       ?update_counters_from_policy@CMSGCAdaptivePolicyCounters@@UAEXXZ 080cfcb0 f   cmsGCAdaptivePolicyCounters.obj
 0001:000cef00       ??0CMSGCAdaptivePolicyCounters@@QAE@PBDHHPAVAdaptiveSizePolicy@@@Z 080cff00 f   cmsGCAdaptivePolicyCounters.obj
 0001:000cf850       ?type@VM_FindDeadlocks@@UBE?AW4VMOp_Type@VM_Operation@@XZ 080d0850 f i attachListener.obj
 0001:000cf850       ?pd_code_alignment@VtableStub@@CAHXZ 080d0850 f i vtableStubs_x86_32.obj
 0001:000cf850       ?barrier_set_name@G1CollectorPolicy@@UAE?AW4Name@BarrierSet@@XZ 080d0850 f i g1CollectorPolicy.obj
 0001:000cf850       ?kind@ParNewMemoryManager@@UAE?AW4Name@MemoryManager@@XZ 080d0850 f i memoryManager.obj
 0001:000cf850       ?type@static_call_Relocation@@EAE?AW4relocType@relocInfo@@XZ 080d0850 f i assembler_x86.obj
 0001:000cf850       ?minimum_free_block_size@CompactibleFreeListSpace@@UBEIXZ 080d0850 f i compactibleFreeListSpace.obj
 0001:000cf850       ?kind@G1CollectedHeap@@UBE?AW4Name@CollectedHeap@@XZ 080d0850 f i g1CollectedHeap.obj
 0001:000cf850       ?kind@G1CollectorPolicy@@UAE?AW4Name@CollectorPolicy@@XZ 080d0850 f i g1CollectorPolicy.obj
 0001:000cf850       ?kind@CMSGCAdaptivePolicyCounters@@UBE?AW4Name@GCPolicyCounters@@XZ 080d0850 f i cmsGCAdaptivePolicyCounters.obj
 0001:000cf850       ?kind@TenuredGeneration@@UAE?AW4Name@Generation@@XZ 080d0850 f i tenuredGeneration.obj
 0001:000cf860       ?assert_locked@CMSLockVerifier@@SAXPBVMutex@@00@Z 080d0860 f   cmsLockVerifier.obj
 0001:000cfa80       ?compute_new_size@CMSPermGen@@UAEXXZ 080d0a80 f   cmsPermGen.obj
 0001:000cfa90       ?initialize_performance_counters@CMSPermGenGen@@QAEXXZ 080d0a90 f   cmsPermGen.obj
 0001:000cfb10       ?mem_allocate@CMSPermGen@@UAEPAVHeapWord@@I@Z 080d0b10 f   cmsPermGen.obj
 0001:000cfb70       ??0CMSPermGenGen@@QAE@VReservedSpace@@IHPAVCardTableRS@@@Z 080d0b70 f i cmsPermGen.obj
 0001:000cfbc0       ?full_collects_younger_generations@ConcurrentMarkSweepGeneration@@UBE_NXZ 080d0bc0 f i cmsPermGen.obj
 0001:000cfbe0       ?block_start@Space@@UAEPAVHeapWord@@PBX@Z 080d0be0 f i compactibleFreeListSpace.obj
 0001:000cfbe0       ?par_allocate@ConcurrentMarkSweepGeneration@@UAEPAVHeapWord@@I_N@Z 080d0be0 f i cmsPermGen.obj
 0001:000cfbf0       ?time_of_last_gc@ConcurrentMarkSweepGeneration@@UAE_J_J@Z 080d0bf0 f i cmsPermGen.obj
 0001:000cfc20       ?update_time_of_last_gc@ConcurrentMarkSweepGeneration@@UAEX_J@Z 080d0c20 f i cmsPermGen.obj
 0001:000cfc40       ?counters@ConcurrentMarkSweepGeneration@@UAEPAVCollectorCounters@@XZ 080d0c40 f i cmsPermGen.obj
 0001:000cfc50       ?get_data_recorder@ConcurrentMarkSweepGeneration@@UAEPAXH@Z 080d0c50 f i cmsPermGen.obj
 0001:000cfc60       ?name@CMSPermGenGen@@UBEPBDXZ 080d0c60 f i cmsPermGen.obj
 0001:000cfc70       ?short_name@CMSPermGenGen@@UBEPBDXZ 080d0c70 f i cmsPermGen.obj
 0001:000cfc80       ?used@ConcurrentMarkSweepGeneration@@UBEIXZ 080d0c80 f i cmsPermGen.obj
 0001:000cfc90       ?free@ConcurrentMarkSweepGeneration@@UBEIXZ 080d0c90 f i cmsPermGen.obj
 0001:000cfca0       ?used_region@ConcurrentMarkSweepGeneration@@UBE?AVMemRegion@@XZ 080d0ca0 f i cmsPermGen.obj
 0001:000cfcc0       ?is_maximal_no_gc@Generation@@UBE_NXZ 080d0cc0 f i cmsPermGen.obj
 0001:000cfcd0       ?should_allocate@Generation@@UAE_NI_N@Z 080d0cd0 f i cmsPermGen.obj
 0001:000cfd10       ?tlab_capacity@Generation@@UBEIXZ 080d0d10 f i cmsPermGen.obj
 0001:000cfd30       ?unsafe_max_tlab_alloc@Generation@@UBEIXZ 080d0d30 f i cmsPermGen.obj
 0001:000cfd50       ?capacity@ConcurrentMarkSweepGeneration@@UBEIXZ 080d0d50 f i cmsPermGen.obj
 0001:000cfd60       ?oop_iterate@PermGen@@UAEXPAVOopClosure@@@Z 080d0d60 f i cmsPermGen.obj
 0001:000cfda0       ?object_iterate@PermGen@@UAEXPAVObjectClosure@@@Z 080d0da0 f i cmsPermGen.obj
 0001:000cfde0       ?update_counters@PermGen@@UAEXXZ 080d0de0 f i cmsPermGen.obj
 0001:000cfe10       ??0CMSPermGen@@QAE@VReservedSpace@@IPAVCardTableRS@@W4DictionaryChoice@FreeBlockDictionary@@@Z 080d0e10 f   cmsPermGen.obj
 0001:000cfe90       ?do_unloading@CodeBlob@@UAEXPAVBoolObjectClosure@@PAVOopClosure@@_N@Z 080d0e90 f   codeBlob.obj
 0001:000cfeb0       ?verify@CodeBlob@@UAEXXZ   080d0eb0 f   codeBlob.obj
 0001:000cfed0       ?print@CodeBlob@@UBEXXZ    080d0ed0 f   codeBlob.obj
 0001:000cff00       ?print_value_on@CodeBlob@@UBEXPAVoutputStream@@@Z 080d0f00 f   codeBlob.obj
 0001:000cff20       ?print@BufferBlob@@UBEXXZ  080d0f20 f   codeBlob.obj
 0001:000cff60       ?print_value_on@DeoptimizationBlob@@UBEXPAVoutputStream@@@Z 080d0f60 f   codeBlob.obj
 0001:000cff80       ?type@breakpoint_Relocation@@EAE?AW4relocType@relocInfo@@XZ 080d0f80 f i codeBlob.obj
 0001:000cff90       ?fix_relocation_after_move@breakpoint_Relocation@@UAEXPBVCodeBuffer@@PAV2@@Z 080d0f90 f i codeBlob.obj
 0001:000cffc0       ?set_oop_maps@CodeBlob@@QAEXPAVOopMapSet@@@Z 080d0fc0 f   codeBlob.obj
 0001:000d0040       ?flush@CodeBlob@@QAEXXZ    080d1040 f   codeBlob.obj
 0001:000d0080       ?oop_map_for_return_address@CodeBlob@@QAEPAVOopMap@@PAE@Z 080d1080 f   codeBlob.obj
 0001:000d00c0       ?is_adapter_blob@BufferBlob@@UBE_NXZ 080d10c0 f   codeBlob.obj
 0001:000d0120       ?print_value_on@BufferBlob@@UBEXPAVoutputStream@@@Z 080d1120 f   codeBlob.obj
 0001:000d0140       ?print@RuntimeStub@@UBEXXZ 080d1140 f   codeBlob.obj
 0001:000d01a0       ?print_value_on@RuntimeStub@@UBEXPAVoutputStream@@@Z 080d11a0 f   codeBlob.obj
 0001:000d01d0       ?print@SingletonBlob@@UBEXXZ 080d11d0 f   codeBlob.obj
 0001:000d0220       ?print_value_on@SingletonBlob@@UBEXPAVoutputStream@@@Z 080d1220 f   codeBlob.obj
 0001:000d0240       ?next@RelocIterator@@QAE_NXZ 080d1240 f i codeBlob.obj
 0001:000d0390       ?type@RelocIterator@@QBE?AW4relocType@relocInfo@@XZ 080d1390 f i codeBlob.obj
 0001:000d03c0       ?oop_reloc@RelocIterator@@QAEPAVoop_Relocation@@XZ 080d13c0 f i codeBlob.obj
 0001:000d0460       ?breakpoint_reloc@RelocIterator@@QAEPAVbreakpoint_Relocation@@XZ 080d1460 f i codeBlob.obj
 0001:000d0500       ??0ThreadInVMfromUnknown@@QAE@XZ 080d1500 f i codeBlob.obj
 0001:000d0560       ?allocation_size@CodeBlob@@SAIPAVCodeBuffer@@H@Z 080d1560 f   codeBlob.obj
 0001:000d05e0       ??0CodeBlob@@QAE@PBDHHHH@Z 080d15e0 f   codeBlob.obj
 0001:000d06e0       ?preserve_callee_argument_oops@CodeBlob@@UAEXVframe@@PBVRegisterMap@@PAVOopClosure@@@Z 080d16e0 f i codeBlob.obj
 0001:000d0700       ?print_block_comment@CodeBlob@@UAEXPAVoutputStream@@PAE@Z 080d1700 f i codeBlob.obj
 0001:000d0720       ??0CodeBlob@@QAE@PBDPAVCodeBuffer@@HHHHPAVOopMapSet@@@Z 080d1720 f   codeBlob.obj
 0001:000d0880       ?is_at_poll_return@CodeBlob@@QAE_NPAE@Z 080d1880 f   codeBlob.obj
 0001:000d0910       ?is_at_poll_or_poll_return@CodeBlob@@QAE_NPAE@Z 080d1910 f   codeBlob.obj
 0001:000d09a0       ?fix_oop_relocations@CodeBlob@@AAEXPAE0_N@Z 080d19a0 f   codeBlob.obj
 0001:000d0ae0       ?create@BufferBlob@@SAPAV1@PBDH@Z 080d1ae0 f   codeBlob.obj
 0001:000d0bb0       ?create@BufferBlob@@SAPAV1@PBDPAVCodeBuffer@@@Z 080d1bb0 f   codeBlob.obj
 0001:000d0c70       ?free@BufferBlob@@SAXPAV1@@Z 080d1c70 f   codeBlob.obj
 0001:000d0cd0       ?caller_must_gc_arguments@RuntimeStub@@UBE_NPAVJavaThread@@@Z 080d1cd0 f i codeBlob.obj
 0001:000d0ce0       ?new_runtime_stub@RuntimeStub@@SAPAV1@PBDPAVCodeBuffer@@HHPAVOopMapSet@@_N@Z 080d1ce0 f   codeBlob.obj
 0001:000d0e50       ?copy_oops@CodeBlob@@QAEXPAV?$GrowableArray@PAV_jobject@@@@@Z 080d1e50 f   codeBlob.obj
 0001:000d0f40       ?create@DeoptimizationBlob@@SAPAV1@PAVCodeBuffer@@PAVOopMapSet@@HHHH@Z 080d1f40 f   codeBlob.obj
 0001:000d10d0       ?preserve_callee_argument_oops@SafepointBlob@@UAEXVframe@@PBVRegisterMap@@PAVOopClosure@@@Z 080d20d0 f i codeBlob.obj
 0001:000d10d0       ?preserve_callee_argument_oops@BufferBlob@@UAEXVframe@@PBVRegisterMap@@PAVOopClosure@@@Z 080d20d0 f i codeBlob.obj
 0001:000d10d0       ?preserve_callee_argument_oops@RuntimeStub@@UAEXVframe@@PBVRegisterMap@@PAVOopClosure@@@Z 080d20d0 f i codeBlob.obj
 0001:000d10d0       ?preserve_callee_argument_oops@DeoptimizationBlob@@UAEXVframe@@PBVRegisterMap@@PAVOopClosure@@@Z 080d20d0 f i codeBlob.obj
 0001:000d10e0       ?create@SafepointBlob@@SAPAV1@PAVCodeBuffer@@PAVOopMapSet@@H@Z 080d20e0 f   codeBlob.obj
 0001:000d1250       ?initialize_shared_locs@CodeSection@@QAEXPAVrelocInfo@@H@Z 080d2250 f   codeBuffer.obj
 0001:000d12b0       ?assign@CodeComments@@QAEXAAV1@@Z 080d22b0 f   codeBuffer.obj
 0001:000d12f0       ?bol@outputStream@@QAEXXZ  080d22f0 f i codeBuffer.obj
 0001:000d1300       ?set_locs_point@CodeSection@@QAEXPAE@Z 080d2300 f i codeBuffer.obj
 0001:000d1360       ?initialize_misc@CodeBuffer@@AAEXPBD@Z 080d2360 f i codeBuffer.obj
 0001:000d13c0       ?initialize@CodeBuffer@@AAEXPAEH@Z 080d23c0 f i codeBuffer.obj
 0001:000d1490       ?initialize_oop_recorder@CodeBuffer@@QAEXPAVOopRecorder@@@Z 080d2490 f   codeBuffer.obj
 0001:000d14f0       ?section_index_of@CodeBuffer@@QBEHPAE@Z 080d24f0 f   codeBuffer.obj
 0001:000d1550       ?locator_address@CodeBuffer@@QBEPAEH@Z 080d2550 f   codeBuffer.obj
 0001:000d15b0       ?target@CodeSection@@QAEPAEAAVLabel@@PAE@Z 080d25b0 f   codeBuffer.obj
 0001:000d1640       ?initialize_locs@CodeSection@@AAEXH@Z 080d2640 f   codeBuffer.obj
 0001:000d16b0       ?initialize_locs_from@CodeSection@@AAEXPBV1@@Z 080d26b0 f   codeBuffer.obj
 0001:000d1750       ?print_block_comment@CodeComments@@QAEXPAVoutputStream@@H@Z 080d2750 f   codeBuffer.obj
 0001:000d17b0       ?free@CodeComments@@QAEXXZ 080d27b0 f   codeBuffer.obj
 0001:000d1820       ?decode@CodeBuffer@@QAEXXZ 080d2820 f   codeBuffer.obj
 0001:000d1850       ?print@CodeSection@@QAEXPBD@Z 080d2850 f   codeBuffer.obj
 0001:000d1900       ?print@CodeBuffer@@QAEXXZ  080d2900 f   codeBuffer.obj
 0001:000d19a0       ?initialize_section_size@CodeBuffer@@AAEXPAVCodeSection@@H@Z 080d29a0 f   codeBuffer.obj
 0001:000d1b30       ?set_blob@CodeBuffer@@QAEXPAVBufferBlob@@@Z 080d2b30 f   codeBuffer.obj
 0001:000d1ba0       ?free_blob@CodeBuffer@@QAEXXZ 080d2ba0 f   codeBuffer.obj
 0001:000d1be0       ?expand_locs@CodeSection@@AAEXH@Z 080d2be0 f   codeBuffer.obj
 0001:000d1c90       ?total_code_size@CodeBuffer@@QBEHXZ 080d2c90 f   codeBuffer.obj
 0001:000d1d00       ?total_offset_of@CodeBuffer@@QBEHPAE@Z 080d2d00 f   codeBuffer.obj
 0001:000d1dc0       ?copy_relocations_to@CodeBuffer@@ABEHPAVCodeBlob@@@Z 080d2dc0 f   codeBuffer.obj
 0001:000d21c0       ?relocate_code_to@CodeBuffer@@ABEXPAV1@@Z 080d31c0 f   codeBuffer.obj
 0001:000d23a0       ?figure_expanded_capacities@CodeBuffer@@AAEHPAVCodeSection@@HPAH@Z 080d33a0 f   codeBuffer.obj
 0001:000d2500       ?take_over_code_from@CodeBuffer@@AAEXPAV1@@Z 080d3500 f   codeBuffer.obj
 0001:000d2600       ?verify_section_allocation@CodeBuffer@@AAE_NXZ 080d3600 f   codeBuffer.obj
 0001:000d2770       ?add_comment@CodeComments@@QAEXHPBD@Z 080d3770 f   codeBuffer.obj
 0001:000d2800       ??0CodeBuffer@@QAE@PAEH@Z  080d3800 f   codeBuffer.obj
 0001:000d2910       ?initialize@CodeBuffer@@QAEXHH@Z 080d3910 f   codeBuffer.obj
 0001:000d2a00       ??1CodeBuffer@@QAE@XZ      080d3a00 f   codeBuffer.obj
 0001:000d2ab0       ?create_patch_overflow@CodeBuffer@@QAEPAV?$GrowableArray@H@@XZ 080d3ab0 f   codeBuffer.obj
 0001:000d2b50       ?relocate@CodeSection@@QAEXPAEABVRelocationHolder@@H@Z 080d3b50 f   codeBuffer.obj
 0001:000d2d00       ?compute_final_layout@CodeBuffer@@ABEXPAV1@@Z 080d3d00 f   codeBuffer.obj
 0001:000d2fb0       ?total_relocation_size@CodeBuffer@@QBEHXZ 080d3fb0 f   codeBuffer.obj
 0001:000d2fe0       ?copy_code_to@CodeBuffer@@AAEXPAVCodeBlob@@@Z 080d3fe0 f   codeBuffer.obj
 0001:000d3110       ?block_comment@CodeBuffer@@QAEXHPBD@Z 080d4110 f   codeBuffer.obj
 0001:000d3120       ??0CodeBuffer@@QAE@PBDHH@Z 080d4120 f i codeBuffer.obj
 0001:000d31e0       ?expand@CodeBuffer@@AAEXPAVCodeSection@@H@Z 080d41e0 f   codeBuffer.obj
 0001:000d3600       ?print@CodeBlob_sizes@@QAEXPBD@Z 080d4600 f i codeCache.obj
 0001:000d3680       ?number_of_nmethods_with_dependencies@CodeCache@@SAHXZ 080d4680 f   codeCache.obj
 0001:000d3690       ?find_blob_unsafe@CodeCache@@SAPAVCodeBlob@@PAX@Z 080d4690 f i codeCache.obj
 0001:000d36c0       ?add@CodeBlob_sizes@@QAEXPAVCodeBlob@@@Z 080d46c0 f i codeCache.obj
 0001:000d3770       ?first@CodeCache@@SAPAVCodeBlob@@XZ 080d4770 f   codeCache.obj
 0001:000d37a0       ?next@CodeCache@@SAPAVCodeBlob@@PAV2@@Z 080d47a0 f   codeCache.obj
 0001:000d37e0       ?alive@CodeCache@@SAPAVCodeBlob@@PAV2@@Z 080d47e0 f   codeCache.obj
 0001:000d3850       ?alive_nmethod@CodeCache@@SAPAVnmethod@@PAVCodeBlob@@@Z 080d4850 f   codeCache.obj
 0001:000d38c0       ?commit@CodeCache@@SAXPAVCodeBlob@@@Z 080d48c0 f   codeCache.obj
 0001:000d3910       ?contains@CodeCache@@SA_NPAX@Z 080d4910 f   codeCache.obj
 0001:000d3940       ?find_blob@CodeCache@@SAPAVCodeBlob@@PAX@Z 080d4940 f   codeCache.obj
 0001:000d39b0       ?find_nmethod@CodeCache@@SAPAVnmethod@@PAX@Z 080d49b0 f   codeCache.obj
 0001:000d39f0       ?blobs_do@CodeCache@@SAXP6AXPAVCodeBlob@@@Z@Z 080d49f0 f   codeCache.obj
 0001:000d3a70       ?nmethods_do@CodeCache@@SAXP6AXPAVnmethod@@@Z@Z 080d4a70 f   codeCache.obj
 0001:000d3b00       ?do_unloading@CodeCache@@SAXPAVBoolObjectClosure@@PAVOopClosure@@_N@Z 080d4b00 f   codeCache.obj
 0001:000d3ba0       ?blobs_do@CodeCache@@SAXPAVCodeBlobClosure@@@Z 080d4ba0 f   codeCache.obj
 0001:000d3c50       ?mark_scavenge_root_nmethods@CodeCache@@CAXXZ 080d4c50 f   codeCache.obj
 0001:000d3d00       ?verify_perm_nmethods@CodeCache@@CAXPAVCodeBlobClosure@@@Z 080d4d00 f   codeCache.obj
 0001:000d3df0       ?gc_prologue@CodeCache@@SAXXZ 080d4df0 f   codeCache.obj
 0001:000d3e20       ?first_address@CodeCache@@SAPAEXZ 080d4e20 f   codeCache.obj
 0001:000d3e40       ?initialize@CodeCache@@SAXXZ 080d4e40 f   codeCache.obj
 0001:000d3f80       ?codeCache_init@@YAXXZ     080d4f80 f   codeCache.obj
 0001:000d3f90       ?mark_all_nmethods_for_deoptimization@CodeCache@@SAXXZ 080d4f90 f   codeCache.obj
 0001:000d4040       ?make_marked_nmethods_zombies@CodeCache@@SAXXZ 080d5040 f   codeCache.obj
 0001:000d4100       ?make_marked_nmethods_not_entrant@CodeCache@@SAXXZ 080d5100 f   codeCache.obj
 0001:000d41a0       ?verify@CodeCache@@SAXXZ   080d51a0 f   codeCache.obj
 0001:000d4230       ?print@CodeCache@@SAXXZ    080d5230 f   codeCache.obj
 0001:000d4480       ?scavenge_root_nmethods_do@CodeCache@@SAXPAVCodeBlobClosure@@@Z 080d5480 f   codeCache.obj
 0001:000d4580       ?asserted_non_scavengable_nmethods_do@CodeCache@@SAXPAVCodeBlobClosure@@@Z 080d5580 f   codeCache.obj
 0001:000d45d0       ?remove_saved_code@CodeCache@@SAXPAVnmethod@@@Z 080d55d0 f   codeCache.obj
 0001:000d46c0       ?mark_for_deoptimization@CodeCache@@SAHAAVDepChange@@@Z 080d56c0 f   codeCache.obj
 0001:000d48f0       ?mark_for_deoptimization@CodeCache@@SAHPAVmethodOopDesc@@@Z 080d58f0 f   codeCache.obj
 0001:000d49f0       ?print_trace@CodeCache@@SAXPBDPAVCodeBlob@@H@Z 080d59f0 f   codeCache.obj
 0001:000d4a70       ?print_internals@CodeCache@@SAXXZ 080d5a70 f   codeCache.obj
 0001:000d5030       ?allocate@CodeCache@@SAPAVCodeBlob@@H@Z 080d6030 f   codeCache.obj
 0001:000d5160       ?free@CodeCache@@SAXPAVCodeBlob@@@Z 080d6160 f   codeCache.obj
 0001:000d5260       ?add_scavenge_root_nmethod@CodeCache@@SAXPAVnmethod@@@Z 080d6260 f   codeCache.obj
 0001:000d5300       ?drop_scavenge_root_nmethod@CodeCache@@SAXPAVnmethod@@@Z 080d6300 f   codeCache.obj
 0001:000d53f0       ?prune_scavenge_root_nmethods@CodeCache@@SAXXZ 080d63f0 f   codeCache.obj
 0001:000d5540       ?find_and_remove_saved_code@CodeCache@@SAPAVnmethod@@PAVmethodOopDesc@@@Z 080d6540 f   codeCache.obj
 0001:000d5680       ?speculatively_disconnect@CodeCache@@SAXPAVnmethod@@@Z 080d6680 f   codeCache.obj
 0001:000d5780       ?gc_epilogue@CodeCache@@SAXXZ 080d6780 f   codeCache.obj
 0001:000d5890       ?mark_for_evol_deoptimization@CodeCache@@SAHVinstanceKlassHandle@@@Z 080d6890 f   codeCache.obj
 0001:000d5a50       ?pre_initialize@CollectedHeap@@IAEXXZ 080d6a50 f   collectedHeap.obj
 0001:000d5a70       ?check_for_bad_heap_word_value@CollectedHeap@@MAEXPAVHeapWord@@I@Z 080d6a70 f   collectedHeap.obj
 0001:000d5ac0       ?check_for_non_bad_heap_word_value@CollectedHeap@@MAEXPAVHeapWord@@I@Z 080d6ac0 f   collectedHeap.obj
 0001:000d5b10       ?allocate_new_tlab@CollectedHeap@@MAEPAVHeapWord@@I@Z 080d6b10 f   collectedHeap.obj
 0001:000d5b30       ?record_slow_allocation@ThreadLocalAllocBuffer@@QAEXI@Z 080d6b30 f i collectedHeap.obj
 0001:000d5ba0       ?fill_args_check@CollectedHeap@@KAXPAVHeapWord@@I@Z 080d6ba0 f   collectedHeap.obj
 0001:000d5c50       ?ensure_parsability@CollectedHeap@@UAEX_N@Z 080d6c50 f   collectedHeap.obj
 0001:000d5d30       ?accumulate_statistics_all_tlabs@CollectedHeap@@MAEXXZ 080d6d30 f   collectedHeap.obj
 0001:000d5d70       ?resize_all_tlabs@CollectedHeap@@MAEXXZ 080d6d70 f   collectedHeap.obj
 0001:000d5db0       ?check_for_valid_allocation_state@CollectedHeap@@KAXXZ 080d6db0 f   collectedHeap.obj
 0001:000d5e30       ?flush_deferred_store_barrier@CollectedHeap@@UAEXPAVJavaThread@@@Z 080d6e30 f   collectedHeap.obj
 0001:000d5fe0       ?new_store_pre_barrier@CollectedHeap@@UAEPAVoopDesc@@PAVJavaThread@@PAV2@@Z 080d6fe0 f   collectedHeap.obj
 0001:000d60e0       ?pre_full_gc_dump@CollectedHeap@@QAEXXZ 080d70e0 f   collectedHeap.obj
 0001:000d6190       ?post_full_gc_dump@CollectedHeap@@QAEXXZ 080d7190 f   collectedHeap.obj
 0001:000d6240       ??0KlassHandle@@QAE@PAVoopDesc@@@Z 080d7240 f i collectedHeap.obj
 0001:000d6290       ?compute_size@ThreadLocalAllocBuffer@@QAEII@Z 080d7290 f i collectedHeap.obj
 0001:000d6370       ?allocate_from_tlab_slow@CollectedHeap@@KAPAVHeapWord@@PAVThread@@I@Z 080d7370 f   collectedHeap.obj
 0001:000d6400       ?filler_array_hdr_size@CollectedHeap@@KAIXZ 080d7400 f i collectedHeap.obj
 0001:000d6440       ?zap_filler_array@CollectedHeap@@KAXPAVHeapWord@@I_N@Z 080d7440 f   collectedHeap.obj
 0001:000d64a0       ??0CollectedHeap@@IAE@XZ   080d74a0 f   collectedHeap.obj
 0001:000d6600       ?preload_and_dump@CollectedHeap@@UAEXPAVThread@@@Z 080d7600 f i collectedHeap.obj
 0001:000d6620       ?top_addr@CollectedHeap@@UBEPAPAVHeapWord@@XZ 080d7620 f i collectedHeap.obj
 0001:000d6640       ?end_addr@CollectedHeap@@UBEPAPAVHeapWord@@XZ 080d7640 f i collectedHeap.obj
 0001:000d6660       ?tlab_capacity@CollectedHeap@@UBEIPAVThread@@@Z 080d7660 f i collectedHeap.obj
 0001:000d6680       ?unsafe_max_tlab_alloc@CollectedHeap@@UBEIPAVThread@@@Z 080d7680 f i collectedHeap.obj
 0001:000d66a0       ?fill_with_array@CollectedHeap@@KAXPAVHeapWord@@I_N@Z 080d76a0 f i collectedHeap.obj
 0001:000d67d0       ?fill_with_object_impl@CollectedHeap@@KAXPAVHeapWord@@I_N@Z 080d77d0 f i collectedHeap.obj
 0001:000d68b0       ?fill_with_objects@CollectedHeap@@SAXPAVHeapWord@@I_N@Z 080d78b0 f   collectedHeap.obj
 0001:000d68b0       ?fill_with_object@CollectedHeap@@SAXPAVHeapWord@@I_N@Z 080d78b0 f   collectedHeap.obj
 0001:000d6920       ?region_in_cache@CSetChooserCache@@QAE_NPAVHeapRegion@@@Z 080d7920 f i collectionSetChooser.obj
 0001:000d6980       ?verify@CSetChooserCache@@QAE_NXZ 080d7980 f   collectionSetChooser.obj
 0001:000d6ae0       ?insert@CSetChooserCache@@QAEXPAVHeapRegion@@@Z 080d7ae0 f   collectionSetChooser.obj
 0001:000d6c20       ?remove_first@CSetChooserCache@@QAEPAVHeapRegion@@XZ 080d7c20 f   collectionSetChooser.obj
 0001:000d6d10       ?garbage_bytes@HeapRegion@@QAEIXZ 080d7d10 f i collectionSetChooser.obj
 0001:000d6d60       ?max_live_bytes@HeapRegion@@QAEIXZ 080d7d60 f i collectionSetChooser.obj
 0001:000d6db0       ??0CSetChooserCache@@QAE@XZ 080d7db0 f   collectionSetChooser.obj
 0001:000d6e20       ?verify@CollectionSetChooser@@QAE_NXZ 080d7e20 f   collectionSetChooser.obj
 0001:000d6fc0       ?addRegionToCache@CollectionSetChooser@@QAE_NXZ 080d7fc0 f   collectionSetChooser.obj
 0001:000d7100       ?printHeapRegion@@YAXPAVHeapRegion@@@Z 080d8100 f   collectionSetChooser.obj
 0001:000d71f0       ?getParMarkedHeapRegionChunk@CollectionSetChooser@@QAEHH@Z 080d81f0 f   collectionSetChooser.obj
 0001:000d7280       ?setMarkedHeapRegion@CollectionSetChooser@@QAEXHPAVHeapRegion@@@Z 080d8280 f   collectionSetChooser.obj
 0001:000d7330       ?incNumMarkedHeapRegions@CollectionSetChooser@@QAEXH@Z 080d8330 f   collectionSetChooser.obj
 0001:000d7390       ?clearMarkedHeapRegions@CollectionSetChooser@@QAEXXZ 080d8390 f   collectionSetChooser.obj
 0001:000d7420       ?updateAfterFullCollection@CollectionSetChooser@@QAEXXZ 080d8420 f   collectionSetChooser.obj
 0001:000d7430       ?printSortedHeapRegions@CollectionSetChooser@@QAEXXZ 080d8430 f   collectionSetChooser.obj
 0001:000d74f0       ?getNextMarkedRegion@CollectionSetChooser@@QAEPAVHeapRegion@@NN@Z 080d84f0 f   collectionSetChooser.obj
 0001:000d7610       ?sortMarkedHeapRegions@CollectionSetChooser@@QAEXXZ 080d8610 f   collectionSetChooser.obj
 0001:000d79b0       ??0CollectionSetChooser@@QAE@XZ 080d89b0 f   collectionSetChooser.obj
 0001:000d7a50       ?addMarkedHeapRegion@CollectionSetChooser@@QAEXPAVHeapRegion@@@Z 080d8a50 f   collectionSetChooser.obj
 0001:000d7ae0       ?prepareForAddMarkedHeapRegionsPar@CollectionSetChooser@@QAEXII@Z 080d8ae0 f   collectionSetChooser.obj
 0001:000d7b80       ??0CollectorCounters@@QAE@PBDH@Z 080d8b80 f   collectorCounters.obj
 0001:000d7d80       ?is_active@GC_locker@@SA_NXZ 080d8d80 f i collectorPolicy.obj
 0001:000d7da0       ?initialize_perm_generation@CollectorPolicy@@IAEXW4Name@PermGen@@@Z 080d8da0 f   collectorPolicy.obj
 0001:000d7e10       ?initialize_size_policy@GenCollectorPolicy@@UAEXIII@Z 080d8e10 f   collectorPolicy.obj
 0001:000d7e90       ?initialize_gc_policy_counters@MarkSweepPolicy@@UAEXXZ 080d8e90 f   collectorPolicy.obj
 0001:000d7f00       ?set_gc_cause@CollectedHeap@@QAEXW4Cause@GCCause@@@Z 080d8f00 f i collectorPolicy.obj
 0001:000d7f60       ??0GCCauseSetter@@QAE@PAVCollectedHeap@@W4Cause@GCCause@@@Z 080d8f60 f i collectorPolicy.obj
 0001:000d7fb0       ??1GCCauseSetter@@QAE@XZ   080d8fb0 f i collectorPolicy.obj
 0001:000d7ff0       ?initialize_flags@CollectorPolicy@@MAEXXZ 080d8ff0 f   collectorPolicy.obj
 0001:000d81b0       ?initialize_size_info@CollectorPolicy@@MAEXXZ 080d91b0 f   collectorPolicy.obj
 0001:000d82f0       ?create_rem_set@CollectorPolicy@@UAEPAVGenRemSet@@VMemRegion@@H@Z 080d92f0 f   collectorPolicy.obj
 0001:000d8350       ?initialize_flags@GenCollectorPolicy@@MAEXXZ 080d9350 f   collectorPolicy.obj
 0001:000d8490       ?initialize_flags@TwoGenerationCollectorPolicy@@MAEXXZ 080d9490 f   collectorPolicy.obj
 0001:000d8560       ?initialize_size_info@GenCollectorPolicy@@MAEXXZ 080d9560 f   collectorPolicy.obj
 0001:000d8750       ?adjust_gen0_sizes@TwoGenerationCollectorPolicy@@QAE_NPAI0II@Z 080d9750 f   collectorPolicy.obj
 0001:000d87e0       ?initialize_size_info@TwoGenerationCollectorPolicy@@MAEXXZ 080d97e0 f   collectorPolicy.obj
 0001:000d89d0       ?expand_heap_and_allocate@GenCollectorPolicy@@MAEPAVHeapWord@@I_N@Z 080d99d0 f   collectorPolicy.obj
 0001:000d8a90       ?satisfy_failed_allocation@GenCollectorPolicy@@UAEPAVHeapWord@@I_N@Z 080d9a90 f   collectorPolicy.obj
 0001:000d8ce0       ?should_try_older_generation_allocation@GenCollectorPolicy@@MBE_NI@Z 080d9ce0 f   collectorPolicy.obj
 0001:000d8d50       ?type@VM_GenCollectForAllocation@@UBE?AW4VMOp_Type@VM_Operation@@XZ 080d9d50 f i collectorPolicy.obj
 0001:000d8d60       ?mem_allocate_work@GenCollectorPolicy@@UAEPAVHeapWord@@I_NPA_N@Z 080d9d60 f   collectorPolicy.obj
 0001:000d9180       ?initialize_generations@MarkSweepPolicy@@MAEXXZ 080da180 f   collectorPolicy.obj
 0001:000d9280       ??0MarkSweepPolicy@@QAE@XZ 080da280 f   collectorPolicy.obj
 0001:000d92c0       ?block_start_careful@CompactibleFreeListSpace@@QBEPAVHeapWord@@PBX@Z 080da2c0 f   compactibleFreeListSpace.obj
 0001:000d92d0       ?assert_locked@CompactibleFreeListSpace@@ABEXPBVMutex@@@Z 080da2d0 f   compactibleFreeListSpace.obj
 0001:000d92f0       ?object_iterate_since_last_GC@CompactibleFreeListSpace@@QAEXPAVObjectClosure@@@Z 080da2f0 f   compactibleFreeListSpace.obj
 0001:000d9310       ?print@CompactibleFreeListSpace@@UBEXXZ 080da310 f   compactibleFreeListSpace.obj
 0001:000d9330       ?nextDisplacedHeader@PromotionInfo@@QAEPAVmarkOopDesc@@XZ 080da330 f   compactibleFreeListSpace.obj
 0001:000d9420       ?startTrackingPromotions@PromotionInfo@@QAEXXZ 080da420 f   compactibleFreeListSpace.obj
 0001:000d9460       ?set_unallocated_block@BlockOffsetArrayNonContigSpace@@QAEXPAVHeapWord@@@Z 080da460 f i compactibleFreeListSpace.obj
 0001:000d94c0       ?unallocated_block@CompactibleFreeListSpace@@ABEPAVHeapWord@@XZ 080da4c0 f i compactibleFreeListSpace.obj
 0001:000d9510       ?obj_allocated_since_save_marks@CompactibleFreeListSpace@@UBE_NQAVoopDesc@@@Z 080da510 f i compactibleFreeListSpace.obj
 0001:000d9550       ?must_be_preserved_with_bias_for_cms_scavenge@markOopDesc@@QBE_NPAVklassOopDesc@@@Z 080da550 f i compactibleFreeListSpace.obj
 0001:000d95a0       ?forward_to@oopDesc@@QAEXPAV1@@Z 080da5a0 f i compactibleFreeListSpace.obj
 0001:000d9630       ?cross_threshold@CompactibleFreeListSpace@@EAEPAVHeapWord@@PAV2@0@Z 080da630 f   compactibleFreeListSpace.obj
 0001:000d9650       ?initializeIndexedFreeListArray@CompactibleFreeListSpace@@AAEXXZ 080da650 f   compactibleFreeListSpace.obj
 0001:000d9730       ?resetIndexedFreeListArray@CompactibleFreeListSpace@@IAEXXZ 080da730 f   compactibleFreeListSpace.obj
 0001:000d9820       ?find_chunk_at_end@CompactibleFreeListSpace@@QAEPAVFreeChunk@@XZ 080da820 f   compactibleFreeListSpace.obj
 0001:000d9850       ?initializeIndexedFreeListArrayReturnedBytes@CompactibleFreeListSpace@@QAEXXZ 080da850 f   compactibleFreeListSpace.obj
 0001:000d9890       ?sumIndexedFreeListArrayReturnedBytes@CompactibleFreeListSpace@@QAEIXZ 080da890 f   compactibleFreeListSpace.obj
 0001:000d98c0       ?totalCountInIndexedFreeLists@CompactibleFreeListSpace@@QBEIXZ 080da8c0 f   compactibleFreeListSpace.obj
 0001:000d9930       ?totalCount@CompactibleFreeListSpace@@QAEIXZ 080da930 f   compactibleFreeListSpace.obj
 0001:000d9960       ?is_free_block@CompactibleFreeListSpace@@UBE_NPBVHeapWord@@@Z 080da960 f   compactibleFreeListSpace.obj
 0001:000d9980       ?used@CompactibleFreeListSpace@@UBEIXZ 080da980 f   compactibleFreeListSpace.obj
 0001:000d99a0       ?numFreeBlocksInIndexedFreeLists@CompactibleFreeListSpace@@ABEIXZ 080da9a0 f   compactibleFreeListSpace.obj
 0001:000d9a20       ?maxChunkSizeInIndexedFreeLists@CompactibleFreeListSpace@@ABEIXZ 080daa20 f   compactibleFreeListSpace.obj
 0001:000d9a90       ?blk_iterate_careful@CompactibleFreeListSpace@@QAEXPAVBlkClosureCareful@@@Z 080daa90 f   compactibleFreeListSpace.obj
 0001:000d9ad0       ?blk_iterate@CompactibleFreeListSpace@@QAEXPAVBlkClosure@@@Z 080daad0 f   compactibleFreeListSpace.obj
 0001:000d9b10       ?object_iterate@CompactibleFreeListSpace@@UAEXPAVObjectClosure@@@Z 080dab10 f   compactibleFreeListSpace.obj
 0001:000d9bb0       ?safe_object_iterate@CompactibleFreeListSpace@@UAEXPAVObjectClosure@@@Z 080dabb0 f   compactibleFreeListSpace.obj
 0001:000d9c60       ?object_iterate_mem@CompactibleFreeListSpace@@UAEXVMemRegion@@PAVUpwardsObjectClosure@@@Z 080dac60 f   compactibleFreeListSpace.obj
 0001:000d9ce0       ?object_iterate_careful@CompactibleFreeListSpace@@UAEPAVHeapWord@@PAVObjectClosureCareful@@@Z 080dace0 f   compactibleFreeListSpace.obj
 0001:000d9d40       ?object_iterate_careful_m@CompactibleFreeListSpace@@UAEPAVHeapWord@@VMemRegion@@PAVObjectClosureCareful@@@Z 080dad40 f   compactibleFreeListSpace.obj
 0001:000d9e20       ?block_start_const@CompactibleFreeListSpace@@UBEPAVHeapWord@@PBX@Z 080dae20 f   compactibleFreeListSpace.obj
 0001:000d9e90       ?totalSizeInIndexedFreeLists@CompactibleFreeListSpace@@IBEIXZ 080dae90 f   compactibleFreeListSpace.obj
 0001:000d9f30       ?par_allocate@CompactibleFreeListSpace@@UAEPAVHeapWord@@I@Z 080daf30 f   compactibleFreeListSpace.obj
 0001:000d9f70       ?verifyChunkInFreeLists@CompactibleFreeListSpace@@QBE_NPAVFreeChunk@@@Z 080daf70 f   compactibleFreeListSpace.obj
 0001:000d9fd0       ?assert_locked@CompactibleFreeListSpace@@ABEXXZ 080dafd0 f   compactibleFreeListSpace.obj
 0001:000d9ff0       ?returnChunkToFreeList@CompactibleFreeListSpace@@AAEXPAVFreeChunk@@@Z 080daff0 f   compactibleFreeListSpace.obj
 0001:000da070       ?save_marks@CompactibleFreeListSpace@@QAEXXZ 080db070 f   compactibleFreeListSpace.obj
 0001:000da120       ?no_allocs_since_save_marks@CompactibleFreeListSpace@@QAE_NXZ 080db120 f   compactibleFreeListSpace.obj
 0001:000da1a0       ?repairLinearAllocBlock@CompactibleFreeListSpace@@AAEXPAVLinearAllocBlock@@@Z 080db1a0 f   compactibleFreeListSpace.obj
 0001:000da280       ?should_concurrent_collect@CompactibleFreeListSpace@@QBE_NXZ 080db280 f   compactibleFreeListSpace.obj
 0001:000da2a0       ?prepare_for_compaction@CompactibleFreeListSpace@@UAEXPAVCompactPoint@@@Z 080db2a0 f   compactibleFreeListSpace.obj
 0001:000da600       ?flsFrag@CompactibleFreeListSpace@@QBENXZ 080db600 f   compactibleFreeListSpace.obj
 0001:000da6e0       ?setFLSurplus@CompactibleFreeListSpace@@QAEXXZ 080db6e0 f   compactibleFreeListSpace.obj
 0001:000da750       ?setFLHints@CompactibleFreeListSpace@@QAEXXZ 080db750 f   compactibleFreeListSpace.obj
 0001:000da7d0       ?clearFLCensus@CompactibleFreeListSpace@@QAEXXZ 080db7d0 f   compactibleFreeListSpace.obj
 0001:000da870       ?coalOverPopulated@CompactibleFreeListSpace@@QAE_NI@Z 080db870 f   compactibleFreeListSpace.obj
 0001:000da8c0       ?smallCoalBirth@CompactibleFreeListSpace@@QAEXI@Z 080db8c0 f   compactibleFreeListSpace.obj
 0001:000da930       ?smallCoalDeath@CompactibleFreeListSpace@@QAEXI@Z 080db930 f   compactibleFreeListSpace.obj
 0001:000da9a0       ?coalBirth@CompactibleFreeListSpace@@QAEXI@Z 080db9a0 f   compactibleFreeListSpace.obj
 0001:000da9d0       ?coalDeath@CompactibleFreeListSpace@@QAEXI@Z 080db9d0 f   compactibleFreeListSpace.obj
 0001:000daa00       ?smallSplitBirth@CompactibleFreeListSpace@@QAEXI@Z 080dba00 f   compactibleFreeListSpace.obj
 0001:000daa70       ?smallSplitDeath@CompactibleFreeListSpace@@QAEXI@Z 080dba70 f   compactibleFreeListSpace.obj
 0001:000daae0       ?splitBirth@CompactibleFreeListSpace@@QAEXI@Z 080dbae0 f   compactibleFreeListSpace.obj
 0001:000dab10       ?splitDeath@CompactibleFreeListSpace@@QAEXI@Z 080dbb10 f   compactibleFreeListSpace.obj
 0001:000dab40       ?split@CompactibleFreeListSpace@@QAEXII@Z 080dbb40 f   compactibleFreeListSpace.obj
 0001:000dabd0       ?verifyIndexedFreeList@CompactibleFreeListSpace@@QBEXI@Z 080dbbd0 f   compactibleFreeListSpace.obj
 0001:000dad10       ?printFLCensus@CompactibleFreeListSpace@@QBEXI@Z 080dbd10 f   compactibleFreeListSpace.obj
 0001:000daf70       ?stopTrackingPromotions@PromotionInfo@@QAEXI@Z 080dbf70 f   compactibleFreeListSpace.obj
 0001:000dafb0       ?print_on@PromotionInfo@@QBEXPAVoutputStream@@@Z 080dbfb0 f   compactibleFreeListSpace.obj
 0001:000db0c0       ??0CFLS_LAB@@QAE@PAVCompactibleFreeListSpace@@@Z 080dc0c0 f   compactibleFreeListSpace.obj
 0001:000db140       ?modify_initialization@CFLS_LAB@@SAXII@Z 080dc140 f   compactibleFreeListSpace.obj
 0001:000db1b0       ?compute_desired_plab_size@CFLS_LAB@@SAXXZ 080dc1b0 f   compactibleFreeListSpace.obj
 0001:000db2b0       ?initialize_sequential_subtasks_for_rescan@CompactibleFreeListSpace@@QAEXH@Z 080dc2b0 f   compactibleFreeListSpace.obj
 0001:000db400       ?initialize_sequential_subtasks_for_marking@CompactibleFreeListSpace@@QAEXHPAVHeapWord@@@Z 080dc400 f   compactibleFreeListSpace.obj
 0001:000db5d0       ?aligned_conjoint_words@Copy@@SAXPAVHeapWord@@0I@Z 080dc5d0 f i compactibleFreeListSpace.obj
 0001:000db630       ?aligned_disjoint_words@Copy@@SAXPAVHeapWord@@0I@Z 080dc630 f i compactibleFreeListSpace.obj
 0001:000db6c0       ?allocated@BlockOffsetArrayNonContigSpace@@QAEXPAVHeapWord@@I@Z 080dc6c0 f i compactibleFreeListSpace.obj
 0001:000db700       ?freed@BlockOffsetArrayNonContigSpace@@QAEXPAVHeapWord@@I@Z 080dc700 f i compactibleFreeListSpace.obj
 0001:000db760       ?used_region@Space@@UBE?AVMemRegion@@XZ 080dc760 f i compactibleFreeListSpace.obj
 0001:000db7a0       ?next_compaction_space@CompactibleSpace@@UBEPAV1@XZ 080dc7a0 f i compactibleFreeListSpace.obj
