 jvm

 Timestamp is 4cfab8ba (Sat Dec 04 13:55:06 2010)

 Preferred load address is 08000000

 Start         Length     Name                   Class
 0001:00000000 00339b2aH .text                   CODE
 0001:00339b30 00002255H .text$yc                CODE
 0001:0033bd90 00000274H .text$yd                CODE
 0002:00000000 000002e8H .idata$5                DATA
 0002:000002f0 0007fe20H .rdata                  DATA
 0002:00080110 0000007cH .rdata$debug            DATA
 0002:0008018c 000000a4H .rdata$r                DATA
 0002:00080230 00000004H .rdata$sxdata           DATA
 0002:00080234 00000004H .rtc$IAA                DATA
 0002:00080238 00000004H .rtc$IZZ                DATA
 0002:0008023c 00000004H .rtc$TAA                DATA
 0002:00080240 00000004H .rtc$TZZ                DATA
 0002:00080244 00000054H .xdata$x                DATA
 0002:00080298 00000064H .idata$2                DATA
 0002:000802fc 00000014H .idata$3                DATA
 0002:00080310 000002e8H .idata$4                DATA
 0002:000805f8 00000ae8H .idata$6                DATA
 0002:000810e0 0001402cH .edata                  DATA
 0003:00000000 00000004H .CRT$XCA                DATA
 0003:00000004 000001b4H .CRT$XCU                DATA
 0003:000001b8 00000004H .CRT$XCZ                DATA
 0003:000001bc 00000004H .CRT$XIA                DATA
 0003:000001c0 00000004H .CRT$XIZ                DATA
 0003:000001d0 00010aecH .data                   DATA
 0003:00010cc0 000153a8H .bss                    DATA
 0004:00000000 00000058H .rsrc$01                DATA
 0004:00000060 00000328H .rsrc$02                DATA

  Address         Publics by Value              Rva+Base     Lib:Object

 0000:00000000       __except_list              00000000     <absolute>
 0000:00000001       ___safe_se_handler_count   00000001     <absolute>
 0000:00009876       __fltused                  00009876     <absolute>
 0000:00009876       __ldused                   00009876     <absolute>
 0001:00000000       ?write_memory_serialize_page@os@@SAXPAVJavaThread@@@Z 08001000 f i abstractCompiler.obj
 0001:00000020       ?fence@OrderAccess@@SAXXZ  08001020 f i abstractCompiler.obj
 0001:00000030       ??0MutexLocker@@QAE@PAVMonitor@@PAVThread@@@Z 08001030 f i abstractCompiler.obj
 0001:00000050       ?serialize_memory@InterfaceSupport@@SAXPAVJavaThread@@@Z 08001050 f i abstractCompiler.obj
 0001:000000b0       ?transition_and_fence@ThreadStateTransition@@SAXPAVJavaThread@@W4JavaThreadState@@1@Z 080010b0 f i abstractCompiler.obj
 0001:00000110       ?transition_from_native@ThreadStateTransition@@SAXPAVJavaThread@@W4JavaThreadState@@@Z 08001110 f i abstractCompiler.obj
 0001:00000180       ??0ThreadInVMfromNative@@QAE@PAVJavaThread@@@Z 08001180 f i abstractCompiler.obj
 0001:000001a0       ??1ThreadInVMfromNative@@QAE@XZ 080011a0 f i abstractCompiler.obj
 0001:000001b0       ?initialize_runtimes@AbstractCompiler@@IAEXP6AXXZPCH@Z 080011b0 f   abstractCompiler.obj
 0001:00000280       ?atomic_set_bits@AccessFlags@@QAEXH@Z 08001280 f   accessFlags.obj
 0001:000002d0       ?atomic_clear_bits@AccessFlags@@QAEXH@Z 080012d0 f   accessFlags.obj
 0001:00000330       ?value@CallRelocation@@UAEPAEXZ 08001330 f i ad_x86_32.obj
 0001:00000340       ?set_value@CallRelocation@@UAEXPAE@Z 08001340 f i ad_x86_32.obj
 0001:00000350       ?ideal_reg@DecodeNNode@@UBEIXZ 08001350 f i macro.obj
 0001:00000350       ?length@Store4BNode@@UBEIXZ 08001350 f i vectornode.obj
 0001:00000350       ?cisc_operand@cmovLL_reg_LTGENode@@EBEHXZ 08001350 f i ad_x86_32_gen.obj
 0001:00000350       ?length@Load4FNode@@UBEIXZ 08001350 f i vectornode.obj
 0001:00000350       ?pd_code_alignment@VtableStub@@CAHXZ 08001350 f i vtableStubs_x86_32.obj
 0001:00000350       ?length@Load4CNode@@UBEIXZ 08001350 f i vectornode.obj
 0001:00000350       ?cisc_operand@cmovLL_reg_EQNENode@@EBEHXZ 08001350 f i ad_x86_32_gen.obj
 0001:00000350       ?cisc_operand@cmovI_regUNode@@EBEHXZ 08001350 f i ad_x86_32_expand.obj
 0001:00000350       ?ideal_reg@AllocateNode@@UBEIXZ 08001350 f i callnode.obj
 0001:00000350       ?length@Load4INode@@UBEIXZ 08001350 f i vectornode.obj
 0001:00000350       ?equal@cmpOpUCFOper@@UBEHXZ 08001350 f i ad_x86_32_clone.obj
 0001:00000350       ?barrier_set_name@G1CollectorPolicy@@UAE?AW4Name@BarrierSet@@XZ 08001350 f i g1CollectorPolicy.obj
 0001:00000350       ?kind@CMSGCAdaptivePolicyCounters@@UBE?AW4Name@GCPolicyCounters@@XZ 08001350 f i cmsGCAdaptivePolicyCounters.obj
 0001:00000350       ?length@Load4SNode@@UBEIXZ 08001350 f i vectornode.obj
 0001:00000350       ?ideal_reg@CheckCastPPNode@@UBEIXZ 08001350 f i doCall.obj
 0001:00000350       ?alignment_required@CallStaticJavaDirectNode@@EBEHXZ 08001350 f i ad_x86_32_gen.obj
 0001:00000350       ?ideal_reg@CreateExNode@@UBEIXZ 08001350 f i doCall.obj
 0001:00000350       ?ideal_reg@ThreadLocalNode@@UBEIXZ 08001350 f i generateOptoStub.obj
 0001:00000350       ?equal@cmpOp_commuteOper@@UBEHXZ 08001350 f i ad_x86_32_clone.obj
 0001:00000350       ?kind@ParNewMemoryManager@@UAE?AW4Name@MemoryManager@@XZ 08001350 f i memoryManager.obj
 0001:00000350       ?length@Store4INode@@UBEIXZ 08001350 f i vectornode.obj
 0001:00000350       ?ideal_reg@CastPPNode@@UBEIXZ 08001350 f i graphKit.obj
 0001:00000350       ?kind@G1CollectorPolicy@@UAE?AW4Name@CollectorPolicy@@XZ 08001350 f i g1CollectorPolicy.obj
 0001:00000350       ?type@static_call_Relocation@@EAE?AW4relocType@relocInfo@@XZ 08001350 f i ad_x86_32.obj
 0001:00000350       ?ideal_reg@BoxLockNode@@UBEIXZ 08001350 f i locknode.obj
 0001:00000350       ?cisc_operand@cmovLL_reg_LEGTNode@@EBEHXZ 08001350 f i ad_x86_32_gen.obj
 0001:00000350       ?cisc_operand@cmovI_regNode@@EBEHXZ 08001350 f i ad_x86_32_gen.obj
 0001:00000350       ?cisc_operand@cmovI_regUCFNode@@EBEHXZ 08001350 f i ad_x86_32_gen.obj
 0001:00000350       ?equal@cmpOpUOper@@UBEHXZ  08001350 f i ad_x86_32_clone.obj
 0001:00000350       ?ideal_Opcode@storeSSPNode@@EBEHXZ 08001350 f i ad_x86_32_gen.obj
 0001:00000350       ?equal@cmpOpUCF2Oper@@UBEHXZ 08001350 f i ad_x86_32_clone.obj
 0001:00000350       ?ideal_reg@AddPNode@@UBEIXZ 08001350 f i addnode.obj
 0001:00000350       ?cisc_operand@cmovII_reg_EQNENode@@EBEHXZ 08001350 f i ad_x86_32_gen.obj
 0001:00000350       ?alignment_required@CallStaticJavaHandleNode@@EBEHXZ 08001350 f i ad_x86_32_gen.obj
 0001:00000350       ?type@VM_FindDeadlocks@@UBE?AW4VMOp_Type@VM_Operation@@XZ 08001350 f i attachListener.obj
 0001:00000350       ?kind@TenuredGeneration@@UAE?AW4Name@Generation@@XZ 08001350 f i tenuredGeneration.obj
 0001:00000350       ?opcode@sRegFOper@@UBEIXZ  08001350 f i ad_x86_32_clone.obj
 0001:00000350       ?length@Load4BNode@@UBEIXZ 08001350 f i vectornode.obj
 0001:00000350       ?ideal_reg@CastX2PNode@@UBEIXZ 08001350 f i addnode.obj
 0001:00000350       ?length@Store4CNode@@UBEIXZ 08001350 f i vectornode.obj
 0001:00000350       ?alignment_required@CallDynamicJavaDirectNode@@EBEHXZ 08001350 f i ad_x86_32_gen.obj
 0001:00000350       ?reloc_java_to_interp@@YAIXZ 08001350 f i ad_x86_32.obj
 0001:00000350       ?length@Store4FNode@@UBEIXZ 08001350 f i vectornode.obj
 0001:00000350       ?equal@cmpOpOper@@UBEHXZ   08001350 f i ad_x86_32_clone.obj
 0001:00000350       ?ideal_reg@LoadPNode@@UBEIXZ 08001350 f i macro.obj
 0001:00000350       ?cisc_operand@cmovII_reg_LTGENode@@EBEHXZ 08001350 f i ad_x86_32_gen.obj
 0001:00000350       ?kind@G1CollectedHeap@@UBE?AW4Name@CollectedHeap@@XZ 08001350 f i g1CollectedHeap.obj
 0001:00000350       ?cisc_operand@cmovII_reg_LEGTNode@@EBEHXZ 08001350 f i ad_x86_32_gen.obj
 0001:00000350       ?minimum_free_block_size@CompactibleFreeListSpace@@UBEIXZ 08001350 f i compactibleFreeListSpace.obj
 0001:00000350       ?ideal_reg@PartialSubtypeCheckNode@@UBEIXZ 08001350 f i graphKit.obj
 0001:00000360       ?ideal_reg@NegFNode@@UBEIXZ 08001360 f i parse2.obj
 0001:00000360       ?ideal_reg@SubFNode@@UBEIXZ 08001360 f i cfgnode.obj
 0001:00000360       ?elt_basic_type@Replicate4CNode@@MBE?AW4BasicType@@XZ 08001360 f i vectornode.obj
 0001:00000360       ?oper_input_base@safePoint_pollNode@@EBEIXZ 08001360 f i ad_x86_32_gen.obj
 0001:00000360       ?ideal_reg@LoadFNode@@UBEIXZ 08001360 f i matcher.obj
 0001:00000360       ?kind@ConcurrentMarkSweepGeneration@@UAE?AW4Name@Generation@@XZ 08001360 f i cmsPermGen.obj
 0001:00000360       ?ideal_reg@AddFNode@@UBEIXZ 08001360 f i parse2.obj
 0001:00000360       ?oper_input_base@RetNode@@EBEIXZ 08001360 f i ad_x86_32_gen.obj
 0001:00000360       ?not_equal@cmpOpUOper@@UBEHXZ 08001360 f i ad_x86_32_clone.obj
 0001:00000360       ?ideal_reg@RoundFloatNode@@UBEIXZ 08001360 f i graphKit.obj
 0001:00000360       ?oper_input_base@RethrowExceptionNode@@EBEIXZ 08001360 f i ad_x86_32_gen.obj
 0001:00000360       ?elt_basic_type@Load8CNode@@MBE?AW4BasicType@@XZ 08001360 f i vectornode.obj
 0001:00000360       ?memory_type@StoreCNode@@UBE?AW4BasicType@@XZ 08001360 f i memnode.obj
 0001:00000360       ?kind@CMSMemoryManager@@UAE?AW4Name@MemoryManager@@XZ 08001360 f i memoryManager.obj
 0001:00000360       ?ideal_reg@DivFNode@@UBEIXZ 08001360 f i parse2.obj
 0001:00000360       ?oper_input_base@ShouldNotReachHereNode@@EBEIXZ 08001360 f i ad_x86_32_gen.obj
 0001:00000360       ?not_equal@cmpOpUCF2Oper@@UBEHXZ 08001360 f i ad_x86_32_clone.obj
 0001:00000360       ?ideal_reg@AbsFNode@@UBEIXZ 08001360 f i cfgnode.obj
 0001:00000360       ?elt_basic_type@PackCNode@@MBE?AW4BasicType@@XZ 08001360 f i vectornode.obj
 0001:00000360       ?size_exception_handler@@YAIXZ 08001360 f i ad_x86_32.obj
 0001:00000360       ?not_equal@cmpOpUCFOper@@UBEHXZ 08001360 f i ad_x86_32_clone.obj
 0001:00000360       ?ideal_reg@MoveI2FNode@@UBEIXZ 08001360 f i library_call.obj
 0001:00000360       ?memory_type@LoadUSNode@@UBE?AW4BasicType@@XZ 08001360 f i memnode.obj
 0001:00000360       ?oper_input_base@tailjmpIndNode@@EBEIXZ 08001360 f i ad_x86_32_gen.obj
 0001:00000360       ?ideal_reg@ConvD2FNode@@UBEIXZ 08001360 f i parse2.obj
 0001:00000360       ?type@static_stub_Relocation@@EAE?AW4relocType@relocInfo@@XZ 08001360 f i ad_x86_32.obj
 0001:00000360       ?not_equal@cmpOpOper@@UBEHXZ 08001360 f i ad_x86_32_clone.obj
 0001:00000360       ?elt_basic_type@Store2CNode@@MBE?AW4BasicType@@XZ 08001360 f i vectornode.obj
 0001:00000360       ?elt_basic_type@AddVCNode@@MBE?AW4BasicType@@XZ 08001360 f i vectornode.obj
 0001:00000360       ?elt_basic_type@Replicate8CNode@@MBE?AW4BasicType@@XZ 08001360 f i vectornode.obj
 0001:00000360       ?oper_input_base@TailCalljmpIndNode@@EBEIXZ 08001360 f i ad_x86_32_gen.obj
 0001:00000360       ?ideal_reg@ConvL2FNode@@UBEIXZ 08001360 f i parse2.obj
 0001:00000360       ?not_equal@cmpOp_commuteOper@@UBEHXZ 08001360 f i ad_x86_32_clone.obj
 0001:00000360       ?elt_basic_type@Replicate2CNode@@MBE?AW4BasicType@@XZ 08001360 f i vectornode.obj
 0001:00000360       ?elt_basic_type@LShiftVCNode@@MBE?AW4BasicType@@XZ 08001360 f i vectornode.obj
 0001:00000360       ?compute_Object_vtable@ClassLoader@@SAHXZ 08001360 f i classLoader.obj
 0001:00000360       ?elt_basic_type@Load4CNode@@MBE?AW4BasicType@@XZ 08001360 f i vectornode.obj
 0001:00000360       ?elt_basic_type@Pack2x2BNode@@MBE?AW4BasicType@@XZ 08001360 f i vectornode.obj
 0001:00000360       ?opcode@sRegDOper@@UBEIXZ  08001360 f i ad_x86_32_clone.obj
 0001:00000360       ?elt_basic_type@Load2CNode@@MBE?AW4BasicType@@XZ 08001360 f i vectornode.obj
 0001:00000360       ?elt_basic_type@Store8CNode@@MBE?AW4BasicType@@XZ 08001360 f i vectornode.obj
 0001:00000360       ?elt_basic_type@Store4CNode@@MBE?AW4BasicType@@XZ 08001360 f i vectornode.obj
 0001:00000360       ?ideal_reg@ModFNode@@UBEIXZ 08001360 f i parse2.obj
 0001:00000360       ?elt_basic_type@SubVCNode@@MBE?AW4BasicType@@XZ 08001360 f i vectornode.obj
 0001:00000360       ?ideal_reg@ConvI2FNode@@UBEIXZ 08001360 f i parse2.obj
 0001:00000360       ?ideal_reg@ExtractFNode@@UBEIXZ 08001360 f i vectornode.obj
 0001:00000360       ?type@VM_ForceSafepoint@@UBE?AW4VMOp_Type@VM_Operation@@XZ 08001360 f i icBuffer.obj
 0001:00000360       ?ideal_reg@MulFNode@@UBEIXZ 08001360 f i divnode.obj
 0001:00000370       ?elt_basic_type@PackFNode@@MBE?AW4BasicType@@XZ 08001370 f i vectornode.obj
 0001:00000370       ?kind@PSScavengeMemoryManager@@UAE?AW4Name@MemoryManager@@XZ 08001370 f i memoryManager.obj
 0001:00000370       ?ideal_reg@RoundDoubleNode@@UBEIXZ 08001370 f i graphKit.obj
 0001:00000370       ?ideal_reg@ExpDNode@@UBEIXZ 08001370 f i library_call.obj
 0001:00000370       ?elt_basic_type@Replicate2FNode@@MBE?AW4BasicType@@XZ 08001370 f i vectornode.obj
 0001:00000370       ?elt_basic_type@SubVFNode@@MBE?AW4BasicType@@XZ 08001370 f i vectornode.obj
 0001:00000370       ?memory_type@LoadFNode@@UBE?AW4BasicType@@XZ 08001370 f i matcher.obj
 0001:00000370       ?less_equal@cmpOpUCFOper@@UBEHXZ 08001370 f i ad_x86_32_clone.obj
 0001:00000370       ?type@VM_ForceAsyncSafepoint@@UBE?AW4VMOp_Type@VM_Operation@@XZ 08001370 f i synchronizer.obj
 0001:00000370       ?type@runtime_call_Relocation@@EAE?AW4relocType@relocInfo@@XZ 08001370 f i ad_x86_32.obj
 0001:00000370       ?elt_basic_type@DivVFNode@@MBE?AW4BasicType@@XZ 08001370 f i vectornode.obj
 0001:00000370       ?opcode@sRegLOper@@UBEIXZ  08001370 f i ad_x86_32_clone.obj
 0001:00000370       ?ideal_reg@ConvI2DNode@@UBEIXZ 08001370 f i library_call.obj
 0001:00000370       ?ideal_reg@Log10DNode@@UBEIXZ 08001370 f i library_call.obj
 0001:00000370       ?elt_basic_type@Store2FNode@@MBE?AW4BasicType@@XZ 08001370 f i vectornode.obj
 0001:00000370       ?memory_type@StoreFNode@@UBE?AW4BasicType@@XZ 08001370 f i memnode.obj
 0001:00000370       ?ideal_reg@MoveL2DNode@@UBEIXZ 08001370 f i library_call.obj
 0001:00000370       ?ideal_reg@CosDNode@@UBEIXZ 08001370 f i library_call.obj
 0001:00000370       ?elt_basic_type@Store4FNode@@MBE?AW4BasicType@@XZ 08001370 f i vectornode.obj
 0001:00000370       ?ideal_reg@MulDNode@@UBEIXZ 08001370 f i divnode.obj
 0001:00000370       ?ideal_reg@NegDNode@@UBEIXZ 08001370 f i library_call.obj
 0001:00000370       ?ideal_reg@SubDNode@@UBEIXZ 08001370 f i cfgnode.obj
 0001:00000370       ?elt_basic_type@AddVFNode@@MBE?AW4BasicType@@XZ 08001370 f i vectornode.obj
 0001:00000370       ?elt_basic_type@Replicate4FNode@@MBE?AW4BasicType@@XZ 08001370 f i vectornode.obj
 0001:00000370       ?ideal_reg@DivDNode@@UBEIXZ 08001370 f i parse2.obj
 0001:00000370       ?ideal_reg@LoadDNode@@UBEIXZ 08001370 f i matcher.obj
 0001:00000370       ?less_equal@cmpOpUOper@@UBEHXZ 08001370 f i ad_x86_32_clone.obj
 0001:00000370       ?ideal_reg@ConvL2DNode@@UBEIXZ 08001370 f i parse2.obj
 0001:00000370       ?elt_basic_type@MulVFNode@@MBE?AW4BasicType@@XZ 08001370 f i vectornode.obj
 0001:00000370       ?ideal_reg@SinDNode@@UBEIXZ 08001370 f i library_call.obj
 0001:00000370       ?ideal_reg@ModDNode@@UBEIXZ 08001370 f i parse2.obj
 0001:00000370       ?ideal_reg@ConvF2DNode@@UBEIXZ 08001370 f i parse2.obj
 0001:00000370       ?elt_basic_type@Load4FNode@@MBE?AW4BasicType@@XZ 08001370 f i vectornode.obj
 0001:00000370       ?vector_ideal_reg@Matcher@@SA?BIXZ 08001370 f i ad_x86_32.obj
 0001:00000370       ?less_equal@cmpOpUCF2Oper@@UBEHXZ 08001370 f i ad_x86_32_clone.obj
 0001:00000370       ?ideal_reg@LogDNode@@UBEIXZ 08001370 f i library_call.obj
 0001:00000370       ?ideal_reg@AddDNode@@UBEIXZ 08001370 f i parse2.obj
 0001:00000370       ?ideal_reg@AbsDNode@@UBEIXZ 08001370 f i cfgnode.obj
 0001:00000370       ?ideal_reg@PowDNode@@UBEIXZ 08001370 f i library_call.obj
 0001:00000370       ?ideal_reg@SqrtDNode@@UBEIXZ 08001370 f i library_call.obj
 0001:00000370       ?elt_basic_type@Load2FNode@@MBE?AW4BasicType@@XZ 08001370 f i vectornode.obj
 0001:00000370       ?ideal_reg@TanDNode@@UBEIXZ 08001370 f i library_call.obj
 0001:00000370       ?ideal_reg@ExtractDNode@@UBEIXZ 08001370 f i vectornode.obj
 0001:00000370       ?kind@Generation@@UAE?AW4Name@1@XZ 08001370 f i compactingPermGenGen.obj
 0001:00000380       ?ideal_reg@CmpNode@@UBEIXZ 08001380 f i callGenerator.obj
 0001:00000380       ?length@Store8CNode@@UBEIXZ 08001380 f i vectornode.obj
 0001:00000380       ?elt_basic_type@Load16BNode@@MBE?AW4BasicType@@XZ 08001380 f i vectornode.obj
 0001:00000380       ?elt_basic_type@Pack2x1BNode@@MBE?AW4BasicType@@XZ 08001380 f i vectornode.obj
 0001:00000380       ?elt_basic_type@Store4BNode@@MBE?AW4BasicType@@XZ 08001380 f i vectornode.obj
 0001:00000380       ?ideal_reg@StoreLConditionalNode@@UBEIXZ 08001380 f i library_call.obj
 0001:00000380       ?elt_basic_type@SubVBNode@@MBE?AW4BasicType@@XZ 08001380 f i vectornode.obj
 0001:00000380       ?type@internal_word_Relocation@@EAE?AW4relocType@relocInfo@@XZ 08001380 f i ad_x86_32.obj
 0001:00000380       ?ideal_reg@StorePConditionalNode@@UBEIXZ 08001380 f i macro.obj
 0001:00000380       ?length@Load8SNode@@UBEIXZ 08001380 f i vectornode.obj
 0001:00000380       ?type@VM_DeoptimizeFrame@@UBE?AW4VMOp_Type@VM_Operation@@XZ 08001380 f i vm_operations.obj
 0001:00000380       ?elt_basic_type@URShiftVBNode@@MBE?AW4BasicType@@XZ 08001380 f i vectornode.obj
 0001:00000380       ?elt_basic_type@Store8BNode@@MBE?AW4BasicType@@XZ 08001380 f i vectornode.obj
 0001:00000380       ?elt_basic_type@Load8BNode@@MBE?AW4BasicType@@XZ 08001380 f i vectornode.obj
 0001:00000380       ?length@Load8BNode@@UBEIXZ 08001380 f i vectornode.obj
 0001:00000380       ?elt_basic_type@AddVBNode@@MBE?AW4BasicType@@XZ 08001380 f i vectornode.obj
 0001:00000380       ?elt_basic_type@Replicate4BNode@@MBE?AW4BasicType@@XZ 08001380 f i vectornode.obj
 0001:00000380       ?elt_basic_type@Replicate16BNode@@MBE?AW4BasicType@@XZ 08001380 f i vectornode.obj
 0001:00000380       ?elt_basic_type@LShiftVBNode@@MBE?AW4BasicType@@XZ 08001380 f i vectornode.obj
 0001:00000380       ?length@Load8CNode@@UBEIXZ 08001380 f i vectornode.obj
 0001:00000380       ?opcode@immIOper@@UBEIXZ   08001380 f i ad_x86_32_clone.obj
 0001:00000380       ?elt_basic_type@Replicate8BNode@@MBE?AW4BasicType@@XZ 08001380 f i vectornode.obj
 0001:00000380       ?memory_type@LoadUBNode@@UBE?AW4BasicType@@XZ 08001380 f i memnode.obj
 0001:00000380       ?elt_basic_type@PackBNode@@MBE?AW4BasicType@@XZ 08001380 f i vectornode.obj
 0001:00000380       ?header_size@CodeHeap@@SAIXZ 08001380 f i heap.obj
 0001:00000380       ?memory_type@LoadBNode@@UBE?AW4BasicType@@XZ 08001380 f i memnode.obj
 0001:00000380       ?length@Store8BNode@@UBEIXZ 08001380 f i vectornode.obj
 0001:00000380       ?elt_basic_type@Store16BNode@@MBE?AW4BasicType@@XZ 08001380 f i vectornode.obj
 0001:00000380       ?ideal_reg@StoreIConditionalNode@@UBEIXZ 08001380 f i macro.obj
 0001:00000380       ?memory_type@StoreBNode@@UBE?AW4BasicType@@XZ 08001380 f i memnode.obj
 0001:00000380       ?elt_basic_type@Load4BNode@@MBE?AW4BasicType@@XZ 08001380 f i vectornode.obj
 0001:00000380       ?kind@G1YoungGenMemoryManager@@UAE?AW4Name@MemoryManager@@XZ 08001380 f i memoryManager.obj
 0001:00000390       ?value@internal_word_Relocation@@UAEPAEXZ 08001390 f i ad_x86_32.obj
 0001:00000390       ?value@external_word_Relocation@@UAEPAEXZ 08001390 f i assembler_x86.obj
 0001:000003a0       ??0Address@@QAE@PAVRegisterImpl@@H@Z 080013a0 f i ad_x86_32.obj
 0001:000003e0       ??0Address@@QAE@PAVRegisterImpl@@0W4ScaleFactor@0@H@Z 080013e0 f i ad_x86_32.obj
 0001:00000420       ??0RuntimeAddress@@QAE@PAE@Z 08001420 f i ad_x86_32.obj
 0001:00000440       ??0ExternalAddress@@QAE@PAE@Z 08001440 f i ad_x86_32.obj
 0001:00000460       ??0InternalAddress@@QAE@PAE@Z 08001460 f i ad_x86_32.obj
 0001:00000480       ??0ArrayAddress@@QAE@VAddressLiteral@@VAddress@@@Z 08001480 f i ad_x86_32.obj
 0001:000004b0       ?membar@Assembler@@QAEXW4Membar_mask_bits@1@@Z 080014b0 f i ad_x86_32.obj
 0001:00000520       ?bang_stack_with_offset@MacroAssembler@@UAEXH@Z 08001520 f i ad_x86_32.obj
 0001:00000580       ?addptr@MacroAssembler@@QAEXVAddress@@H@Z 08001580 f i ad_x86_32.obj
 0001:000005b0       ?cmpptr@MacroAssembler@@QAEXPAVRegisterImpl@@VAddress@@@Z 080015b0 f i ad_x86_32.obj
 0001:000005b0       ?cmp32@MacroAssembler@@QAEXPAVRegisterImpl@@VAddress@@@Z 080015b0 f i assembler_x86.obj
 0001:000005e0       ?cmpptr@MacroAssembler@@QAEXVAddress@@H@Z 080015e0 f i ad_x86_32.obj
 0001:00000610       ?lea@MacroAssembler@@QAEXPAVRegisterImpl@@VAddress@@@Z 08001610 f i ad_x86_32.obj
 0001:00000640       ?orptr@MacroAssembler@@QAEXPAVRegisterImpl@@VAddress@@@Z 08001640 f i ad_x86_32.obj
 0001:00000670       ?xorptr@MacroAssembler@@QAEXPAVRegisterImpl@@VAddress@@@Z 08001670 f i ad_x86_32.obj
 0001:000006a0       ?size@MachPrologNode@@UBEIPAVPhaseRegAlloc@@@Z 080016a0 f   ad_x86_32.obj
 0001:000006b0       ?pipeline@MachEpilogNode@@UBEPBVPipeline@@XZ 080016b0 f   ad_x86_32.obj
 0001:000006c0       ?emit@MachNopNode@@UBEXAAVCodeBuffer@@PAVPhaseRegAlloc@@@Z 080016c0 f   ad_x86_32.obj
 0001:000006f0       ?in_RegMask@MachSpillCopyNode@@UBEABVRegMask@@I@Z 080016f0 f   chaitin.obj
 0001:000006f0       ?size@MachNopNode@@UBEIPAVPhaseRegAlloc@@@Z 080016f0 f   ad_x86_32.obj
 0001:00000700       ?regnum_to_fpu_offset@Matcher@@UAEHH@Z 08001700 f   ad_x86_32.obj
 0001:00000710       ?vector_width_in_bytes@Matcher@@SA?BIXZ 08001710 f   ad_x86_32.obj
 0001:00000730       ?is_short_branch_offset@Matcher@@QAE_NHH@Z 08001730 f   ad_x86_32.obj
 0001:00000770       ?float_in_double@Matcher@@SA_NXZ 08001770 f   ad_x86_32.obj
 0001:00000780       ?is_spillable_arg@Matcher@@SA_NH@Z 08001780 f   ad_x86_32.obj
 0001:000007c0       ?divI_proj_mask@Matcher@@SA?AVRegMask@@XZ 080017c0 f   ad_x86_32.obj
 0001:000007f0       ?modI_proj_mask@Matcher@@SA?AVRegMask@@XZ 080017f0 f   ad_x86_32.obj
 0001:00000820       ?method_handle_invoke_SP_save_mask@Matcher@@SA?BVRegMask@@XZ 08001820 f   ad_x86_32.obj
 0001:00000850       ?in_RegMask@xRegIOper@@EBEPBVRegMask@@H@Z 08001850 f   ad_x86_32.obj
 0001:00000860       ?in_RegMask@eDXRegIOper@@EBEPBVRegMask@@H@Z 08001860 f   ad_x86_32.obj
 0001:00000870       ?in_RegMask@nadxRegIOper@@EBEPBVRegMask@@H@Z 08001870 f   ad_x86_32.obj
 0001:00000880       ?in_RegMask@ncxRegIOper@@EBEPBVRegMask@@H@Z 08001880 f   ad_x86_32.obj
 0001:00000890       ?in_RegMask@anyRegPOper@@EBEPBVRegMask@@H@Z 08001890 f   ad_x86_32.obj
 0001:000008a0       ?in_RegMask@naxRegPOper@@EBEPBVRegMask@@H@Z 080018a0 f   ad_x86_32.obj
 0001:000008a0       ?in_RegMask@naxRegIOper@@EBEPBVRegMask@@H@Z 080018a0 f   ad_x86_32.obj
 0001:000008b0       ?in_RegMask@nabxRegPOper@@EBEPBVRegMask@@H@Z 080018b0 f   ad_x86_32.obj
 0001:000008c0       ?in_RegMask@pRegPOper@@EBEPBVRegMask@@H@Z 080018c0 f   ad_x86_32.obj
 0001:000008d0       ?in_RegMask@eAXRegPOper@@EBEPBVRegMask@@H@Z 080018d0 f   ad_x86_32.obj
 0001:000008d0       ?in_RegMask@eAXRegIOper@@EBEPBVRegMask@@H@Z 080018d0 f   ad_x86_32.obj
 0001:000008e0       ?in_RegMask@eBXRegPOper@@EBEPBVRegMask@@H@Z 080018e0 f   ad_x86_32.obj
 0001:000008e0       ?in_RegMask@eBXRegIOper@@EBEPBVRegMask@@H@Z 080018e0 f   ad_x86_32.obj
 0001:000008f0       ?in_RegMask@eCXRegIOper@@EBEPBVRegMask@@H@Z 080018f0 f   ad_x86_32.obj
 0001:000008f0       ?in_RegMask@eCXRegPOper@@EBEPBVRegMask@@H@Z 080018f0 f   ad_x86_32.obj
 0001:00000900       ?in_RegMask@eDIRegIOper@@EBEPBVRegMask@@H@Z 08001900 f   ad_x86_32.obj
 0001:00000900       ?in_RegMask@eDIRegPOper@@EBEPBVRegMask@@H@Z 08001900 f   ad_x86_32.obj
 0001:00000910       ?in_RegMask@eBPRegPOper@@EBEPBVRegMask@@H@Z 08001910 f   ad_x86_32.obj
 0001:00000920       ?in_RegMask@eRegLOper@@EBEPBVRegMask@@H@Z 08001920 f   ad_x86_32.obj
 0001:00000930       ?in_RegMask@eBCXRegLOper@@EBEPBVRegMask@@H@Z 08001930 f   ad_x86_32.obj
 0001:00000940       ?in_RegMask@eADXRegL_low_onlyOper@@EBEPBVRegMask@@H@Z 08001940 f   ad_x86_32.obj
 0001:00000940       ?in_RegMask@eADXRegLOper@@EBEPBVRegMask@@H@Z 08001940 f   ad_x86_32.obj
 0001:00000950       ?in_RegMask@flagsReg_long_LEGTOper@@EBEPBVRegMask@@H@Z 08001950 f   ad_x86_32.obj
 0001:00000950       ?in_RegMask@eFlagsRegOper@@EBEPBVRegMask@@H@Z 08001950 f   ad_x86_32.obj
 0001:00000950       ?in_RegMask@eFlagsRegUCFOper@@EBEPBVRegMask@@H@Z 08001950 f   ad_x86_32.obj
 0001:00000950       ?in_RegMask@flagsReg_long_LTGEOper@@EBEPBVRegMask@@H@Z 08001950 f   ad_x86_32.obj
 0001:00000950       ?in_RegMask@eFlagsRegUOper@@EBEPBVRegMask@@H@Z 08001950 f   ad_x86_32.obj
 0001:00000950       ?in_RegMask@flagsReg_long_EQNEOper@@EBEPBVRegMask@@H@Z 08001950 f   ad_x86_32.obj
 0001:00000960       ?in_RegMask@regDOper@@EBEPBVRegMask@@H@Z 08001960 f   ad_x86_32.obj
 0001:00000970       ?in_RegMask@regDPR1Oper@@EBEPBVRegMask@@H@Z 08001970 f   ad_x86_32.obj
 0001:00000980       ?in_RegMask@regDPR2Oper@@EBEPBVRegMask@@H@Z 08001980 f   ad_x86_32.obj
 0001:00000990       ?in_RegMask@regnotDPR1Oper@@EBEPBVRegMask@@H@Z 08001990 f   ad_x86_32.obj
 0001:000009a0       ?in_RegMask@regXDOper@@EBEPBVRegMask@@H@Z 080019a0 f   ad_x86_32.obj
 0001:000009b0       ?in_RegMask@regXD6Oper@@EBEPBVRegMask@@H@Z 080019b0 f   ad_x86_32.obj
 0001:000009c0       ?in_RegMask@regXD7Oper@@EBEPBVRegMask@@H@Z 080019c0 f   ad_x86_32.obj
 0001:000009d0       ?in_RegMask@regFOper@@EBEPBVRegMask@@H@Z 080019d0 f   ad_x86_32.obj
 0001:000009e0       ?in_RegMask@regFPR1Oper@@EBEPBVRegMask@@H@Z 080019e0 f   ad_x86_32.obj
 0001:000009f0       ?in_RegMask@regXOper@@EBEPBVRegMask@@H@Z 080019f0 f   ad_x86_32.obj
 0001:00000a00       ?in_RegMask@indirect_win95_safeOper@@EBEPBVRegMask@@H@Z 08001a00 f   ad_x86_32.obj
 0001:00000a00       ?in_RegMask@indIndexScaleOffsetOper@@EBEPBVRegMask@@H@Z 08001a00 f   ad_x86_32.obj
 0001:00000a00       ?in_RegMask@indIndexScaleOper@@EBEPBVRegMask@@H@Z 08001a00 f   ad_x86_32.obj
 0001:00000a00       ?in_RegMask@indOffset32Oper@@EBEPBVRegMask@@H@Z 08001a00 f   ad_x86_32.obj
 0001:00000a00       ?in_RegMask@eRegPOper@@EBEPBVRegMask@@H@Z 08001a00 f   ad_x86_32.obj
 0001:00000a00       ?in_RegMask@indIndexOffsetOper@@EBEPBVRegMask@@H@Z 08001a00 f   ad_x86_32.obj
 0001:00000a00       ?in_RegMask@eRegIOper@@EBEPBVRegMask@@H@Z 08001a00 f   ad_x86_32.obj
 0001:00000a00       ?in_RegMask@indirectOper@@EBEPBVRegMask@@H@Z 08001a00 f   ad_x86_32.obj
 0001:00000a00       ?in_RegMask@indIndexOper@@EBEPBVRegMask@@H@Z 08001a00 f   ad_x86_32.obj
 0001:00000a00       ?in_RegMask@indOffset8Oper@@EBEPBVRegMask@@H@Z 08001a00 f   ad_x86_32.obj
 0001:00000a00       ?in_RegMask@indOffset32XOper@@EBEPBVRegMask@@H@Z 08001a00 f   ad_x86_32.obj
 0001:00000a10       ?in_RegMask@eSIRegIOper@@EBEPBVRegMask@@H@Z 08001a10 f   ad_x86_32.obj
 0001:00000a10       ?in_RegMask@load_long_indOffset32Oper@@EBEPBVRegMask@@H@Z 08001a10 f   ad_x86_32.obj
 0001:00000a10       ?in_RegMask@eSIRegPOper@@EBEPBVRegMask@@H@Z 08001a10 f   ad_x86_32.obj
 0001:00000a10       ?in_RegMask@load_long_RegPOper@@EBEPBVRegMask@@H@Z 08001a10 f   ad_x86_32.obj
 0001:00000a10       ?in_RegMask@load_long_indirectOper@@EBEPBVRegMask@@H@Z 08001a10 f   ad_x86_32.obj
 0001:00000a20       ?in_RegMask@eRegP_no_EBPOper@@EBEPBVRegMask@@H@Z 08001a20 f   ad_x86_32.obj
 0001:00000a20       ?in_RegMask@indOffset8_win95_safeOper@@EBEPBVRegMask@@H@Z 08001a20 f   ad_x86_32.obj
 0001:00000a20       ?in_RegMask@indOffset32_win95_safeOper@@EBEPBVRegMask@@H@Z 08001a20 f   ad_x86_32.obj
 0001:00000a30       ?in_RegMask@indIndexOffset_win95_safeOper@@EBEPBVRegMask@@H@Z 08001a30 f   ad_x86_32.obj
 0001:00000a70       ?in_RegMask@indIndexScale_win95_safeOper@@EBEPBVRegMask@@H@Z 08001a70 f   ad_x86_32.obj
 0001:00000ab0       ?in_RegMask@indIndexScaleOffset_win95_safeOper@@EBEPBVRegMask@@H@Z 08001ab0 f   ad_x86_32.obj
 0001:00000af0       ?use_cisc_RegMask@convI2L_regNode@@EAEXXZ 08001af0 f   ad_x86_32.obj
 0001:00000af0       ?use_cisc_RegMask@popCountINode@@EAEXXZ 08001af0 f   ad_x86_32.obj
 0001:00000b00       ?use_cisc_RegMask@popCountLNode@@EAEXXZ 08001b00 f   ad_x86_32.obj
 0001:00000b10       ?use_cisc_RegMask@cmovII_reg_LEGTNode@@EAEXXZ 08001b10 f   ad_x86_32.obj
 0001:00000b10       ?use_cisc_RegMask@cmovI_regUNode@@EAEXXZ 08001b10 f   ad_x86_32.obj
 0001:00000b10       ?use_cisc_RegMask@cmovI_regUCFNode@@EAEXXZ 08001b10 f   ad_x86_32.obj
 0001:00000b10       ?use_cisc_RegMask@cmovI_regNode@@EAEXXZ 08001b10 f   ad_x86_32.obj
 0001:00000b10       ?use_cisc_RegMask@cmovII_reg_EQNENode@@EAEXXZ 08001b10 f   ad_x86_32.obj
 0001:00000b10       ?use_cisc_RegMask@cmovII_reg_LTGENode@@EAEXXZ 08001b10 f   ad_x86_32.obj
 0001:00000b20       ?use_cisc_RegMask@andI_eRegNode@@EAEXXZ 08001b20 f   ad_x86_32.obj
 0001:00000b20       ?use_cisc_RegMask@compI_eRegNode@@EAEXXZ 08001b20 f   ad_x86_32.obj
 0001:00000b20       ?use_cisc_RegMask@mulI_eRegNode@@EAEXXZ 08001b20 f   ad_x86_32.obj
 0001:00000b20       ?use_cisc_RegMask@compP_eRegNode@@EAEXXZ 08001b20 f   ad_x86_32.obj
 0001:00000b20       ?use_cisc_RegMask@compU_eRegNode@@EAEXXZ 08001b20 f   ad_x86_32.obj
 0001:00000b20       ?use_cisc_RegMask@mulI_eReg_immNode@@EAEXXZ 08001b20 f   ad_x86_32.obj
 0001:00000b20       ?use_cisc_RegMask@orI_eRegNode@@EAEXXZ 08001b20 f   ad_x86_32.obj
 0001:00000b20       ?use_cisc_RegMask@xorI_eRegNode@@EAEXXZ 08001b20 f   ad_x86_32.obj
 0001:00000b20       ?use_cisc_RegMask@subI_eRegNode@@EAEXXZ 08001b20 f   ad_x86_32.obj
 0001:00000b20       ?use_cisc_RegMask@addI_eRegNode@@EAEXXZ 08001b20 f   ad_x86_32.obj
 0001:00000b30       ?use_cisc_RegMask@i2bNode@@EAEXXZ 08001b30 f   ad_x86_32.obj
 0001:00000b30       ?use_cisc_RegMask@i2sNode@@EAEXXZ 08001b30 f   ad_x86_32.obj
 0001:00000b40       ?use_cisc_RegMask@orl_eRegNode@@EAEXXZ 08001b40 f   ad_x86_32.obj
 0001:00000b40       ?use_cisc_RegMask@subL_eRegNode@@EAEXXZ 08001b40 f   ad_x86_32.obj
 0001:00000b40       ?use_cisc_RegMask@andL_eRegNode@@EAEXXZ 08001b40 f   ad_x86_32.obj
 0001:00000b40       ?use_cisc_RegMask@addL_eRegNode@@EAEXXZ 08001b40 f   ad_x86_32.obj
 0001:00000b40       ?use_cisc_RegMask@xorl_eRegNode@@EAEXXZ 08001b40 f   ad_x86_32.obj
 0001:00000b50       ?use_cisc_RegMask@cmpXD_ccNode@@EAEXXZ 08001b50 f   ad_x86_32.obj
 0001:00000b50       ?use_cisc_RegMask@cmpXD_ccCFNode@@EAEXXZ 08001b50 f   ad_x86_32.obj
 0001:00000b50       ?use_cisc_RegMask@cmpXD_regNode@@EAEXXZ 08001b50 f   ad_x86_32.obj
 0001:00000b50       ?use_cisc_RegMask@subXD_regNode@@EAEXXZ 08001b50 f   ad_x86_32.obj
 0001:00000b50       ?use_cisc_RegMask@divXD_regNode@@EAEXXZ 08001b50 f   ad_x86_32.obj
 0001:00000b50       ?use_cisc_RegMask@mulXD_regNode@@EAEXXZ 08001b50 f   ad_x86_32.obj
 0001:00000b50       ?use_cisc_RegMask@addXD_regNode@@EAEXXZ 08001b50 f   ad_x86_32.obj
 0001:00000b60       ?use_cisc_RegMask@addD_regNode@@EAEXXZ 08001b60 f   ad_x86_32.obj
 0001:00000b60       ?use_cisc_RegMask@subD_regNode@@EAEXXZ 08001b60 f   ad_x86_32.obj
 0001:00000b70       ?use_cisc_RegMask@cmpX_ccNode@@EAEXXZ 08001b70 f   ad_x86_32.obj
 0001:00000b70       ?use_cisc_RegMask@cmpX_regNode@@EAEXXZ 08001b70 f   ad_x86_32.obj
 0001:00000b70       ?use_cisc_RegMask@divX_regNode@@EAEXXZ 08001b70 f   ad_x86_32.obj
 0001:00000b70       ?use_cisc_RegMask@mulX_regNode@@EAEXXZ 08001b70 f   ad_x86_32.obj
 0001:00000b70       ?use_cisc_RegMask@subX_regNode@@EAEXXZ 08001b70 f   ad_x86_32.obj
 0001:00000b70       ?use_cisc_RegMask@cmpX_ccCFNode@@EAEXXZ 08001b70 f   ad_x86_32.obj
 0001:00000b70       ?use_cisc_RegMask@addX_regNode@@EAEXXZ 08001b70 f   ad_x86_32.obj
 0001:00000b80       ?use_cisc_RegMask@addF24_reg_memNode@@EAEXXZ 08001b80 f   ad_x86_32.obj
 0001:00000b80       ?use_cisc_RegMask@mulF_regNode@@EAEXXZ 08001b80 f   ad_x86_32.obj
 0001:00000b80       ?use_cisc_RegMask@addF24_regNode@@EAEXXZ 08001b80 f   ad_x86_32.obj
 0001:00000b80       ?use_cisc_RegMask@addF_regNode@@EAEXXZ 08001b80 f   ad_x86_32.obj
 0001:00000b80       ?use_cisc_RegMask@addF24_mem_regNode@@EAEXXZ 08001b80 f   ad_x86_32.obj
 0001:00000b80       ?use_cisc_RegMask@addF24_reg_mem_0Node@@EAEXXZ 08001b80 f   ad_x86_32.obj
 0001:00000b80       ?use_cisc_RegMask@mulF24_regNode@@EAEXXZ 08001b80 f   ad_x86_32.obj
 0001:00000b90       ?use_cisc_RegMask@sqrtX_regNode@@EAEXXZ 08001b90 f   ad_x86_32.obj
 0001:00000ba0       ?use_cisc_RegMask@sqrtXD_regNode@@EAEXXZ 08001ba0 f   ad_x86_32.obj
 0001:00000bb0       ?use_cisc_RegMask@addF_mulF_reg_0Node@@EAEXXZ 08001bb0 f   ad_x86_32.obj
 0001:00000bb0       ?use_cisc_RegMask@addF_mulF_regNode@@EAEXXZ 08001bb0 f   ad_x86_32.obj
 0001:00000bc0       ?use_cisc_RegMask@cmovLL_reg_LEGTNode@@EAEXXZ 08001bc0 f   ad_x86_32.obj
 0001:00000bc0       ?use_cisc_RegMask@cmovLL_reg_EQNENode@@EAEXXZ 08001bc0 f   ad_x86_32.obj
 0001:00000bc0       ?use_cisc_RegMask@cmovLL_reg_LTGENode@@EAEXXZ 08001bc0 f   ad_x86_32.obj
 0001:00000bd0       ?label_set@jmpDirNode@@EAEXAAVLabel@@I@Z 08001bd0 f   ad_x86_32.obj
 0001:00000bd0       ?label_set@jmpDir_shortNode@@EAEXAAVLabel@@I@Z 08001bd0 f   ad_x86_32.obj
 0001:00000bf0       ?label_set@jmpLoopEndUCF_shortNode@@EAEXAAVLabel@@I@Z 08001bf0 f   ad_x86_32.obj
 0001:00000bf0       ?label_set@jmpLoopEndUCFNode@@EAEXAAVLabel@@I@Z 08001bf0 f   ad_x86_32.obj
 0001:00000bf0       ?label_set@cmpL_LEGTNode@@EAEXAAVLabel@@I@Z 08001bf0 f   ad_x86_32.obj
 0001:00000bf0       ?label_set@cmpL_EQNENode@@EAEXAAVLabel@@I@Z 08001bf0 f   ad_x86_32.obj
 0001:00000bf0       ?label_set@jmpConUCF2_shortNode@@EAEXAAVLabel@@I@Z 08001bf0 f   ad_x86_32.obj
 0001:00000bf0       ?label_set@jmpConNode@@EAEXAAVLabel@@I@Z 08001bf0 f   ad_x86_32.obj
 0001:00000bf0       ?label_set@jmpConUCFNode@@EAEXAAVLabel@@I@Z 08001bf0 f   ad_x86_32.obj
 0001:00000bf0       ?label_set@jmpConUCF2Node@@EAEXAAVLabel@@I@Z 08001bf0 f   ad_x86_32.obj
 0001:00000bf0       ?label_set@jmpCon_shortNode@@EAEXAAVLabel@@I@Z 08001bf0 f   ad_x86_32.obj
 0001:00000bf0       ?label_set@jmpLoopEndUNode@@EAEXAAVLabel@@I@Z 08001bf0 f   ad_x86_32.obj
 0001:00000bf0       ?label_set@jmpConUCF_shortNode@@EAEXAAVLabel@@I@Z 08001bf0 f   ad_x86_32.obj
 0001:00000bf0       ?label_set@cmpL_LTGENode@@EAEXAAVLabel@@I@Z 08001bf0 f   ad_x86_32.obj
 0001:00000bf0       ?label_set@jmpLoopEnd_shortNode@@EAEXAAVLabel@@I@Z 08001bf0 f   ad_x86_32.obj
 0001:00000bf0       ?label_set@jmpConU_shortNode@@EAEXAAVLabel@@I@Z 08001bf0 f   ad_x86_32.obj
 0001:00000bf0       ?label_set@jmpLoopEndNode@@EAEXAAVLabel@@I@Z 08001bf0 f   ad_x86_32.obj
 0001:00000bf0       ?label_set@jmpConUNode@@EAEXAAVLabel@@I@Z 08001bf0 f   ad_x86_32.obj
 0001:00000bf0       ?label_set@jmpLoopEndU_shortNode@@EAEXAAVLabel@@I@Z 08001bf0 f   ad_x86_32.obj
 0001:00000c10       ?method_set@CallStaticJavaDirectNode@@EAEXH@Z 08001c10 f   ad_x86_32.obj
 0001:00000c10       ?method_set@CallDynamicJavaDirectNode@@EAEXH@Z 08001c10 f   ad_x86_32.obj
 0001:00000c10       ?method_set@CallStaticJavaHandleNode@@EAEXH@Z 08001c10 f   ad_x86_32.obj
 0001:00000c20       ?method_set@CallLeafDirectNode@@EAEXH@Z 08001c20 f   ad_x86_32.obj
 0001:00000c20       ?method_set@CallRuntimeDirectNode@@EAEXH@Z 08001c20 f   ad_x86_32.obj
 0001:00000c20       ?method_set@CallLeafNoFPDirectNode@@EAEXH@Z 08001c20 f   ad_x86_32.obj
 0001:00000c30       ?emit@membar_acquire_lockNode@@EBEXAAVCodeBuffer@@PAVPhaseRegAlloc@@@Z 08001c30 f   ad_x86_32.obj
 0001:00000c30       ?emit@checkCastPPNode@@EBEXAAVCodeBuffer@@PAVPhaseRegAlloc@@@Z 08001c30 f   ad_x86_32.obj
 0001:00000c30       ?emit@castIINode@@EBEXAAVCodeBuffer@@PAVPhaseRegAlloc@@@Z 08001c30 f   ad_x86_32.obj
 0001:00000c30       ?emit@castX2PNode@@EBEXAAVCodeBuffer@@PAVPhaseRegAlloc@@@Z 08001c30 f   ad_x86_32.obj
 0001:00000c30       ?emit@prefetchr0Node@@EBEXAAVCodeBuffer@@PAVPhaseRegAlloc@@@Z 08001c30 f   ad_x86_32.obj
 0001:00000c30       ?emit@castPPNode@@EBEXAAVCodeBuffer@@PAVPhaseRegAlloc@@@Z 08001c30 f   ad_x86_32.obj
 0001:00000c30       ?emit@membar_releaseNode@@EBEXAAVCodeBuffer@@PAVPhaseRegAlloc@@@Z 08001c30 f   ad_x86_32.obj
 0001:00000c30       ?emit@membar_acquireNode@@EBEXAAVCodeBuffer@@PAVPhaseRegAlloc@@@Z 08001c30 f   ad_x86_32.obj
 0001:00000c30       ?emit@membar_release_lockNode@@EBEXAAVCodeBuffer@@PAVPhaseRegAlloc@@@Z 08001c30 f   ad_x86_32.obj
 0001:00000c30       ?emit@unnecessary_membar_volatileNode@@EBEXAAVCodeBuffer@@PAVPhaseRegAlloc@@@Z 08001c30 f   ad_x86_32.obj
 0001:00000c30       ?emit@prefetchw0Node@@EBEXAAVCodeBuffer@@PAVPhaseRegAlloc@@@Z 08001c30 f   ad_x86_32.obj
 0001:00000c30       ?emit@CreateExceptionNode@@EBEXAAVCodeBuffer@@PAVPhaseRegAlloc@@@Z 08001c30 f   ad_x86_32.obj
 0001:00000c40       ?emit@membar_volatileNode@@EBEXAAVCodeBuffer@@PAVPhaseRegAlloc@@@Z 08001c40 f   ad_x86_32.obj
 0001:00000cc0       ?emit@storeLConditionalNode@@EBEXAAVCodeBuffer@@PAVPhaseRegAlloc@@@Z 08001cc0 f   ad_x86_32.obj
 0001:00000d80       ?size@shrI_eReg_immNode@@EBEIPAVPhaseRegAlloc@@@Z 08001d80 f   ad_x86_32.obj
 0001:00000d80       ?size@salI_eReg_immNode@@EBEIPAVPhaseRegAlloc@@@Z 08001d80 f   ad_x86_32.obj
 0001:00000d80       ?size@i2sNode@@EBEIPAVPhaseRegAlloc@@@Z 08001d80 f   ad_x86_32.obj
 0001:00000d80       ?size@mulI_eRegNode@@EBEIPAVPhaseRegAlloc@@@Z 08001d80 f   ad_x86_32.obj
 0001:00000d80       ?size@i2bNode@@EBEIPAVPhaseRegAlloc@@@Z 08001d80 f   ad_x86_32.obj
 0001:00000d80       ?size@sarI_eReg_immNode@@EBEIPAVPhaseRegAlloc@@@Z 08001d80 f   ad_x86_32.obj
 0001:00000d90       ?size@divI_eRegNode@@EBEIPAVPhaseRegAlloc@@@Z 08001d90 f   ad_x86_32.obj
 0001:00000d90       ?size@modI_eRegNode@@EBEIPAVPhaseRegAlloc@@@Z 08001d90 f   ad_x86_32.obj
 0001:00000d90       ?size@divModI_eReg_divmodNode@@EBEIPAVPhaseRegAlloc@@@Z 08001d90 f   ad_x86_32.obj
 0001:00000da0       ?size@negI_eRegNode@@EBEIPAVPhaseRegAlloc@@@Z 08001da0 f   ad_x86_32.obj
 0001:00000da0       ?size@sarI_eReg_CLNode@@EBEIPAVPhaseRegAlloc@@@Z 08001da0 f   ad_x86_32.obj
 0001:00000da0       ?size@addP_eRegNode@@EBEIPAVPhaseRegAlloc@@@Z 08001da0 f   ad_x86_32.obj
 0001:00000da0       ?size@subP_eRegNode@@EBEIPAVPhaseRegAlloc@@@Z 08001da0 f   ad_x86_32.obj
 0001:00000da0       ?size@jmpConU_shortNode@@EBEIPAVPhaseRegAlloc@@@Z 08001da0 f   ad_x86_32.obj
 0001:00000da0       ?size@jmpConUCF_shortNode@@EBEIPAVPhaseRegAlloc@@@Z 08001da0 f   ad_x86_32.obj
 0001:00000da0       ?size@shrI_eReg_CLNode@@EBEIPAVPhaseRegAlloc@@@Z 08001da0 f   ad_x86_32.obj
 0001:00000da0       ?size@addI_eRegNode@@EBEIPAVPhaseRegAlloc@@@Z 08001da0 f   ad_x86_32.obj
 0001:00000da0       ?size@subI_eRegNode@@EBEIPAVPhaseRegAlloc@@@Z 08001da0 f   ad_x86_32.obj
 0001:00000da0       ?size@jmpDir_shortNode@@EBEIPAVPhaseRegAlloc@@@Z 08001da0 f   ad_x86_32.obj
 0001:00000da0       ?size@jmpLoopEndU_shortNode@@EBEIPAVPhaseRegAlloc@@@Z 08001da0 f   ad_x86_32.obj
 0001:00000da0       ?size@jmpLoopEndUCF_shortNode@@EBEIPAVPhaseRegAlloc@@@Z 08001da0 f   ad_x86_32.obj
 0001:00000da0       ?size@shlI_eReg_1Node@@EBEIPAVPhaseRegAlloc@@@Z 08001da0 f   ad_x86_32.obj
 0001:00000da0       ?size@jmpLoopEnd_shortNode@@EBEIPAVPhaseRegAlloc@@@Z 08001da0 f   ad_x86_32.obj
 0001:00000da0       ?size@salI_eReg_CLNode@@EBEIPAVPhaseRegAlloc@@@Z 08001da0 f   ad_x86_32.obj
 0001:00000da0       ?size@sarI_eReg_1Node@@EBEIPAVPhaseRegAlloc@@@Z 08001da0 f   ad_x86_32.obj
 0001:00000da0       ?size@orI_eReg_castP2XNode@@EBEIPAVPhaseRegAlloc@@@Z 08001da0 f   ad_x86_32.obj
 0001:00000da0       ?size@orI_eRegNode@@EBEIPAVPhaseRegAlloc@@@Z 08001da0 f   ad_x86_32.obj
 0001:00000da0       ?size@orI_eReg_castP2X_0Node@@EBEIPAVPhaseRegAlloc@@@Z 08001da0 f   ad_x86_32.obj
 0001:00000da0       ?size@andI_eRegNode@@EBEIPAVPhaseRegAlloc@@@Z 08001da0 f   ad_x86_32.obj
 0001:00000da0       ?size@shrI_eReg_1Node@@EBEIPAVPhaseRegAlloc@@@Z 08001da0 f   ad_x86_32.obj
 0001:00000da0       ?size@xorI_eRegNode@@EBEIPAVPhaseRegAlloc@@@Z 08001da0 f   ad_x86_32.obj
 0001:00000da0       ?size@xorI_eReg_im1Node@@EBEIPAVPhaseRegAlloc@@@Z 08001da0 f   ad_x86_32.obj
 0001:00000da0       ?size@jmpCon_shortNode@@EBEIPAVPhaseRegAlloc@@@Z 08001da0 f   ad_x86_32.obj
 0001:00000db0       ?size@shrL_eReg_CLNode@@EBEIPAVPhaseRegAlloc@@@Z 08001db0 f   ad_x86_32.obj
 0001:00000db0       ?size@salL_eReg_CLNode@@EBEIPAVPhaseRegAlloc@@@Z 08001db0 f   ad_x86_32.obj
 0001:00000dc0       ?size@sarL_eReg_CLNode@@EBEIPAVPhaseRegAlloc@@@Z 08001dc0 f   ad_x86_32.obj
 0001:00000dd0       ?emit@Repl8B_regNode@@EBEXAAVCodeBuffer@@PAVPhaseRegAlloc@@@Z 08001dd0 f   ad_x86_32.obj
 0001:00000ea0       ?emit@Repl8B_eRegINode@@EBEXAAVCodeBuffer@@PAVPhaseRegAlloc@@@Z 08001ea0 f   ad_x86_32.obj
 0001:00000fa0       ?emit@Repl4S_eRegINode@@EBEXAAVCodeBuffer@@PAVPhaseRegAlloc@@@Z 08001fa0 f   ad_x86_32.obj
 0001:00000fa0       ?emit@Repl4C_eRegINode@@EBEXAAVCodeBuffer@@PAVPhaseRegAlloc@@@Z 08001fa0 f   ad_x86_32.obj
 0001:00001040       ?emit@Repl4S_immI0Node@@EBEXAAVCodeBuffer@@PAVPhaseRegAlloc@@@Z 08002040 f   ad_x86_32.obj
 0001:00001040       ?emit@Repl2I_immI0Node@@EBEXAAVCodeBuffer@@PAVPhaseRegAlloc@@@Z 08002040 f   ad_x86_32.obj
 0001:00001040       ?emit@Repl8B_immI0Node@@EBEXAAVCodeBuffer@@PAVPhaseRegAlloc@@@Z 08002040 f   ad_x86_32.obj
 0001:00001040       ?emit@Repl2F_immXF0Node@@EBEXAAVCodeBuffer@@PAVPhaseRegAlloc@@@Z 08002040 f   ad_x86_32.obj
 0001:00001040       ?emit@Repl4C_immI0Node@@EBEXAAVCodeBuffer@@PAVPhaseRegAlloc@@@Z 08002040 f   ad_x86_32.obj
 0001:000010a0       ?emit@Repl4S_regNode@@EBEXAAVCodeBuffer@@PAVPhaseRegAlloc@@@Z 080020a0 f   ad_x86_32.obj
 0001:000010a0       ?emit@Repl4C_regNode@@EBEXAAVCodeBuffer@@PAVPhaseRegAlloc@@@Z 080020a0 f   ad_x86_32.obj
 0001:00001100       ?emit@Repl2I_regNode@@EBEXAAVCodeBuffer@@PAVPhaseRegAlloc@@@Z 08002100 f   ad_x86_32.obj
 0001:00001160       ?emit@Repl2I_eRegINode@@EBEXAAVCodeBuffer@@PAVPhaseRegAlloc@@@Z 08002160 f   ad_x86_32.obj
 0001:00001200       ?emit@Repl2F_regXNode@@EBEXAAVCodeBuffer@@PAVPhaseRegAlloc@@@Z 08002200 f   ad_x86_32.obj
 0001:00001200       ?emit@Repl2F_regNode@@EBEXAAVCodeBuffer@@PAVPhaseRegAlloc@@@Z 08002200 f   ad_x86_32.obj
 0001:00001260       ?size@jmpDirNode@@EBEIPAVPhaseRegAlloc@@@Z 08002260 f   ad_x86_32.obj
 0001:00001270       ?size@mulL_eReg_conNode@@EBEIPAVPhaseRegAlloc@@@Z 08002270 f   ad_x86_32.obj
 0001:00001270       ?size@jmpConUCF2Node@@EBEIPAVPhaseRegAlloc@@@Z 08002270 f   ad_x86_32.obj
 0001:00001270       ?size@MachUEPNode@@UBEIPAVPhaseRegAlloc@@@Z 08002270 f   ad_x86_32.obj
 0001:00001280       ?emit@partialSubtypeCheckNode@@EBEXAAVCodeBuffer@@PAVPhaseRegAlloc@@@Z 08002280 f   ad_x86_32.obj
 0001:00001300       ?emit@partialSubtypeCheck_vs_ZeroNode@@EBEXAAVCodeBuffer@@PAVPhaseRegAlloc@@@Z 08002300 f   ad_x86_32.obj
 0001:00001370       ?emit@cmpFastUnlockNode@@EBEXAAVCodeBuffer@@PAVPhaseRegAlloc@@@Z 08002370 f   ad_x86_32.obj
 0001:00001b70       ?size@jmpConUCFNode@@EBEIPAVPhaseRegAlloc@@@Z 08002b70 f   ad_x86_32.obj
 0001:00001b70       ?size@safePoint_pollNode@@EBEIPAVPhaseRegAlloc@@@Z 08002b70 f   ad_x86_32.obj
 0001:00001b70       ?size@jmpLoopEndUNode@@EBEIPAVPhaseRegAlloc@@@Z 08002b70 f   ad_x86_32.obj
 0001:00001b70       ?size@jmpConUNode@@EBEIPAVPhaseRegAlloc@@@Z 08002b70 f   ad_x86_32.obj
 0001:00001b70       ?size@jmpConNode@@EBEIPAVPhaseRegAlloc@@@Z 08002b70 f   ad_x86_32.obj
 0001:00001b70       ?size@jmpLoopEndNode@@EBEIPAVPhaseRegAlloc@@@Z 08002b70 f   ad_x86_32.obj
 0001:00001b70       ?size@jmpLoopEndUCFNode@@EBEIPAVPhaseRegAlloc@@@Z 08002b70 f   ad_x86_32.obj
 0001:00001b80       ?memory_operand@sarI_mem_immNode@@UBEPBVMachOper@@XZ 08002b80 f   ad_x86_32.obj
 0001:00001b80       ?memory_operand@orI_eReg_mem_0Node@@UBEPBVMachOper@@XZ 08002b80 f   ad_x86_32.obj
 0001:00001b80       ?memory_operand@mulI_0Node@@UBEPBVMachOper@@XZ 08002b80 f   ad_x86_32.obj
 0001:00001b80       ?memory_operand@prefetchrT0Node@@UBEPBVMachOper@@XZ 08002b80 f   ad_x86_32.obj
 0001:00001b80       ?memory_operand@loadXNode@@UBEPBVMachOper@@XZ 08002b80 f   ad_x86_32.obj
 0001:00001b80       ?memory_operand@sqrtXD_memNode@@UBEPBVMachOper@@XZ 08002b80 f   ad_x86_32.obj
 0001:00001b80       ?memory_operand@loadUS2LNode@@UBEPBVMachOper@@XZ 08002b80 f   ad_x86_32.obj
 0001:00001b80       ?memory_operand@addI_mem_eRegNode@@UBEPBVMachOper@@XZ 08002b80 f   ad_x86_32.obj
 0001:00001b80       ?memory_operand@loadA2FNode@@UBEPBVMachOper@@XZ 08002b80 f   ad_x86_32.obj
 0001:00001b80       ?memory_operand@loadA8BNode@@UBEPBVMachOper@@XZ 08002b80 f   ad_x86_32.obj
 0001:00001b80       ?memory_operand@mulXD_mem_0Node@@UBEPBVMachOper@@XZ 08002b80 f   ad_x86_32.obj
 0001:00001b80       ?memory_operand@loadS2LNode@@UBEPBVMachOper@@XZ 08002b80 f   ad_x86_32.obj
 0001:00001b80       ?memory_operand@loadXDNode@@UBEPBVMachOper@@XZ 08002b80 f   ad_x86_32.obj
 0001:00001b80       ?memory_operand@addD_reg_mem_0Node@@UBEPBVMachOper@@XZ 08002b80 f   ad_x86_32.obj
 0001:00001b80       ?memory_operand@loadUS2L_immI_255Node@@UBEPBVMachOper@@XZ 08002b80 f   ad_x86_32.obj
 0001:00001b80       ?memory_operand@mulF_reg_load1Node@@UBEPBVMachOper@@XZ 08002b80 f   ad_x86_32.obj
 0001:00001b80       ?memory_operand@storeLX_volatileNode@@UBEPBVMachOper@@XZ 08002b80 f   ad_x86_32.obj
 0001:00001b80       ?memory_operand@loadRangeNode@@UBEPBVMachOper@@XZ 08002b80 f   ad_x86_32.obj
 0001:00001b80       ?memory_operand@addI_eReg_mem_0Node@@UBEPBVMachOper@@XZ 08002b80 f   ad_x86_32.obj
 0001:00001b80       ?memory_operand@storeINode@@UBEPBVMachOper@@XZ 08002b80 f   ad_x86_32.obj
 0001:00001b80       ?memory_operand@mulF24_reg_mem_0Node@@UBEPBVMachOper@@XZ 08002b80 f   ad_x86_32.obj
 0001:00001b80       ?memory_operand@loadUBNode@@UBEPBVMachOper@@XZ 08002b80 f   ad_x86_32.obj
 0001:00001b80       ?memory_operand@xorI_mem_eReg_0Node@@UBEPBVMachOper@@XZ 08002b80 f   ad_x86_32.obj
 0001:00001b80       ?memory_operand@storeFNode@@UBEPBVMachOper@@XZ 08002b80 f   ad_x86_32.obj
 0001:00001b80       ?memory_operand@mulD_reg_mem_cisc_0Node@@UBEPBVMachOper@@XZ 08002b80 f   ad_x86_32.obj
 0001:00001b80       ?memory_operand@addF_mulF_reg_load1Node@@UBEPBVMachOper@@XZ 08002b80 f   ad_x86_32.obj
 0001:00001b80       ?memory_operand@prefetchwT2Node@@UBEPBVMachOper@@XZ 08002b80 f   ad_x86_32.obj
 0001:00001b80       ?memory_operand@storeImmPNode@@UBEPBVMachOper@@XZ 08002b80 f   ad_x86_32.obj
 0001:00001b80       ?memory_operand@xorI_mem_immNode@@UBEPBVMachOper@@XZ 08002b80 f   ad_x86_32.obj
 0001:00001b80       ?memory_operand@storeLConditionalNode@@UBEPBVMachOper@@XZ 08002b80 f   ad_x86_32.obj
 0001:00001b80       ?memory_operand@prefetchwNode@@UBEPBVMachOper@@XZ 08002b80 f   ad_x86_32.obj
 0001:00001b80       ?memory_operand@storeF_DroundedNode@@UBEPBVMachOper@@XZ 08002b80 f   ad_x86_32.obj
 0001:00001b80       ?memory_operand@storeA4CNode@@UBEPBVMachOper@@XZ 08002b80 f   ad_x86_32.obj
 0001:00001b80       ?memory_operand@storeImmCMNode@@UBEPBVMachOper@@XZ 08002b80 f   ad_x86_32.obj
 0001:00001b80       ?memory_operand@sarI_mem_1Node@@UBEPBVMachOper@@XZ 08002b80 f   ad_x86_32.obj
 0001:00001b80       ?memory_operand@storeIConditionalNode@@UBEPBVMachOper@@XZ 08002b80 f   ad_x86_32.obj
 0001:00001b80       ?memory_operand@storeX_immNode@@UBEPBVMachOper@@XZ 08002b80 f   ad_x86_32.obj
 0001:00001b80       ?memory_operand@loadA4CNode@@UBEPBVMachOper@@XZ 08002b80 f   ad_x86_32.obj
 0001:00001b80       ?memory_operand@orI_mem_immNode@@UBEPBVMachOper@@XZ 08002b80 f   ad_x86_32.obj
 0001:00001b80       ?memory_operand@mulX_mem_0Node@@UBEPBVMachOper@@XZ 08002b80 f   ad_x86_32.obj
 0001:00001b80       ?memory_operand@storeLNode@@UBEPBVMachOper@@XZ 08002b80 f   ad_x86_32.obj
 0001:00001b80       ?memory_operand@load2IUNode@@UBEPBVMachOper@@XZ 08002b80 f   ad_x86_32.obj
 0001:00001b80       ?memory_operand@xorI_mem_eRegNode@@UBEPBVMachOper@@XZ 08002b80 f   ad_x86_32.obj
 0001:00001b80       ?memory_operand@storeL_volatileNode@@UBEPBVMachOper@@XZ 08002b80 f   ad_x86_32.obj
 0001:00001b80       ?memory_operand@addF24_mem_regNode@@UBEPBVMachOper@@XZ 08002b80 f   ad_x86_32.obj
 0001:00001b80       ?memory_operand@andL_eReg_mem_0Node@@UBEPBVMachOper@@XZ 08002b80 f   ad_x86_32.obj
 0001:00001b80       ?memory_operand@convI2XD_memNode@@UBEPBVMachOper@@XZ 08002b80 f   ad_x86_32.obj
 0001:00001b80       ?memory_operand@addXD_mem_0Node@@UBEPBVMachOper@@XZ 08002b80 f   ad_x86_32.obj
 0001:00001b80       ?memory_operand@convI2D_memNode@@UBEPBVMachOper@@XZ 08002b80 f   ad_x86_32.obj
 0001:00001b80       ?memory_operand@storeDNode@@UBEPBVMachOper@@XZ 08002b80 f   ad_x86_32.obj
 0001:00001b80       ?memory_operand@loadUB2L_immI8Node@@UBEPBVMachOper@@XZ 08002b80 f   ad_x86_32.obj
 0001:00001b80       ?memory_operand@popCountL_memNode@@UBEPBVMachOper@@XZ 08002b80 f   ad_x86_32.obj
 0001:00001b80       ?memory_operand@prefetchr0Node@@UBEPBVMachOper@@XZ 08002b80 f   ad_x86_32.obj
 0001:00001b80       ?memory_operand@loadPLockedNode@@UBEPBVMachOper@@XZ 08002b80 f   ad_x86_32.obj
 0001:00001b80       ?memory_operand@loadUS2BNode@@UBEPBVMachOper@@XZ 08002b80 f   ad_x86_32.obj
 0001:00001b80       ?memory_operand@addX_mem_0Node@@UBEPBVMachOper@@XZ 08002b80 f   ad_x86_32.obj
 0001:00001b80       ?memory_operand@addF24_reg_mem_0Node@@UBEPBVMachOper@@XZ 08002b80 f   ad_x86_32.obj
 0001:00001b80       ?memory_operand@prefetchrNode@@UBEPBVMachOper@@XZ 08002b80 f   ad_x86_32.obj
 0001:00001b80       ?memory_operand@loadI2BNode@@UBEPBVMachOper@@XZ 08002b80 f   ad_x86_32.obj
 0001:00001b80       ?memory_operand@andI_eReg_mem_0Node@@UBEPBVMachOper@@XZ 08002b80 f   ad_x86_32.obj
 0001:00001b80       ?memory_operand@loadDNode@@UBEPBVMachOper@@XZ 08002b80 f   ad_x86_32.obj
 0001:00001b80       ?memory_operand@loadI2USNode@@UBEPBVMachOper@@XZ 08002b80 f   ad_x86_32.obj
 0001:00001b80       ?memory_operand@andI_mem_immNode@@UBEPBVMachOper@@XZ 08002b80 f   ad_x86_32.obj
 0001:00001b80       ?memory_operand@loadPNode@@UBEPBVMachOper@@XZ 08002b80 f   ad_x86_32.obj
 0001:00001b80       ?memory_operand@addL_eReg_mem_0Node@@UBEPBVMachOper@@XZ 08002b80 f   ad_x86_32.obj
 0001:00001b80       ?memory_operand@orI_mem_eReg_0Node@@UBEPBVMachOper@@XZ 08002b80 f   ad_x86_32.obj
 0001:00001b80       ?memory_operand@storeImmBNode@@UBEPBVMachOper@@XZ 08002b80 f   ad_x86_32.obj
 0001:00001b80       ?memory_operand@loadI2SNode@@UBEPBVMachOper@@XZ 08002b80 f   ad_x86_32.obj
 0001:00001b80       ?memory_operand@loadLX_reg_LockedNode@@UBEPBVMachOper@@XZ 08002b80 f   ad_x86_32.obj
 0001:00001b80       ?memory_operand@storeXDNode@@UBEPBVMachOper@@XZ 08002b80 f   ad_x86_32.obj
 0001:00001b80       ?memory_operand@loadA4SNode@@UBEPBVMachOper@@XZ 08002b80 f   ad_x86_32.obj
 0001:00001b80       ?memory_operand@storeLX_reg_volatileNode@@UBEPBVMachOper@@XZ 08002b80 f   ad_x86_32.obj
 0001:00001b80       ?memory_operand@storeCNode@@UBEPBVMachOper@@XZ 08002b80 f   ad_x86_32.obj
 0001:00001b80       ?memory_operand@loadFNode@@UBEPBVMachOper@@XZ 08002b80 f   ad_x86_32.obj
 0001:00001b80       ?memory_operand@sqrtX_memNode@@UBEPBVMachOper@@XZ 08002b80 f   ad_x86_32.obj
 0001:00001b80       ?memory_operand@addD_mem_reg_0Node@@UBEPBVMachOper@@XZ 08002b80 f   ad_x86_32.obj
 0001:00001b80       ?memory_operand@convI2F_SSF_memNode@@UBEPBVMachOper@@XZ 08002b80 f   ad_x86_32.obj
 0001:00001b80       ?memory_operand@prefetchwT0Node@@UBEPBVMachOper@@XZ 08002b80 f   ad_x86_32.obj
 0001:00001b80       ?memory_operand@loadL_volatileNode@@UBEPBVMachOper@@XZ 08002b80 f   ad_x86_32.obj
 0001:00001b80       ?memory_operand@mulD_reg_mem_0Node@@UBEPBVMachOper@@XZ 08002b80 f   ad_x86_32.obj
 0001:00001b80       ?memory_operand@addI_mem_immNode@@UBEPBVMachOper@@XZ 08002b80 f   ad_x86_32.obj
 0001:00001b80       ?memory_operand@testP_Reg_memNode@@UBEPBVMachOper@@XZ 08002b80 f   ad_x86_32.obj
 0001:00001b80       ?memory_operand@loadI2L_immINode@@UBEPBVMachOper@@XZ 08002b80 f   ad_x86_32.obj
 0001:00001b80       ?memory_operand@storeA2INode@@UBEPBVMachOper@@XZ 08002b80 f   ad_x86_32.obj
 0001:00001b80       ?memory_operand@loadS2BNode@@UBEPBVMachOper@@XZ 08002b80 f   ad_x86_32.obj
 0001:00001b80       ?memory_operand@orI_mem_eRegNode@@UBEPBVMachOper@@XZ 08002b80 f   ad_x86_32.obj
 0001:00001b80       ?memory_operand@loadI2L_immI_65535Node@@UBEPBVMachOper@@XZ 08002b80 f   ad_x86_32.obj
 0001:00001b80       ?memory_operand@loadLX_reg_volatileNode@@UBEPBVMachOper@@XZ 08002b80 f   ad_x86_32.obj
 0001:00001b80       ?memory_operand@xorl_eReg_mem_0Node@@UBEPBVMachOper@@XZ 08002b80 f   ad_x86_32.obj
 0001:00001b80       ?memory_operand@loadLLockedNode@@UBEPBVMachOper@@XZ 08002b80 f   ad_x86_32.obj
 0001:00001b80       ?memory_operand@loadLNode@@UBEPBVMachOper@@XZ 08002b80 f   ad_x86_32.obj
 0001:00001b80       ?memory_operand@prefetchwNTANode@@UBEPBVMachOper@@XZ 08002b80 f   ad_x86_32.obj
 0001:00001b80       ?memory_operand@loadUI2LNode@@UBEPBVMachOper@@XZ 08002b80 f   ad_x86_32.obj
 0001:00001b80       ?memory_operand@storeF_roundedNode@@UBEPBVMachOper@@XZ 08002b80 f   ad_x86_32.obj
 0001:00001b80       ?memory_operand@storeL2INode@@UBEPBVMachOper@@XZ 08002b80 f   ad_x86_32.obj
 0001:00001b80       ?memory_operand@mulF_reg_mem_0Node@@UBEPBVMachOper@@XZ 08002b80 f   ad_x86_32.obj
 0001:00001b80       ?memory_operand@subI_mem_eRegNode@@UBEPBVMachOper@@XZ 08002b80 f   ad_x86_32.obj
 0001:00001b80       ?memory_operand@storeF_immNode@@UBEPBVMachOper@@XZ 08002b80 f   ad_x86_32.obj
 0001:00001b80       ?memory_operand@loadLX_LockedNode@@UBEPBVMachOper@@XZ 08002b80 f   ad_x86_32.obj
 0001:00001b80       ?memory_operand@andI_mem_eRegNode@@UBEPBVMachOper@@XZ 08002b80 f   ad_x86_32.obj
 0001:00001b80       ?memory_operand@storeImmINode@@UBEPBVMachOper@@XZ 08002b80 f   ad_x86_32.obj
 0001:00001b80       ?memory_operand@loadINode@@UBEPBVMachOper@@XZ 08002b80 f   ad_x86_32.obj
 0001:00001b80       ?memory_operand@andI_mem_eReg_0Node@@UBEPBVMachOper@@XZ 08002b80 f   ad_x86_32.obj
 0001:00001b80       ?memory_operand@storeXNode@@UBEPBVMachOper@@XZ 08002b80 f   ad_x86_32.obj
 0001:00001b80       ?memory_operand@prefetchw0Node@@UBEPBVMachOper@@XZ 08002b80 f   ad_x86_32.obj
 0001:00001b80       ?memory_operand@prefetchrNTANode@@UBEPBVMachOper@@XZ 08002b80 f   ad_x86_32.obj
 0001:00001b80       ?memory_operand@decI_memNode@@UBEPBVMachOper@@XZ 08002b80 f   ad_x86_32.obj
 0001:00001b80       ?memory_operand@storeBNode@@UBEPBVMachOper@@XZ 08002b80 f   ad_x86_32.obj
 0001:00001b80       ?memory_operand@loadUB2LNode@@UBEPBVMachOper@@XZ 08002b80 f   ad_x86_32.obj
 0001:00001b80       ?memory_operand@addD_mem_regNode@@UBEPBVMachOper@@XZ 08002b80 f   ad_x86_32.obj
 0001:00001b80       ?memory_operand@incI_memNode@@UBEPBVMachOper@@XZ 08002b80 f   ad_x86_32.obj
 0001:00001b80       ?memory_operand@popCountI_memNode@@UBEPBVMachOper@@XZ 08002b80 f   ad_x86_32.obj
 0001:00001b80       ?memory_operand@storeImmI16Node@@UBEPBVMachOper@@XZ 08002b80 f   ad_x86_32.obj
 0001:00001b80       ?memory_operand@loadXD_partialNode@@UBEPBVMachOper@@XZ 08002b80 f   ad_x86_32.obj
 0001:00001b80       ?memory_operand@loadLX_volatileNode@@UBEPBVMachOper@@XZ 08002b80 f   ad_x86_32.obj
 0001:00001b80       ?memory_operand@loadSNode@@UBEPBVMachOper@@XZ 08002b80 f   ad_x86_32.obj
 0001:00001b80       ?memory_operand@storeA2FNode@@UBEPBVMachOper@@XZ 08002b80 f   ad_x86_32.obj
 0001:00001b80       ?memory_operand@loadI2L_immI_255Node@@UBEPBVMachOper@@XZ 08002b80 f   ad_x86_32.obj
 0001:00001b80       ?memory_operand@loadKlassNode@@UBEPBVMachOper@@XZ 08002b80 f   ad_x86_32.obj
 0001:00001b80       ?memory_operand@prefetchrT2Node@@UBEPBVMachOper@@XZ 08002b80 f   ad_x86_32.obj
 0001:00001b80       ?memory_operand@loadUSNode@@UBEPBVMachOper@@XZ 08002b80 f   ad_x86_32.obj
 0001:00001b80       ?memory_operand@loadBNode@@UBEPBVMachOper@@XZ 08002b80 f   ad_x86_32.obj
 0001:00001b80       ?memory_operand@storePConditionalNode@@UBEPBVMachOper@@XZ 08002b80 f   ad_x86_32.obj
 0001:00001b80       ?memory_operand@mulI_mem_immNode@@UBEPBVMachOper@@XZ 08002b80 f   ad_x86_32.obj
 0001:00001b80       ?memory_operand@loadI2LNode@@UBEPBVMachOper@@XZ 08002b80 f   ad_x86_32.obj
 0001:00001b80       ?memory_operand@addF_reg_mem_0Node@@UBEPBVMachOper@@XZ 08002b80 f   ad_x86_32.obj
 0001:00001b80       ?memory_operand@convI2F_memNode@@UBEPBVMachOper@@XZ 08002b80 f   ad_x86_32.obj
 0001:00001b80       ?memory_operand@addI_mem_eReg_0Node@@UBEPBVMachOper@@XZ 08002b80 f   ad_x86_32.obj
 0001:00001b80       ?memory_operand@loadB2LNode@@UBEPBVMachOper@@XZ 08002b80 f   ad_x86_32.obj
 0001:00001b80       ?memory_operand@xorI_eReg_mem_0Node@@UBEPBVMachOper@@XZ 08002b80 f   ad_x86_32.obj
 0001:00001b80       ?memory_operand@orl_eReg_mem_0Node@@UBEPBVMachOper@@XZ 08002b80 f   ad_x86_32.obj
 0001:00001b80       ?memory_operand@storePNode@@UBEPBVMachOper@@XZ 08002b80 f   ad_x86_32.obj
 0001:00001b80       ?memory_operand@storeD_roundedNode@@UBEPBVMachOper@@XZ 08002b80 f   ad_x86_32.obj
 0001:00001b80       ?memory_operand@loadI2UBNode@@UBEPBVMachOper@@XZ 08002b80 f   ad_x86_32.obj
 0001:00001b80       ?memory_operand@storeA8BNode@@UBEPBVMachOper@@XZ 08002b80 f   ad_x86_32.obj
 0001:00001b80       ?memory_operand@loadUS2L_immI16Node@@UBEPBVMachOper@@XZ 08002b80 f   ad_x86_32.obj
 0001:00001b90       ?memory_operand@cmovLL_mem_LEGTNode@@UBEPBVMachOper@@XZ 08002b90 f   ad_x86_32.obj
 0001:00001b90       ?memory_operand@cmovLL_mem_EQNENode@@UBEPBVMachOper@@XZ 08002b90 f   ad_x86_32.obj
 0001:00001b90       ?memory_operand@cmovII_mem_LEGTNode@@UBEPBVMachOper@@XZ 08002b90 f   ad_x86_32.obj
 0001:00001b90       ?memory_operand@cmovLL_mem_LTGENode@@UBEPBVMachOper@@XZ 08002b90 f   ad_x86_32.obj
 0001:00001b90       ?memory_operand@cmovII_mem_LTGENode@@UBEPBVMachOper@@XZ 08002b90 f   ad_x86_32.obj
 0001:00001b90       ?memory_operand@cmovI_memUCFNode@@UBEPBVMachOper@@XZ 08002b90 f   ad_x86_32.obj
 0001:00001b90       ?memory_operand@cmovI_memNode@@UBEPBVMachOper@@XZ 08002b90 f   ad_x86_32.obj
 0001:00001b90       ?memory_operand@cmovI_memUNode@@UBEPBVMachOper@@XZ 08002b90 f   ad_x86_32.obj
 0001:00001b90       ?memory_operand@cmovII_mem_EQNENode@@UBEPBVMachOper@@XZ 08002b90 f   ad_x86_32.obj
 0001:00001ba0       ?memory_operand@compI_eReg_memNode@@UBEPBVMachOper@@XZ 08002ba0 f   ad_x86_32.obj
 0001:00001ba0       ?memory_operand@subL_eReg_memNode@@UBEPBVMachOper@@XZ 08002ba0 f   ad_x86_32.obj
 0001:00001ba0       ?memory_operand@compP_mem_eRegNode@@UBEPBVMachOper@@XZ 08002ba0 f   ad_x86_32.obj
 0001:00001ba0       ?memory_operand@divX_memNode@@UBEPBVMachOper@@XZ 08002ba0 f   ad_x86_32.obj
 0001:00001ba0       ?memory_operand@compU_eReg_memNode@@UBEPBVMachOper@@XZ 08002ba0 f   ad_x86_32.obj
 0001:00001ba0       ?memory_operand@cmpXD_ccmemCFNode@@UBEPBVMachOper@@XZ 08002ba0 f   ad_x86_32.obj
 0001:00001ba0       ?memory_operand@addF_mulF_reg_load1_1Node@@UBEPBVMachOper@@XZ 08002ba0 f   ad_x86_32.obj
 0001:00001ba0       ?memory_operand@addF_reg_memNode@@UBEPBVMachOper@@XZ 08002ba0 f   ad_x86_32.obj
 0001:00001ba0       ?memory_operand@cmpXD_regmemNode@@UBEPBVMachOper@@XZ 08002ba0 f   ad_x86_32.obj
 0001:00001ba0       ?memory_operand@cmpX_regmemNode@@UBEPBVMachOper@@XZ 08002ba0 f   ad_x86_32.obj
 0001:00001ba0       ?memory_operand@subX_memNode@@UBEPBVMachOper@@XZ 08002ba0 f   ad_x86_32.obj
 0001:00001ba0       ?memory_operand@xorl_eReg_memNode@@UBEPBVMachOper@@XZ 08002ba0 f   ad_x86_32.obj
 0001:00001ba0       ?memory_operand@subXD_memNode@@UBEPBVMachOper@@XZ 08002ba0 f   ad_x86_32.obj
 0001:00001ba0       ?memory_operand@mulD_reg_mem_ciscNode@@UBEPBVMachOper@@XZ 08002ba0 f   ad_x86_32.obj
 0001:00001ba0       ?memory_operand@addI_eReg_memNode@@UBEPBVMachOper@@XZ 08002ba0 f   ad_x86_32.obj
 0001:00001ba0       ?memory_operand@cmpXD_ccmemNode@@UBEPBVMachOper@@XZ 08002ba0 f   ad_x86_32.obj
 0001:00001ba0       ?memory_operand@cmpX_ccmemNode@@UBEPBVMachOper@@XZ 08002ba0 f   ad_x86_32.obj
 0001:00001ba0       ?memory_operand@mulF_reg_load1_0Node@@UBEPBVMachOper@@XZ 08002ba0 f   ad_x86_32.obj
 0001:00001ba0       ?memory_operand@subD_reg_memNode@@UBEPBVMachOper@@XZ 08002ba0 f   ad_x86_32.obj
 0001:00001ba0       ?memory_operand@andI_eReg_memNode@@UBEPBVMachOper@@XZ 08002ba0 f   ad_x86_32.obj
 0001:00001ba0       ?memory_operand@testI_reg_memNode@@UBEPBVMachOper@@XZ 08002ba0 f   ad_x86_32.obj
 0001:00001ba0       ?memory_operand@mulF24_reg_memNode@@UBEPBVMachOper@@XZ 08002ba0 f   ad_x86_32.obj
 0001:00001ba0       ?memory_operand@addD_reg_memNode@@UBEPBVMachOper@@XZ 08002ba0 f   ad_x86_32.obj
 0001:00001ba0       ?memory_operand@mulD_reg_memNode@@UBEPBVMachOper@@XZ 08002ba0 f   ad_x86_32.obj
 0001:00001ba0       ?memory_operand@addL_eReg_memNode@@UBEPBVMachOper@@XZ 08002ba0 f   ad_x86_32.obj
 0001:00001ba0       ?memory_operand@addX_memNode@@UBEPBVMachOper@@XZ 08002ba0 f   ad_x86_32.obj
 0001:00001ba0       ?memory_operand@addXD_memNode@@UBEPBVMachOper@@XZ 08002ba0 f   ad_x86_32.obj
 0001:00001ba0       ?memory_operand@orI_eReg_memNode@@UBEPBVMachOper@@XZ 08002ba0 f   ad_x86_32.obj
 0001:00001ba0       ?memory_operand@orl_eReg_memNode@@UBEPBVMachOper@@XZ 08002ba0 f   ad_x86_32.obj
 0001:00001ba0       ?memory_operand@mulINode@@UBEPBVMachOper@@XZ 08002ba0 f   ad_x86_32.obj
 0001:00001ba0       ?memory_operand@cmpX_ccmemCFNode@@UBEPBVMachOper@@XZ 08002ba0 f   ad_x86_32.obj
 0001:00001ba0       ?memory_operand@mulF_reg_memNode@@UBEPBVMachOper@@XZ 08002ba0 f   ad_x86_32.obj
 0001:00001ba0       ?memory_operand@divXD_memNode@@UBEPBVMachOper@@XZ 08002ba0 f   ad_x86_32.obj
 0001:00001ba0       ?memory_operand@andL_eReg_memNode@@UBEPBVMachOper@@XZ 08002ba0 f   ad_x86_32.obj
 0001:00001ba0       ?memory_operand@subI_eReg_memNode@@UBEPBVMachOper@@XZ 08002ba0 f   ad_x86_32.obj
 0001:00001ba0       ?memory_operand@mulX_memNode@@UBEPBVMachOper@@XZ 08002ba0 f   ad_x86_32.obj
 0001:00001ba0       ?memory_operand@mulXD_memNode@@UBEPBVMachOper@@XZ 08002ba0 f   ad_x86_32.obj
 0001:00001ba0       ?memory_operand@xorI_eReg_memNode@@UBEPBVMachOper@@XZ 08002ba0 f   ad_x86_32.obj
 0001:00001ba0       ?memory_operand@compP_eReg_memNode@@UBEPBVMachOper@@XZ 08002ba0 f   ad_x86_32.obj
 0001:00001ba0       ?memory_operand@addF_mulF_reg_load1_0Node@@UBEPBVMachOper@@XZ 08002ba0 f   ad_x86_32.obj
 0001:00001ba0       ?memory_operand@addF24_reg_memNode@@UBEPBVMachOper@@XZ 08002ba0 f   ad_x86_32.obj
 0001:00001bb0       ?memory_operand@addF_mulF_reg_load1_2Node@@UBEPBVMachOper@@XZ 08002bb0 f   ad_x86_32.obj
 0001:00001bc0       ?has_match_rule@Matcher@@SA?B_NH@Z 08002bc0 f   ad_x86_32.obj
 0001:00001bd0       ?out_preserve_stack_slots@Compile@@SAIXZ 08002bd0 f   ad_x86_32.obj
 0001:00001be0       ?calling_convention@Matcher@@SAXPAW4BasicType@@PAVVMRegPair@@I_N@Z 08002be0 f   ad_x86_32.obj
 0001:00001c00       ?c_calling_convention@Matcher@@SAXPAW4BasicType@@PAVVMRegPair@@I@Z 08002c00 f   ad_x86_32.obj
 0001:00001c10       ?find_first_elem@RegMask@@QBEHXZ 08002c10 f i ad_x86_32.obj
 0001:00001c90       ??2Node@@SAPAXIPAVCompile@@@Z 08002c90 f i ad_x86_32.obj
 0001:00001cd0       ?get_long@Node@@QBE_JXZ    08002cd0 f i ad_x86_32.obj
 0001:00001d00       ??2MachOper@@SAPAXIPAVCompile@@@Z 08002d00 f i ad_x86_32.obj
 0001:00001d40       ?Expand@MachNode@@UAEPAV1@PAVState@@AAVNode_List@@PAVNode@@@Z 08002d40 f i ad_x86_32.obj
 0001:00001d50       ?bottom_type@MachNode@@UBEPBVType@@XZ 08002d50 f i ad_x86_32.obj
 0001:00001d60       ?ideal_reg@MachNode@@UBEIXZ 08002d60 f i ad_x86_32.obj
 0001:00001d90       ?set_con@MachOper@@UAEXH@Z 08002d90 f i ad_x86_32.obj
 0001:00001db0       ?disp@indOffset32_win95_safeOper@@UBEHPAVPhaseRegAlloc@@PBVNode@@H@Z 08002db0 f i ad_x86_32.obj
 0001:00001db0       ?disp@indOffset8_win95_safeOper@@UBEHPAVPhaseRegAlloc@@PBVNode@@H@Z 08002db0 f i ad_x86_32.obj
 0001:00001db0       ?disp@indIndexOffset_win95_safeOper@@UBEHPAVPhaseRegAlloc@@PBVNode@@H@Z 08002db0 f i ad_x86_32.obj
 0001:00001db0       ?disp@indOffset32Oper@@UBEHPAVPhaseRegAlloc@@PBVNode@@H@Z 08002db0 f i ad_x86_32.obj
 0001:00001db0       ?disp@indOffset8Oper@@UBEHPAVPhaseRegAlloc@@PBVNode@@H@Z 08002db0 f i ad_x86_32_clone.obj
 0001:00001db0       ?disp@load_long_indOffset32Oper@@UBEHPAVPhaseRegAlloc@@PBVNode@@H@Z 08002db0 f i ad_x86_32_clone.obj
 0001:00001db0       ?disp@indIndexOffsetOper@@UBEHPAVPhaseRegAlloc@@PBVNode@@H@Z 08002db0 f i ad_x86_32_clone.obj
 0001:00001dc0       ?opcode@indirect_win95_safeOper@@UBEIXZ 08002dc0 f i ad_x86_32.obj
 0001:00001dc0       ?Opcode@EncodePNode@@UBEHXZ 08002dc0 f i classes.obj
 0001:00001dd0       ?base@indirect_win95_safeOper@@UBEHPAVPhaseRegAlloc@@PBVNode@@H@Z 08002dd0 f i ad_x86_32.obj
 0001:00001dd0       ?base@indIndexOffset_win95_safeOper@@UBEHPAVPhaseRegAlloc@@PBVNode@@H@Z 08002dd0 f i ad_x86_32.obj
 0001:00001dd0       ?base@indOffset32Oper@@UBEHPAVPhaseRegAlloc@@PBVNode@@H@Z 08002dd0 f i ad_x86_32.obj
 0001:00001dd0       ?base@indOffset8Oper@@UBEHPAVPhaseRegAlloc@@PBVNode@@H@Z 08002dd0 f i ad_x86_32_clone.obj
 0001:00001dd0       ?base@indOffset8_win95_safeOper@@UBEHPAVPhaseRegAlloc@@PBVNode@@H@Z 08002dd0 f i ad_x86_32.obj
 0001:00001dd0       ?base@load_long_indirectOper@@UBEHPAVPhaseRegAlloc@@PBVNode@@H@Z 08002dd0 f i ad_x86_32_clone.obj
 0001:00001dd0       ?base@indOffset32_win95_safeOper@@UBEHPAVPhaseRegAlloc@@PBVNode@@H@Z 08002dd0 f i ad_x86_32.obj
 0001:00001dd0       ?base@indIndexScale_win95_safeOper@@UBEHPAVPhaseRegAlloc@@PBVNode@@H@Z 08002dd0 f i ad_x86_32.obj
 0001:00001dd0       ?base@indOffset32XOper@@UBEHPAVPhaseRegAlloc@@PBVNode@@H@Z 08002dd0 f i ad_x86_32_clone.obj
 0001:00001dd0       ?reg@MachOper@@UBEHPAVPhaseRegAlloc@@PBVNode@@H@Z 08002dd0 f i machnode.obj
 0001:00001dd0       ?base@load_long_indOffset32Oper@@UBEHPAVPhaseRegAlloc@@PBVNode@@H@Z 08002dd0 f i ad_x86_32_clone.obj
 0001:00001dd0       ?base@indIndexOffsetOper@@UBEHPAVPhaseRegAlloc@@PBVNode@@H@Z 08002dd0 f i ad_x86_32_clone.obj
 0001:00001dd0       ?base@indirectOper@@UBEHPAVPhaseRegAlloc@@PBVNode@@H@Z 08002dd0 f i ad_x86_32_clone.obj
 0001:00001dd0       ?base@indIndexOper@@UBEHPAVPhaseRegAlloc@@PBVNode@@H@Z 08002dd0 f i ad_x86_32_clone.obj
 0001:00001dd0       ?base@indIndexScaleOffset_win95_safeOper@@UBEHPAVPhaseRegAlloc@@PBVNode@@H@Z 08002dd0 f i ad_x86_32.obj
 0001:00001dd0       ?base@indIndexScaleOffsetOper@@UBEHPAVPhaseRegAlloc@@PBVNode@@H@Z 08002dd0 f i ad_x86_32_clone.obj
 0001:00001dd0       ?base@indIndexScaleOper@@UBEHPAVPhaseRegAlloc@@PBVNode@@H@Z 08002dd0 f i ad_x86_32_clone.obj
 0001:00001e00       ?disp@indIndexScaleOffsetOper@@UBEHPAVPhaseRegAlloc@@PBVNode@@H@Z 08002e00 f i ad_x86_32_clone.obj
 0001:00001e00       ?disp@indIndexScaleOffset_win95_safeOper@@UBEHPAVPhaseRegAlloc@@PBVNode@@H@Z 08002e00 f i ad_x86_32.obj
 0001:00001e10       ??0popCountI_memNode@@QAE@XZ 08002e10 f i ad_x86_32.obj
 0001:00001e40       ??0popCountL_memNode@@QAE@XZ 08002e40 f i ad_x86_32.obj
 0001:00001e70       ?rule@popCountL_memNode@@EBEIXZ 08002e70 f i ad_x86_32.obj
 0001:00001e80       ??0loadI2BNode@@QAE@XZ     08002e80 f i ad_x86_32.obj
 0001:00001eb0       ?rule@loadI2BNode@@EBEIXZ  08002eb0 f i ad_x86_32.obj
 0001:00001ec0       ??0loadI2SNode@@QAE@XZ     08002ec0 f i ad_x86_32.obj
 0001:00001ef0       ?rule@loadI2SNode@@EBEIXZ  08002ef0 f i ad_x86_32.obj
 0001:00001f00       ??0loadI2LNode@@QAE@XZ     08002f00 f i ad_x86_32.obj
 0001:00001f30       ?rule@loadI2LNode@@EBEIXZ  08002f30 f i ad_x86_32.obj
 0001:00001f40       ??0cmovI_memNode@@QAE@XZ   08002f40 f i ad_x86_32.obj
 0001:00001f70       ?rule@cmovI_memNode@@EBEIXZ 08002f70 f i ad_x86_32.obj
 0001:00001f80       ??0cmovI_memUNode@@QAE@XZ  08002f80 f i ad_x86_32.obj
 0001:00001fb0       ?rule@cmovI_memUNode@@EBEIXZ 08002fb0 f i ad_x86_32.obj
 0001:00001fc0       ??0cmovI_memUCFNode@@QAE@XZ 08002fc0 f i ad_x86_32.obj
 0001:00001ff0       ?rule@cmovI_memUCFNode@@EBEIXZ 08002ff0 f i ad_x86_32.obj
 0001:00002000       ??0addI_eReg_memNode@@QAE@XZ 08003000 f i ad_x86_32.obj
 0001:00002030       ?rule@addI_eReg_memNode@@EBEIXZ 08003030 f i ad_x86_32.obj
 0001:00002040       ??0subI_eReg_memNode@@QAE@XZ 08003040 f i ad_x86_32.obj
 0001:00002070       ?rule@subI_eReg_memNode@@EBEIXZ 08003070 f i ad_x86_32.obj
 0001:00002080       ??0mulI_mem_immNode@@QAE@XZ 08003080 f i ad_x86_32.obj
 0001:000020b0       ?rule@mulI_mem_immNode@@EBEIXZ 080030b0 f i ad_x86_32.obj
 0001:000020c0       ??0mulINode@@QAE@XZ        080030c0 f i ad_x86_32.obj
 0001:000020f0       ?rule@mulINode@@EBEIXZ     080030f0 f i ad_x86_32.obj
 0001:00002100       ??0andI_eReg_memNode@@QAE@XZ 08003100 f i ad_x86_32.obj
 0001:00002130       ?rule@andI_eReg_memNode@@EBEIXZ 08003130 f i ad_x86_32.obj
 0001:00002140       ??0orI_eReg_memNode@@QAE@XZ 08003140 f i ad_x86_32.obj
 0001:00002170       ?rule@orI_eReg_memNode@@EBEIXZ 08003170 f i ad_x86_32.obj
 0001:00002180       ??0xorI_eReg_memNode@@QAE@XZ 08003180 f i ad_x86_32.obj
 0001:000021b0       ?rule@xorI_eReg_memNode@@EBEIXZ 080031b0 f i ad_x86_32.obj
 0001:000021c0       ??0addL_eReg_memNode@@QAE@XZ 080031c0 f i ad_x86_32.obj
 0001:000021f0       ?rule@addL_eReg_memNode@@EBEIXZ 080031f0 f i ad_x86_32.obj
 0001:00002200       ??0subL_eReg_memNode@@QAE@XZ 08003200 f i ad_x86_32.obj
 0001:00002230       ?rule@subL_eReg_memNode@@EBEIXZ 08003230 f i ad_x86_32.obj
 0001:00002240       ??0andL_eReg_memNode@@QAE@XZ 08003240 f i ad_x86_32.obj
 0001:00002270       ?rule@andL_eReg_memNode@@EBEIXZ 08003270 f i ad_x86_32.obj
 0001:00002280       ??0orl_eReg_memNode@@QAE@XZ 08003280 f i ad_x86_32.obj
 0001:000022b0       ?rule@orl_eReg_memNode@@EBEIXZ 080032b0 f i ad_x86_32.obj
 0001:000022c0       ??0xorl_eReg_memNode@@QAE@XZ 080032c0 f i ad_x86_32.obj
 0001:000022f0       ?rule@xorl_eReg_memNode@@EBEIXZ 080032f0 f i ad_x86_32.obj
 0001:00002300       ??0cmpXD_ccmemNode@@QAE@XZ 08003300 f i ad_x86_32.obj
 0001:00002330       ??0cmpXD_ccmemCFNode@@QAE@XZ 08003330 f i ad_x86_32.obj
 0001:00002360       ??0cmpXD_regmemNode@@QAE@XZ 08003360 f i ad_x86_32.obj
 0001:00002390       ?rule@cmpXD_regmemNode@@EBEIXZ 08003390 f i ad_x86_32.obj
 0001:000023a0       ??0subD_reg_memNode@@QAE@XZ 080033a0 f i ad_x86_32.obj
 0001:000023d0       ?rule@subD_reg_memNode@@EBEIXZ 080033d0 f i ad_x86_32.obj
 0001:000023e0       ??0addD_reg_memNode@@QAE@XZ 080033e0 f i ad_x86_32.obj
 0001:00002410       ?rule@addD_reg_memNode@@EBEIXZ 08003410 f i ad_x86_32.obj
 0001:00002420       ??0addXD_memNode@@QAE@XZ   08003420 f i ad_x86_32.obj
 0001:00002450       ?rule@addXD_memNode@@EBEIXZ 08003450 f i ad_x86_32.obj
 0001:00002460       ??0subXD_memNode@@QAE@XZ   08003460 f i ad_x86_32.obj
 0001:00002490       ?rule@subXD_memNode@@EBEIXZ 08003490 f i ad_x86_32.obj
 0001:000024a0       ??0mulXD_memNode@@QAE@XZ   080034a0 f i ad_x86_32.obj
 0001:000024d0       ?rule@mulXD_memNode@@EBEIXZ 080034d0 f i ad_x86_32.obj
 0001:000024e0       ??0divXD_memNode@@QAE@XZ   080034e0 f i ad_x86_32.obj
 0001:00002510       ?rule@divXD_memNode@@EBEIXZ 08003510 f i ad_x86_32.obj
 0001:00002520       ??0cmpX_ccmemNode@@QAE@XZ  08003520 f i ad_x86_32.obj
 0001:00002550       ??0cmpX_ccmemCFNode@@QAE@XZ 08003550 f i ad_x86_32.obj
 0001:00002580       ??0cmpX_regmemNode@@QAE@XZ 08003580 f i ad_x86_32.obj
 0001:000025b0       ?rule@cmpX_regmemNode@@EBEIXZ 080035b0 f i ad_x86_32.obj
 0001:000025c0       ??0addX_memNode@@QAE@XZ    080035c0 f i ad_x86_32.obj
 0001:000025f0       ?rule@addX_memNode@@EBEIXZ 080035f0 f i ad_x86_32.obj
 0001:00002600       ??0subX_memNode@@QAE@XZ    08003600 f i ad_x86_32.obj
 0001:00002630       ?rule@subX_memNode@@EBEIXZ 08003630 f i ad_x86_32.obj
 0001:00002640       ??0mulX_memNode@@QAE@XZ    08003640 f i ad_x86_32.obj
 0001:00002670       ?rule@mulX_memNode@@EBEIXZ 08003670 f i ad_x86_32.obj
 0001:00002680       ??0divX_memNode@@QAE@XZ    08003680 f i ad_x86_32.obj
 0001:000026b0       ?rule@divX_memNode@@EBEIXZ 080036b0 f i ad_x86_32.obj
 0001:000026c0       ??0sqrtX_memNode@@QAE@XZ   080036c0 f i ad_x86_32.obj
 0001:000026f0       ?rule@sqrtX_memNode@@EBEIXZ 080036f0 f i ad_x86_32.obj
 0001:00002700       ??0sqrtXD_memNode@@QAE@XZ  08003700 f i ad_x86_32.obj
 0001:00002730       ?rule@sqrtXD_memNode@@EBEIXZ 08003730 f i ad_x86_32.obj
 0001:00002740       ?constant_value@ObjectConstant@@UBEPAVciObject@@XZ 08003740 f i c1_ValueType.obj
 0001:00002740       ?constant_value@InstanceConstant@@UBEPAVciObject@@XZ 08003740 f i c1_ValueType.obj
 0001:00002740       ?saved_mark_word@Space@@UBEPAVHeapWord@@XZ 08003740 f i compactibleFreeListSpace.obj
 0001:00002740       ?offset@oop_Relocation@@UAEHXZ 08003740 f i ad_x86_32.obj
 0001:00002740       ?name@ClassPathZipEntry@@UAEPBDXZ 08003740 f i classLoader.obj
 0001:00002740       ?hash@TypeF@@UBEHXZ        08003740 f i type.obj
 0001:00002740       ?constant_value@ClassConstant@@UBEPAVciObject@@XZ 08003740 f i c1_ValueType.obj
 0001:00002740       ?constant_value@ArrayConstant@@UBEPAVciObject@@XZ 08003740 f i c1_ValueType.obj
 0001:00002740       ?get_con@TypePtr@@UBEHXZ   08003740 f i type.obj
 0001:00002750       ?value@oop_Relocation@@UAEPAEXZ 08003750 f i ad_x86_32.obj
 0001:00002760       ??0addF24_reg_memNode@@QAE@XZ 08003760 f i ad_x86_32.obj
 0001:000027a0       ?rule@addF24_reg_memNode@@EBEIXZ 080037a0 f i ad_x86_32.obj
 0001:000027b0       ?cisc_RegMask@subL_eRegNode@@EBEPBVRegMask@@XZ 080037b0 f i ad_x86_32_gen.obj
 0001:000027b0       ?cisc_RegMask@compU_eRegNode@@EBEPBVRegMask@@XZ 080037b0 f i ad_x86_32_gen.obj
 0001:000027b0       ?cisc_RegMask@compI_eRegNode@@EBEPBVRegMask@@XZ 080037b0 f i ad_x86_32_gen.obj
 0001:000027b0       ?cisc_RegMask@subX_regNode@@EBEPBVRegMask@@XZ 080037b0 f i ad_x86_32_gen.obj
 0001:000027b0       ?cisc_RegMask@cmpXD_ccCFNode@@EBEPBVRegMask@@XZ 080037b0 f i ad_x86_32_gen.obj
 0001:000027b0       ?cisc_RegMask@addF_regNode@@EBEPBVRegMask@@XZ 080037b0 f i ad_x86_32_gen.obj
 0001:000027b0       ?cisc_RegMask@addF24_reg_memNode@@EBEPBVRegMask@@XZ 080037b0 f i ad_x86_32.obj
 0001:000027b0       ?cisc_RegMask@orl_eRegNode@@EBEPBVRegMask@@XZ 080037b0 f i ad_x86_32_gen.obj
 0001:000027b0       ?cisc_RegMask@cmpXD_ccNode@@EBEPBVRegMask@@XZ 080037b0 f i ad_x86_32_gen.obj
 0001:000027b0       ?cisc_RegMask@divX_regNode@@EBEPBVRegMask@@XZ 080037b0 f i ad_x86_32_gen.obj
 0001:000027b0       ?lock_stack@ArithmeticOp@@UBEPAVValueStack@@XZ 080037b0 f i c1_GraphBuilder.obj
 0001:000027b0       ?lock_stack@Intrinsic@@UBEPAVValueStack@@XZ 080037b0 f i c1_GraphBuilder.obj
 0001:000027b0       ?cisc_RegMask@addXD_regNode@@EBEPBVRegMask@@XZ 080037b0 f i ad_x86_32_gen.obj
 0001:000027b0       ?cisc_RegMask@orI_eRegNode@@EBEPBVRegMask@@XZ 080037b0 f i ad_x86_32_gen.obj
 0001:000027b0       ?cisc_RegMask@subXD_regNode@@EBEPBVRegMask@@XZ 080037b0 f i ad_x86_32_gen.obj
 0001:000027b0       ?cisc_RegMask@andI_eRegNode@@EBEPBVRegMask@@XZ 080037b0 f i ad_x86_32_gen.obj
 0001:000027b0       ?cisc_RegMask@cmpX_ccCFNode@@EBEPBVRegMask@@XZ 080037b0 f i ad_x86_32_gen.obj
 0001:000027b0       ?cisc_RegMask@cmpX_regNode@@EBEPBVRegMask@@XZ 080037b0 f i ad_x86_32_gen.obj
 0001:000027b0       ?top_vframe@CompiledRFrame@@UBEPAVjavaVFrame@@XZ 080037b0 f i rframe.obj
 0001:000027b0       ?cisc_RegMask@xorI_eRegNode@@EBEPBVRegMask@@XZ 080037b0 f i ad_x86_32_gen.obj
 0001:000027b0       ?cisc_RegMask@addX_regNode@@EBEPBVRegMask@@XZ 080037b0 f i ad_x86_32_gen.obj
 0001:000027b0       ?cisc_RegMask@subI_eRegNode@@EBEPBVRegMask@@XZ 080037b0 f i ad_x86_32_gen.obj
 0001:000027b0       ?cisc_RegMask@cmpXD_regNode@@EBEPBVRegMask@@XZ 080037b0 f i ad_x86_32_gen.obj
 0001:000027b0       ?java_super@instanceKlass@@UBEPAVklassOopDesc@@XZ 080037b0 f i instanceKlassKlass.obj
 0001:000027b0       ?cisc_RegMask@andL_eRegNode@@EBEPBVRegMask@@XZ 080037b0 f i ad_x86_32_gen.obj
 0001:000027b0       ?cisc_RegMask@compP_eRegNode@@EBEPBVRegMask@@XZ 080037b0 f i ad_x86_32_gen.obj
 0001:000027b0       ?cisc_RegMask@mulF_regNode@@EBEPBVRegMask@@XZ 080037b0 f i ad_x86_32_gen.obj
 0001:000027b0       ?cisc_RegMask@subD_regNode@@EBEPBVRegMask@@XZ 080037b0 f i ad_x86_32_gen.obj
 0001:000027b0       ?cisc_RegMask@addF24_regNode@@EBEPBVRegMask@@XZ 080037b0 f i ad_x86_32_gen.obj
 0001:000027b0       ?cisc_RegMask@cmpX_ccNode@@EBEPBVRegMask@@XZ 080037b0 f i ad_x86_32_gen.obj
 0001:000027b0       ?cisc_RegMask@addD_regNode@@EBEPBVRegMask@@XZ 080037b0 f i ad_x86_32_gen.obj
 0001:000027b0       ?cisc_RegMask@addI_eRegNode@@EBEPBVRegMask@@XZ 080037b0 f i ad_x86_32_gen.obj
 0001:000027b0       ?cisc_RegMask@mulI_eReg_immNode@@EBEPBVRegMask@@XZ 080037b0 f i ad_x86_32_gen.obj
 0001:000027b0       ?cisc_RegMask@mulX_regNode@@EBEPBVRegMask@@XZ 080037b0 f i ad_x86_32_gen.obj
 0001:000027b0       ?cisc_RegMask@divXD_regNode@@EBEPBVRegMask@@XZ 080037b0 f i ad_x86_32_gen.obj
 0001:000027b0       ?cisc_RegMask@mulXD_regNode@@EBEPBVRegMask@@XZ 080037b0 f i ad_x86_32_gen.obj
 0001:000027b0       ?cisc_RegMask@xorl_eRegNode@@EBEPBVRegMask@@XZ 080037b0 f i ad_x86_32_gen.obj
 0001:000027b0       ?cisc_RegMask@addF24_mem_regNode@@EBEPBVRegMask@@XZ 080037b0 f i ad_x86_32_gen.obj
 0001:000027b0       ?cisc_RegMask@mulF24_regNode@@EBEPBVRegMask@@XZ 080037b0 f i ad_x86_32_gen.obj
 0001:000027b0       ?cisc_RegMask@mulI_eRegNode@@EBEPBVRegMask@@XZ 080037b0 f i ad_x86_32_gen.obj
 0001:000027b0       ?cisc_RegMask@addL_eRegNode@@EBEPBVRegMask@@XZ 080037b0 f i ad_x86_32_gen.obj
 0001:000027b0       ?cisc_RegMask@addF24_reg_mem_0Node@@EBEPBVRegMask@@XZ 080037b0 f i ad_x86_32_gen.obj
 0001:000027c0       ?spec@opt_virtual_call_Relocation@@SA?AVRelocationHolder@@XZ 080037c0 f i ad_x86_32.obj
 0001:000027f0       ?spec@static_call_Relocation@@SA?AVRelocationHolder@@XZ 080037f0 f i ad_x86_32.obj
 0001:00002820       ?spec@runtime_call_Relocation@@SA?AVRelocationHolder@@XZ 08003820 f i ad_x86_32.obj
 0001:00002850       ??0addF_reg_memNode@@QAE@XZ 08003850 f i ad_x86_32.obj
 0001:00002880       ?rule@addF_reg_memNode@@EBEIXZ 08003880 f i ad_x86_32.obj
 0001:00002890       ?two_adr@xorI_eReg_im1Node@@EBEIXZ 08003890 f i ad_x86_32_gen.obj
 0001:00002890       ?two_adr@addI_eReg_immNode@@EBEIXZ 08003890 f i ad_x86_32_gen.obj
 0001:00002890       ?two_adr@addXD_memNode@@EBEIXZ 08003890 f i ad_x86_32.obj
 0001:00002890       ?two_adr@atanD_regNode@@EBEIXZ 08003890 f i ad_x86_32_gen.obj
 0001:00002890       ?two_adr@rorI_eReg_i1_0Node@@EBEIXZ 08003890 f i ad_x86_32_gen.obj
 0001:00002890       ?two_adr@atanXD_regNode@@EBEIXZ 08003890 f i ad_x86_32_gen.obj
 0001:00002890       ?two_adr@shrI_eReg_CLNode@@EBEIXZ 08003890 f i ad_x86_32_gen.obj
 0001:00002890       ?two_adr@addX_memNode@@EBEIXZ 08003890 f i ad_x86_32.obj
 0001:00002890       ?two_adr@bytes_reverse_longNode@@EBEIXZ 08003890 f i ad_x86_32_gen.obj
 0001:00002890       ?two_adr@addL_eReg_memNode@@EBEIXZ 08003890 f i ad_x86_32.obj
 0001:00002890       ?two_adr@rolI_eReg_i1_0Node@@EBEIXZ 08003890 f i ad_x86_32_gen.obj
 0001:00002890       ?two_adr@rorI_eReg_imm8Node@@EBEIXZ 08003890 f i ad_x86_32_expand.obj
 0001:00002890       ?two_adr@orI_eReg_memNode@@EBEIXZ 08003890 f i ad_x86_32.obj
 0001:00002890       ?two_adr@mulL_eReg_conNode@@EBEIXZ 08003890 f i ad_x86_32_gen.obj
 0001:00002890       ?two_adr@mulXD_regNode@@EBEIXZ 08003890 f i ad_x86_32_gen.obj
 0001:00002890       ?two_adr@shlL_eReg_1Node@@EBEIXZ 08003890 f i ad_x86_32_gen.obj
 0001:00002890       ?two_adr@xorI_eRegNode@@EBEIXZ 08003890 f i ad_x86_32_gen.obj
 0001:00002890       ?two_adr@divF_regNode@@EBEIXZ 08003890 f i ad_x86_32_gen.obj
 0001:00002890       ?two_adr@cadd_cmpLTMaskNode@@EBEIXZ 08003890 f i ad_x86_32_gen.obj
 0001:00002890       ?two_adr@subL_eRegNode@@EBEIXZ 08003890 f i ad_x86_32_gen.obj
 0001:00002890       ?two_adr@tanXD_regNode@@EBEIXZ 08003890 f i ad_x86_32_gen.obj
 0001:00002890       ?two_adr@sinXD_regNode@@EBEIXZ 08003890 f i ad_x86_32_gen.obj
 0001:00002890       ?two_adr@rorI_eReg_Var_C0_0Node@@EBEIXZ 08003890 f i ad_x86_32_gen.obj
 0001:00002890       ?two_adr@subX_memNode@@EBEIXZ 08003890 f i ad_x86_32.obj
 0001:00002890       ?two_adr@shrI_eReg_1Node@@EBEIXZ 08003890 f i ad_x86_32_gen.obj
 0001:00002890       ?two_adr@addD_mulD_reg_0Node@@EBEIXZ 08003890 f i ad_x86_32_gen.obj
 0001:00002890       ?two_adr@shlL_eReg_1_31Node@@EBEIXZ 08003890 f i ad_x86_32_gen.obj
 0001:00002890       ?two_adr@subL_eReg_immNode@@EBEIXZ 08003890 f i ad_x86_32_gen.obj
 0001:00002890       ?two_adr@xorl_eRegNode@@EBEIXZ 08003890 f i ad_x86_32_gen.obj
 0001:00002890       ?two_adr@rorI_eReg_CLNode@@EBEIXZ 08003890 f i ad_x86_32_expand.obj
 0001:00002890       ?two_adr@addP_eRegNode@@EBEIXZ 08003890 f i ad_x86_32_gen.obj
 0001:00002890       ?two_adr@shrL_eReg_1_31Node@@EBEIXZ 08003890 f i ad_x86_32_gen.obj
 0001:00002890       ?two_adr@absXD_regNode@@EBEIXZ 08003890 f i ad_x86_32_gen.obj
 0001:00002890       ?two_adr@salI_eReg_immNode@@EBEIXZ 08003890 f i ad_x86_32_gen.obj
 0001:00002890       ?two_adr@mulI_eRegNode@@EBEIXZ 08003890 f i ad_x86_32_gen.obj
 0001:00002890       ?two_adr@rorI_eReg_Var_C32_0Node@@EBEIXZ 08003890 f i ad_x86_32_gen.obj
 0001:00002890       ?two_adr@mulXD_immNode@@EBEIXZ 08003890 f i ad_x86_32_gen.obj
 0001:00002890       ?two_adr@expD_regNode@@EBEIXZ 08003890 f i ad_x86_32_gen.obj
 0001:00002890       ?two_adr@subD_reg_memNode@@EBEIXZ 08003890 f i ad_x86_32.obj
 0001:00002890       ?two_adr@subI_eReg_memNode@@EBEIXZ 08003890 f i ad_x86_32.obj
 0001:00002890       ?two_adr@cadd_cmpLTMask_1Node@@EBEIXZ 08003890 f i ad_x86_32_gen.obj
 0001:00002890       ?two_adr@sarL_eReg_32_63Node@@EBEIXZ 08003890 f i ad_x86_32_gen.obj
 0001:00002890       ?two_adr@shrI_eReg_immNode@@EBEIXZ 08003890 f i ad_x86_32_gen.obj
 0001:00002890       ?two_adr@divX_immNode@@EBEIXZ 08003890 f i ad_x86_32_gen.obj
 0001:00002890       ?two_adr@addD_reg_imm1Node@@EBEIXZ 08003890 f i ad_x86_32_gen.obj
 0001:00002890       ?two_adr@modF_regNode@@EBEIXZ 08003890 f i ad_x86_32_gen.obj
 0001:00002890       ?two_adr@rolI_eReg_Var_C0Node@@EBEIXZ 08003890 f i ad_x86_32_gen.obj
 0001:00002890       ?two_adr@subXD_regNode@@EBEIXZ 08003890 f i ad_x86_32_gen.obj
 0001:00002890       ?two_adr@addX_regNode@@EBEIXZ 08003890 f i ad_x86_32_gen.obj
 0001:00002890       ?two_adr@rolI_eReg_CLNode@@EBEIXZ 08003890 f i ad_x86_32_expand.obj
 0001:00002890       ?two_adr@mulINode@@EBEIXZ  08003890 f i ad_x86_32.obj
 0001:00002890       ?two_adr@rorI_eReg_Var_C0Node@@EBEIXZ 08003890 f i ad_x86_32_gen.obj
 0001:00002890       ?two_adr@subF_regNode@@EBEIXZ 08003890 f i ad_x86_32_gen.obj
 0001:00002890       ?two_adr@shlL_eReg_2Node@@EBEIXZ 08003890 f i ad_x86_32_gen.obj
 0001:00002890       ?two_adr@xorl_eReg_im1Node@@EBEIXZ 08003890 f i ad_x86_32_gen.obj
 0001:00002890       ?two_adr@divI_eRegNode@@EBEIXZ 08003890 f i ad_x86_32_gen.obj
 0001:00002890       ?two_adr@sarI_eReg_CLNode@@EBEIXZ 08003890 f i ad_x86_32_gen.obj
 0001:00002890       ?two_adr@rorI_eReg_i1Node@@EBEIXZ 08003890 f i ad_x86_32_gen.obj
 0001:00002890       ?two_adr@addX_immNode@@EBEIXZ 08003890 f i ad_x86_32_gen.obj
 0001:00002890       ?two_adr@addF_regNode@@EBEIXZ 08003890 f i ad_x86_32_gen.obj
 0001:00002890       ?two_adr@xorI_eReg_immNode@@EBEIXZ 08003890 f i ad_x86_32_gen.obj
 0001:00002890       ?two_adr@xorl_eReg_immNode@@EBEIXZ 08003890 f i ad_x86_32_gen.obj
 0001:00002890       ?two_adr@subX_immNode@@EBEIXZ 08003890 f i ad_x86_32_gen.obj
 0001:00002890       ?two_adr@bytes_reverse_intNode@@EBEIXZ 08003890 f i ad_x86_32_gen.obj
 0001:00002890       ?two_adr@andL_eReg_immNode@@EBEIXZ 08003890 f i ad_x86_32_gen.obj
 0001:00002890       ?two_adr@maxI_eRegNode@@EBEIXZ 08003890 f i ad_x86_32_gen.obj
 0001:00002890       ?two_adr@cp2bNode@@EBEIXZ  08003890 f i ad_x86_32_expand.obj
 0001:00002890       ?two_adr@rorI_eReg_i8Node@@EBEIXZ 08003890 f i ad_x86_32_gen.obj
 0001:00002890       ?two_adr@rolI_eReg_imm8Node@@EBEIXZ 08003890 f i ad_x86_32_expand.obj
 0001:00002890       ?two_adr@rolI_eReg_Var_C32_0Node@@EBEIXZ 08003890 f i ad_x86_32_gen.obj
 0001:00002890       ?two_adr@rolI_eReg_i1Node@@EBEIXZ 08003890 f i ad_x86_32_gen.obj
 0001:00002890       ?two_adr@strictfp_mulD_regNode@@EBEIXZ 08003890 f i ad_x86_32_gen.obj
 0001:00002890       ?two_adr@mulX_immNode@@EBEIXZ 08003890 f i ad_x86_32_gen.obj
 0001:00002890       ?two_adr@mulXD_memNode@@EBEIXZ 08003890 f i ad_x86_32.obj
 0001:00002890       ?two_adr@orI_eReg_castP2XNode@@EBEIXZ 08003890 f i ad_x86_32_gen.obj
 0001:00002890       ?two_adr@rorI_eReg_i8_0Node@@EBEIXZ 08003890 f i ad_x86_32_gen.obj
 0001:00002890       ?two_adr@castIINode@@EBEIXZ 08003890 f i ad_x86_32_gen.obj
 0001:00002890       ?two_adr@orI_eRegNode@@EBEIXZ 08003890 f i ad_x86_32_gen.obj
 0001:00002890       ?two_adr@orI_eReg_immNode@@EBEIXZ 08003890 f i ad_x86_32_gen.obj
 0001:00002890       ?two_adr@addP_eReg_immNode@@EBEIXZ 08003890 f i ad_x86_32_gen.obj
 0001:00002890       ?two_adr@xorl_eReg_memNode@@EBEIXZ 08003890 f i ad_x86_32.obj
 0001:00002890       ?two_adr@castPPNode@@EBEIXZ 08003890 f i ad_x86_32_gen.obj
 0001:00002890       ?two_adr@sarL_eReg_CLNode@@EBEIXZ 08003890 f i ad_x86_32_gen.obj
 0001:00002890       ?two_adr@addI_eRegNode@@EBEIXZ 08003890 f i ad_x86_32_gen.obj
 0001:00002890       ?two_adr@decI_eRegNode@@EBEIXZ 08003890 f i ad_x86_32_gen.obj
 0001:00002890       ?two_adr@mulL_eReg_rhi0Node@@EBEIXZ 08003890 f i ad_x86_32_gen.obj
 0001:00002890       ?two_adr@shrL_eReg_32_63Node@@EBEIXZ 08003890 f i ad_x86_32_gen.obj
 0001:00002890       ?two_adr@andI_eReg_memNode@@EBEIXZ 08003890 f i ad_x86_32.obj
 0001:00002890       ?two_adr@divXD_immNode@@EBEIXZ 08003890 f i ad_x86_32_gen.obj
 0001:00002890       ?two_adr@incI_eRegNode@@EBEIXZ 08003890 f i ad_x86_32_gen.obj
 0001:00002890       ?two_adr@mulL_eReg_hi0Node@@EBEIXZ 08003890 f i ad_x86_32_gen.obj
 0001:00002890       ?two_adr@orl_eReg_immNode@@EBEIXZ 08003890 f i ad_x86_32_gen.obj
 0001:00002890       ?two_adr@strictfp_divD_regNode@@EBEIXZ 08003890 f i ad_x86_32_gen.obj
 0001:00002890       ?two_adr@andL_eReg_memNode@@EBEIXZ 08003890 f i ad_x86_32.obj
 0001:00002890       ?two_adr@divX_memNode@@EBEIXZ 08003890 f i ad_x86_32.obj
 0001:00002890       ?two_adr@rolI_eReg_imm1Node@@EBEIXZ 08003890 f i ad_x86_32_expand.obj
 0001:00002890       ?two_adr@cosXD_regNode@@EBEIXZ 08003890 f i ad_x86_32_gen.obj
 0001:00002890       ?two_adr@orl_eRegNode@@EBEIXZ 08003890 f i ad_x86_32_gen.obj
 0001:00002890       ?two_adr@checkCastPPNode@@EBEIXZ 08003890 f i ad_x86_32_gen.obj
 0001:00002890       ?two_adr@mulD_regNode@@EBEIXZ 08003890 f i ad_x86_32_gen.obj
 0001:00002890       ?two_adr@divD_regNode@@EBEIXZ 08003890 f i ad_x86_32_gen.obj
 0001:00002890       ?two_adr@addF_mulF_reg_0Node@@EBEIXZ 08003890 f i ad_x86_32_gen.obj
 0001:00002890       ?two_adr@minI_eRegNode@@EBEIXZ 08003890 f i ad_x86_32_gen.obj
 0001:00002890       ?two_adr@sarI_eReg_1Node@@EBEIXZ 08003890 f i ad_x86_32_gen.obj
 0001:00002890       ?two_adr@shlI_eReg_1Node@@EBEIXZ 08003890 f i ad_x86_32_gen.obj
 0001:00002890       ?two_adr@rolI_eReg_Var_C0_0Node@@EBEIXZ 08003890 f i ad_x86_32_gen.obj
 0001:00002890       ?two_adr@mulD_reg_memNode@@EBEIXZ 08003890 f i ad_x86_32_gen.obj
 0001:00002890       ?two_adr@orl_eReg_memNode@@EBEIXZ 08003890 f i ad_x86_32.obj
 0001:00002890       ?two_adr@mulL_eReg_lhi0Node@@EBEIXZ 08003890 f i ad_x86_32_gen.obj
 0001:00002890       ?two_adr@xorI_eReg_memNode@@EBEIXZ 08003890 f i ad_x86_32.obj
 0001:00002890       ?two_adr@divXD_memNode@@EBEIXZ 08003890 f i ad_x86_32.obj
 0001:00002890       ?two_adr@subL_eReg_memNode@@EBEIXZ 08003890 f i ad_x86_32.obj
 0001:00002890       ?two_adr@shrL_eReg_CLNode@@EBEIXZ 08003890 f i ad_x86_32_gen.obj
 0001:00002890       ?two_adr@rorI_eReg_Var_C32Node@@EBEIXZ 08003890 f i ad_x86_32_gen.obj
 0001:00002890       ?two_adr@addD_reg_memNode@@EBEIXZ 08003890 f i ad_x86_32.obj
 0001:00002890       ?two_adr@subI_eReg_immNode@@EBEIXZ 08003890 f i ad_x86_32_gen.obj
 0001:00002890       ?two_adr@shlL_eReg_3Node@@EBEIXZ 08003890 f i ad_x86_32_gen.obj
 0001:00002890       ?two_adr@addXD_regNode@@EBEIXZ 08003890 f i ad_x86_32_gen.obj
 0001:00002890       ?two_adr@andI_eReg_immNode@@EBEIXZ 08003890 f i ad_x86_32_gen.obj
 0001:00002890       ?two_adr@subX_regNode@@EBEIXZ 08003890 f i ad_x86_32_gen.obj
 0001:00002890       ?two_adr@rolI_eReg_i8Node@@EBEIXZ 08003890 f i ad_x86_32_gen.obj
 0001:00002890       ?two_adr@addL_eReg_immNode@@EBEIXZ 08003890 f i ad_x86_32_gen.obj
 0001:00002890       ?two_adr@subXD_memNode@@EBEIXZ 08003890 f i ad_x86_32.obj
 0001:00002890       ?two_adr@addD_regNode@@EBEIXZ 08003890 f i ad_x86_32_gen.obj
 0001:00002890       ?two_adr@addF_reg_memNode@@EBEIXZ 08003890 f i ad_x86_32.obj
 0001:00002890       ?two_adr@mulX_memNode@@EBEIXZ 08003890 f i ad_x86_32.obj
 0001:00002890       ?two_adr@addD_reg_immNode@@EBEIXZ 08003890 f i ad_x86_32_gen.obj
 0001:00002890       ?two_adr@andL_eRegNode@@EBEIXZ 08003890 f i ad_x86_32_gen.obj
 0001:00002890       ?two_adr@cadd_cmpLTMask_2Node@@EBEIXZ 08003890 f i ad_x86_32_gen.obj
 0001:00002890       ?two_adr@mulX_regNode@@EBEIXZ 08003890 f i ad_x86_32_gen.obj
 0001:00002890       ?two_adr@ci2bNode@@EBEIXZ  08003890 f i ad_x86_32_expand.obj
 0001:00002890       ?two_adr@rolI_eReg_i8_0Node@@EBEIXZ 08003890 f i ad_x86_32_gen.obj
 0001:00002890       ?two_adr@rolI_eReg_Var_C32Node@@EBEIXZ 08003890 f i ad_x86_32_gen.obj
 0001:00002890       ?two_adr@absX_regNode@@EBEIXZ 08003890 f i ad_x86_32_gen.obj
 0001:00002890       ?two_adr@divXD_regNode@@EBEIXZ 08003890 f i ad_x86_32_gen.obj
 0001:00002890       ?two_adr@sarI_eReg_immNode@@EBEIXZ 08003890 f i ad_x86_32_gen.obj
 0001:00002890       ?two_adr@modD_regNode@@EBEIXZ 08003890 f i ad_x86_32_gen.obj
 0001:00002890       ?two_adr@negXD_regNode@@EBEIXZ 08003890 f i ad_x86_32_gen.obj
 0001:00002890       ?two_adr@addI_eReg_memNode@@EBEIXZ 08003890 f i ad_x86_32.obj
 0001:00002890       ?two_adr@andI_eRegNode@@EBEIXZ 08003890 f i ad_x86_32_gen.obj
 0001:00002890       ?two_adr@shlL_eReg_32_63Node@@EBEIXZ 08003890 f i ad_x86_32_gen.obj
 0001:00002890       ?two_adr@addL_eRegNode@@EBEIXZ 08003890 f i ad_x86_32_gen.obj
 0001:00002890       ?two_adr@subP_eRegNode@@EBEIXZ 08003890 f i ad_x86_32_gen.obj
 0001:00002890       ?two_adr@salI_eReg_CLNode@@EBEIXZ 08003890 f i ad_x86_32_gen.obj
 0001:00002890       ?two_adr@salL_eReg_CLNode@@EBEIXZ 08003890 f i ad_x86_32_gen.obj
 0001:00002890       ?two_adr@addXD_immNode@@EBEIXZ 08003890 f i ad_x86_32_gen.obj
 0001:00002890       ?two_adr@mulL_eRegNode@@EBEIXZ 08003890 f i ad_x86_32_gen.obj
 0001:00002890       ?two_adr@cmpLTMask0Node@@EBEIXZ 08003890 f i ad_x86_32_gen.obj
 0001:00002890       ?two_adr@mulD_reg_immNode@@EBEIXZ 08003890 f i ad_x86_32_gen.obj
 0001:00002890       ?two_adr@subI_eRegNode@@EBEIXZ 08003890 f i ad_x86_32_gen.obj
 0001:00002890       ?two_adr@sarL_eReg_1_31Node@@EBEIXZ 08003890 f i ad_x86_32_gen.obj
 0001:00002890       ?two_adr@subXD_immNode@@EBEIXZ 08003890 f i ad_x86_32_gen.obj
 0001:00002890       ?two_adr@negX_regNode@@EBEIXZ 08003890 f i ad_x86_32_gen.obj
 0001:00002890       ?two_adr@divX_regNode@@EBEIXZ 08003890 f i ad_x86_32_gen.obj
 0001:00002890       ?two_adr@rorI_eReg_imm1Node@@EBEIXZ 08003890 f i ad_x86_32_expand.obj
 0001:00002890       ?two_adr@subD_regNode@@EBEIXZ 08003890 f i ad_x86_32_gen.obj
 0001:000028a0       ?spec@internal_word_Relocation@@SA?AVRelocationHolder@@PAE@Z 080038a0 f i ad_x86_32.obj
 0001:000028e0       ??0addF24_mem_ciscNode@@QAE@XZ 080038e0 f i ad_x86_32.obj
 0001:00002910       ?rule@addF24_mem_ciscNode@@EBEIXZ 08003910 f i ad_x86_32.obj
 0001:00002920       ??0addF24_mem_cisc_0Node@@QAE@XZ 08003920 f i ad_x86_32.obj
 0001:00002950       ?rule@addF24_mem_cisc_0Node@@EBEIXZ 08003950 f i ad_x86_32.obj
 0001:00002960       ??0mulF24_reg_memNode@@QAE@XZ 08003960 f i ad_x86_32.obj
 0001:00002990       ?rule@mulF24_reg_memNode@@EBEIXZ 08003990 f i ad_x86_32.obj
 0001:000029a0       ??0mulF_reg_memNode@@QAE@XZ 080039a0 f i ad_x86_32.obj
 0001:000029d0       ?rule@mulF_reg_memNode@@EBEIXZ 080039d0 f i ad_x86_32.obj
 0001:000029e0       ??0addF_mulF_reg_load1Node@@QAE@XZ 080039e0 f i ad_x86_32.obj
 0001:00002a10       ?rule@addF_mulF_reg_load1Node@@EBEIXZ 08003a10 f i ad_x86_32.obj
 0001:00002a20       ??0addF_mulF_reg_load1_1Node@@QAE@XZ 08003a20 f i ad_x86_32.obj
 0001:00002a50       ?rule@addF_mulF_reg_load1_1Node@@EBEIXZ 08003a50 f i ad_x86_32.obj
 0001:00002a60       ?movflt@MacroAssembler@@QAEXPAVXMMRegisterImpl@@0@Z 08003a60 f i ad_x86_32.obj
 0001:00002a80       ?movflt@MacroAssembler@@QAEXPAVXMMRegisterImpl@@VAddress@@@Z 08003a80 f i ad_x86_32.obj
 0001:00002ab0       ?movdbl@MacroAssembler@@QAEXPAVXMMRegisterImpl@@0@Z 08003ab0 f i ad_x86_32.obj
 0001:00002ad0       ?movdbl@MacroAssembler@@QAEXPAVXMMRegisterImpl@@VAddress@@@Z 08003ad0 f i ad_x86_32.obj
 0001:00002b20       ??0compI_eReg_memNode@@QAE@XZ 08003b20 f i ad_x86_32.obj
 0001:00002b50       ?rule@compI_eReg_memNode@@EBEIXZ 08003b50 f i ad_x86_32.obj
 0001:00002b60       ??0compU_eReg_memNode@@QAE@XZ 08003b60 f i ad_x86_32.obj
 0001:00002b90       ?rule@compU_eReg_memNode@@EBEIXZ 08003b90 f i ad_x86_32.obj
 0001:00002ba0       ??0compP_eReg_memNode@@QAE@XZ 08003ba0 f i ad_x86_32.obj
 0001:00002bd0       ?rule@compP_eReg_memNode@@EBEIXZ 08003bd0 f i ad_x86_32.obj
 0001:00002be0       ??0jmpDir_shortNode@@QAE@XZ 08003be0 f i ad_x86_32.obj
 0001:00002c10       ?rule@jmpDir_shortNode@@EBEIXZ 08003c10 f i ad_x86_32.obj
 0001:00002c20       ??0jmpCon_shortNode@@QAE@XZ 08003c20 f i ad_x86_32.obj
 0001:00002c50       ?rule@jmpCon_shortNode@@EBEIXZ 08003c50 f i ad_x86_32.obj
 0001:00002c60       ??0jmpLoopEnd_shortNode@@QAE@XZ 08003c60 f i ad_x86_32.obj
 0001:00002c90       ?rule@jmpLoopEnd_shortNode@@EBEIXZ 08003c90 f i ad_x86_32.obj
 0001:00002ca0       ??0jmpLoopEndU_shortNode@@QAE@XZ 08003ca0 f i ad_x86_32.obj
 0001:00002cd0       ?rule@jmpLoopEndU_shortNode@@EBEIXZ 08003cd0 f i ad_x86_32.obj
 0001:00002ce0       ??0jmpLoopEndUCF_shortNode@@QAE@XZ 08003ce0 f i ad_x86_32.obj
 0001:00002d10       ?rule@jmpLoopEndUCF_shortNode@@EBEIXZ 08003d10 f i ad_x86_32.obj
 0001:00002d20       ??0jmpConU_shortNode@@QAE@XZ 08003d20 f i ad_x86_32.obj
 0001:00002d50       ?rule@jmpConU_shortNode@@EBEIXZ 08003d50 f i ad_x86_32.obj
 0001:00002d60       ??0jmpConUCF_shortNode@@QAE@XZ 08003d60 f i ad_x86_32.obj
 0001:00002d90       ?rule@jmpConUCF_shortNode@@EBEIXZ 08003d90 f i ad_x86_32.obj
 0001:00002da0       ??0jmpConUCF2_shortNode@@QAE@XZ 08003da0 f i ad_x86_32.obj
 0001:00002dd0       ?rule@jmpConUCF2_shortNode@@EBEIXZ 08003dd0 f i ad_x86_32.obj
 0001:00002de0       ??0cmovLL_mem_LTGENode@@QAE@XZ 08003de0 f i ad_x86_32.obj
 0001:00002e10       ?rule@cmovLL_mem_LTGENode@@EBEIXZ 08003e10 f i ad_x86_32.obj
 0001:00002e20       ??0cmovII_mem_LTGENode@@QAE@XZ 08003e20 f i ad_x86_32.obj
 0001:00002e50       ?rule@cmovII_mem_LTGENode@@EBEIXZ 08003e50 f i ad_x86_32.obj
 0001:00002e60       ??0cmovLL_mem_EQNENode@@QAE@XZ 08003e60 f i ad_x86_32.obj
 0001:00002e90       ?rule@cmovLL_mem_EQNENode@@EBEIXZ 08003e90 f i ad_x86_32.obj
 0001:00002ea0       ??0cmovII_mem_EQNENode@@QAE@XZ 08003ea0 f i ad_x86_32.obj
 0001:00002ed0       ?rule@cmovII_mem_EQNENode@@EBEIXZ 08003ed0 f i ad_x86_32.obj
 0001:00002ee0       ??0cmovLL_mem_LEGTNode@@QAE@XZ 08003ee0 f i ad_x86_32.obj
 0001:00002f10       ?rule@cmovLL_mem_LEGTNode@@EBEIXZ 08003f10 f i ad_x86_32.obj
 0001:00002f20       ??0cmovII_mem_LEGTNode@@QAE@XZ 08003f20 f i ad_x86_32.obj
 0001:00002f50       ?rule@cmovII_mem_LEGTNode@@EBEIXZ 08003f50 f i ad_x86_32.obj
 0001:00002f60       ?emit_d32_reloc@@YAXAAVCodeBuffer@@HW4relocType@relocInfo@@H@Z 08003f60 f   ad_x86_32.obj
 0001:00002fb0       ?store_to_stackslot@@YAXAAVCodeBuffer@@HHH@Z 08003fb0 f   ad_x86_32.obj
 0001:00003020       ?encode_RegMem@@YAXAAVCodeBuffer@@HHHHH_N@Z 08004020 f   ad_x86_32.obj
 0001:00003260       ?emit@MachPrologNode@@UBEXAAVCodeBuffer@@PAVPhaseRegAlloc@@@Z 08004260 f   ad_x86_32.obj
 0001:00003370       ?emit@MachEpilogNode@@UBEXAAVCodeBuffer@@PAVPhaseRegAlloc@@@Z 08004370 f   ad_x86_32.obj
 0001:000034a0       ?size@MachEpilogNode@@UBEIPAVPhaseRegAlloc@@@Z 080044a0 f   ad_x86_32.obj
 0001:000038e0       ?emit@BoxLockNode@@UBEXAAVCodeBuffer@@PAVPhaseRegAlloc@@@Z 080048e0 f   ad_x86_32.obj
 0001:00003980       ?size@BoxLockNode@@UBEIPAVPhaseRegAlloc@@@Z 08004980 f   ad_x86_32.obj
 0001:000039c0       ?emit_java_to_interp@@YAXAAVCodeBuffer@@@Z 080049c0 f   ad_x86_32.obj
 0001:00003a70       ?emit@MachUEPNode@@UBEXAAVCodeBuffer@@PAVPhaseRegAlloc@@@Z 08004a70 f   ad_x86_32.obj
 0001:00003b20       ?emit_exception_handler@@YAHAAVCodeBuffer@@@Z 08004b20 f   ad_x86_32.obj
 0001:00003ba0       ?emit_deopt_handler@@YAHAAVCodeBuffer@@@Z 08004ba0 f   ad_x86_32.obj
 0001:00003d90       ?match_rule_supported@Matcher@@SA?B_NH@Z 08004d90 f   ad_x86_32.obj
 0001:00003db0       ?pd_implicit_null_fixup@Matcher@@QAEXPAVMachNode@@I@Z 08004db0 f   ad_x86_32.obj
 0001:00003f80       ?is_operand_hi32_zero@@YA_NPAVNode@@@Z 08004f80 f   ad_x86_32.obj
 0001:00003fc0       ?emit@MachBreakpointNode@@UBEXAAVCodeBuffer@@PAVPhaseRegAlloc@@@Z 08004fc0 f   ad_x86_32.obj
 0001:00003fe0       ?clone@methodOper@@UBEPAVMachOper@@PAVCompile@@@Z 08004fe0 f   ad_x86_32.obj
 0001:00004030       ?fill_new_machnode@MachNode@@QBEXPAV1@PAVCompile@@@Z 08005030 f   ad_x86_32.obj
 0001:000040b0       ?emit@bytes_reverse_intNode@@EBEXAAVCodeBuffer@@PAVPhaseRegAlloc@@@Z 080050b0 f   ad_x86_32.obj
 0001:000040f0       ?emit@bytes_reverse_longNode@@EBEXAAVCodeBuffer@@PAVPhaseRegAlloc@@@Z 080050f0 f   ad_x86_32.obj
 0001:00004170       ?emit@countLeadingZerosINode@@EBEXAAVCodeBuffer@@PAVPhaseRegAlloc@@@Z 08005170 f   ad_x86_32.obj
 0001:000041d0       ?emit@countLeadingZerosI_bsrNode@@EBEXAAVCodeBuffer@@PAVPhaseRegAlloc@@@Z 080051d0 f   ad_x86_32.obj
 0001:00004270       ?emit@countLeadingZerosLNode@@EBEXAAVCodeBuffer@@PAVPhaseRegAlloc@@@Z 08005270 f   ad_x86_32.obj
 0001:00004320       ?emit@countLeadingZerosL_bsrNode@@EBEXAAVCodeBuffer@@PAVPhaseRegAlloc@@@Z 08005320 f   ad_x86_32.obj
 0001:00004410       ?emit@countTrailingZerosINode@@EBEXAAVCodeBuffer@@PAVPhaseRegAlloc@@@Z 08005410 f   ad_x86_32.obj
 0001:000044a0       ?emit@countTrailingZerosLNode@@EBEXAAVCodeBuffer@@PAVPhaseRegAlloc@@@Z 080054a0 f   ad_x86_32.obj
 0001:00004570       ?emit@popCountINode@@EBEXAAVCodeBuffer@@PAVPhaseRegAlloc@@@Z 08005570 f   ad_x86_32.obj
 0001:000045d0       ?emit@popCountI_memNode@@EBEXAAVCodeBuffer@@PAVPhaseRegAlloc@@@Z 080055d0 f   ad_x86_32.obj
 0001:00004670       ?emit@popCountLNode@@EBEXAAVCodeBuffer@@PAVPhaseRegAlloc@@@Z 08005670 f   ad_x86_32.obj
 0001:00004740       ?emit@popCountL_memNode@@EBEXAAVCodeBuffer@@PAVPhaseRegAlloc@@@Z 08005740 f   ad_x86_32.obj
 0001:00004890       ?emit@loadBNode@@EBEXAAVCodeBuffer@@PAVPhaseRegAlloc@@@Z 08005890 f   ad_x86_32.obj
 0001:00004930       ?emit@loadB2LNode@@EBEXAAVCodeBuffer@@PAVPhaseRegAlloc@@@Z 08005930 f   ad_x86_32.obj
 0001:00004a10       ?emit@loadUBNode@@EBEXAAVCodeBuffer@@PAVPhaseRegAlloc@@@Z 08005a10 f   ad_x86_32.obj
 0001:00004ab0       ?emit@loadUB2LNode@@EBEXAAVCodeBuffer@@PAVPhaseRegAlloc@@@Z 08005ab0 f   ad_x86_32.obj
 0001:00004b60       ?emit@loadUB2L_immI8Node@@EBEXAAVCodeBuffer@@PAVPhaseRegAlloc@@@Z 08005b60 f   ad_x86_32.obj
 0001:00004c20       ?emit@loadSNode@@EBEXAAVCodeBuffer@@PAVPhaseRegAlloc@@@Z 08005c20 f   ad_x86_32.obj
 0001:00004cc0       ?emit@loadUS2BNode@@EBEXAAVCodeBuffer@@PAVPhaseRegAlloc@@@Z 08005cc0 f   ad_x86_32.obj
 0001:00004cc0       ?emit@loadS2BNode@@EBEXAAVCodeBuffer@@PAVPhaseRegAlloc@@@Z 08005cc0 f   ad_x86_32.obj
 0001:00004cc0       ?emit@loadI2BNode@@EBEXAAVCodeBuffer@@PAVPhaseRegAlloc@@@Z 08005cc0 f   ad_x86_32.obj
 0001:00004d60       ?emit@loadS2LNode@@EBEXAAVCodeBuffer@@PAVPhaseRegAlloc@@@Z 08005d60 f   ad_x86_32.obj
 0001:00004e40       ?emit@loadUSNode@@EBEXAAVCodeBuffer@@PAVPhaseRegAlloc@@@Z 08005e40 f   ad_x86_32.obj
 0001:00004ee0       ?emit@loadUS2LNode@@EBEXAAVCodeBuffer@@PAVPhaseRegAlloc@@@Z 08005ee0 f   ad_x86_32.obj
 0001:00004fa0       ?emit@loadUS2L_immI_255Node@@EBEXAAVCodeBuffer@@PAVPhaseRegAlloc@@@Z 08005fa0 f   ad_x86_32.obj
 0001:00004fa0       ?emit@loadI2L_immI_255Node@@EBEXAAVCodeBuffer@@PAVPhaseRegAlloc@@@Z 08005fa0 f   ad_x86_32.obj
 0001:00005050       ?emit@loadUS2L_immI16Node@@EBEXAAVCodeBuffer@@PAVPhaseRegAlloc@@@Z 08006050 f   ad_x86_32.obj
 0001:00005110       ?emit@loadINode@@EBEXAAVCodeBuffer@@PAVPhaseRegAlloc@@@Z 08006110 f   ad_x86_32.obj
 0001:000051b0       ?emit@loadI2UBNode@@EBEXAAVCodeBuffer@@PAVPhaseRegAlloc@@@Z 080061b0 f   ad_x86_32.obj
 0001:00005250       ?emit@loadI2SNode@@EBEXAAVCodeBuffer@@PAVPhaseRegAlloc@@@Z 08006250 f   ad_x86_32.obj
 0001:000052f0       ?emit@loadI2USNode@@EBEXAAVCodeBuffer@@PAVPhaseRegAlloc@@@Z 080062f0 f   ad_x86_32.obj
 0001:00005390       ?emit@loadI2LNode@@EBEXAAVCodeBuffer@@PAVPhaseRegAlloc@@@Z 08006390 f   ad_x86_32.obj
 0001:00005470       ?emit@loadI2L_immI_65535Node@@EBEXAAVCodeBuffer@@PAVPhaseRegAlloc@@@Z 08006470 f   ad_x86_32.obj
 0001:00005520       ?emit@loadI2L_immINode@@EBEXAAVCodeBuffer@@PAVPhaseRegAlloc@@@Z 08006520 f   ad_x86_32.obj
 0001:000055e0       ?emit@loadUI2LNode@@EBEXAAVCodeBuffer@@PAVPhaseRegAlloc@@@Z 080065e0 f   ad_x86_32.obj
 0001:000056a0       ?emit@loadLNode@@EBEXAAVCodeBuffer@@PAVPhaseRegAlloc@@@Z 080066a0 f   ad_x86_32.obj
 0001:000057a0       ?emit@loadLX_volatileNode@@EBEXAAVCodeBuffer@@PAVPhaseRegAlloc@@@Z 080067a0 f   ad_x86_32.obj
 0001:000057a0       ?emit@loadLX_LockedNode@@EBEXAAVCodeBuffer@@PAVPhaseRegAlloc@@@Z 080067a0 f   ad_x86_32.obj
 0001:00005910       ?emit@loadRangeNode@@EBEXAAVCodeBuffer@@PAVPhaseRegAlloc@@@Z 08006910 f   ad_x86_32.obj
 0001:000059b0       ?emit@loadKlassNode@@EBEXAAVCodeBuffer@@PAVPhaseRegAlloc@@@Z 080069b0 f   ad_x86_32.obj
 0001:000059b0       ?emit@loadPLockedNode@@EBEXAAVCodeBuffer@@PAVPhaseRegAlloc@@@Z 080069b0 f   ad_x86_32.obj
 0001:000059b0       ?emit@loadPNode@@EBEXAAVCodeBuffer@@PAVPhaseRegAlloc@@@Z 080069b0 f   ad_x86_32.obj
 0001:00005a50       ?emit@loadDNode@@EBEXAAVCodeBuffer@@PAVPhaseRegAlloc@@@Z 08006a50 f   ad_x86_32.obj
 0001:00005b10       ?emit@loadXDNode@@EBEXAAVCodeBuffer@@PAVPhaseRegAlloc@@@Z 08006b10 f   ad_x86_32.obj
 0001:00005bc0       ?emit@loadXD_partialNode@@EBEXAAVCodeBuffer@@PAVPhaseRegAlloc@@@Z 08006bc0 f   ad_x86_32.obj
 0001:00005c70       ?emit@loadXNode@@EBEXAAVCodeBuffer@@PAVPhaseRegAlloc@@@Z 08006c70 f   ad_x86_32.obj
 0001:00005d20       ?emit@loadFNode@@EBEXAAVCodeBuffer@@PAVPhaseRegAlloc@@@Z 08006d20 f   ad_x86_32.obj
 0001:00005de0       ?emit@loadA2FNode@@EBEXAAVCodeBuffer@@PAVPhaseRegAlloc@@@Z 08006de0 f   ad_x86_32.obj
 0001:00005de0       ?emit@loadA8BNode@@EBEXAAVCodeBuffer@@PAVPhaseRegAlloc@@@Z 08006de0 f   ad_x86_32.obj
 0001:00005de0       ?emit@load2IUNode@@EBEXAAVCodeBuffer@@PAVPhaseRegAlloc@@@Z 08006de0 f   ad_x86_32.obj
 0001:00005de0       ?emit@loadA4SNode@@EBEXAAVCodeBuffer@@PAVPhaseRegAlloc@@@Z 08006de0 f   ad_x86_32.obj
 0001:00005de0       ?emit@loadA4CNode@@EBEXAAVCodeBuffer@@PAVPhaseRegAlloc@@@Z 08006de0 f   ad_x86_32.obj
 0001:00005e80       ?emit@leaPIdxScaleNode@@EBEXAAVCodeBuffer@@PAVPhaseRegAlloc@@@Z 08006e80 f   ad_x86_32.obj
 0001:00005e80       ?emit@leaPIdxOffNode@@EBEXAAVCodeBuffer@@PAVPhaseRegAlloc@@@Z 08006e80 f   ad_x86_32.obj
 0001:00005e80       ?emit@leaPIdxScaleOffNode@@EBEXAAVCodeBuffer@@PAVPhaseRegAlloc@@@Z 08006e80 f   ad_x86_32.obj
 0001:00005e80       ?emit@leaP32Node@@EBEXAAVCodeBuffer@@PAVPhaseRegAlloc@@@Z 08006e80 f   ad_x86_32.obj
 0001:00005e80       ?emit@leaP8Node@@EBEXAAVCodeBuffer@@PAVPhaseRegAlloc@@@Z 08006e80 f   ad_x86_32.obj
 0001:00005f20       ?emit@loadConINode@@EBEXAAVCodeBuffer@@PAVPhaseRegAlloc@@@Z 08006f20 f   ad_x86_32.obj
 0001:00005f70       ?emit@loadConI0Node@@EBEXAAVCodeBuffer@@PAVPhaseRegAlloc@@@Z 08006f70 f   ad_x86_32.obj
 0001:00005fd0       ?emit@loadConPNode@@EBEXAAVCodeBuffer@@PAVPhaseRegAlloc@@@Z 08006fd0 f   ad_x86_32.obj
 0001:00006070       ?emit@loadConLNode@@EBEXAAVCodeBuffer@@PAVPhaseRegAlloc@@@Z 08007070 f   ad_x86_32.obj
 0001:00006140       ?emit@loadConL0Node@@EBEXAAVCodeBuffer@@PAVPhaseRegAlloc@@@Z 08007140 f   ad_x86_32.obj
 0001:000061e0       ?emit@loadConFNode@@EBEXAAVCodeBuffer@@PAVPhaseRegAlloc@@@Z 080071e0 f   ad_x86_32.obj
 0001:000062b0       ?emit@loadConXNode@@EBEXAAVCodeBuffer@@PAVPhaseRegAlloc@@@Z 080072b0 f   ad_x86_32.obj
 0001:00006320       ?emit@loadConX0Node@@EBEXAAVCodeBuffer@@PAVPhaseRegAlloc@@@Z 08007320 f   ad_x86_32.obj
 0001:00006390       ?emit@loadConDNode@@EBEXAAVCodeBuffer@@PAVPhaseRegAlloc@@@Z 08007390 f   ad_x86_32.obj
 0001:00006480       ?emit@loadConXDNode@@EBEXAAVCodeBuffer@@PAVPhaseRegAlloc@@@Z 08007480 f   ad_x86_32.obj
 0001:00006510       ?emit@loadConXD0Node@@EBEXAAVCodeBuffer@@PAVPhaseRegAlloc@@@Z 08007510 f   ad_x86_32.obj
 0001:00006580       ?emit@MoveD2L_stack_regNode@@EBEXAAVCodeBuffer@@PAVPhaseRegAlloc@@@Z 08007580 f   ad_x86_32.obj
 0001:00006580       ?emit@loadSSLNode@@EBEXAAVCodeBuffer@@PAVPhaseRegAlloc@@@Z 08007580 f   ad_x86_32.obj
 0001:00006690       ?emit@loadSSDNode@@EBEXAAVCodeBuffer@@PAVPhaseRegAlloc@@@Z 08007690 f   ad_x86_32.obj
 0001:00006690       ?emit@MoveL2D_stack_regNode@@EBEXAAVCodeBuffer@@PAVPhaseRegAlloc@@@Z 08007690 f   ad_x86_32.obj
 0001:00006740       ?emit@prefetchrNode@@EBEXAAVCodeBuffer@@PAVPhaseRegAlloc@@@Z 08007740 f   ad_x86_32.obj
 0001:000067e0       ?emit@prefetchwT2Node@@EBEXAAVCodeBuffer@@PAVPhaseRegAlloc@@@Z 080077e0 f   ad_x86_32.obj
 0001:000067e0       ?emit@prefetchrT2Node@@EBEXAAVCodeBuffer@@PAVPhaseRegAlloc@@@Z 080077e0 f   ad_x86_32.obj
 0001:00006880       ?emit@prefetchwNode@@EBEXAAVCodeBuffer@@PAVPhaseRegAlloc@@@Z 08007880 f   ad_x86_32.obj
 0001:00006920       ?emit@prefetchwNTANode@@EBEXAAVCodeBuffer@@PAVPhaseRegAlloc@@@Z 08007920 f   ad_x86_32.obj
 0001:00006920       ?emit@prefetchrNTANode@@EBEXAAVCodeBuffer@@PAVPhaseRegAlloc@@@Z 08007920 f   ad_x86_32.obj
 0001:000069c0       ?emit@prefetchrT0Node@@EBEXAAVCodeBuffer@@PAVPhaseRegAlloc@@@Z 080079c0 f   ad_x86_32.obj
 0001:000069c0       ?emit@prefetchwT0Node@@EBEXAAVCodeBuffer@@PAVPhaseRegAlloc@@@Z 080079c0 f   ad_x86_32.obj
 0001:00006a60       ?emit@storeBNode@@EBEXAAVCodeBuffer@@PAVPhaseRegAlloc@@@Z 08007a60 f   ad_x86_32.obj
 0001:00006b10       ?emit@storeCNode@@EBEXAAVCodeBuffer@@PAVPhaseRegAlloc@@@Z 08007b10 f   ad_x86_32.obj
 0001:00006bd0       ?emit@storeINode@@EBEXAAVCodeBuffer@@PAVPhaseRegAlloc@@@Z 08007bd0 f   ad_x86_32.obj
 0001:00006bd0       ?emit@storePNode@@EBEXAAVCodeBuffer@@PAVPhaseRegAlloc@@@Z 08007bd0 f   ad_x86_32.obj
 0001:00006c80       ?emit@storeLNode@@EBEXAAVCodeBuffer@@PAVPhaseRegAlloc@@@Z 08007c80 f   ad_x86_32.obj
 0001:00006db0       ?emit@storeL2INode@@EBEXAAVCodeBuffer@@PAVPhaseRegAlloc@@@Z 08007db0 f   ad_x86_32.obj
 0001:00006e60       ?emit@storeL_volatileNode@@EBEXAAVCodeBuffer@@PAVPhaseRegAlloc@@@Z 08007e60 f   ad_x86_32.obj
 0001:00006f90       ?emit@storeLX_volatileNode@@EBEXAAVCodeBuffer@@PAVPhaseRegAlloc@@@Z 08007f90 f   ad_x86_32.obj
 0001:00007190       ?emit@storeLX_reg_volatileNode@@EBEXAAVCodeBuffer@@PAVPhaseRegAlloc@@@Z 08008190 f   ad_x86_32.obj
 0001:00007400       ?emit@storeImmINode@@EBEXAAVCodeBuffer@@PAVPhaseRegAlloc@@@Z 08008400 f   ad_x86_32.obj
 0001:000074b0       ?emit@storeImmI16Node@@EBEXAAVCodeBuffer@@PAVPhaseRegAlloc@@@Z 080084b0 f   ad_x86_32.obj
 0001:00007570       ?emit@storeImmPNode@@EBEXAAVCodeBuffer@@PAVPhaseRegAlloc@@@Z 08008570 f   ad_x86_32.obj
 0001:00007670       ?emit@storeImmBNode@@EBEXAAVCodeBuffer@@PAVPhaseRegAlloc@@@Z 08008670 f   ad_x86_32.obj
 0001:00007670       ?emit@storeImmCMNode@@EBEXAAVCodeBuffer@@PAVPhaseRegAlloc@@@Z 08008670 f   ad_x86_32.obj
 0001:00007750       ?emit@storeD_roundedNode@@EBEXAAVCodeBuffer@@PAVPhaseRegAlloc@@@Z 08008750 f   ad_x86_32.obj
 0001:00007750       ?emit@storeDNode@@EBEXAAVCodeBuffer@@PAVPhaseRegAlloc@@@Z 08008750 f   ad_x86_32.obj
 0001:00007850       ?emit@storeXDNode@@EBEXAAVCodeBuffer@@PAVPhaseRegAlloc@@@Z 08008850 f   ad_x86_32.obj
 0001:00007910       ?emit@storeXNode@@EBEXAAVCodeBuffer@@PAVPhaseRegAlloc@@@Z 08008910 f   ad_x86_32.obj
 0001:000079d0       ?emit@storeA4CNode@@EBEXAAVCodeBuffer@@PAVPhaseRegAlloc@@@Z 080089d0 f   ad_x86_32.obj
 0001:000079d0       ?emit@storeA2FNode@@EBEXAAVCodeBuffer@@PAVPhaseRegAlloc@@@Z 080089d0 f   ad_x86_32.obj
 0001:000079d0       ?emit@storeA8BNode@@EBEXAAVCodeBuffer@@PAVPhaseRegAlloc@@@Z 080089d0 f   ad_x86_32.obj
 0001:000079d0       ?emit@storeA2INode@@EBEXAAVCodeBuffer@@PAVPhaseRegAlloc@@@Z 080089d0 f   ad_x86_32.obj
 0001:00007a80       ?emit@storeF_roundedNode@@EBEXAAVCodeBuffer@@PAVPhaseRegAlloc@@@Z 08008a80 f   ad_x86_32.obj
 0001:00007a80       ?emit@storeFNode@@EBEXAAVCodeBuffer@@PAVPhaseRegAlloc@@@Z 08008a80 f   ad_x86_32.obj
 0001:00007a80       ?emit@storeF_DroundedNode@@EBEXAAVCodeBuffer@@PAVPhaseRegAlloc@@@Z 08008a80 f   ad_x86_32.obj
 0001:00007b80       ?emit@storeF_immNode@@EBEXAAVCodeBuffer@@PAVPhaseRegAlloc@@@Z 08008b80 f   ad_x86_32.obj
 0001:00007b80       ?emit@storeX_immNode@@EBEXAAVCodeBuffer@@PAVPhaseRegAlloc@@@Z 08008b80 f   ad_x86_32.obj
 0001:00007c30       ?emit@cmovI_memUNode@@EBEXAAVCodeBuffer@@PAVPhaseRegAlloc@@@Z 08008c30 f   ad_x86_32.obj
 0001:00007c30       ?emit@cmovII_mem_LEGTNode@@EBEXAAVCodeBuffer@@PAVPhaseRegAlloc@@@Z 08008c30 f   ad_x86_32.obj
 0001:00007c30       ?emit@cmovII_mem_LTGENode@@EBEXAAVCodeBuffer@@PAVPhaseRegAlloc@@@Z 08008c30 f   ad_x86_32.obj
 0001:00007c30       ?emit@cmovII_mem_EQNENode@@EBEXAAVCodeBuffer@@PAVPhaseRegAlloc@@@Z 08008c30 f   ad_x86_32.obj
 0001:00007c30       ?emit@cmovI_memNode@@EBEXAAVCodeBuffer@@PAVPhaseRegAlloc@@@Z 08008c30 f   ad_x86_32.obj
 0001:00007d20       ?emit@cmovP_reg_nonP6Node@@EBEXAAVCodeBuffer@@PAVPhaseRegAlloc@@@Z 08008d20 f   ad_x86_32.obj
 0001:00007dd0       ?emit@fcmovF_regUNode@@EBEXAAVCodeBuffer@@PAVPhaseRegAlloc@@@Z 08008dd0 f   ad_x86_32.obj
 0001:00007dd0       ?emit@fcmovD_regUNode@@EBEXAAVCodeBuffer@@PAVPhaseRegAlloc@@@Z 08008dd0 f   ad_x86_32.obj
 0001:00007e50       ?emit@fcmovF_regSNode@@EBEXAAVCodeBuffer@@PAVPhaseRegAlloc@@@Z 08008e50 f   ad_x86_32.obj
 0001:00007e50       ?emit@fcmovD_regSNode@@EBEXAAVCodeBuffer@@PAVPhaseRegAlloc@@@Z 08008e50 f   ad_x86_32.obj
 0001:00007f10       ?emit@fcmovX_regSNode@@EBEXAAVCodeBuffer@@PAVPhaseRegAlloc@@@Z 08008f10 f   ad_x86_32.obj
 0001:00007f10       ?emit@fcmovX_regUNode@@EBEXAAVCodeBuffer@@PAVPhaseRegAlloc@@@Z 08008f10 f   ad_x86_32.obj
 0001:00007ff0       ?emit@fcmovXD_regUNode@@EBEXAAVCodeBuffer@@PAVPhaseRegAlloc@@@Z 08008ff0 f   ad_x86_32.obj
 0001:00007ff0       ?emit@fcmovXD_regSNode@@EBEXAAVCodeBuffer@@PAVPhaseRegAlloc@@@Z 08008ff0 f   ad_x86_32.obj
 0001:000080d0       ?emit@cmovLL_reg_LTGENode@@EBEXAAVCodeBuffer@@PAVPhaseRegAlloc@@@Z 080090d0 f   ad_x86_32.obj
 0001:000080d0       ?emit@cmovL_regNode@@EBEXAAVCodeBuffer@@PAVPhaseRegAlloc@@@Z 080090d0 f   ad_x86_32.obj
 0001:000080d0       ?emit@cmovL_regUNode@@EBEXAAVCodeBuffer@@PAVPhaseRegAlloc@@@Z 080090d0 f   ad_x86_32.obj
 0001:000080d0       ?emit@cmovLL_reg_EQNENode@@EBEXAAVCodeBuffer@@PAVPhaseRegAlloc@@@Z 080090d0 f   ad_x86_32.obj
 0001:000080d0       ?emit@cmovLL_reg_LEGTNode@@EBEXAAVCodeBuffer@@PAVPhaseRegAlloc@@@Z 080090d0 f   ad_x86_32.obj
 0001:000081d0       ?emit@addI_eRegNode@@EBEXAAVCodeBuffer@@PAVPhaseRegAlloc@@@Z 080091d0 f   ad_x86_32.obj
 0001:00008240       ?emit@addI_eReg_immNode@@EBEXAAVCodeBuffer@@PAVPhaseRegAlloc@@@Z 08009240 f   ad_x86_32.obj
 0001:000082f0       ?emit@incI_eRegNode@@EBEXAAVCodeBuffer@@PAVPhaseRegAlloc@@@Z 080092f0 f   ad_x86_32.obj
 0001:00008330       ?emit@leaI_eReg_immINode@@EBEXAAVCodeBuffer@@PAVPhaseRegAlloc@@@Z 08009330 f   ad_x86_32.obj
 0001:000083a0       ?emit@leaP_eReg_immINode@@EBEXAAVCodeBuffer@@PAVPhaseRegAlloc@@@Z 080093a0 f   ad_x86_32.obj
 0001:00008410       ?emit@decI_eRegNode@@EBEXAAVCodeBuffer@@PAVPhaseRegAlloc@@@Z 08009410 f   ad_x86_32.obj
 0001:00008450       ?emit@addP_eRegNode@@EBEXAAVCodeBuffer@@PAVPhaseRegAlloc@@@Z 08009450 f   ad_x86_32.obj
 0001:000084c0       ?emit@addP_eReg_immNode@@EBEXAAVCodeBuffer@@PAVPhaseRegAlloc@@@Z 080094c0 f   ad_x86_32.obj
 0001:00008570       ?emit@addI_eReg_memNode@@EBEXAAVCodeBuffer@@PAVPhaseRegAlloc@@@Z 08009570 f   ad_x86_32.obj
 0001:00008620       ?emit@addI_eReg_mem_0Node@@EBEXAAVCodeBuffer@@PAVPhaseRegAlloc@@@Z 08009620 f   ad_x86_32.obj
 0001:000086d0       ?emit@addI_mem_eRegNode@@EBEXAAVCodeBuffer@@PAVPhaseRegAlloc@@@Z 080096d0 f   ad_x86_32.obj
 0001:000086d0       ?emit@addI_mem_eReg_0Node@@EBEXAAVCodeBuffer@@PAVPhaseRegAlloc@@@Z 080096d0 f   ad_x86_32.obj
 0001:00008780       ?emit@addI_mem_immNode@@EBEXAAVCodeBuffer@@PAVPhaseRegAlloc@@@Z 08009780 f   ad_x86_32.obj
 0001:00008880       ?emit@incI_memNode@@EBEXAAVCodeBuffer@@PAVPhaseRegAlloc@@@Z 08009880 f   ad_x86_32.obj
 0001:00008920       ?emit@decI_memNode@@EBEXAAVCodeBuffer@@PAVPhaseRegAlloc@@@Z 08009920 f   ad_x86_32.obj
 0001:000089c0       ?emit@loadLLockedNode@@EBEXAAVCodeBuffer@@PAVPhaseRegAlloc@@@Z 080099c0 f   ad_x86_32.obj
 0001:000089c0       ?emit@loadL_volatileNode@@EBEXAAVCodeBuffer@@PAVPhaseRegAlloc@@@Z 080099c0 f   ad_x86_32.obj
 0001:00008a70       ?emit@loadLX_reg_volatileNode@@EBEXAAVCodeBuffer@@PAVPhaseRegAlloc@@@Z 08009a70 f   ad_x86_32.obj
 0001:00008a70       ?emit@loadLX_reg_LockedNode@@EBEXAAVCodeBuffer@@PAVPhaseRegAlloc@@@Z 08009a70 f   ad_x86_32.obj
 0001:00008c50       ?emit@storePConditionalNode@@EBEXAAVCodeBuffer@@PAVPhaseRegAlloc@@@Z 08009c50 f   ad_x86_32.obj
 0001:00008c50       ?emit@storeIConditionalNode@@EBEXAAVCodeBuffer@@PAVPhaseRegAlloc@@@Z 08009c50 f   ad_x86_32.obj
 0001:00008d30       ?emit@compareAndSwapLNode@@EBEXAAVCodeBuffer@@PAVPhaseRegAlloc@@@Z 08009d30 f   ad_x86_32.obj
 0001:00008e30       ?emit@compareAndSwapINode@@EBEXAAVCodeBuffer@@PAVPhaseRegAlloc@@@Z 08009e30 f   ad_x86_32.obj
 0001:00008e30       ?emit@compareAndSwapPNode@@EBEXAAVCodeBuffer@@PAVPhaseRegAlloc@@@Z 08009e30 f   ad_x86_32.obj
 0001:00008f00       ?emit@subI_eRegNode@@EBEXAAVCodeBuffer@@PAVPhaseRegAlloc@@@Z 08009f00 f   ad_x86_32.obj
 0001:00008f70       ?emit@subI_eReg_immNode@@EBEXAAVCodeBuffer@@PAVPhaseRegAlloc@@@Z 08009f70 f   ad_x86_32.obj
 0001:00009020       ?emit@subI_eReg_memNode@@EBEXAAVCodeBuffer@@PAVPhaseRegAlloc@@@Z 0800a020 f   ad_x86_32.obj
 0001:000090d0       ?emit@subI_mem_eRegNode@@EBEXAAVCodeBuffer@@PAVPhaseRegAlloc@@@Z 0800a0d0 f   ad_x86_32.obj
 0001:00009180       ?emit@subP_eRegNode@@EBEXAAVCodeBuffer@@PAVPhaseRegAlloc@@@Z 0800a180 f   ad_x86_32.obj
 0001:00009200       ?emit@negI_eRegNode@@EBEXAAVCodeBuffer@@PAVPhaseRegAlloc@@@Z 0800a200 f   ad_x86_32.obj
 0001:00009250       ?emit@mulI_eRegNode@@EBEXAAVCodeBuffer@@PAVPhaseRegAlloc@@@Z 0800a250 f   ad_x86_32.obj
 0001:000092d0       ?emit@mulI_eReg_immNode@@EBEXAAVCodeBuffer@@PAVPhaseRegAlloc@@@Z 0800a2d0 f   ad_x86_32.obj
 0001:000093a0       ?emit@loadConL_low_onlyNode@@EBEXAAVCodeBuffer@@PAVPhaseRegAlloc@@@Z 0800a3a0 f   ad_x86_32.obj
 0001:00009420       ?emit@mulI_imm_highNode@@EBEXAAVCodeBuffer@@PAVPhaseRegAlloc@@@Z 0800a420 f   ad_x86_32.obj
 0001:00009420       ?emit@mulI_imm_RShift_highNode@@EBEXAAVCodeBuffer@@PAVPhaseRegAlloc@@@Z 0800a420 f   ad_x86_32.obj
 0001:000094b0       ?emit@mulI_imm_RShift_high_0Node@@EBEXAAVCodeBuffer@@PAVPhaseRegAlloc@@@Z 0800a4b0 f   ad_x86_32.obj
 0001:000094b0       ?emit@mulI_imm_high_0Node@@EBEXAAVCodeBuffer@@PAVPhaseRegAlloc@@@Z 0800a4b0 f   ad_x86_32.obj
 0001:00009540       ?emit@mulI_mem_immNode@@EBEXAAVCodeBuffer@@PAVPhaseRegAlloc@@@Z 0800a540 f   ad_x86_32.obj
 0001:00009650       ?emit@mulINode@@EBEXAAVCodeBuffer@@PAVPhaseRegAlloc@@@Z 0800a650 f   ad_x86_32.obj
 0001:00009710       ?emit@mulI_0Node@@EBEXAAVCodeBuffer@@PAVPhaseRegAlloc@@@Z 0800a710 f   ad_x86_32.obj
 0001:000097d0       ?emit@mulI2LNode@@EBEXAAVCodeBuffer@@PAVPhaseRegAlloc@@@Z 0800a7d0 f   ad_x86_32.obj
 0001:00009820       ?emit@mulI2L_0Node@@EBEXAAVCodeBuffer@@PAVPhaseRegAlloc@@@Z 0800a820 f   ad_x86_32.obj
 0001:00009870       ?emit@mulIS_eRegNode@@EBEXAAVCodeBuffer@@PAVPhaseRegAlloc@@@Z 0800a870 f   ad_x86_32.obj
 0001:000098d0       ?emit@mulIS_eReg_0Node@@EBEXAAVCodeBuffer@@PAVPhaseRegAlloc@@@Z 0800a8d0 f   ad_x86_32.obj
 0001:00009920       ?emit@mulL_eRegNode@@EBEXAAVCodeBuffer@@PAVPhaseRegAlloc@@@Z 0800a920 f   ad_x86_32.obj
 0001:00009b40       ?emit@mulL_eReg_lhi0Node@@EBEXAAVCodeBuffer@@PAVPhaseRegAlloc@@@Z 0800ab40 f   ad_x86_32.obj
 0001:00009c10       ?emit@mulL_eReg_rhi0Node@@EBEXAAVCodeBuffer@@PAVPhaseRegAlloc@@@Z 0800ac10 f   ad_x86_32.obj
 0001:00009ce0       ?emit@mulL_eReg_hi0Node@@EBEXAAVCodeBuffer@@PAVPhaseRegAlloc@@@Z 0800ace0 f   ad_x86_32.obj
 0001:00009d30       ?emit@mulL_eReg_conNode@@EBEXAAVCodeBuffer@@PAVPhaseRegAlloc@@@Z 0800ad30 f   ad_x86_32.obj
 0001:00009e20       ?emit@divI_eRegNode@@EBEXAAVCodeBuffer@@PAVPhaseRegAlloc@@@Z 0800ae20 f   ad_x86_32.obj
 0001:00009e20       ?emit@modI_eRegNode@@EBEXAAVCodeBuffer@@PAVPhaseRegAlloc@@@Z 0800ae20 f   ad_x86_32.obj
 0001:00009e20       ?emit@divModI_eReg_divmodNode@@EBEXAAVCodeBuffer@@PAVPhaseRegAlloc@@@Z 0800ae20 f   ad_x86_32.obj
 0001:00009f70       ?emit@divL_eRegNode@@EBEXAAVCodeBuffer@@PAVPhaseRegAlloc@@@Z 0800af70 f   ad_x86_32.obj
 0001:0000a0a0       ?emit@modL_eRegNode@@EBEXAAVCodeBuffer@@PAVPhaseRegAlloc@@@Z 0800b0a0 f   ad_x86_32.obj
 0001:0000a1d0       ?emit@shlI_eReg_1Node@@EBEXAAVCodeBuffer@@PAVPhaseRegAlloc@@@Z 0800b1d0 f   ad_x86_32.obj
 0001:0000a220       ?emit@salI_eReg_immNode@@EBEXAAVCodeBuffer@@PAVPhaseRegAlloc@@@Z 0800b220 f   ad_x86_32.obj
 0001:0000a280       ?emit@salI_eReg_CLNode@@EBEXAAVCodeBuffer@@PAVPhaseRegAlloc@@@Z 0800b280 f   ad_x86_32.obj
 0001:0000a2d0       ?emit@sarI_eReg_1Node@@EBEXAAVCodeBuffer@@PAVPhaseRegAlloc@@@Z 0800b2d0 f   ad_x86_32.obj
 0001:0000a320       ?emit@sarI_mem_1Node@@EBEXAAVCodeBuffer@@PAVPhaseRegAlloc@@@Z 0800b320 f   ad_x86_32.obj
 0001:0000a3c0       ?emit@sarI_eReg_immNode@@EBEXAAVCodeBuffer@@PAVPhaseRegAlloc@@@Z 0800b3c0 f   ad_x86_32.obj
 0001:0000a420       ?emit@sarI_mem_immNode@@EBEXAAVCodeBuffer@@PAVPhaseRegAlloc@@@Z 0800b420 f   ad_x86_32.obj
 0001:0000a500       ?emit@sarI_eReg_CLNode@@EBEXAAVCodeBuffer@@PAVPhaseRegAlloc@@@Z 0800b500 f   ad_x86_32.obj
 0001:0000a550       ?emit@shrI_eReg_1Node@@EBEXAAVCodeBuffer@@PAVPhaseRegAlloc@@@Z 0800b550 f   ad_x86_32.obj
 0001:0000a5a0       ?emit@shrI_eReg_immNode@@EBEXAAVCodeBuffer@@PAVPhaseRegAlloc@@@Z 0800b5a0 f   ad_x86_32.obj
 0001:0000a600       ?emit@i2bNode@@EBEXAAVCodeBuffer@@PAVPhaseRegAlloc@@@Z 0800b600 f   ad_x86_32.obj
 0001:0000a660       ?emit@i2sNode@@EBEXAAVCodeBuffer@@PAVPhaseRegAlloc@@@Z 0800b660 f   ad_x86_32.obj
 0001:0000a6c0       ?emit@shrI_eReg_CLNode@@EBEXAAVCodeBuffer@@PAVPhaseRegAlloc@@@Z 0800b6c0 f   ad_x86_32.obj
 0001:0000a710       ?emit@andI_eRegNode@@EBEXAAVCodeBuffer@@PAVPhaseRegAlloc@@@Z 0800b710 f   ad_x86_32.obj
 0001:0000a780       ?emit@andI_eReg_immNode@@EBEXAAVCodeBuffer@@PAVPhaseRegAlloc@@@Z 0800b780 f   ad_x86_32.obj
 0001:0000a830       ?emit@andI_eReg_memNode@@EBEXAAVCodeBuffer@@PAVPhaseRegAlloc@@@Z 0800b830 f   ad_x86_32.obj
 0001:0000a8e0       ?emit@andI_eReg_mem_0Node@@EBEXAAVCodeBuffer@@PAVPhaseRegAlloc@@@Z 0800b8e0 f   ad_x86_32.obj
 0001:0000a990       ?emit@andI_mem_eReg_0Node@@EBEXAAVCodeBuffer@@PAVPhaseRegAlloc@@@Z 0800b990 f   ad_x86_32.obj
 0001:0000a990       ?emit@andI_mem_eRegNode@@EBEXAAVCodeBuffer@@PAVPhaseRegAlloc@@@Z 0800b990 f   ad_x86_32.obj
 0001:0000aa40       ?emit@andI_mem_immNode@@EBEXAAVCodeBuffer@@PAVPhaseRegAlloc@@@Z 0800ba40 f   ad_x86_32.obj
 0001:0000ab40       ?emit@orI_eReg_castP2XNode@@EBEXAAVCodeBuffer@@PAVPhaseRegAlloc@@@Z 0800bb40 f   ad_x86_32.obj
 0001:0000ab40       ?emit@orI_eRegNode@@EBEXAAVCodeBuffer@@PAVPhaseRegAlloc@@@Z 0800bb40 f   ad_x86_32.obj
 0001:0000abb0       ?emit@orI_eReg_castP2X_0Node@@EBEXAAVCodeBuffer@@PAVPhaseRegAlloc@@@Z 0800bbb0 f   ad_x86_32.obj
 0001:0000ac20       ?emit@orI_eReg_immNode@@EBEXAAVCodeBuffer@@PAVPhaseRegAlloc@@@Z 0800bc20 f   ad_x86_32.obj
 0001:0000acd0       ?emit@orI_eReg_memNode@@EBEXAAVCodeBuffer@@PAVPhaseRegAlloc@@@Z 0800bcd0 f   ad_x86_32.obj
 0001:0000ad80       ?emit@orI_eReg_mem_0Node@@EBEXAAVCodeBuffer@@PAVPhaseRegAlloc@@@Z 0800bd80 f   ad_x86_32.obj
 0001:0000ae30       ?emit@orI_mem_eRegNode@@EBEXAAVCodeBuffer@@PAVPhaseRegAlloc@@@Z 0800be30 f   ad_x86_32.obj
 0001:0000ae30       ?emit@orI_mem_eReg_0Node@@EBEXAAVCodeBuffer@@PAVPhaseRegAlloc@@@Z 0800be30 f   ad_x86_32.obj
 0001:0000aee0       ?emit@orI_mem_immNode@@EBEXAAVCodeBuffer@@PAVPhaseRegAlloc@@@Z 0800bee0 f   ad_x86_32.obj
 0001:0000afe0       ?emit@rolI_eReg_imm1Node@@EBEXAAVCodeBuffer@@PAVPhaseRegAlloc@@@Z 0800bfe0 f   ad_x86_32.obj
 0001:0000b030       ?emit@rolI_eReg_imm8Node@@EBEXAAVCodeBuffer@@PAVPhaseRegAlloc@@@Z 0800c030 f   ad_x86_32.obj
 0001:0000b090       ?emit@rolI_eReg_CLNode@@EBEXAAVCodeBuffer@@PAVPhaseRegAlloc@@@Z 0800c090 f   ad_x86_32.obj
 0001:0000b0e0       ?emit@rorI_eReg_imm1Node@@EBEXAAVCodeBuffer@@PAVPhaseRegAlloc@@@Z 0800c0e0 f   ad_x86_32.obj
 0001:0000b130       ?emit@rorI_eReg_imm8Node@@EBEXAAVCodeBuffer@@PAVPhaseRegAlloc@@@Z 0800c130 f   ad_x86_32.obj
 0001:0000b190       ?emit@rorI_eReg_CLNode@@EBEXAAVCodeBuffer@@PAVPhaseRegAlloc@@@Z 0800c190 f   ad_x86_32.obj
 0001:0000b1e0       ?emit@xorI_eRegNode@@EBEXAAVCodeBuffer@@PAVPhaseRegAlloc@@@Z 0800c1e0 f   ad_x86_32.obj
 0001:0000b250       ?emit@xorI_eReg_im1Node@@EBEXAAVCodeBuffer@@PAVPhaseRegAlloc@@@Z 0800c250 f   ad_x86_32.obj
 0001:0000b2a0       ?emit@xorI_eReg_immNode@@EBEXAAVCodeBuffer@@PAVPhaseRegAlloc@@@Z 0800c2a0 f   ad_x86_32.obj
 0001:0000b350       ?emit@xorI_eReg_memNode@@EBEXAAVCodeBuffer@@PAVPhaseRegAlloc@@@Z 0800c350 f   ad_x86_32.obj
 0001:0000b400       ?emit@xorI_eReg_mem_0Node@@EBEXAAVCodeBuffer@@PAVPhaseRegAlloc@@@Z 0800c400 f   ad_x86_32.obj
 0001:0000b4b0       ?emit@xorI_mem_eRegNode@@EBEXAAVCodeBuffer@@PAVPhaseRegAlloc@@@Z 0800c4b0 f   ad_x86_32.obj
 0001:0000b4b0       ?emit@xorI_mem_eReg_0Node@@EBEXAAVCodeBuffer@@PAVPhaseRegAlloc@@@Z 0800c4b0 f   ad_x86_32.obj
 0001:0000b560       ?emit@xorI_mem_immNode@@EBEXAAVCodeBuffer@@PAVPhaseRegAlloc@@@Z 0800c560 f   ad_x86_32.obj
 0001:0000b660       ?emit@cp2bNode@@EBEXAAVCodeBuffer@@PAVPhaseRegAlloc@@@Z 0800c660 f   ad_x86_32.obj
 0001:0000b660       ?emit@ci2bNode@@EBEXAAVCodeBuffer@@PAVPhaseRegAlloc@@@Z 0800c660 f   ad_x86_32.obj
 0001:0000b6f0       ?emit@cmpLTMaskNode@@EBEXAAVCodeBuffer@@PAVPhaseRegAlloc@@@Z 0800c6f0 f   ad_x86_32.obj
 0001:0000b7e0       ?emit@cmpLTMask0Node@@EBEXAAVCodeBuffer@@PAVPhaseRegAlloc@@@Z 0800c7e0 f   ad_x86_32.obj
 0001:0000b840       ?emit@cadd_cmpLTMask_0Node@@EBEXAAVCodeBuffer@@PAVPhaseRegAlloc@@@Z 0800c840 f   ad_x86_32.obj
 0001:0000b920       ?emit@cadd_cmpLTMask_2Node@@EBEXAAVCodeBuffer@@PAVPhaseRegAlloc@@@Z 0800c920 f   ad_x86_32.obj
 0001:0000b920       ?emit@cadd_cmpLTMask_1Node@@EBEXAAVCodeBuffer@@PAVPhaseRegAlloc@@@Z 0800c920 f   ad_x86_32.obj
 0001:0000b920       ?emit@cadd_cmpLTMaskNode@@EBEXAAVCodeBuffer@@PAVPhaseRegAlloc@@@Z 0800c920 f   ad_x86_32.obj
 0001:0000ba00       ?emit@addL_eRegNode@@EBEXAAVCodeBuffer@@PAVPhaseRegAlloc@@@Z 0800ca00 f   ad_x86_32.obj
 0001:0000bac0       ?emit@addL_eReg_immNode@@EBEXAAVCodeBuffer@@PAVPhaseRegAlloc@@@Z 0800cac0 f   ad_x86_32.obj
 0001:0000bbc0       ?emit@addL_eReg_memNode@@EBEXAAVCodeBuffer@@PAVPhaseRegAlloc@@@Z 0800cbc0 f   ad_x86_32.obj
 0001:0000bcf0       ?emit@addL_eReg_mem_0Node@@EBEXAAVCodeBuffer@@PAVPhaseRegAlloc@@@Z 0800ccf0 f   ad_x86_32.obj
 0001:0000be20       ?emit@subL_eRegNode@@EBEXAAVCodeBuffer@@PAVPhaseRegAlloc@@@Z 0800ce20 f   ad_x86_32.obj
 0001:0000bee0       ?emit@subL_eReg_immNode@@EBEXAAVCodeBuffer@@PAVPhaseRegAlloc@@@Z 0800cee0 f   ad_x86_32.obj
 0001:0000bfe0       ?emit@subL_eReg_memNode@@EBEXAAVCodeBuffer@@PAVPhaseRegAlloc@@@Z 0800cfe0 f   ad_x86_32.obj
 0001:0000c110       ?emit@negL_eRegNode@@EBEXAAVCodeBuffer@@PAVPhaseRegAlloc@@@Z 0800d110 f   ad_x86_32.obj
 0001:0000c1c0       ?emit@andL_eRegNode@@EBEXAAVCodeBuffer@@PAVPhaseRegAlloc@@@Z 0800d1c0 f   ad_x86_32.obj
 0001:0000c280       ?emit@andL_eReg_immNode@@EBEXAAVCodeBuffer@@PAVPhaseRegAlloc@@@Z 0800d280 f   ad_x86_32.obj
 0001:0000c380       ?emit@andL_eReg_memNode@@EBEXAAVCodeBuffer@@PAVPhaseRegAlloc@@@Z 0800d380 f   ad_x86_32.obj
 0001:0000c4b0       ?emit@andL_eReg_mem_0Node@@EBEXAAVCodeBuffer@@PAVPhaseRegAlloc@@@Z 0800d4b0 f   ad_x86_32.obj
 0001:0000c5e0       ?emit@orl_eRegNode@@EBEXAAVCodeBuffer@@PAVPhaseRegAlloc@@@Z 0800d5e0 f   ad_x86_32.obj
 0001:0000c6a0       ?emit@orl_eReg_immNode@@EBEXAAVCodeBuffer@@PAVPhaseRegAlloc@@@Z 0800d6a0 f   ad_x86_32.obj
 0001:0000c7a0       ?emit@orl_eReg_memNode@@EBEXAAVCodeBuffer@@PAVPhaseRegAlloc@@@Z 0800d7a0 f   ad_x86_32.obj
 0001:0000c8d0       ?emit@orl_eReg_mem_0Node@@EBEXAAVCodeBuffer@@PAVPhaseRegAlloc@@@Z 0800d8d0 f   ad_x86_32.obj
 0001:0000ca00       ?emit@xorl_eRegNode@@EBEXAAVCodeBuffer@@PAVPhaseRegAlloc@@@Z 0800da00 f   ad_x86_32.obj
 0001:0000cac0       ?emit@xorl_eReg_im1Node@@EBEXAAVCodeBuffer@@PAVPhaseRegAlloc@@@Z 0800dac0 f   ad_x86_32.obj
 0001:0000cb30       ?emit@xorl_eReg_immNode@@EBEXAAVCodeBuffer@@PAVPhaseRegAlloc@@@Z 0800db30 f   ad_x86_32.obj
 0001:0000cc30       ?emit@xorl_eReg_memNode@@EBEXAAVCodeBuffer@@PAVPhaseRegAlloc@@@Z 0800dc30 f   ad_x86_32.obj
 0001:0000cd60       ?emit@xorl_eReg_mem_0Node@@EBEXAAVCodeBuffer@@PAVPhaseRegAlloc@@@Z 0800dd60 f   ad_x86_32.obj
 0001:0000ce90       ?emit@shlL_eReg_1Node@@EBEXAAVCodeBuffer@@PAVPhaseRegAlloc@@@Z 0800de90 f   ad_x86_32.obj
 0001:0000cf20       ?emit@shlL_eReg_2Node@@EBEXAAVCodeBuffer@@PAVPhaseRegAlloc@@@Z 0800df20 f   ad_x86_32.obj
 0001:0000d000       ?emit@shlL_eReg_3Node@@EBEXAAVCodeBuffer@@PAVPhaseRegAlloc@@@Z 0800e000 f   ad_x86_32.obj
 0001:0000d130       ?emit@shlL_eReg_1_31Node@@EBEXAAVCodeBuffer@@PAVPhaseRegAlloc@@@Z 0800e130 f   ad_x86_32.obj
 0001:0000d1e0       ?emit@shlL_eReg_32_63Node@@EBEXAAVCodeBuffer@@PAVPhaseRegAlloc@@@Z 0800e1e0 f   ad_x86_32.obj
 0001:0000d2a0       ?emit@salL_eReg_CLNode@@EBEXAAVCodeBuffer@@PAVPhaseRegAlloc@@@Z 0800e2a0 f   ad_x86_32.obj
 0001:0000d400       ?emit@shrL_eReg_1_31Node@@EBEXAAVCodeBuffer@@PAVPhaseRegAlloc@@@Z 0800e400 f   ad_x86_32.obj
 0001:0000d4b0       ?emit@shrL_eReg_32_63Node@@EBEXAAVCodeBuffer@@PAVPhaseRegAlloc@@@Z 0800e4b0 f   ad_x86_32.obj
 0001:0000d570       ?emit@shrL_eReg_CLNode@@EBEXAAVCodeBuffer@@PAVPhaseRegAlloc@@@Z 0800e570 f   ad_x86_32.obj
 0001:0000d6d0       ?emit@sarL_eReg_1_31Node@@EBEXAAVCodeBuffer@@PAVPhaseRegAlloc@@@Z 0800e6d0 f   ad_x86_32.obj
 0001:0000d780       ?emit@sarL_eReg_32_63Node@@EBEXAAVCodeBuffer@@PAVPhaseRegAlloc@@@Z 0800e780 f   ad_x86_32.obj
 0001:0000d860       ?emit@sarL_eReg_CLNode@@EBEXAAVCodeBuffer@@PAVPhaseRegAlloc@@@Z 0800e860 f   ad_x86_32.obj
 0001:0000d9b0       ?emit@cmpF_cc_P6Node@@EBEXAAVCodeBuffer@@PAVPhaseRegAlloc@@@Z 0800e9b0 f   ad_x86_32.obj
 0001:0000d9b0       ?emit@cmpD_cc_P6Node@@EBEXAAVCodeBuffer@@PAVPhaseRegAlloc@@@Z 0800e9b0 f   ad_x86_32.obj
 0001:0000da70       ?emit@cmpD_cc_P6CFNode@@EBEXAAVCodeBuffer@@PAVPhaseRegAlloc@@@Z 0800ea70 f   ad_x86_32.obj
 0001:0000da70       ?emit@cmpF_cc_P6CFNode@@EBEXAAVCodeBuffer@@PAVPhaseRegAlloc@@@Z 0800ea70 f   ad_x86_32.obj
 0001:0000daf0       ?emit@cmpF_0Node@@EBEXAAVCodeBuffer@@PAVPhaseRegAlloc@@@Z 0800eaf0 f   ad_x86_32.obj
 0001:0000daf0       ?emit@cmpD_0Node@@EBEXAAVCodeBuffer@@PAVPhaseRegAlloc@@@Z 0800eaf0 f   ad_x86_32.obj
 0001:0000dc70       ?emit@cmpD_regNode@@EBEXAAVCodeBuffer@@PAVPhaseRegAlloc@@@Z 0800ec70 f   ad_x86_32.obj
 0001:0000dc70       ?emit@cmpF_regNode@@EBEXAAVCodeBuffer@@PAVPhaseRegAlloc@@@Z 0800ec70 f   ad_x86_32.obj
 0001:0000ddf0       ?emit@cmpXD_ccNode@@EBEXAAVCodeBuffer@@PAVPhaseRegAlloc@@@Z 0800edf0 f   ad_x86_32.obj
 0001:0000deb0       ?emit@cmpXD_ccCFNode@@EBEXAAVCodeBuffer@@PAVPhaseRegAlloc@@@Z 0800eeb0 f   ad_x86_32.obj
 0001:0000df30       ?emit@cmpXD_ccmemNode@@EBEXAAVCodeBuffer@@PAVPhaseRegAlloc@@@Z 0800ef30 f   ad_x86_32.obj
 0001:0000e040       ?emit@cmpXD_ccmemCFNode@@EBEXAAVCodeBuffer@@PAVPhaseRegAlloc@@@Z 0800f040 f   ad_x86_32.obj
 0001:0000e110       ?emit@cmpXD_regNode@@EBEXAAVCodeBuffer@@PAVPhaseRegAlloc@@@Z 0800f110 f   ad_x86_32.obj
 0001:0000e280       ?emit@cmpXD_regmemNode@@EBEXAAVCodeBuffer@@PAVPhaseRegAlloc@@@Z 0800f280 f   ad_x86_32.obj
 0001:0000e430       ?emit@subD_reg_roundNode@@EBEXAAVCodeBuffer@@PAVPhaseRegAlloc@@@Z 0800f430 f   ad_x86_32.obj
 0001:0000e4c0       ?emit@subD_reg_memNode@@EBEXAAVCodeBuffer@@PAVPhaseRegAlloc@@@Z 0800f4c0 f   ad_x86_32.obj
 0001:0000e590       ?emit@absXD_regNode@@EBEXAAVCodeBuffer@@PAVPhaseRegAlloc@@@Z 0800f590 f   ad_x86_32.obj
 0001:0000e600       ?emit@negXD_regNode@@EBEXAAVCodeBuffer@@PAVPhaseRegAlloc@@@Z 0800f600 f   ad_x86_32.obj
 0001:0000e680       ?emit@addD_reg_roundNode@@EBEXAAVCodeBuffer@@PAVPhaseRegAlloc@@@Z 0800f680 f   ad_x86_32.obj
 0001:0000e710       ?emit@addD_reg_memNode@@EBEXAAVCodeBuffer@@PAVPhaseRegAlloc@@@Z 0800f710 f   ad_x86_32.obj
 0001:0000e7e0       ?emit@addD_reg_mem_0Node@@EBEXAAVCodeBuffer@@PAVPhaseRegAlloc@@@Z 0800f7e0 f   ad_x86_32.obj
 0001:0000e8b0       ?emit@addD_mem_reg_0Node@@EBEXAAVCodeBuffer@@PAVPhaseRegAlloc@@@Z 0800f8b0 f   ad_x86_32.obj
 0001:0000e8b0       ?emit@addD_mem_regNode@@EBEXAAVCodeBuffer@@PAVPhaseRegAlloc@@@Z 0800f8b0 f   ad_x86_32.obj
 0001:0000e9f0       ?emit@addD_reg_imm1Node@@EBEXAAVCodeBuffer@@PAVPhaseRegAlloc@@@Z 0800f9f0 f   ad_x86_32.obj
 0001:0000e9f0       ?emit@addD_reg_immNode@@EBEXAAVCodeBuffer@@PAVPhaseRegAlloc@@@Z 0800f9f0 f   ad_x86_32.obj
 0001:0000eae0       ?emit@addD_reg_imm_roundNode@@EBEXAAVCodeBuffer@@PAVPhaseRegAlloc@@@Z 0800fae0 f   ad_x86_32.obj
 0001:0000ebf0       ?emit@addXD_regNode@@EBEXAAVCodeBuffer@@PAVPhaseRegAlloc@@@Z 0800fbf0 f   ad_x86_32.obj
 0001:0000ec70       ?emit@addXD_immNode@@EBEXAAVCodeBuffer@@PAVPhaseRegAlloc@@@Z 0800fc70 f   ad_x86_32.obj
 0001:0000ecf0       ?emit@addXD_memNode@@EBEXAAVCodeBuffer@@PAVPhaseRegAlloc@@@Z 0800fcf0 f   ad_x86_32.obj
 0001:0000edc0       ?emit@addXD_mem_0Node@@EBEXAAVCodeBuffer@@PAVPhaseRegAlloc@@@Z 0800fdc0 f   ad_x86_32.obj
 0001:0000ee80       ?emit@subXD_regNode@@EBEXAAVCodeBuffer@@PAVPhaseRegAlloc@@@Z 0800fe80 f   ad_x86_32.obj
 0001:0000ef00       ?emit@subXD_immNode@@EBEXAAVCodeBuffer@@PAVPhaseRegAlloc@@@Z 0800ff00 f   ad_x86_32.obj
 0001:0000ef80       ?emit@subXD_memNode@@EBEXAAVCodeBuffer@@PAVPhaseRegAlloc@@@Z 0800ff80 f   ad_x86_32.obj
 0001:0000f050       ?emit@mulXD_regNode@@EBEXAAVCodeBuffer@@PAVPhaseRegAlloc@@@Z 08010050 f   ad_x86_32.obj
 0001:0000f0d0       ?emit@mulXD_immNode@@EBEXAAVCodeBuffer@@PAVPhaseRegAlloc@@@Z 080100d0 f   ad_x86_32.obj
 0001:0000f150       ?emit@mulXD_memNode@@EBEXAAVCodeBuffer@@PAVPhaseRegAlloc@@@Z 08010150 f   ad_x86_32.obj
 0001:0000f220       ?emit@mulXD_mem_0Node@@EBEXAAVCodeBuffer@@PAVPhaseRegAlloc@@@Z 08010220 f   ad_x86_32.obj
 0001:0000f2e0       ?emit@divXD_regNode@@EBEXAAVCodeBuffer@@PAVPhaseRegAlloc@@@Z 080102e0 f   ad_x86_32.obj
 0001:0000f360       ?emit@divXD_immNode@@EBEXAAVCodeBuffer@@PAVPhaseRegAlloc@@@Z 08010360 f   ad_x86_32.obj
 0001:0000f3e0       ?emit@divXD_memNode@@EBEXAAVCodeBuffer@@PAVPhaseRegAlloc@@@Z 080103e0 f   ad_x86_32.obj
 0001:0000f4b0       ?emit@mulD_regNode@@EBEXAAVCodeBuffer@@PAVPhaseRegAlloc@@@Z 080104b0 f   ad_x86_32.obj
 0001:0000f530       ?emit@strictfp_mulD_regNode@@EBEXAAVCodeBuffer@@PAVPhaseRegAlloc@@@Z 08010530 f   ad_x86_32.obj
 0001:0000f650       ?emit@mulD_reg_immNode@@EBEXAAVCodeBuffer@@PAVPhaseRegAlloc@@@Z 08010650 f   ad_x86_32.obj
 0001:0000f740       ?emit@mulD_reg_memNode@@EBEXAAVCodeBuffer@@PAVPhaseRegAlloc@@@Z 08010740 f   ad_x86_32.obj
 0001:0000f810       ?emit@mulD_reg_mem_0Node@@EBEXAAVCodeBuffer@@PAVPhaseRegAlloc@@@Z 08010810 f   ad_x86_32.obj
 0001:0000f8e0       ?emit@mulF_reg_load1_0Node@@EBEXAAVCodeBuffer@@PAVPhaseRegAlloc@@@Z 080108e0 f   ad_x86_32.obj
 0001:0000f8e0       ?emit@mulD_reg_mem_ciscNode@@EBEXAAVCodeBuffer@@PAVPhaseRegAlloc@@@Z 080108e0 f   ad_x86_32.obj
 0001:0000f8e0       ?emit@mulF_reg_memNode@@EBEXAAVCodeBuffer@@PAVPhaseRegAlloc@@@Z 080108e0 f   ad_x86_32.obj
 0001:0000f9d0       ?emit@addD_mulD_regNode@@EBEXAAVCodeBuffer@@PAVPhaseRegAlloc@@@Z 080109d0 f   ad_x86_32.obj
 0001:0000f9d0       ?emit@addF_mulF_regNode@@EBEXAAVCodeBuffer@@PAVPhaseRegAlloc@@@Z 080109d0 f   ad_x86_32.obj
 0001:0000fa90       ?emit@addD_mulD_reg_0Node@@EBEXAAVCodeBuffer@@PAVPhaseRegAlloc@@@Z 08010a90 f   ad_x86_32.obj
 0001:0000fa90       ?emit@addF_mulF_reg_0Node@@EBEXAAVCodeBuffer@@PAVPhaseRegAlloc@@@Z 08010a90 f   ad_x86_32.obj
 0001:0000fb40       ?emit@subD_mulD_regNode@@EBEXAAVCodeBuffer@@PAVPhaseRegAlloc@@@Z 08010b40 f   ad_x86_32.obj
 0001:0000fc00       ?emit@strictfp_divD_regNode@@EBEXAAVCodeBuffer@@PAVPhaseRegAlloc@@@Z 08010c00 f   ad_x86_32.obj
 0001:0000fd20       ?emit@divD_reg_roundNode@@EBEXAAVCodeBuffer@@PAVPhaseRegAlloc@@@Z 08010d20 f   ad_x86_32.obj
 0001:0000fdc0       ?emit@modXD_regNode@@EBEXAAVCodeBuffer@@PAVPhaseRegAlloc@@@Z 08010dc0 f   ad_x86_32.obj
 0001:00010040       ?emit@sinD_regNode@@EBEXAAVCodeBuffer@@PAVPhaseRegAlloc@@@Z 08011040 f   ad_x86_32.obj
 0001:00010070       ?emit@sinXD_regNode@@EBEXAAVCodeBuffer@@PAVPhaseRegAlloc@@@Z 08011070 f   ad_x86_32.obj
 0001:000101f0       ?emit@cosD_regNode@@EBEXAAVCodeBuffer@@PAVPhaseRegAlloc@@@Z 080111f0 f   ad_x86_32.obj
 0001:00010220       ?emit@cosXD_regNode@@EBEXAAVCodeBuffer@@PAVPhaseRegAlloc@@@Z 08011220 f   ad_x86_32.obj
 0001:000103a0       ?emit@tanD_regNode@@EBEXAAVCodeBuffer@@PAVPhaseRegAlloc@@@Z 080113a0 f   ad_x86_32.obj
 0001:000103e0       ?emit@tanXD_regNode@@EBEXAAVCodeBuffer@@PAVPhaseRegAlloc@@@Z 080113e0 f   ad_x86_32.obj
 0001:00010570       ?emit@atanD_regNode@@EBEXAAVCodeBuffer@@PAVPhaseRegAlloc@@@Z 08011570 f   ad_x86_32.obj
 0001:000105f0       ?emit@atanXD_regNode@@EBEXAAVCodeBuffer@@PAVPhaseRegAlloc@@@Z 080115f0 f   ad_x86_32.obj
 0001:00010780       ?emit@sqrtD_regNode@@EBEXAAVCodeBuffer@@PAVPhaseRegAlloc@@@Z 08011780 f   ad_x86_32.obj
 0001:00010800       ?emit@powD_regNode@@EBEXAAVCodeBuffer@@PAVPhaseRegAlloc@@@Z 08011800 f   ad_x86_32.obj
 0001:00010ac0       ?emit@powXD_regNode@@EBEXAAVCodeBuffer@@PAVPhaseRegAlloc@@@Z 08011ac0 f   ad_x86_32.obj
 0001:00010ea0       ?emit@expD_regNode@@EBEXAAVCodeBuffer@@PAVPhaseRegAlloc@@@Z 08011ea0 f   ad_x86_32.obj
 0001:00011100       ?emit@expXD_regNode@@EBEXAAVCodeBuffer@@PAVPhaseRegAlloc@@@Z 08012100 f   ad_x86_32.obj
 0001:00011490       ?emit@log10D_regNode@@EBEXAAVCodeBuffer@@PAVPhaseRegAlloc@@@Z 08012490 f   ad_x86_32.obj
 0001:000114e0       ?emit@log10XD_regNode@@EBEXAAVCodeBuffer@@PAVPhaseRegAlloc@@@Z 080124e0 f   ad_x86_32.obj
 0001:00011670       ?emit@logD_regNode@@EBEXAAVCodeBuffer@@PAVPhaseRegAlloc@@@Z 08012670 f   ad_x86_32.obj
 0001:000116c0       ?emit@logXD_regNode@@EBEXAAVCodeBuffer@@PAVPhaseRegAlloc@@@Z 080126c0 f   ad_x86_32.obj
 0001:00011850       ?emit@cmpD_ccNode@@EBEXAAVCodeBuffer@@PAVPhaseRegAlloc@@@Z 08012850 f   ad_x86_32.obj
 0001:00011850       ?emit@cmpF_ccNode@@EBEXAAVCodeBuffer@@PAVPhaseRegAlloc@@@Z 08012850 f   ad_x86_32.obj
 0001:00011940       ?emit@cmpX_ccNode@@EBEXAAVCodeBuffer@@PAVPhaseRegAlloc@@@Z 08012940 f   ad_x86_32.obj
 0001:00011a00       ?emit@cmpX_ccCFNode@@EBEXAAVCodeBuffer@@PAVPhaseRegAlloc@@@Z 08012a00 f   ad_x86_32.obj
 0001:00011a80       ?emit@cmpX_ccmemNode@@EBEXAAVCodeBuffer@@PAVPhaseRegAlloc@@@Z 08012a80 f   ad_x86_32.obj
 0001:00011b90       ?emit@cmpX_ccmemCFNode@@EBEXAAVCodeBuffer@@PAVPhaseRegAlloc@@@Z 08012b90 f   ad_x86_32.obj
 0001:00011c50       ?emit@cmpX_regNode@@EBEXAAVCodeBuffer@@PAVPhaseRegAlloc@@@Z 08012c50 f   ad_x86_32.obj
 0001:00011dc0       ?emit@cmpX_regmemNode@@EBEXAAVCodeBuffer@@PAVPhaseRegAlloc@@@Z 08012dc0 f   ad_x86_32.obj
 0001:00011f60       ?emit@subF24_regNode@@EBEXAAVCodeBuffer@@PAVPhaseRegAlloc@@@Z 08012f60 f   ad_x86_32.obj
 0001:00012000       ?emit@subF_regNode@@EBEXAAVCodeBuffer@@PAVPhaseRegAlloc@@@Z 08013000 f   ad_x86_32.obj
 0001:00012000       ?emit@subD_regNode@@EBEXAAVCodeBuffer@@PAVPhaseRegAlloc@@@Z 08013000 f   ad_x86_32.obj
 0001:00012080       ?emit@addF24_regNode@@EBEXAAVCodeBuffer@@PAVPhaseRegAlloc@@@Z 08013080 f   ad_x86_32.obj
 0001:00012110       ?emit@addD_regNode@@EBEXAAVCodeBuffer@@PAVPhaseRegAlloc@@@Z 08013110 f   ad_x86_32.obj
 0001:00012110       ?emit@addF_regNode@@EBEXAAVCodeBuffer@@PAVPhaseRegAlloc@@@Z 08013110 f   ad_x86_32.obj
 0001:00012190       ?emit@addX_regNode@@EBEXAAVCodeBuffer@@PAVPhaseRegAlloc@@@Z 08013190 f   ad_x86_32.obj
 0001:00012210       ?emit@addX_immNode@@EBEXAAVCodeBuffer@@PAVPhaseRegAlloc@@@Z 08013210 f   ad_x86_32.obj
 0001:00012290       ?emit@addX_memNode@@EBEXAAVCodeBuffer@@PAVPhaseRegAlloc@@@Z 08013290 f   ad_x86_32.obj
 0001:00012360       ?emit@addX_mem_0Node@@EBEXAAVCodeBuffer@@PAVPhaseRegAlloc@@@Z 08013360 f   ad_x86_32.obj
 0001:00012420       ?emit@subX_regNode@@EBEXAAVCodeBuffer@@PAVPhaseRegAlloc@@@Z 08013420 f   ad_x86_32.obj
 0001:000124a0       ?emit@subX_immNode@@EBEXAAVCodeBuffer@@PAVPhaseRegAlloc@@@Z 080134a0 f   ad_x86_32.obj
 0001:00012520       ?emit@subX_memNode@@EBEXAAVCodeBuffer@@PAVPhaseRegAlloc@@@Z 08013520 f   ad_x86_32.obj
 0001:000125f0       ?emit@mulX_regNode@@EBEXAAVCodeBuffer@@PAVPhaseRegAlloc@@@Z 080135f0 f   ad_x86_32.obj
 0001:00012670       ?emit@mulX_immNode@@EBEXAAVCodeBuffer@@PAVPhaseRegAlloc@@@Z 08013670 f   ad_x86_32.obj
 0001:000126f0       ?emit@mulX_memNode@@EBEXAAVCodeBuffer@@PAVPhaseRegAlloc@@@Z 080136f0 f   ad_x86_32.obj
 0001:000127c0       ?emit@mulX_mem_0Node@@EBEXAAVCodeBuffer@@PAVPhaseRegAlloc@@@Z 080137c0 f   ad_x86_32.obj
 0001:00012880       ?emit@divX_regNode@@EBEXAAVCodeBuffer@@PAVPhaseRegAlloc@@@Z 08013880 f   ad_x86_32.obj
 0001:00012900       ?emit@divX_immNode@@EBEXAAVCodeBuffer@@PAVPhaseRegAlloc@@@Z 08013900 f   ad_x86_32.obj
 0001:00012980       ?emit@divX_memNode@@EBEXAAVCodeBuffer@@PAVPhaseRegAlloc@@@Z 08013980 f   ad_x86_32.obj
 0001:00012a50       ?emit@sqrtX_regNode@@EBEXAAVCodeBuffer@@PAVPhaseRegAlloc@@@Z 08013a50 f   ad_x86_32.obj
 0001:00012ad0       ?emit@sqrtX_memNode@@EBEXAAVCodeBuffer@@PAVPhaseRegAlloc@@@Z 08013ad0 f   ad_x86_32.obj
 0001:00012b80       ?emit@sqrtXD_regNode@@EBEXAAVCodeBuffer@@PAVPhaseRegAlloc@@@Z 08013b80 f   ad_x86_32.obj
 0001:00012c00       ?emit@sqrtXD_memNode@@EBEXAAVCodeBuffer@@PAVPhaseRegAlloc@@@Z 08013c00 f   ad_x86_32.obj
 0001:00012cb0       ?emit@absF_regNode@@EBEXAAVCodeBuffer@@PAVPhaseRegAlloc@@@Z 08013cb0 f   ad_x86_32.obj
 0001:00012cb0       ?emit@absD_regNode@@EBEXAAVCodeBuffer@@PAVPhaseRegAlloc@@@Z 08013cb0 f   ad_x86_32.obj
 0001:00012ce0       ?emit@absX_regNode@@EBEXAAVCodeBuffer@@PAVPhaseRegAlloc@@@Z 08013ce0 f   ad_x86_32.obj
 0001:00012d50       ?emit@negD_regNode@@EBEXAAVCodeBuffer@@PAVPhaseRegAlloc@@@Z 08013d50 f   ad_x86_32.obj
 0001:00012d50       ?emit@negF_regNode@@EBEXAAVCodeBuffer@@PAVPhaseRegAlloc@@@Z 08013d50 f   ad_x86_32.obj
 0001:00012d80       ?emit@negX_regNode@@EBEXAAVCodeBuffer@@PAVPhaseRegAlloc@@@Z 08013d80 f   ad_x86_32.obj
 0001:00012df0       ?emit@addF24_reg_memNode@@EBEXAAVCodeBuffer@@PAVPhaseRegAlloc@@@Z 08013df0 f   ad_x86_32.obj
 0001:00012ed0       ?emit@addF24_reg_mem_0Node@@EBEXAAVCodeBuffer@@PAVPhaseRegAlloc@@@Z 08013ed0 f   ad_x86_32.obj
 0001:00012fb0       ?emit@addF_reg_memNode@@EBEXAAVCodeBuffer@@PAVPhaseRegAlloc@@@Z 08013fb0 f   ad_x86_32.obj
 0001:00013080       ?emit@addF_reg_mem_0Node@@EBEXAAVCodeBuffer@@PAVPhaseRegAlloc@@@Z 08014080 f   ad_x86_32.obj
 0001:00013150       ?emit@addF24_mem_regNode@@EBEXAAVCodeBuffer@@PAVPhaseRegAlloc@@@Z 08014150 f   ad_x86_32.obj
 0001:00013230       ?emit@addF24_mem_ciscNode@@EBEXAAVCodeBuffer@@PAVPhaseRegAlloc@@@Z 08014230 f   ad_x86_32.obj
 0001:00013370       ?emit@addF24_mem_cisc_0Node@@EBEXAAVCodeBuffer@@PAVPhaseRegAlloc@@@Z 08014370 f   ad_x86_32.obj
 0001:000134b0       ?emit@addF24_mem_memNode@@EBEXAAVCodeBuffer@@PAVPhaseRegAlloc@@@Z 080144b0 f   ad_x86_32.obj
 0001:000135e0       ?emit@addF24_reg_immNode@@EBEXAAVCodeBuffer@@PAVPhaseRegAlloc@@@Z 080145e0 f   ad_x86_32.obj
 0001:00013680       ?emit@addF_reg_immNode@@EBEXAAVCodeBuffer@@PAVPhaseRegAlloc@@@Z 08014680 f   ad_x86_32.obj
 0001:00013730       ?emit@mulF24_regNode@@EBEXAAVCodeBuffer@@PAVPhaseRegAlloc@@@Z 08014730 f   ad_x86_32.obj
 0001:000137d0       ?emit@mulF_regNode@@EBEXAAVCodeBuffer@@PAVPhaseRegAlloc@@@Z 080147d0 f   ad_x86_32.obj
 0001:00013870       ?emit@mulF24_reg_memNode@@EBEXAAVCodeBuffer@@PAVPhaseRegAlloc@@@Z 08014870 f   ad_x86_32.obj
 0001:00013950       ?emit@mulF24_reg_mem_0Node@@EBEXAAVCodeBuffer@@PAVPhaseRegAlloc@@@Z 08014950 f   ad_x86_32.obj
 0001:00013a30       ?emit@mulF_reg_mem_0Node@@EBEXAAVCodeBuffer@@PAVPhaseRegAlloc@@@Z 08014a30 f   ad_x86_32.obj
 0001:00013a30       ?emit@mulD_reg_mem_cisc_0Node@@EBEXAAVCodeBuffer@@PAVPhaseRegAlloc@@@Z 08014a30 f   ad_x86_32.obj
 0001:00013a30       ?emit@mulF_reg_load1Node@@EBEXAAVCodeBuffer@@PAVPhaseRegAlloc@@@Z 08014a30 f   ad_x86_32.obj
 0001:00013b20       ?emit@mulF24_mem_memNode@@EBEXAAVCodeBuffer@@PAVPhaseRegAlloc@@@Z 08014b20 f   ad_x86_32.obj
 0001:00013c50       ?emit@mulF24_reg_immNode@@EBEXAAVCodeBuffer@@PAVPhaseRegAlloc@@@Z 08014c50 f   ad_x86_32.obj
 0001:00013cf0       ?emit@mulF_reg_immNode@@EBEXAAVCodeBuffer@@PAVPhaseRegAlloc@@@Z 08014cf0 f   ad_x86_32.obj
 0001:00013da0       ?emit@addF_mulF_reg_load1Node@@EBEXAAVCodeBuffer@@PAVPhaseRegAlloc@@@Z 08014da0 f   ad_x86_32.obj
 0001:00013ed0       ?emit@addF_mulF_reg_load1_1Node@@EBEXAAVCodeBuffer@@PAVPhaseRegAlloc@@@Z 08014ed0 f   ad_x86_32.obj
 0001:00014000       ?emit@addF_mulF_reg_load1_0Node@@EBEXAAVCodeBuffer@@PAVPhaseRegAlloc@@@Z 08015000 f   ad_x86_32.obj
 0001:00014130       ?emit@addF_mulF_reg_load1_2Node@@EBEXAAVCodeBuffer@@PAVPhaseRegAlloc@@@Z 08015130 f   ad_x86_32.obj
 0001:00014260       ?emit@subF_divF_regNode@@EBEXAAVCodeBuffer@@PAVPhaseRegAlloc@@@Z 08015260 f   ad_x86_32.obj
 0001:00014340       ?emit@divF24_regNode@@EBEXAAVCodeBuffer@@PAVPhaseRegAlloc@@@Z 08015340 f   ad_x86_32.obj
 0001:000143e0       ?emit@divD_regNode@@EBEXAAVCodeBuffer@@PAVPhaseRegAlloc@@@Z 080153e0 f   ad_x86_32.obj
 0001:000143e0       ?emit@divF_regNode@@EBEXAAVCodeBuffer@@PAVPhaseRegAlloc@@@Z 080153e0 f   ad_x86_32.obj
 0001:00014460       ?emit@modF24_regNode@@EBEXAAVCodeBuffer@@PAVPhaseRegAlloc@@@Z 08015460 f   ad_x86_32.obj
 0001:00014630       ?emit@modF_regNode@@EBEXAAVCodeBuffer@@PAVPhaseRegAlloc@@@Z 08015630 f   ad_x86_32.obj
 0001:00014630       ?emit@modD_regNode@@EBEXAAVCodeBuffer@@PAVPhaseRegAlloc@@@Z 08015630 f   ad_x86_32.obj
 0001:00014810       ?emit@modX_regNode@@EBEXAAVCodeBuffer@@PAVPhaseRegAlloc@@@Z 08015810 f   ad_x86_32.obj
 0001:00014a70       ?emit@convD2X_regNode@@EBEXAAVCodeBuffer@@PAVPhaseRegAlloc@@@Z 08015a70 f   ad_x86_32.obj
 0001:00014ba0       ?emit@convXD2X_regNode@@EBEXAAVCodeBuffer@@PAVPhaseRegAlloc@@@Z 08015ba0 f   ad_x86_32.obj
 0001:00014c20       ?emit@convF2D_reg_regNode@@EBEXAAVCodeBuffer@@PAVPhaseRegAlloc@@@Z 08015c20 f   ad_x86_32.obj
 0001:00014cb0       ?emit@convX2D_regNode@@EBEXAAVCodeBuffer@@PAVPhaseRegAlloc@@@Z 08015cb0 f   ad_x86_32.obj
 0001:00014da0       ?emit@convX2XD_regNode@@EBEXAAVCodeBuffer@@PAVPhaseRegAlloc@@@Z 08015da0 f   ad_x86_32.obj
 0001:00014e20       ?emit@convXD2I_reg_regNode@@EBEXAAVCodeBuffer@@PAVPhaseRegAlloc@@@Z 08015e20 f   ad_x86_32.obj
 0001:00015000       ?emit@convX2I_regNode@@EBEXAAVCodeBuffer@@PAVPhaseRegAlloc@@@Z 08016000 f   ad_x86_32.obj
 0001:000151e0       ?emit@conv24I2F_regNode@@EBEXAAVCodeBuffer@@PAVPhaseRegAlloc@@@Z 080161e0 f   ad_x86_32.obj
 0001:000151e0       ?emit@convI2D_regNode@@EBEXAAVCodeBuffer@@PAVPhaseRegAlloc@@@Z 080161e0 f   ad_x86_32.obj
 0001:000151e0       ?emit@convI2F_regNode@@EBEXAAVCodeBuffer@@PAVPhaseRegAlloc@@@Z 080161e0 f   ad_x86_32.obj
 0001:00015240       ?emit@convI2XD_regNode@@EBEXAAVCodeBuffer@@PAVPhaseRegAlloc@@@Z 08016240 f   ad_x86_32.obj
 0001:000152c0       ?emit@convI2XD_memNode@@EBEXAAVCodeBuffer@@PAVPhaseRegAlloc@@@Z 080162c0 f   ad_x86_32.obj
 0001:00015370       ?emit@convXI2XD_regNode@@EBEXAAVCodeBuffer@@PAVPhaseRegAlloc@@@Z 08016370 f   ad_x86_32.obj
 0001:000153f0       ?emit@convI2F_memNode@@EBEXAAVCodeBuffer@@PAVPhaseRegAlloc@@@Z 080163f0 f   ad_x86_32.obj
 0001:000153f0       ?emit@convI2D_memNode@@EBEXAAVCodeBuffer@@PAVPhaseRegAlloc@@@Z 080163f0 f   ad_x86_32.obj
 0001:000154b0       ?emit@convI2F_SSFNode@@EBEXAAVCodeBuffer@@PAVPhaseRegAlloc@@@Z 080164b0 f   ad_x86_32.obj
 0001:00015510       ?emit@convI2F_SSF_memNode@@EBEXAAVCodeBuffer@@PAVPhaseRegAlloc@@@Z 08016510 f   ad_x86_32.obj
 0001:000155c0       ?emit@convI2X_regNode@@EBEXAAVCodeBuffer@@PAVPhaseRegAlloc@@@Z 080165c0 f   ad_x86_32.obj
 0001:00015640       ?emit@convXI2X_regNode@@EBEXAAVCodeBuffer@@PAVPhaseRegAlloc@@@Z 08016640 f   ad_x86_32.obj
 0001:000156c0       ?emit@convI2L_regNode@@EBEXAAVCodeBuffer@@PAVPhaseRegAlloc@@@Z 080166c0 f   ad_x86_32.obj
 0001:00015770       ?emit@zerox_longNode@@EBEXAAVCodeBuffer@@PAVPhaseRegAlloc@@@Z 08016770 f   ad_x86_32.obj
 0001:00015770       ?emit@convI2L_reg_zexNode@@EBEXAAVCodeBuffer@@PAVPhaseRegAlloc@@@Z 08016770 f   ad_x86_32.obj
 0001:00015820       ?emit@convL2D_regNode@@EBEXAAVCodeBuffer@@PAVPhaseRegAlloc@@@Z 08016820 f   ad_x86_32.obj
 0001:000158e0       ?emit@convL2XD_regNode@@EBEXAAVCodeBuffer@@PAVPhaseRegAlloc@@@Z 080168e0 f   ad_x86_32.obj
 0001:00015a20       ?emit@convL2X_regNode@@EBEXAAVCodeBuffer@@PAVPhaseRegAlloc@@@Z 08016a20 f   ad_x86_32.obj
 0001:00015b40       ?emit@convL2F_regNode@@EBEXAAVCodeBuffer@@PAVPhaseRegAlloc@@@Z 08016b40 f   ad_x86_32.obj
 0001:00015c00       ?emit@movI_nocopyNode@@EBEXAAVCodeBuffer@@PAVPhaseRegAlloc@@@Z 08016c00 f   ad_x86_32.obj
 0001:00015c00       ?emit@castP2XNode@@EBEXAAVCodeBuffer@@PAVPhaseRegAlloc@@@Z 08016c00 f   ad_x86_32.obj
 0001:00015c00       ?emit@movP_nocopyNode@@EBEXAAVCodeBuffer@@PAVPhaseRegAlloc@@@Z 08016c00 f   ad_x86_32.obj
 0001:00015c00       ?emit@convL2I_regNode@@EBEXAAVCodeBuffer@@PAVPhaseRegAlloc@@@Z 08016c00 f   ad_x86_32.obj
 0001:00015c60       ?emit@MoveF2I_stack_regNode@@EBEXAAVCodeBuffer@@PAVPhaseRegAlloc@@@Z 08016c60 f   ad_x86_32.obj
 0001:00015c60       ?emit@loadSSPNode@@EBEXAAVCodeBuffer@@PAVPhaseRegAlloc@@@Z 08016c60 f   ad_x86_32.obj
 0001:00015c60       ?emit@loadSSINode@@EBEXAAVCodeBuffer@@PAVPhaseRegAlloc@@@Z 08016c60 f   ad_x86_32.obj
 0001:00015d00       ?emit@roundFloat_mem_regNode@@EBEXAAVCodeBuffer@@PAVPhaseRegAlloc@@@Z 08016d00 f   ad_x86_32.obj
 0001:00015d00       ?emit@MoveF2I_reg_stackNode@@EBEXAAVCodeBuffer@@PAVPhaseRegAlloc@@@Z 08016d00 f   ad_x86_32.obj
 0001:00015d80       ?emit@MoveF2I_reg_stack_sseNode@@EBEXAAVCodeBuffer@@PAVPhaseRegAlloc@@@Z 08016d80 f   ad_x86_32.obj
 0001:00015e40       ?emit@MoveF2I_reg_reg_sseNode@@EBEXAAVCodeBuffer@@PAVPhaseRegAlloc@@@Z 08016e40 f   ad_x86_32.obj
 0001:00015ec0       ?emit@MoveI2F_reg_stackNode@@EBEXAAVCodeBuffer@@PAVPhaseRegAlloc@@@Z 08016ec0 f   ad_x86_32.obj
 0001:00015ec0       ?emit@storeSSINode@@EBEXAAVCodeBuffer@@PAVPhaseRegAlloc@@@Z 08016ec0 f   ad_x86_32.obj
 0001:00015ec0       ?emit@storeSSPNode@@EBEXAAVCodeBuffer@@PAVPhaseRegAlloc@@@Z 08016ec0 f   ad_x86_32.obj
 0001:00015f10       ?emit@loadSSFNode@@EBEXAAVCodeBuffer@@PAVPhaseRegAlloc@@@Z 08016f10 f   ad_x86_32.obj
 0001:00015f10       ?emit@MoveI2F_stack_regNode@@EBEXAAVCodeBuffer@@PAVPhaseRegAlloc@@@Z 08016f10 f   ad_x86_32.obj
 0001:00015fc0       ?emit@MoveI2F_stack_reg_sseNode@@EBEXAAVCodeBuffer@@PAVPhaseRegAlloc@@@Z 08016fc0 f   ad_x86_32.obj
 0001:00016070       ?emit@MoveI2F_reg_reg_sseNode@@EBEXAAVCodeBuffer@@PAVPhaseRegAlloc@@@Z 08017070 f   ad_x86_32.obj
 0001:000160f0       ?emit@roundDouble_mem_regNode@@EBEXAAVCodeBuffer@@PAVPhaseRegAlloc@@@Z 080170f0 f   ad_x86_32.obj
 0001:000160f0       ?emit@MoveD2L_reg_stackNode@@EBEXAAVCodeBuffer@@PAVPhaseRegAlloc@@@Z 080170f0 f   ad_x86_32.obj
 0001:00016170       ?emit@MoveD2L_reg_stack_sseNode@@EBEXAAVCodeBuffer@@PAVPhaseRegAlloc@@@Z 08017170 f   ad_x86_32.obj
 0001:00016230       ?emit@MoveD2L_reg_reg_sseNode@@EBEXAAVCodeBuffer@@PAVPhaseRegAlloc@@@Z 08017230 f   ad_x86_32.obj
 0001:00016370       ?emit@MoveL2D_reg_stackNode@@EBEXAAVCodeBuffer@@PAVPhaseRegAlloc@@@Z 08017370 f   ad_x86_32.obj
 0001:00016370       ?emit@storeSSLNode@@EBEXAAVCodeBuffer@@PAVPhaseRegAlloc@@@Z 08017370 f   ad_x86_32.obj
 0001:00016490       ?emit@MoveL2D_stack_reg_sseNode@@EBEXAAVCodeBuffer@@PAVPhaseRegAlloc@@@Z 08017490 f   ad_x86_32.obj
 0001:00016540       ?emit@MoveL2D_stack_reg_sse_partialNode@@EBEXAAVCodeBuffer@@PAVPhaseRegAlloc@@@Z 08017540 f   ad_x86_32.obj
 0001:000165f0       ?emit@MoveL2D_reg_reg_sseNode@@EBEXAAVCodeBuffer@@PAVPhaseRegAlloc@@@Z 080175f0 f   ad_x86_32.obj
 0001:00016740       ?emit@rep_stosNode@@EBEXAAVCodeBuffer@@PAVPhaseRegAlloc@@@Z 08017740 f   ad_x86_32.obj
 0001:000167a0       ?emit@string_compareNode@@EBEXAAVCodeBuffer@@PAVPhaseRegAlloc@@@Z 080177a0 f   ad_x86_32.obj
 0001:000168a0       ?emit@string_equalsNode@@EBEXAAVCodeBuffer@@PAVPhaseRegAlloc@@@Z 080178a0 f   ad_x86_32.obj
 0001:00016980       ?emit@string_indexofNode@@EBEXAAVCodeBuffer@@PAVPhaseRegAlloc@@@Z 08017980 f   ad_x86_32.obj
 0001:00016a60       ?emit@array_equalsNode@@EBEXAAVCodeBuffer@@PAVPhaseRegAlloc@@@Z 08017a60 f   ad_x86_32.obj
 0001:00016b20       ?emit@testP_regNode@@EBEXAAVCodeBuffer@@PAVPhaseRegAlloc@@@Z 08017b20 f   ad_x86_32.obj
 0001:00016b20       ?emit@testU_regNode@@EBEXAAVCodeBuffer@@PAVPhaseRegAlloc@@@Z 08017b20 f   ad_x86_32.obj
 0001:00016b20       ?emit@testI_regNode@@EBEXAAVCodeBuffer@@PAVPhaseRegAlloc@@@Z 08017b20 f   ad_x86_32.obj
 0001:00016b90       ?emit@testI_reg_immNode@@EBEXAAVCodeBuffer@@PAVPhaseRegAlloc@@@Z 08017b90 f   ad_x86_32.obj
 0001:00016c00       ?emit@testI_reg_memNode@@EBEXAAVCodeBuffer@@PAVPhaseRegAlloc@@@Z 08017c00 f   ad_x86_32.obj
 0001:00016cc0       ?emit@compP_eRegNode@@EBEXAAVCodeBuffer@@PAVPhaseRegAlloc@@@Z 08017cc0 f   ad_x86_32.obj
 0001:00016cc0       ?emit@compU_eRegNode@@EBEXAAVCodeBuffer@@PAVPhaseRegAlloc@@@Z 08017cc0 f   ad_x86_32.obj
 0001:00016cc0       ?emit@compI_eRegNode@@EBEXAAVCodeBuffer@@PAVPhaseRegAlloc@@@Z 08017cc0 f   ad_x86_32.obj
 0001:00016d30       ?emit@compI_eReg_immNode@@EBEXAAVCodeBuffer@@PAVPhaseRegAlloc@@@Z 08017d30 f   ad_x86_32.obj
 0001:00016d30       ?emit@compU_eReg_immNode@@EBEXAAVCodeBuffer@@PAVPhaseRegAlloc@@@Z 08017d30 f   ad_x86_32.obj
 0001:00016de0       ?emit@compP_eReg_immNode@@EBEXAAVCodeBuffer@@PAVPhaseRegAlloc@@@Z 08017de0 f   ad_x86_32.obj
 0001:00016ef0       ?emit@compU_eReg_memNode@@EBEXAAVCodeBuffer@@PAVPhaseRegAlloc@@@Z 08017ef0 f   ad_x86_32.obj
 0001:00016ef0       ?emit@compP_mem_eRegNode@@EBEXAAVCodeBuffer@@PAVPhaseRegAlloc@@@Z 08017ef0 f   ad_x86_32.obj
 0001:00016ef0       ?emit@compP_eReg_memNode@@EBEXAAVCodeBuffer@@PAVPhaseRegAlloc@@@Z 08017ef0 f   ad_x86_32.obj
 0001:00016ef0       ?emit@compI_eReg_memNode@@EBEXAAVCodeBuffer@@PAVPhaseRegAlloc@@@Z 08017ef0 f   ad_x86_32.obj
 0001:00016fa0       ?emit@testP_Reg_memNode@@EBEXAAVCodeBuffer@@PAVPhaseRegAlloc@@@Z 08017fa0 f   ad_x86_32.obj
 0001:00017040       ?emit@minI_eRegNode@@EBEXAAVCodeBuffer@@PAVPhaseRegAlloc@@@Z 08018040 f   ad_x86_32.obj
 0001:00017110       ?emit@maxI_eRegNode@@EBEXAAVCodeBuffer@@PAVPhaseRegAlloc@@@Z 08018110 f   ad_x86_32.obj
 0001:000171e0       ?emit@jmpDirNode@@EBEXAAVCodeBuffer@@PAVPhaseRegAlloc@@@Z 080181e0 f   ad_x86_32.obj
 0001:00017230       ?emit@jmpLoopEndUCFNode@@EBEXAAVCodeBuffer@@PAVPhaseRegAlloc@@@Z 08018230 f   ad_x86_32.obj
 0001:00017230       ?emit@jmpConUCFNode@@EBEXAAVCodeBuffer@@PAVPhaseRegAlloc@@@Z 08018230 f   ad_x86_32.obj
 0001:00017230       ?emit@jmpConNode@@EBEXAAVCodeBuffer@@PAVPhaseRegAlloc@@@Z 08018230 f   ad_x86_32.obj
 0001:00017230       ?emit@jmpLoopEndNode@@EBEXAAVCodeBuffer@@PAVPhaseRegAlloc@@@Z 08018230 f   ad_x86_32.obj
 0001:00017230       ?emit@jmpLoopEndUNode@@EBEXAAVCodeBuffer@@PAVPhaseRegAlloc@@@Z 08018230 f   ad_x86_32.obj
 0001:00017230       ?emit@jmpConUNode@@EBEXAAVCodeBuffer@@PAVPhaseRegAlloc@@@Z 08018230 f   ad_x86_32.obj
 0001:000172c0       ?emit@jmpConUCF2Node@@EBEXAAVCodeBuffer@@PAVPhaseRegAlloc@@@Z 080182c0 f   ad_x86_32.obj
 0001:000173e0       ?emit@jmpDir_shortNode@@EBEXAAVCodeBuffer@@PAVPhaseRegAlloc@@@Z 080183e0 f   ad_x86_32.obj
 0001:00017430       ?emit@jmpLoopEnd_shortNode@@EBEXAAVCodeBuffer@@PAVPhaseRegAlloc@@@Z 08018430 f   ad_x86_32.obj
 0001:00017430       ?emit@jmpConUCF_shortNode@@EBEXAAVCodeBuffer@@PAVPhaseRegAlloc@@@Z 08018430 f   ad_x86_32.obj
 0001:00017430       ?emit@jmpLoopEndU_shortNode@@EBEXAAVCodeBuffer@@PAVPhaseRegAlloc@@@Z 08018430 f   ad_x86_32.obj
 0001:00017430       ?emit@jmpConU_shortNode@@EBEXAAVCodeBuffer@@PAVPhaseRegAlloc@@@Z 08018430 f   ad_x86_32.obj
 0001:00017430       ?emit@jmpCon_shortNode@@EBEXAAVCodeBuffer@@PAVPhaseRegAlloc@@@Z 08018430 f   ad_x86_32.obj
 0001:00017430       ?emit@jmpLoopEndUCF_shortNode@@EBEXAAVCodeBuffer@@PAVPhaseRegAlloc@@@Z 08018430 f   ad_x86_32.obj
 0001:000174b0       ?emit@jmpConUCF2_shortNode@@EBEXAAVCodeBuffer@@PAVPhaseRegAlloc@@@Z 080184b0 f   ad_x86_32.obj
 0001:000175c0       ?emit@cmpL3_reg_regNode@@EBEXAAVCodeBuffer@@PAVPhaseRegAlloc@@@Z 080185c0 f   ad_x86_32.obj
 0001:00017730       ?emit@cmpL_zero_flags_LTGENode@@EBEXAAVCodeBuffer@@PAVPhaseRegAlloc@@@Z 08018730 f   ad_x86_32.obj
 0001:000177a0       ?emit@cmpL_reg_flags_LTGENode@@EBEXAAVCodeBuffer@@PAVPhaseRegAlloc@@@Z 080187a0 f   ad_x86_32.obj
 0001:000178b0       ?emit@cmpL_zero_flags_EQNENode@@EBEXAAVCodeBuffer@@PAVPhaseRegAlloc@@@Z 080188b0 f   ad_x86_32.obj
 0001:00017970       ?emit@cmpL_reg_flags_EQNENode@@EBEXAAVCodeBuffer@@PAVPhaseRegAlloc@@@Z 08018970 f   ad_x86_32.obj
 0001:00017a40       ?emit@cmovII_reg_LEGTNode@@EBEXAAVCodeBuffer@@PAVPhaseRegAlloc@@@Z 08018a40 f   ad_x86_32.obj
 0001:00017a40       ?emit@cmovI_regUNode@@EBEXAAVCodeBuffer@@PAVPhaseRegAlloc@@@Z 08018a40 f   ad_x86_32.obj
 0001:00017a40       ?emit@cmovPP_reg_EQNENode@@EBEXAAVCodeBuffer@@PAVPhaseRegAlloc@@@Z 08018a40 f   ad_x86_32.obj
 0001:00017a40       ?emit@cmovII_reg_LTGENode@@EBEXAAVCodeBuffer@@PAVPhaseRegAlloc@@@Z 08018a40 f   ad_x86_32.obj
 0001:00017a40       ?emit@cmovPP_reg_LEGTNode@@EBEXAAVCodeBuffer@@PAVPhaseRegAlloc@@@Z 08018a40 f   ad_x86_32.obj
 0001:00017a40       ?emit@cmovII_reg_EQNENode@@EBEXAAVCodeBuffer@@PAVPhaseRegAlloc@@@Z 08018a40 f   ad_x86_32.obj
 0001:00017a40       ?emit@cmovP_regUNode@@EBEXAAVCodeBuffer@@PAVPhaseRegAlloc@@@Z 08018a40 f   ad_x86_32.obj
 0001:00017a40       ?emit@cmovP_regNode@@EBEXAAVCodeBuffer@@PAVPhaseRegAlloc@@@Z 08018a40 f   ad_x86_32.obj
 0001:00017a40       ?emit@cmovI_regNode@@EBEXAAVCodeBuffer@@PAVPhaseRegAlloc@@@Z 08018a40 f   ad_x86_32.obj
 0001:00017a40       ?emit@cmovPP_reg_LTGENode@@EBEXAAVCodeBuffer@@PAVPhaseRegAlloc@@@Z 08018a40 f   ad_x86_32.obj
 0001:00017ae0       ?emit@cmpL_zero_flags_LEGTNode@@EBEXAAVCodeBuffer@@PAVPhaseRegAlloc@@@Z 08018ae0 f   ad_x86_32.obj
 0001:00017bf0       ?emit@cmpL_reg_flags_LEGTNode@@EBEXAAVCodeBuffer@@PAVPhaseRegAlloc@@@Z 08018bf0 f   ad_x86_32.obj
 0001:00017d00       ?emit@cmovLL_mem_LEGTNode@@EBEXAAVCodeBuffer@@PAVPhaseRegAlloc@@@Z 08018d00 f   ad_x86_32.obj
 0001:00017d00       ?emit@cmovLL_mem_LTGENode@@EBEXAAVCodeBuffer@@PAVPhaseRegAlloc@@@Z 08018d00 f   ad_x86_32.obj
 0001:00017d00       ?emit@cmovLL_mem_EQNENode@@EBEXAAVCodeBuffer@@PAVPhaseRegAlloc@@@Z 08018d00 f   ad_x86_32.obj
 0001:00017e80       ?emit@CallLeafNoFPDirectNode@@EBEXAAVCodeBuffer@@PAVPhaseRegAlloc@@@Z 08018e80 f   ad_x86_32.obj
 0001:000180e0       ?emit@RetNode@@EBEXAAVCodeBuffer@@PAVPhaseRegAlloc@@@Z 080190e0 f   ad_x86_32.obj
 0001:00018100       ?emit@TailCalljmpIndNode@@EBEXAAVCodeBuffer@@PAVPhaseRegAlloc@@@Z 08019100 f   ad_x86_32.obj
 0001:00018150       ?emit@tailjmpIndNode@@EBEXAAVCodeBuffer@@PAVPhaseRegAlloc@@@Z 08019150 f   ad_x86_32.obj
 0001:000181b0       ?emit@RethrowExceptionNode@@EBEXAAVCodeBuffer@@PAVPhaseRegAlloc@@@Z 080191b0 f   ad_x86_32.obj
 0001:00018230       ?emit@cmpFastLockNode@@EBEXAAVCodeBuffer@@PAVPhaseRegAlloc@@@Z 08019230 f   ad_x86_32.obj
 0001:00018ad0       ?current@ciEnv@@SAPAV1@XZ  08019ad0 f i ad_x86_32.obj
 0001:00018af0       ?emit@safePoint_pollNode@@EBEXAAVCodeBuffer@@PAVPhaseRegAlloc@@@Z 08019af0 f   ad_x86_32.obj
 0001:00018b60       ?emit@tlsLoadP_prefixLoadPNode@@EBEXAAVCodeBuffer@@PAVPhaseRegAlloc@@@Z 08019b60 f   ad_x86_32.obj
 0001:00018bc0       ?emit@tlsLoadPNode@@EBEXAAVCodeBuffer@@PAVPhaseRegAlloc@@@Z 08019bc0 f   ad_x86_32.obj
 0001:00018c30       ?emit@ShouldNotReachHereNode@@EBEXAAVCodeBuffer@@PAVPhaseRegAlloc@@@Z 08019c30 f   ad_x86_32.obj
 0001:00018c50       ?return_value@Matcher@@SA?AVOptoRegPair@@H_N@Z 08019c50 f   ad_x86_32.obj
 0001:00018cb0       ?c_return_value@Matcher@@SA?AVOptoRegPair@@H_N@Z 08019cb0 f   ad_x86_32.obj
 0001:00018d10       ?is_reg@OptoReg@@SA_NH@Z   08019d10 f i ad_x86_32.obj
 0001:00018d30       ?current@Compile@@SAPAV1@XZ 08019d30 f i ad_x86_32.obj
 0001:00018d50       ?set_value@DataRelocation@@UAEXPAE@Z 08019d50 f i ad_x86_32.obj
 0001:00018d90       ?addr_in_const@RelocIterator@@QBE_NXZ 08019d90 f i ad_x86_32.obj
 0001:00018db0       ?ret_addr_offset@MachCallStaticJavaNode@@UAEHXZ 08019db0 f   ad_x86_32.obj
 0001:00018df0       ?ret_addr_offset@MachCallDynamicJavaNode@@UAEHXZ 08019df0 f   ad_x86_32.obj
 0001:00018e20       ?ret_addr_offset@MachCallRuntimeNode@@UAEHXZ 08019e20 f   ad_x86_32.obj
 0001:00018e50       ?compute_padding@CallStaticJavaDirectNode@@EBEHH@Z 08019e50 f   ad_x86_32.obj
 0001:00018ea0       ?compute_padding@CallStaticJavaHandleNode@@EBEHH@Z 08019ea0 f   ad_x86_32.obj
 0001:00018ef0       ?compute_padding@CallDynamicJavaDirectNode@@EBEHH@Z 08019ef0 f   ad_x86_32.obj
 0001:00018f40       ?implementation@MachSpillCopyNode@@QBEIPAVCodeBuffer@@PAVPhaseRegAlloc@@_NPAVoutputStream@@@Z 08019f40 f   ad_x86_32.obj
 0001:00019670       ?emit@MachSpillCopyNode@@UBEXAAVCodeBuffer@@PAVPhaseRegAlloc@@@Z 0801a670 f   ad_x86_32.obj
 0001:00019690       ?size@MachSpillCopyNode@@UBEIPAVPhaseRegAlloc@@@Z 0801a690 f   ad_x86_32.obj
 0001:000196b0       ?divL_proj_mask@Matcher@@SA?AVRegMask@@XZ 0801a6b0 f   ad_x86_32.obj
 0001:000196e0       ?modL_proj_mask@Matcher@@SA?AVRegMask@@XZ 0801a6e0 f   ad_x86_32.obj
 0001:00019710       ?clone@labelOper@@UBEPAVMachOper@@PAVCompile@@@Z 0801a710 f   ad_x86_32.obj
 0001:00019760       ?in_RegMask@stackSlotPOper@@EBEPBVRegMask@@H@Z 0801a760 f   ad_x86_32.obj
 0001:00019760       ?in_RegMask@stackSlotDOper@@EBEPBVRegMask@@H@Z 0801a760 f   ad_x86_32.obj
 0001:00019760       ?in_RegMask@stackSlotFOper@@EBEPBVRegMask@@H@Z 0801a760 f   ad_x86_32.obj
 0001:00019760       ?in_RegMask@sRegPOper@@EBEPBVRegMask@@H@Z 0801a760 f   ad_x86_32.obj
 0001:00019760       ?in_RegMask@sRegFOper@@EBEPBVRegMask@@H@Z 0801a760 f   ad_x86_32.obj
 0001:00019760       ?in_RegMask@stackSlotIOper@@EBEPBVRegMask@@H@Z 0801a760 f   ad_x86_32.obj
 0001:00019760       ?in_RegMask@sRegDOper@@EBEPBVRegMask@@H@Z 0801a760 f   ad_x86_32.obj
 0001:00019760       ?in_RegMask@sRegLOper@@EBEPBVRegMask@@H@Z 0801a760 f   ad_x86_32.obj
 0001:00019760       ?in_RegMask@sRegIOper@@EBEPBVRegMask@@H@Z 0801a760 f   ad_x86_32.obj
 0001:00019760       ?in_RegMask@stackSlotLOper@@EBEPBVRegMask@@H@Z 0801a760 f   ad_x86_32.obj
 0001:00019780       ?cisc_version@popCountINode@@EAEPAVMachNode@@HPAVCompile@@@Z 0801a780 f   ad_x86_32.obj
 0001:00019830       ?cisc_version@popCountLNode@@EAEPAVMachNode@@HPAVCompile@@@Z 0801a830 f   ad_x86_32.obj
 0001:000198e0       ?cisc_version@cmovI_regNode@@EAEPAVMachNode@@HPAVCompile@@@Z 0801a8e0 f   ad_x86_32.obj
 0001:00019990       ?cisc_version@cmovI_regUNode@@EAEPAVMachNode@@HPAVCompile@@@Z 0801a990 f   ad_x86_32.obj
 0001:00019a40       ?cisc_version@cmovI_regUCFNode@@EAEPAVMachNode@@HPAVCompile@@@Z 0801aa40 f   ad_x86_32.obj
 0001:00019af0       ?cisc_version@addI_eRegNode@@EAEPAVMachNode@@HPAVCompile@@@Z 0801aaf0 f   ad_x86_32.obj
 0001:00019ba0       ?cisc_version@subI_eRegNode@@EAEPAVMachNode@@HPAVCompile@@@Z 0801aba0 f   ad_x86_32.obj
 0001:00019c50       ?cisc_version@mulI_eRegNode@@EAEPAVMachNode@@HPAVCompile@@@Z 0801ac50 f   ad_x86_32.obj
 0001:00019d00       ?cisc_version@mulI_eReg_immNode@@EAEPAVMachNode@@HPAVCompile@@@Z 0801ad00 f   ad_x86_32.obj
 0001:00019db0       ?cisc_version@i2bNode@@EAEPAVMachNode@@HPAVCompile@@@Z 0801adb0 f   ad_x86_32.obj
 0001:00019e70       ?cisc_version@i2sNode@@EAEPAVMachNode@@HPAVCompile@@@Z 0801ae70 f   ad_x86_32.obj
 0001:00019f30       ?cisc_version@andI_eRegNode@@EAEPAVMachNode@@HPAVCompile@@@Z 0801af30 f   ad_x86_32.obj
 0001:00019fe0       ?cisc_version@orI_eRegNode@@EAEPAVMachNode@@HPAVCompile@@@Z 0801afe0 f   ad_x86_32.obj
 0001:0001a090       ?cisc_version@xorI_eRegNode@@EAEPAVMachNode@@HPAVCompile@@@Z 0801b090 f   ad_x86_32.obj
 0001:0001a140       ?cisc_version@addL_eRegNode@@EAEPAVMachNode@@HPAVCompile@@@Z 0801b140 f   ad_x86_32.obj
 0001:0001a1f0       ?cisc_version@subL_eRegNode@@EAEPAVMachNode@@HPAVCompile@@@Z 0801b1f0 f   ad_x86_32.obj
 0001:0001a2a0       ?cisc_version@andL_eRegNode@@EAEPAVMachNode@@HPAVCompile@@@Z 0801b2a0 f   ad_x86_32.obj
 0001:0001a350       ?cisc_version@orl_eRegNode@@EAEPAVMachNode@@HPAVCompile@@@Z 0801b350 f   ad_x86_32.obj
 0001:0001a400       ?cisc_version@xorl_eRegNode@@EAEPAVMachNode@@HPAVCompile@@@Z 0801b400 f   ad_x86_32.obj
 0001:0001a4b0       ?cisc_version@cmpXD_ccNode@@EAEPAVMachNode@@HPAVCompile@@@Z 0801b4b0 f   ad_x86_32.obj
 0001:0001a560       ?cisc_version@cmpXD_ccCFNode@@EAEPAVMachNode@@HPAVCompile@@@Z 0801b560 f   ad_x86_32.obj
 0001:0001a610       ?cisc_version@cmpXD_regNode@@EAEPAVMachNode@@HPAVCompile@@@Z 0801b610 f   ad_x86_32.obj
 0001:0001a6c0       ?cisc_version@subD_regNode@@EAEPAVMachNode@@HPAVCompile@@@Z 0801b6c0 f   ad_x86_32.obj
 0001:0001a770       ?cisc_version@addD_regNode@@EAEPAVMachNode@@HPAVCompile@@@Z 0801b770 f   ad_x86_32.obj
 0001:0001a820       ?cisc_version@addXD_regNode@@EAEPAVMachNode@@HPAVCompile@@@Z 0801b820 f   ad_x86_32.obj
 0001:0001a8d0       ?cisc_version@subXD_regNode@@EAEPAVMachNode@@HPAVCompile@@@Z 0801b8d0 f   ad_x86_32.obj
 0001:0001a980       ?cisc_version@mulXD_regNode@@EAEPAVMachNode@@HPAVCompile@@@Z 0801b980 f   ad_x86_32.obj
 0001:0001aa30       ?cisc_version@divXD_regNode@@EAEPAVMachNode@@HPAVCompile@@@Z 0801ba30 f   ad_x86_32.obj
 0001:0001aae0       ?cisc_version@cmpX_ccNode@@EAEPAVMachNode@@HPAVCompile@@@Z 0801bae0 f   ad_x86_32.obj
 0001:0001ab90       ?cisc_version@cmpX_ccCFNode@@EAEPAVMachNode@@HPAVCompile@@@Z 0801bb90 f   ad_x86_32.obj
 0001:0001ac40       ?cisc_version@cmpX_regNode@@EAEPAVMachNode@@HPAVCompile@@@Z 0801bc40 f   ad_x86_32.obj
 0001:0001acf0       ?cisc_version@addF24_regNode@@EAEPAVMachNode@@HPAVCompile@@@Z 0801bcf0 f   ad_x86_32.obj
 0001:0001adb0       ?cisc_version@addF_regNode@@EAEPAVMachNode@@HPAVCompile@@@Z 0801bdb0 f   ad_x86_32.obj
 0001:0001ae60       ?cisc_version@addX_regNode@@EAEPAVMachNode@@HPAVCompile@@@Z 0801be60 f   ad_x86_32.obj
 0001:0001af10       ?cisc_version@subX_regNode@@EAEPAVMachNode@@HPAVCompile@@@Z 0801bf10 f   ad_x86_32.obj
 0001:0001afc0       ?cisc_version@mulX_regNode@@EAEPAVMachNode@@HPAVCompile@@@Z 0801bfc0 f   ad_x86_32.obj
 0001:0001b070       ?cisc_version@divX_regNode@@EAEPAVMachNode@@HPAVCompile@@@Z 0801c070 f   ad_x86_32.obj
 0001:0001b120       ?cisc_version@sqrtX_regNode@@EAEPAVMachNode@@HPAVCompile@@@Z 0801c120 f   ad_x86_32.obj
 0001:0001b1d0       ?cisc_version@sqrtXD_regNode@@EAEPAVMachNode@@HPAVCompile@@@Z 0801c1d0 f   ad_x86_32.obj
 0001:0001b280       ?cisc_version@addF24_reg_mem_0Node@@EAEPAVMachNode@@HPAVCompile@@@Z 0801c280 f   ad_x86_32.obj
 0001:0001b330       ?cisc_version@addF24_reg_memNode@@EAEPAVMachNode@@HPAVCompile@@@Z 0801c330 f   ad_x86_32.obj
 0001:0001b330       ?cisc_version@addF24_mem_regNode@@EAEPAVMachNode@@HPAVCompile@@@Z 0801c330 f   ad_x86_32.obj
 0001:0001b3e0       ?cisc_version@mulF24_regNode@@EAEPAVMachNode@@HPAVCompile@@@Z 0801c3e0 f   ad_x86_32.obj
 0001:0001b490       ?cisc_version@mulF_regNode@@EAEPAVMachNode@@HPAVCompile@@@Z 0801c490 f   ad_x86_32.obj
 0001:0001b540       ?cisc_version@addF_mulF_regNode@@EAEPAVMachNode@@HPAVCompile@@@Z 0801c540 f   ad_x86_32.obj
 0001:0001b5f0       ?cisc_version@addF_mulF_reg_0Node@@EAEPAVMachNode@@HPAVCompile@@@Z 0801c5f0 f   ad_x86_32.obj
 0001:0001b6a0       ?cisc_version@convI2L_regNode@@EAEPAVMachNode@@HPAVCompile@@@Z 0801c6a0 f   ad_x86_32.obj
 0001:0001b750       ?cisc_version@compI_eRegNode@@EAEPAVMachNode@@HPAVCompile@@@Z 0801c750 f   ad_x86_32.obj
 0001:0001b800       ?cisc_version@compU_eRegNode@@EAEPAVMachNode@@HPAVCompile@@@Z 0801c800 f   ad_x86_32.obj
 0001:0001b8b0       ?cisc_version@compP_eRegNode@@EAEPAVMachNode@@HPAVCompile@@@Z 0801c8b0 f   ad_x86_32.obj
 0001:0001b960       ?short_branch_version@jmpDirNode@@UAEPAVMachNode@@PAVCompile@@@Z 0801c960 f   ad_x86_32.obj
 0001:0001b9d0       ?short_branch_version@jmpConNode@@UAEPAVMachNode@@PAVCompile@@@Z 0801c9d0 f   ad_x86_32.obj
 0001:0001ba50       ?short_branch_version@jmpLoopEndNode@@UAEPAVMachNode@@PAVCompile@@@Z 0801ca50 f   ad_x86_32.obj
 0001:0001bad0       ?short_branch_version@jmpLoopEndUNode@@UAEPAVMachNode@@PAVCompile@@@Z 0801cad0 f   ad_x86_32.obj
 0001:0001bb50       ?short_branch_version@jmpLoopEndUCFNode@@UAEPAVMachNode@@PAVCompile@@@Z 0801cb50 f   ad_x86_32.obj
 0001:0001bbd0       ?short_branch_version@jmpConUNode@@UAEPAVMachNode@@PAVCompile@@@Z 0801cbd0 f   ad_x86_32.obj
 0001:0001bc50       ?short_branch_version@jmpConUCFNode@@UAEPAVMachNode@@PAVCompile@@@Z 0801cc50 f   ad_x86_32.obj
 0001:0001bcd0       ?short_branch_version@jmpConUCF2Node@@UAEPAVMachNode@@PAVCompile@@@Z 0801ccd0 f   ad_x86_32.obj
 0001:0001bd50       ?cisc_version@cmovLL_reg_LTGENode@@EAEPAVMachNode@@HPAVCompile@@@Z 0801cd50 f   ad_x86_32.obj
 0001:0001be00       ?cisc_version@cmovII_reg_LTGENode@@EAEPAVMachNode@@HPAVCompile@@@Z 0801ce00 f   ad_x86_32.obj
 0001:0001beb0       ?cisc_version@cmovLL_reg_EQNENode@@EAEPAVMachNode@@HPAVCompile@@@Z 0801ceb0 f   ad_x86_32.obj
 0001:0001bf60       ?cisc_version@cmovII_reg_EQNENode@@EAEPAVMachNode@@HPAVCompile@@@Z 0801cf60 f   ad_x86_32.obj
 0001:0001c010       ?cisc_version@cmovLL_reg_LEGTNode@@EAEPAVMachNode@@HPAVCompile@@@Z 0801d010 f   ad_x86_32.obj
 0001:0001c0c0       ?cisc_version@cmovII_reg_LEGTNode@@EAEPAVMachNode@@HPAVCompile@@@Z 0801d0c0 f   ad_x86_32.obj
 0001:0001c170       ?address_table_constant@AbstractAssembler@@QAEPAEV?$GrowableArray@PAVLabel@@@@@Z 0801d170 f i ad_x86_32.obj
 0001:0001c250       ?emit@convF2I_reg_regNode@@EBEXAAVCodeBuffer@@PAVPhaseRegAlloc@@@Z 0801d250 f   ad_x86_32.obj
 0001:0001c250       ?emit@convD2I_reg_regNode@@EBEXAAVCodeBuffer@@PAVPhaseRegAlloc@@@Z 0801d250 f   ad_x86_32.obj
 0001:0001c420       ?emit@convXD2L_reg_regNode@@EBEXAAVCodeBuffer@@PAVPhaseRegAlloc@@@Z 0801d420 f   ad_x86_32.obj
 0001:0001c700       ?emit@convD2L_reg_regNode@@EBEXAAVCodeBuffer@@PAVPhaseRegAlloc@@@Z 0801d700 f   ad_x86_32.obj
 0001:0001c700       ?emit@convF2L_reg_regNode@@EBEXAAVCodeBuffer@@PAVPhaseRegAlloc@@@Z 0801d700 f   ad_x86_32.obj
 0001:0001c910       ?emit@convX2L_reg_regNode@@EBEXAAVCodeBuffer@@PAVPhaseRegAlloc@@@Z 0801d910 f   ad_x86_32.obj
 0001:0001cbf0       ?emit@jumpXtndNode@@EBEXAAVCodeBuffer@@PAVPhaseRegAlloc@@@Z 0801dbf0 f   ad_x86_32.obj
 0001:0001ccc0       ?emit@CallStaticJavaDirectNode@@EBEXAAVCodeBuffer@@PAVPhaseRegAlloc@@@Z 0801dcc0 f   ad_x86_32.obj
 0001:0001ce50       ?emit@CallStaticJavaHandleNode@@EBEXAAVCodeBuffer@@PAVPhaseRegAlloc@@@Z 0801de50 f   ad_x86_32.obj
 0001:0001d000       ?emit@CallDynamicJavaDirectNode@@EBEXAAVCodeBuffer@@PAVPhaseRegAlloc@@@Z 0801e000 f   ad_x86_32.obj
 0001:0001d190       ?emit@CallLeafDirectNode@@EBEXAAVCodeBuffer@@PAVPhaseRegAlloc@@@Z 0801e190 f   ad_x86_32.obj
 0001:0001d190       ?emit@CallRuntimeDirectNode@@EBEXAAVCodeBuffer@@PAVPhaseRegAlloc@@@Z 0801e190 f   ad_x86_32.obj
 0001:0001d4d0       ?return_addr@Matcher@@UBEHXZ 0801e4d0 f   ad_x86_32.obj
 0001:0001d500       ??0immIOper@@QAE@H@Z       0801e500 f i ad_x86_32_clone.obj
 0001:0001d520       ??0immPOper@@QAE@PBVTypePtr@@@Z 0801e520 f i ad_x86_32_clone.obj
 0001:0001d540       ?set_con@immL_127Oper@@UAEXH@Z 0801e540 f i ad_x86_32_clone.obj
 0001:0001d540       ?set_con@immL_M1Oper@@UAEXH@Z 0801e540 f i ad_x86_32_clone.obj
 0001:0001d540       ?set_con@immL_32bitsOper@@UAEXH@Z 0801e540 f i ad_x86_32_clone.obj
 0001:0001d540       ?set_con@immL0Oper@@UAEXH@Z 0801e540 f i ad_x86_32_clone.obj
 0001:0001d540       ?set_con@immL32Oper@@UAEXH@Z 0801e540 f i ad_x86_32_clone.obj
 0001:0001d540       ?set_con@immLOper@@UAEXH@Z 0801e540 f i ad_x86_32_clone.obj
 0001:0001d560       ?constantL@immLOper@@UBE_JXZ 0801e560 f i ad_x86_32_clone.obj
 0001:0001d560       ?constantL@immL_M1Oper@@UBE_JXZ 0801e560 f i ad_x86_32_clone.obj
 0001:0001d560       ?constantL@immL32Oper@@UBE_JXZ 0801e560 f i ad_x86_32_clone.obj
 0001:0001d560       ?constantL@immL0Oper@@UBE_JXZ 0801e560 f i ad_x86_32_clone.obj
 0001:0001d560       ?constantL@immL_32bitsOper@@UBE_JXZ 0801e560 f i ad_x86_32_clone.obj
 0001:0001d560       ?constantL@immL_127Oper@@UBE_JXZ 0801e560 f i ad_x86_32_clone.obj
 0001:0001d570       ?constant@immD0Oper@@UBEHXZ 0801e570 f i ad_x86_32_clone.obj
 0001:0001d590       ?constantD@immDOper@@UBENXZ 0801e590 f i ad_x86_32_clone.obj
 0001:0001d590       ?constantD@immXD0Oper@@UBENXZ 0801e590 f i ad_x86_32_clone.obj
 0001:0001d590       ?constantD@immXDOper@@UBENXZ 0801e590 f i ad_x86_32_clone.obj
 0001:0001d590       ?constantD@immD0Oper@@UBENXZ 0801e590 f i ad_x86_32_clone.obj
 0001:0001d590       ?constantD@immD1Oper@@UBENXZ 0801e590 f i ad_x86_32_clone.obj
 0001:0001d5a0       ?constant@immD1Oper@@UBEHXZ 0801e5a0 f i ad_x86_32_clone.obj
 0001:0001d5c0       ??0immDOper@@QAE@N@Z       0801e5c0 f i ad_x86_32_clone.obj
 0001:0001d5e0       ?constant@immDOper@@UBEHXZ 0801e5e0 f i ad_x86_32_clone.obj
 0001:0001d600       ??0immXDOper@@QAE@N@Z      0801e600 f i ad_x86_32_clone.obj
 0001:0001d620       ?constant@immXDOper@@UBEHXZ 0801e620 f i ad_x86_32_clone.obj
 0001:0001d640       ??0immXD0Oper@@QAE@N@Z     0801e640 f i ad_x86_32_clone.obj
 0001:0001d660       ?constant@immXD0Oper@@UBEHXZ 0801e660 f i ad_x86_32_clone.obj
 0001:0001d680       ?constant@immF0Oper@@UBEHXZ 0801e680 f i ad_x86_32_clone.obj
 0001:0001d6a0       ?constantF@immXFOper@@UBEMXZ 0801e6a0 f i ad_x86_32_clone.obj
 0001:0001d6a0       ?constantF@immXF0Oper@@UBEMXZ 0801e6a0 f i ad_x86_32_clone.obj
 0001:0001d6a0       ?constantF@immF0Oper@@UBEMXZ 0801e6a0 f i ad_x86_32_clone.obj
 0001:0001d6a0       ?constantF@immFOper@@UBEMXZ 0801e6a0 f i ad_x86_32_clone.obj
 0001:0001d6b0       ??0immFOper@@QAE@M@Z       0801e6b0 f i ad_x86_32_clone.obj
 0001:0001d6d0       ?constant@immFOper@@UBEHXZ 0801e6d0 f i ad_x86_32_clone.obj
 0001:0001d6f0       ??0immXFOper@@QAE@M@Z      0801e6f0 f i ad_x86_32_clone.obj
 0001:0001d710       ?constant@immXFOper@@UBEHXZ 0801e710 f i ad_x86_32_clone.obj
 0001:0001d730       ??0immXF0Oper@@QAE@M@Z     0801e730 f i ad_x86_32_clone.obj
 0001:0001d750       ?constant@immXF0Oper@@UBEHXZ 0801e750 f i ad_x86_32_clone.obj
 0001:0001d770       ?opcode@eRegLOper@@UBEIXZ  0801e770 f i ad_x86_32_clone.obj
 0001:0001d780       ?base@directOper@@UBEHPAVPhaseRegAlloc@@PBVNode@@H@Z 0801e780 f i ad_x86_32_clone.obj
 0001:0001d790       ?disp@directOper@@UBEHPAVPhaseRegAlloc@@PBVNode@@H@Z 0801e790 f i ad_x86_32_clone.obj
 0001:0001d790       ?disp@indOffset32XOper@@UBEHPAVPhaseRegAlloc@@PBVNode@@H@Z 0801e790 f i ad_x86_32_clone.obj
 0001:0001d7a0       ?constant_is_oop@immPOper@@UBE_NXZ 0801e7a0 f i ad_x86_32_clone.obj
 0001:0001d7a0       ?disp_is_oop@directOper@@UBE_NXZ 0801e7a0 f i ad_x86_32_clone.obj
 0001:0001d7a0       ?constant_is_oop@immP0Oper@@UBE_NXZ 0801e7a0 f i ad_x86_32_clone.obj
 0001:0001d7a0       ?disp_is_oop@indOffset32XOper@@UBE_NXZ 0801e7a0 f i ad_x86_32_clone.obj
 0001:0001d7b0       ?disp@indIndexOper@@UBEHPAVPhaseRegAlloc@@PBVNode@@H@Z 0801e7b0 f i ad_x86_32_clone.obj
 0001:0001d7b0       ?base@MachOper@@UBEHPAVPhaseRegAlloc@@PBVNode@@H@Z 0801e7b0 f i machnode.obj
 0001:0001d7b0       ?index@MachOper@@UBEHPAVPhaseRegAlloc@@PBVNode@@H@Z 0801e7b0 f i machnode.obj
 0001:0001d7b0       ?allocation_limit_reached@Generation@@UAEPAVHeapWord@@PAVSpace@@PAV2@I@Z 0801e7b0 f i asParNewGeneration.obj
 0001:0001d7b0       ?disp@indIndexScale_win95_safeOper@@UBEHPAVPhaseRegAlloc@@PBVNode@@H@Z 0801e7b0 f i ad_x86_32.obj
 0001:0001d7b0       ?disp@indirect_win95_safeOper@@UBEHPAVPhaseRegAlloc@@PBVNode@@H@Z 0801e7b0 f i ad_x86_32.obj
 0001:0001d7b0       ?disp@indirectOper@@UBEHPAVPhaseRegAlloc@@PBVNode@@H@Z 0801e7b0 f i ad_x86_32_clone.obj
 0001:0001d7b0       ?disp@load_long_indirectOper@@UBEHPAVPhaseRegAlloc@@PBVNode@@H@Z 0801e7b0 f i ad_x86_32_clone.obj
 0001:0001d7b0       ?disp@MachOper@@UBEHPAVPhaseRegAlloc@@PBVNode@@H@Z 0801e7b0 f i machnode.obj
 0001:0001d7b0       ?disp@indIndexScaleOper@@UBEHPAVPhaseRegAlloc@@PBVNode@@H@Z 0801e7b0 f i ad_x86_32_clone.obj
 0001:0001d7c0       ?constant@immP0Oper@@UBEHXZ 0801e7c0 f i ad_x86_32_clone.obj
 0001:0001d7c0       ?constant@immPOper@@UBEHXZ 0801e7c0 f i ad_x86_32_clone.obj
 0001:0001d7c0       ?constant_disp@indOffset32XOper@@UBEHXZ 0801e7c0 f i ad_x86_32_clone.obj
 0001:0001d7c0       ?constant_disp@directOper@@UBEHXZ 0801e7c0 f i ad_x86_32_clone.obj
 0001:0001d7d0       ?index@indIndexOffsetOper@@UBEHPAVPhaseRegAlloc@@PBVNode@@H@Z 0801e7d0 f i ad_x86_32_clone.obj
 0001:0001d7d0       ?index@indIndexScale_win95_safeOper@@UBEHPAVPhaseRegAlloc@@PBVNode@@H@Z 0801e7d0 f i ad_x86_32.obj
 0001:0001d7d0       ?index@indIndexOffset_win95_safeOper@@UBEHPAVPhaseRegAlloc@@PBVNode@@H@Z 0801e7d0 f i ad_x86_32.obj
 0001:0001d7d0       ?index@indIndexScaleOffset_win95_safeOper@@UBEHPAVPhaseRegAlloc@@PBVNode@@H@Z 0801e7d0 f i ad_x86_32.obj
 0001:0001d7d0       ?index@indIndexScaleOper@@UBEHPAVPhaseRegAlloc@@PBVNode@@H@Z 0801e7d0 f i ad_x86_32_clone.obj
 0001:0001d7d0       ?index@indIndexScaleOffsetOper@@UBEHPAVPhaseRegAlloc@@PBVNode@@H@Z 0801e7d0 f i ad_x86_32_clone.obj
 0001:0001d7d0       ?index@indIndexOper@@UBEHPAVPhaseRegAlloc@@PBVNode@@H@Z 0801e7d0 f i ad_x86_32_clone.obj
 0001:0001d800       ?adr_type@membar_release_lockNode@@UBEPBVTypePtr@@XZ 0801e800 f i ad_x86_32.obj
 0001:0001d800       ?type@eAXRegPOper@@UBEPBVType@@XZ 0801e800 f i ad_x86_32_clone.obj
 0001:0001d800       ?adr_type@MergeMemNode@@UBEPBVTypePtr@@XZ 0801e800 f i memnode.obj
 0001:0001d800       ?type@indirect_win95_safeOper@@UBEPBVType@@XZ 0801e800 f i ad_x86_32.obj
 0001:0001d800       ?adr_type@membar_releaseNode@@UBEPBVTypePtr@@XZ 0801e800 f i ad_x86_32.obj
 0001:0001d800       ?type@eRegP_no_EBPOper@@UBEPBVType@@XZ 0801e800 f i ad_x86_32_clone.obj
 0001:0001d800       ?type@pRegPOper@@UBEPBVType@@XZ 0801e800 f i ad_x86_32_clone.obj
 0001:0001d800       ?type@eSIRegPOper@@UBEPBVType@@XZ 0801e800 f i ad_x86_32_clone.obj
 0001:0001d800       ?type@eRegPOper@@UBEPBVType@@XZ 0801e800 f i ad_x86_32_clone.obj
 0001:0001d800       ?type@eBXRegPOper@@UBEPBVType@@XZ 0801e800 f i ad_x86_32_clone.obj
 0001:0001d800       ?type@nabxRegPOper@@UBEPBVType@@XZ 0801e800 f i ad_x86_32_clone.obj
 0001:0001d800       ?adr_type@addF24_mem_ciscNode@@UBEPBVTypePtr@@XZ 0801e800 f i ad_x86_32.obj
 0001:0001d800       ?adr_type@membar_acquireNode@@UBEPBVTypePtr@@XZ 0801e800 f i ad_x86_32.obj
 0001:0001d800       ?adr_type@addF24_mem_memNode@@UBEPBVTypePtr@@XZ 0801e800 f i ad_x86_32.obj
 0001:0001d800       ?type@load_long_indirectOper@@UBEPBVType@@XZ 0801e800 f i ad_x86_32_clone.obj
 0001:0001d800       ?type@anyRegPOper@@UBEPBVType@@XZ 0801e800 f i ad_x86_32_clone.obj
 0001:0001d800       ?type@naxRegPOper@@UBEPBVType@@XZ 0801e800 f i ad_x86_32_clone.obj
 0001:0001d800       ?adr_type@StartNode@@UBEPBVTypePtr@@XZ 0801e800 f i compile.obj
 0001:0001d800       ?adr_type@addF24_mem_cisc_0Node@@UBEPBVTypePtr@@XZ 0801e800 f i ad_x86_32.obj
 0001:0001d800       ?type@eDIRegPOper@@UBEPBVType@@XZ 0801e800 f i ad_x86_32_clone.obj
 0001:0001d800       ?type@eCXRegPOper@@UBEPBVType@@XZ 0801e800 f i ad_x86_32_clone.obj
 0001:0001d800       ?type@stackSlotPOper@@UBEPBVType@@XZ 0801e800 f i ad_x86_32_clone.obj
 0001:0001d800       ?adr_type@mulF24_mem_memNode@@UBEPBVTypePtr@@XZ 0801e800 f i ad_x86_32.obj
 0001:0001d800       ?type@eBPRegPOper@@UBEPBVType@@XZ 0801e800 f i ad_x86_32_clone.obj
 0001:0001d800       ?type@indirectOper@@UBEPBVType@@XZ 0801e800 f i ad_x86_32_clone.obj
 0001:0001d800       ?type@load_long_RegPOper@@UBEPBVType@@XZ 0801e800 f i ad_x86_32_clone.obj
 0001:0001d800       ?adr_type@membar_acquire_lockNode@@UBEPBVTypePtr@@XZ 0801e800 f i ad_x86_32.obj
 0001:0001d810       ?disp@stackSlotPOper@@UBEHPAVPhaseRegAlloc@@PBVNode@@H@Z 0801e810 f i ad_x86_32_clone.obj
 0001:0001d810       ?disp@stackSlotIOper@@UBEHPAVPhaseRegAlloc@@PBVNode@@H@Z 0801e810 f i ad_x86_32_clone.obj
 0001:0001d810       ?disp@stackSlotLOper@@UBEHPAVPhaseRegAlloc@@PBVNode@@H@Z 0801e810 f i ad_x86_32_clone.obj
 0001:0001d810       ?disp@stackSlotFOper@@UBEHPAVPhaseRegAlloc@@PBVNode@@H@Z 0801e810 f i ad_x86_32_clone.obj
 0001:0001d810       ?disp@stackSlotDOper@@UBEHPAVPhaseRegAlloc@@PBVNode@@H@Z 0801e810 f i ad_x86_32_clone.obj
 0001:0001d860       ?index@indOffset32Oper@@UBEHPAVPhaseRegAlloc@@PBVNode@@H@Z 0801e860 f i ad_x86_32.obj
 0001:0001d860       ?index@indOffset32XOper@@UBEHPAVPhaseRegAlloc@@PBVNode@@H@Z 0801e860 f i ad_x86_32_clone.obj
 0001:0001d860       ?index@indirectOper@@UBEHPAVPhaseRegAlloc@@PBVNode@@H@Z 0801e860 f i ad_x86_32_clone.obj
 0001:0001d860       ?index@stackSlotLOper@@UBEHPAVPhaseRegAlloc@@PBVNode@@H@Z 0801e860 f i ad_x86_32_clone.obj
 0001:0001d860       ?base@stackSlotDOper@@UBEHPAVPhaseRegAlloc@@PBVNode@@H@Z 0801e860 f i ad_x86_32_clone.obj
 0001:0001d860       ?base@stackSlotFOper@@UBEHPAVPhaseRegAlloc@@PBVNode@@H@Z 0801e860 f i ad_x86_32_clone.obj
 0001:0001d860       ?index@indOffset8Oper@@UBEHPAVPhaseRegAlloc@@PBVNode@@H@Z 0801e860 f i ad_x86_32_clone.obj
 0001:0001d860       ?index@indOffset8_win95_safeOper@@UBEHPAVPhaseRegAlloc@@PBVNode@@H@Z 0801e860 f i ad_x86_32.obj
 0001:0001d860       ?base@stackSlotIOper@@UBEHPAVPhaseRegAlloc@@PBVNode@@H@Z 0801e860 f i ad_x86_32_clone.obj
 0001:0001d860       ?index@directOper@@UBEHPAVPhaseRegAlloc@@PBVNode@@H@Z 0801e860 f i ad_x86_32_clone.obj
 0001:0001d860       ?index@stackSlotDOper@@UBEHPAVPhaseRegAlloc@@PBVNode@@H@Z 0801e860 f i ad_x86_32_clone.obj
 0001:0001d860       ?index@stackSlotFOper@@UBEHPAVPhaseRegAlloc@@PBVNode@@H@Z 0801e860 f i ad_x86_32_clone.obj
 0001:0001d860       ?index@indirect_win95_safeOper@@UBEHPAVPhaseRegAlloc@@PBVNode@@H@Z 0801e860 f i ad_x86_32.obj
 0001:0001d860       ?index@load_long_indirectOper@@UBEHPAVPhaseRegAlloc@@PBVNode@@H@Z 0801e860 f i ad_x86_32_clone.obj
 0001:0001d860       ?index@stackSlotIOper@@UBEHPAVPhaseRegAlloc@@PBVNode@@H@Z 0801e860 f i ad_x86_32_clone.obj
 0001:0001d860       ?base@stackSlotLOper@@UBEHPAVPhaseRegAlloc@@PBVNode@@H@Z 0801e860 f i ad_x86_32_clone.obj
 0001:0001d860       ?index@indOffset32_win95_safeOper@@UBEHPAVPhaseRegAlloc@@PBVNode@@H@Z 0801e860 f i ad_x86_32.obj
 0001:0001d860       ?index@load_long_indOffset32Oper@@UBEHPAVPhaseRegAlloc@@PBVNode@@H@Z 0801e860 f i ad_x86_32_clone.obj
 0001:0001d860       ?base@stackSlotPOper@@UBEHPAVPhaseRegAlloc@@PBVNode@@H@Z 0801e860 f i ad_x86_32_clone.obj
 0001:0001d860       ?index@stackSlotPOper@@UBEHPAVPhaseRegAlloc@@PBVNode@@H@Z 0801e860 f i ad_x86_32_clone.obj
 0001:0001d870       ?constant_disp@stackSlotDOper@@UBEHXZ 0801e870 f i ad_x86_32_clone.obj
 0001:0001d870       ?constant_disp@stackSlotIOper@@UBEHXZ 0801e870 f i ad_x86_32_clone.obj
 0001:0001d870       ?constant_disp@stackSlotFOper@@UBEHXZ 0801e870 f i ad_x86_32_clone.obj
 0001:0001d870       ?constant_disp@stackSlotLOper@@UBEHXZ 0801e870 f i ad_x86_32_clone.obj
 0001:0001d870       ?constant_disp@stackSlotPOper@@UBEHXZ 0801e870 f i ad_x86_32_clone.obj
 0001:0001d880       ?ccode@cmpOpOper@@UBEHXZ   0801e880 f i ad_x86_32_clone.obj
 0001:0001d8f0       ?negate@cmpOpOper@@UAEXXZ  0801e8f0 f i ad_x86_32_clone.obj
 0001:0001d8f0       ?negate@cmpOpUOper@@UAEXXZ 0801e8f0 f i ad_x86_32_clone.obj
 0001:0001d8f0       ?negate@cmpOp_commuteOper@@UAEXXZ 0801e8f0 f i ad_x86_32_clone.obj
 0001:0001d8f0       ?negate@cmpOpUCFOper@@UAEXXZ 0801e8f0 f i ad_x86_32_clone.obj
 0001:0001d8f0       ?negate@cmpOp_fcmovOper@@UAEXXZ 0801e8f0 f i ad_x86_32_clone.obj
 0001:0001d8f0       ?negate@cmpOpUCF2Oper@@UAEXXZ 0801e8f0 f i ad_x86_32_clone.obj
 0001:0001d900       ?type@cmpOpOper@@UBEPBVType@@XZ 0801e900 f i ad_x86_32_clone.obj
 0001:0001d920       ?ccode@cmpOpUOper@@UBEHXZ  0801e920 f i ad_x86_32_clone.obj
 0001:0001d990       ?type@cmpOpUOper@@UBEPBVType@@XZ 0801e990 f i ad_x86_32_clone.obj
 0001:0001d9b0       ?ccode@cmpOpUCFOper@@UBEHXZ 0801e9b0 f i ad_x86_32_clone.obj
 0001:0001da20       ?type@cmpOpUCFOper@@UBEPBVType@@XZ 0801ea20 f i ad_x86_32_clone.obj
 0001:0001da40       ?ccode@cmpOpUCF2Oper@@UBEHXZ 0801ea40 f i ad_x86_32_clone.obj
 0001:0001dab0       ?type@cmpOpUCF2Oper@@UBEPBVType@@XZ 0801eab0 f i ad_x86_32_clone.obj
 0001:0001dad0       ?ccode@cmpOp_fcmovOper@@UBEHXZ 0801ead0 f i ad_x86_32_clone.obj
 0001:0001db40       ?type@cmpOp_fcmovOper@@UBEPBVType@@XZ 0801eb40 f i ad_x86_32_clone.obj
 0001:0001db60       ?ccode@cmpOp_commuteOper@@UBEHXZ 0801eb60 f i ad_x86_32_clone.obj
 0001:0001dbd0       ?type@cmpOp_commuteOper@@UBEPBVType@@XZ 0801ebd0 f i ad_x86_32_clone.obj
 0001:0001dbf0       ?opcode@immI2Oper@@UBEIXZ  0801ebf0 f i ad_x86_32_clone.obj
 0001:0001dbf0       ?type@breakpoint_Relocation@@EAE?AW4relocType@relocInfo@@XZ 0801ebf0 f i relocInfo.obj
 0001:0001dbf0       ?less@cmpOpOper@@UBEHXZ    0801ebf0 f i ad_x86_32_clone.obj
 0001:0001dbf0       ?greater@cmpOp_commuteOper@@UBEHXZ 0801ebf0 f i ad_x86_32_clone.obj
 0001:0001dc00       ?clone@UniverseOper@@UBEPAVMachOper@@PAVCompile@@@Z 0801ec00 f   ad_x86_32_clone.obj
 0001:0001dc40       ?clone@sRegIOper@@UBEPAVMachOper@@PAVCompile@@@Z 0801ec40 f   ad_x86_32_clone.obj
 0001:0001dc80       ?clone@sRegPOper@@UBEPAVMachOper@@PAVCompile@@@Z 0801ec80 f   ad_x86_32_clone.obj
 0001:0001dcc0       ?clone@sRegFOper@@UBEPAVMachOper@@PAVCompile@@@Z 0801ecc0 f   ad_x86_32_clone.obj
 0001:0001dd00       ?clone@sRegDOper@@UBEPAVMachOper@@PAVCompile@@@Z 0801ed00 f   ad_x86_32_clone.obj
 0001:0001dd40       ?clone@sRegLOper@@UBEPAVMachOper@@PAVCompile@@@Z 0801ed40 f   ad_x86_32_clone.obj
 0001:0001dd80       ?clone@immIOper@@UBEPAVMachOper@@PAVCompile@@@Z 0801ed80 f   ad_x86_32_clone.obj
 0001:0001ddd0       ?clone@immI0Oper@@UBEPAVMachOper@@PAVCompile@@@Z 0801edd0 f   ad_x86_32_clone.obj
 0001:0001de20       ?clone@immI1Oper@@UBEPAVMachOper@@PAVCompile@@@Z 0801ee20 f   ad_x86_32_clone.obj
 0001:0001de70       ?clone@immI_M1Oper@@UBEPAVMachOper@@PAVCompile@@@Z 0801ee70 f   ad_x86_32_clone.obj
 0001:0001dec0       ?clone@immI2Oper@@UBEPAVMachOper@@PAVCompile@@@Z 0801eec0 f   ad_x86_32_clone.obj
 0001:0001df10       ?clone@immI8Oper@@UBEPAVMachOper@@PAVCompile@@@Z 0801ef10 f   ad_x86_32_clone.obj
 0001:0001df60       ?clone@immI16Oper@@UBEPAVMachOper@@PAVCompile@@@Z 0801ef60 f   ad_x86_32_clone.obj
 0001:0001dfb0       ?clone@immI_32Oper@@UBEPAVMachOper@@PAVCompile@@@Z 0801efb0 f   ad_x86_32_clone.obj
 0001:0001e000       ?clone@immI_1_31Oper@@UBEPAVMachOper@@PAVCompile@@@Z 0801f000 f   ad_x86_32_clone.obj
 0001:0001e050       ?clone@immI_32_63Oper@@UBEPAVMachOper@@PAVCompile@@@Z 0801f050 f   ad_x86_32_clone.obj
 0001:0001e0a0       ?clone@immI_1Oper@@UBEPAVMachOper@@PAVCompile@@@Z 0801f0a0 f   ad_x86_32_clone.obj
 0001:0001e0f0       ?clone@immI_2Oper@@UBEPAVMachOper@@PAVCompile@@@Z 0801f0f0 f   ad_x86_32_clone.obj
 0001:0001e140       ?clone@immI_3Oper@@UBEPAVMachOper@@PAVCompile@@@Z 0801f140 f   ad_x86_32_clone.obj
 0001:0001e190       ?clone@immPOper@@UBEPAVMachOper@@PAVCompile@@@Z 0801f190 f   ad_x86_32_clone.obj
 0001:0001e1e0       ?clone@immP0Oper@@UBEPAVMachOper@@PAVCompile@@@Z 0801f1e0 f   ad_x86_32_clone.obj
 0001:0001e230       ?clone@immLOper@@UBEPAVMachOper@@PAVCompile@@@Z 0801f230 f   ad_x86_32_clone.obj
 0001:0001e280       ?clone@immL0Oper@@UBEPAVMachOper@@PAVCompile@@@Z 0801f280 f   ad_x86_32_clone.obj
 0001:0001e2d0       ?clone@immL_M1Oper@@UBEPAVMachOper@@PAVCompile@@@Z 0801f2d0 f   ad_x86_32_clone.obj
 0001:0001e320       ?clone@immL_127Oper@@UBEPAVMachOper@@PAVCompile@@@Z 0801f320 f   ad_x86_32_clone.obj
 0001:0001e370       ?clone@immL_32bitsOper@@UBEPAVMachOper@@PAVCompile@@@Z 0801f370 f   ad_x86_32_clone.obj
 0001:0001e3c0       ?clone@immL32Oper@@UBEPAVMachOper@@PAVCompile@@@Z 0801f3c0 f   ad_x86_32_clone.obj
 0001:0001e410       ?clone@immD0Oper@@UBEPAVMachOper@@PAVCompile@@@Z 0801f410 f   ad_x86_32_clone.obj
 0001:0001e460       ?clone@immD1Oper@@UBEPAVMachOper@@PAVCompile@@@Z 0801f460 f   ad_x86_32_clone.obj
 0001:0001e4b0       ?clone@immDOper@@UBEPAVMachOper@@PAVCompile@@@Z 0801f4b0 f   ad_x86_32_clone.obj
 0001:0001e500       ?clone@immXDOper@@UBEPAVMachOper@@PAVCompile@@@Z 0801f500 f   ad_x86_32_clone.obj
 0001:0001e550       ?clone@immXD0Oper@@UBEPAVMachOper@@PAVCompile@@@Z 0801f550 f   ad_x86_32_clone.obj
 0001:0001e5a0       ?clone@immF0Oper@@UBEPAVMachOper@@PAVCompile@@@Z 0801f5a0 f   ad_x86_32_clone.obj
 0001:0001e5f0       ?clone@immFOper@@UBEPAVMachOper@@PAVCompile@@@Z 0801f5f0 f   ad_x86_32_clone.obj
 0001:0001e640       ?clone@immXFOper@@UBEPAVMachOper@@PAVCompile@@@Z 0801f640 f   ad_x86_32_clone.obj
 0001:0001e690       ?clone@immXF0Oper@@UBEPAVMachOper@@PAVCompile@@@Z 0801f690 f   ad_x86_32_clone.obj
 0001:0001e6e0       ?clone@immI_16Oper@@UBEPAVMachOper@@PAVCompile@@@Z 0801f6e0 f   ad_x86_32_clone.obj
 0001:0001e730       ?clone@immI_24Oper@@UBEPAVMachOper@@PAVCompile@@@Z 0801f730 f   ad_x86_32_clone.obj
 0001:0001e780       ?clone@immI_255Oper@@UBEPAVMachOper@@PAVCompile@@@Z 0801f780 f   ad_x86_32_clone.obj
 0001:0001e7d0       ?clone@immI_65535Oper@@UBEPAVMachOper@@PAVCompile@@@Z 0801f7d0 f   ad_x86_32_clone.obj
 0001:0001e820       ?clone@eRegIOper@@UBEPAVMachOper@@PAVCompile@@@Z 0801f820 f   ad_x86_32_clone.obj
 0001:0001e860       ?clone@xRegIOper@@UBEPAVMachOper@@PAVCompile@@@Z 0801f860 f   ad_x86_32_clone.obj
 0001:0001e8a0       ?clone@eAXRegIOper@@UBEPAVMachOper@@PAVCompile@@@Z 0801f8a0 f   ad_x86_32_clone.obj
 0001:0001e8e0       ?clone@eBXRegIOper@@UBEPAVMachOper@@PAVCompile@@@Z 0801f8e0 f   ad_x86_32_clone.obj
 0001:0001e920       ?clone@eCXRegIOper@@UBEPAVMachOper@@PAVCompile@@@Z 0801f920 f   ad_x86_32_clone.obj
 0001:0001e960       ?clone@eDXRegIOper@@UBEPAVMachOper@@PAVCompile@@@Z 0801f960 f   ad_x86_32_clone.obj
 0001:0001e9a0       ?clone@eDIRegIOper@@UBEPAVMachOper@@PAVCompile@@@Z 0801f9a0 f   ad_x86_32_clone.obj
 0001:0001e9e0       ?clone@naxRegIOper@@UBEPAVMachOper@@PAVCompile@@@Z 0801f9e0 f   ad_x86_32_clone.obj
 0001:0001ea20       ?clone@nadxRegIOper@@UBEPAVMachOper@@PAVCompile@@@Z 0801fa20 f   ad_x86_32_clone.obj
 0001:0001ea60       ?clone@ncxRegIOper@@UBEPAVMachOper@@PAVCompile@@@Z 0801fa60 f   ad_x86_32_clone.obj
 0001:0001eaa0       ?clone@eSIRegIOper@@UBEPAVMachOper@@PAVCompile@@@Z 0801faa0 f   ad_x86_32_clone.obj
 0001:0001eae0       ?clone@anyRegPOper@@UBEPAVMachOper@@PAVCompile@@@Z 0801fae0 f   ad_x86_32_clone.obj
 0001:0001eb20       ?clone@eRegPOper@@UBEPAVMachOper@@PAVCompile@@@Z 0801fb20 f   ad_x86_32_clone.obj
 0001:0001eb60       ?clone@eRegP_no_EBPOper@@UBEPAVMachOper@@PAVCompile@@@Z 0801fb60 f   ad_x86_32_clone.obj
 0001:0001eba0       ?clone@naxRegPOper@@UBEPAVMachOper@@PAVCompile@@@Z 0801fba0 f   ad_x86_32_clone.obj
 0001:0001ebe0       ?clone@nabxRegPOper@@UBEPAVMachOper@@PAVCompile@@@Z 0801fbe0 f   ad_x86_32_clone.obj
 0001:0001ec20       ?clone@pRegPOper@@UBEPAVMachOper@@PAVCompile@@@Z 0801fc20 f   ad_x86_32_clone.obj
 0001:0001ec60       ?clone@eAXRegPOper@@UBEPAVMachOper@@PAVCompile@@@Z 0801fc60 f   ad_x86_32_clone.obj
 0001:0001eca0       ?clone@eBXRegPOper@@UBEPAVMachOper@@PAVCompile@@@Z 0801fca0 f   ad_x86_32_clone.obj
 0001:0001ece0       ?clone@eCXRegPOper@@UBEPAVMachOper@@PAVCompile@@@Z 0801fce0 f   ad_x86_32_clone.obj
 0001:0001ed20       ?clone@eSIRegPOper@@UBEPAVMachOper@@PAVCompile@@@Z 0801fd20 f   ad_x86_32_clone.obj
 0001:0001ed60       ?clone@eDIRegPOper@@UBEPAVMachOper@@PAVCompile@@@Z 0801fd60 f   ad_x86_32_clone.obj
 0001:0001eda0       ?clone@eBPRegPOper@@UBEPAVMachOper@@PAVCompile@@@Z 0801fda0 f   ad_x86_32_clone.obj
 0001:0001ede0       ?clone@eRegLOper@@UBEPAVMachOper@@PAVCompile@@@Z 0801fde0 f   ad_x86_32_clone.obj
 0001:0001ee20       ?clone@eADXRegLOper@@UBEPAVMachOper@@PAVCompile@@@Z 0801fe20 f   ad_x86_32_clone.obj
 0001:0001ee60       ?clone@eBCXRegLOper@@UBEPAVMachOper@@PAVCompile@@@Z 0801fe60 f   ad_x86_32_clone.obj
 0001:0001eea0       ?clone@eADXRegL_low_onlyOper@@UBEPAVMachOper@@PAVCompile@@@Z 0801fea0 f   ad_x86_32_clone.obj
 0001:0001eee0       ?clone@eFlagsRegOper@@UBEPAVMachOper@@PAVCompile@@@Z 0801fee0 f   ad_x86_32_clone.obj
 0001:0001ef20       ?clone@eFlagsRegUOper@@UBEPAVMachOper@@PAVCompile@@@Z 0801ff20 f   ad_x86_32_clone.obj
 0001:0001ef60       ?clone@eFlagsRegUCFOper@@UBEPAVMachOper@@PAVCompile@@@Z 0801ff60 f   ad_x86_32_clone.obj
 0001:0001efa0       ?clone@flagsReg_long_LTGEOper@@UBEPAVMachOper@@PAVCompile@@@Z 0801ffa0 f   ad_x86_32_clone.obj
 0001:0001efe0       ?clone@flagsReg_long_EQNEOper@@UBEPAVMachOper@@PAVCompile@@@Z 0801ffe0 f   ad_x86_32_clone.obj
 0001:0001f020       ?clone@flagsReg_long_LEGTOper@@UBEPAVMachOper@@PAVCompile@@@Z 08020020 f   ad_x86_32_clone.obj
 0001:0001f060       ?clone@regDOper@@UBEPAVMachOper@@PAVCompile@@@Z 08020060 f   ad_x86_32_clone.obj
 0001:0001f0a0       ?clone@regDPR1Oper@@UBEPAVMachOper@@PAVCompile@@@Z 080200a0 f   ad_x86_32_clone.obj
 0001:0001f0e0       ?clone@regDPR2Oper@@UBEPAVMachOper@@PAVCompile@@@Z 080200e0 f   ad_x86_32_clone.obj
 0001:0001f120       ?clone@regnotDPR1Oper@@UBEPAVMachOper@@PAVCompile@@@Z 08020120 f   ad_x86_32_clone.obj
 0001:0001f160       ?clone@regXDOper@@UBEPAVMachOper@@PAVCompile@@@Z 08020160 f   ad_x86_32_clone.obj
 0001:0001f1a0       ?clone@regXD6Oper@@UBEPAVMachOper@@PAVCompile@@@Z 080201a0 f   ad_x86_32_clone.obj
 0001:0001f1e0       ?clone@regXD7Oper@@UBEPAVMachOper@@PAVCompile@@@Z 080201e0 f   ad_x86_32_clone.obj
 0001:0001f220       ?clone@regFOper@@UBEPAVMachOper@@PAVCompile@@@Z 08020220 f   ad_x86_32_clone.obj
 0001:0001f260       ?clone@regFPR1Oper@@UBEPAVMachOper@@PAVCompile@@@Z 08020260 f   ad_x86_32_clone.obj
 0001:0001f2a0       ?clone@regXOper@@UBEPAVMachOper@@PAVCompile@@@Z 080202a0 f   ad_x86_32_clone.obj
 0001:0001f2e0       ?clone@directOper@@UBEPAVMachOper@@PAVCompile@@@Z 080202e0 f   ad_x86_32_clone.obj
 0001:0001f330       ?clone@indirectOper@@UBEPAVMachOper@@PAVCompile@@@Z 08020330 f   ad_x86_32_clone.obj
 0001:0001f370       ?clone@indOffset8Oper@@UBEPAVMachOper@@PAVCompile@@@Z 08020370 f   ad_x86_32_clone.obj
 0001:0001f3c0       ?clone@indOffset32Oper@@UBEPAVMachOper@@PAVCompile@@@Z 080203c0 f   ad_x86_32_clone.obj
 0001:0001f410       ?clone@indOffset32XOper@@UBEPAVMachOper@@PAVCompile@@@Z 08020410 f   ad_x86_32_clone.obj
 0001:0001f460       ?clone@indIndexOffsetOper@@UBEPAVMachOper@@PAVCompile@@@Z 08020460 f   ad_x86_32_clone.obj
 0001:0001f4b0       ?clone@indIndexOper@@UBEPAVMachOper@@PAVCompile@@@Z 080204b0 f   ad_x86_32_clone.obj
 0001:0001f4f0       ?clone@indIndexScaleOper@@UBEPAVMachOper@@PAVCompile@@@Z 080204f0 f   ad_x86_32_clone.obj
 0001:0001f540       ?clone@indIndexScaleOffsetOper@@UBEPAVMachOper@@PAVCompile@@@Z 08020540 f   ad_x86_32_clone.obj
 0001:0001f590       ?clone@load_long_RegPOper@@UBEPAVMachOper@@PAVCompile@@@Z 08020590 f   ad_x86_32_clone.obj
 0001:0001f5d0       ?clone@load_long_indirectOper@@UBEPAVMachOper@@PAVCompile@@@Z 080205d0 f   ad_x86_32_clone.obj
 0001:0001f610       ?clone@load_long_indOffset32Oper@@UBEPAVMachOper@@PAVCompile@@@Z 08020610 f   ad_x86_32_clone.obj
 0001:0001f660       ?clone@stackSlotPOper@@UBEPAVMachOper@@PAVCompile@@@Z 08020660 f   ad_x86_32_clone.obj
 0001:0001f6a0       ?clone@stackSlotIOper@@UBEPAVMachOper@@PAVCompile@@@Z 080206a0 f   ad_x86_32_clone.obj
 0001:0001f6e0       ?clone@stackSlotFOper@@UBEPAVMachOper@@PAVCompile@@@Z 080206e0 f   ad_x86_32_clone.obj
 0001:0001f720       ?clone@stackSlotDOper@@UBEPAVMachOper@@PAVCompile@@@Z 08020720 f   ad_x86_32_clone.obj
 0001:0001f760       ?clone@stackSlotLOper@@UBEPAVMachOper@@PAVCompile@@@Z 08020760 f   ad_x86_32_clone.obj
 0001:0001f7a0       ?clone@indirect_win95_safeOper@@UBEPAVMachOper@@PAVCompile@@@Z 080207a0 f   ad_x86_32_clone.obj
 0001:0001f7e0       ?clone@indOffset8_win95_safeOper@@UBEPAVMachOper@@PAVCompile@@@Z 080207e0 f   ad_x86_32_clone.obj
 0001:0001f830       ?clone@indOffset32_win95_safeOper@@UBEPAVMachOper@@PAVCompile@@@Z 08020830 f   ad_x86_32_clone.obj
 0001:0001f880       ?clone@indIndexOffset_win95_safeOper@@UBEPAVMachOper@@PAVCompile@@@Z 08020880 f   ad_x86_32_clone.obj
 0001:0001f8d0       ?clone@indIndexScale_win95_safeOper@@UBEPAVMachOper@@PAVCompile@@@Z 080208d0 f   ad_x86_32_clone.obj
 0001:0001f920       ?clone@indIndexScaleOffset_win95_safeOper@@UBEPAVMachOper@@PAVCompile@@@Z 08020920 f   ad_x86_32_clone.obj
 0001:0001f970       ?clone@cmpOpOper@@UBEPAVMachOper@@PAVCompile@@@Z 08020970 f   ad_x86_32_clone.obj
 0001:0001f9c0       ?clone@cmpOpUOper@@UBEPAVMachOper@@PAVCompile@@@Z 080209c0 f   ad_x86_32_clone.obj
 0001:0001fa10       ?clone@cmpOpUCFOper@@UBEPAVMachOper@@PAVCompile@@@Z 08020a10 f   ad_x86_32_clone.obj
 0001:0001fa60       ?clone@cmpOpUCF2Oper@@UBEPAVMachOper@@PAVCompile@@@Z 08020a60 f   ad_x86_32_clone.obj
 0001:0001fab0       ?clone@cmpOp_fcmovOper@@UBEPAVMachOper@@PAVCompile@@@Z 08020ab0 f   ad_x86_32_clone.obj
 0001:0001fb00       ?clone@cmpOp_commuteOper@@UBEPAVMachOper@@PAVCompile@@@Z 08020b00 f   ad_x86_32_clone.obj
 0001:0001fb50       ?reg@sRegPOper@@UBEHPAVPhaseRegAlloc@@PBVNode@@@Z 08020b50 f i ad_x86_32_clone.obj
 0001:0001fb50       ?reg@sRegIOper@@UBEHPAVPhaseRegAlloc@@PBVNode@@@Z 08020b50 f i ad_x86_32_clone.obj
 0001:0001fb50       ?reg@sRegDOper@@UBEHPAVPhaseRegAlloc@@PBVNode@@@Z 08020b50 f i ad_x86_32_clone.obj
 0001:0001fb50       ?reg@sRegFOper@@UBEHPAVPhaseRegAlloc@@PBVNode@@@Z 08020b50 f i ad_x86_32_clone.obj
 0001:0001fb50       ?reg@sRegLOper@@UBEHPAVPhaseRegAlloc@@PBVNode@@@Z 08020b50 f i ad_x86_32_clone.obj
 0001:0001fb70       ?reg@sRegDOper@@UBEHPAVPhaseRegAlloc@@PBVNode@@H@Z 08020b70 f i ad_x86_32_clone.obj
 0001:0001fb70       ?reg@sRegLOper@@UBEHPAVPhaseRegAlloc@@PBVNode@@H@Z 08020b70 f i ad_x86_32_clone.obj
 0001:0001fb70       ?reg@sRegFOper@@UBEHPAVPhaseRegAlloc@@PBVNode@@H@Z 08020b70 f i ad_x86_32_clone.obj
 0001:0001fb70       ?reg@sRegIOper@@UBEHPAVPhaseRegAlloc@@PBVNode@@H@Z 08020b70 f i ad_x86_32_clone.obj
 0001:0001fb70       ?reg@sRegPOper@@UBEHPAVPhaseRegAlloc@@PBVNode@@H@Z 08020b70 f i ad_x86_32_clone.obj
 0001:0001fba0       ??2Node@@SAPAXIPAVCompile@@H@Z 08020ba0 f i ad_x86_32_expand.obj
 0001:0001fbf0       ?map@Node_Array@@QAEXIPAVNode@@@Z 08020bf0 f i ad_x86_32_expand.obj
 0001:0001fc30       ?push@Node_List@@QAEXPAVNode@@@Z 08020c30 f i ad_x86_32_expand.obj
 0001:0001fc70       ??0MachProjNode@@QAE@PAVNode@@IABVRegMask@@I@Z 08020c70 f i ad_x86_32_expand.obj
 0001:0001fce0       ?out_RegMask@MachProjNode@@UBEABVRegMask@@XZ 08020ce0 f i ad_x86_32_expand.obj
 0001:0001fcf0       ?ideal_reg@MachProjNode@@UBEIXZ 08020cf0 f i ad_x86_32_expand.obj
 0001:0001fcf0       ?cisc_RegMask@cmovI_regUNode@@EBEPBVRegMask@@XZ 08020cf0 f i ad_x86_32_expand.obj
 0001:0001fcf0       ?cisc_RegMask@cmovLL_reg_LTGENode@@EBEPBVRegMask@@XZ 08020cf0 f i ad_x86_32_gen.obj
 0001:0001fcf0       ?cisc_RegMask@cmovLL_reg_LEGTNode@@EBEPBVRegMask@@XZ 08020cf0 f i ad_x86_32_gen.obj
 0001:0001fcf0       ?cisc_RegMask@cmovII_reg_LEGTNode@@EBEPBVRegMask@@XZ 08020cf0 f i ad_x86_32_gen.obj
 0001:0001fcf0       ?cisc_RegMask@cmovI_regUCFNode@@EBEPBVRegMask@@XZ 08020cf0 f i ad_x86_32_gen.obj
 0001:0001fcf0       ?cisc_RegMask@cmovI_regNode@@EBEPBVRegMask@@XZ 08020cf0 f i ad_x86_32_gen.obj
 0001:0001fcf0       ?cisc_RegMask@cmovLL_reg_EQNENode@@EBEPBVRegMask@@XZ 08020cf0 f i ad_x86_32_gen.obj
 0001:0001fcf0       ?cisc_RegMask@cmovII_reg_EQNENode@@EBEPBVRegMask@@XZ 08020cf0 f i ad_x86_32_gen.obj
 0001:0001fcf0       ?cisc_RegMask@cmovII_reg_LTGENode@@EBEPBVRegMask@@XZ 08020cf0 f i ad_x86_32_gen.obj
 0001:0001fd00       ?out_RegMask@MachTempNode@@UBEABVRegMask@@XZ 08020d00 f i ad_x86_32_expand.obj
 0001:0001fd10       ?rule@MachIdealNode@@UBEIXZ 08020d10 f i ad_x86_32_pipeline.obj
 0001:0001fd10       ?rule@MachTempNode@@UBEIXZ 08020d10 f i ad_x86_32_expand.obj
 0001:0001fd20       ??0cmovI_regUNode@@QAE@XZ  08020d20 f i ad_x86_32_expand.obj
 0001:0001fd50       ?rule@cmovI_regUNode@@EBEIXZ 08020d50 f i ad_x86_32_expand.obj
 0001:0001fd60       ??0cmovP_regUNode@@QAE@XZ  08020d60 f i ad_x86_32_expand.obj
 0001:0001fd90       ?rule@cmovP_regUNode@@EBEIXZ 08020d90 f i ad_x86_32_expand.obj
 0001:0001fda0       ?bottom_type@cmovP_regUNode@@UBEPBVType@@XZ 08020da0 f i ad_x86_32_expand.obj
 0001:0001fda0       ?bottom_type@cmovPP_reg_LTGENode@@UBEPBVType@@XZ 08020da0 f i ad_x86_32_gen.obj
 0001:0001fda0       ?bottom_type@cmovP_reg_nonP6Node@@UBEPBVType@@XZ 08020da0 f i ad_x86_32_gen.obj
 0001:0001fda0       ?bottom_type@cmovPP_reg_LEGTNode@@UBEPBVType@@XZ 08020da0 f i ad_x86_32_gen.obj
 0001:0001fda0       ?bottom_type@cmovPP_reg_EQNENode@@UBEPBVType@@XZ 08020da0 f i ad_x86_32_gen.obj
 0001:0001fda0       ?bottom_type@cmovP_regNode@@UBEPBVType@@XZ 08020da0 f i ad_x86_32_gen.obj
 0001:0001fda0       ?bottom_type@cmovP_regUCFNode@@UBEPBVType@@XZ 08020da0 f i ad_x86_32_gen.obj
 0001:0001fe00       ??0fcmovD_regSNode@@QAE@XZ 08020e00 f i ad_x86_32_expand.obj
 0001:0001fe30       ?rule@fcmovD_regSNode@@EBEIXZ 08020e30 f i ad_x86_32_expand.obj
 0001:0001fe40       ??0fcmovF_regSNode@@QAE@XZ 08020e40 f i ad_x86_32_expand.obj
 0001:0001fe70       ?rule@fcmovF_regSNode@@EBEIXZ 08020e70 f i ad_x86_32_expand.obj
 0001:0001fe80       ??0fcmovX_regSNode@@QAE@XZ 08020e80 f i ad_x86_32_expand.obj
 0001:0001feb0       ?rule@fcmovX_regSNode@@EBEIXZ 08020eb0 f i ad_x86_32_expand.obj
 0001:0001fec0       ??0fcmovXD_regSNode@@QAE@XZ 08020ec0 f i ad_x86_32_expand.obj
 0001:0001fef0       ?rule@fcmovXD_regSNode@@EBEIXZ 08020ef0 f i ad_x86_32_expand.obj
 0001:0001ff00       ??0fcmovX_regUNode@@QAE@XZ 08020f00 f i ad_x86_32_expand.obj
 0001:0001ff30       ?rule@fcmovX_regUNode@@EBEIXZ 08020f30 f i ad_x86_32_expand.obj
 0001:0001ff40       ??0fcmovXD_regUNode@@QAE@XZ 08020f40 f i ad_x86_32_expand.obj
 0001:0001ff70       ?rule@fcmovXD_regUNode@@EBEIXZ 08020f70 f i ad_x86_32_expand.obj
 0001:0001ff70       ?greater_equal@cmpOp_fcmovOper@@UBEHXZ 08020f70 f i ad_x86_32_clone.obj
 0001:0001ff80       ??0cmovL_regUNode@@QAE@XZ  08020f80 f i ad_x86_32_expand.obj
 0001:0001ffb0       ?rule@cmovL_regUNode@@EBEIXZ 08020fb0 f i ad_x86_32_expand.obj
 0001:0001ffc0       ?rule@rolI_eReg_imm1Node@@EBEIXZ 08020fc0 f i ad_x86_32_expand.obj
 0001:0001ffd0       ?rule@rolI_eReg_imm8Node@@EBEIXZ 08020fd0 f i ad_x86_32_expand.obj
 0001:0001ffe0       ?rule@rolI_eReg_CLNode@@EBEIXZ 08020fe0 f i ad_x86_32_expand.obj
 0001:0001fff0       ?rule@rorI_eReg_imm1Node@@EBEIXZ 08020ff0 f i ad_x86_32_expand.obj
 0001:00020000       ?rule@rorI_eReg_imm8Node@@EBEIXZ 08021000 f i ad_x86_32_expand.obj
 0001:00020010       ?rule@rorI_eReg_CLNode@@EBEIXZ 08021010 f i ad_x86_32_expand.obj
 0001:00020020       ?rule@ci2bNode@@EBEIXZ     08021020 f i ad_x86_32_expand.obj
 0001:00020030       ?rule@cp2bNode@@EBEIXZ     08021030 f i ad_x86_32_expand.obj
 0001:00020040       ??0roundFloat_mem_regNode@@QAE@XZ 08021040 f i ad_x86_32_expand.obj
 0001:00020070       ?rule@roundFloat_mem_regNode@@EBEIXZ 08021070 f i ad_x86_32_expand.obj
 0001:00020080       ??0roundDouble_mem_regNode@@QAE@XZ 08021080 f i ad_x86_32_expand.obj
 0001:000200b0       ?rule@roundDouble_mem_regNode@@EBEIXZ 080210b0 f i ad_x86_32_expand.obj
 0001:000200c0       ??0jmpConNode@@QAE@XZ      080210c0 f i ad_x86_32_expand.obj
 0001:000200f0       ?rule@jmpConNode@@EBEIXZ   080210f0 f i ad_x86_32_expand.obj
 0001:00020100       ?rule@tlsLoadP_prefixLoadPNode@@EBEIXZ 08021100 f i ad_x86_32_expand.obj
 0001:00020110       ?rule@tlsLoadPNode@@EBEIXZ 08021110 f i ad_x86_32_expand.obj
 0001:00020120       ?set_req@Node@@QAEXIPAV1@@Z 08021120 f i ad_x86_32_expand.obj
 0001:00020190       ?Expand@countTrailingZerosLNode@@UAEPAVMachNode@@PAVState@@AAVNode_List@@PAVNode@@@Z 08021190 f   ad_x86_32_expand.obj
 0001:00020190       ?Expand@countLeadingZerosL_bsrNode@@UAEPAVMachNode@@PAVState@@AAVNode_List@@PAVNode@@@Z 08021190 f   ad_x86_32_expand.obj
 0001:00020190       ?Expand@countLeadingZerosLNode@@UAEPAVMachNode@@PAVState@@AAVNode_List@@PAVNode@@@Z 08021190 f   ad_x86_32_expand.obj
 0001:000202e0       ?Expand@popCountL_memNode@@UAEPAVMachNode@@PAVState@@AAVNode_List@@PAVNode@@@Z 080212e0 f   ad_x86_32_expand.obj
 0001:000202e0       ?Expand@popCountLNode@@UAEPAVMachNode@@PAVState@@AAVNode_List@@PAVNode@@@Z 080212e0 f   ad_x86_32_expand.obj
 0001:000204b0       ?Expand@loadS2BNode@@UAEPAVMachNode@@PAVState@@AAVNode_List@@PAVNode@@@Z 080214b0 f   ad_x86_32_expand.obj
 0001:000204b0       ?Expand@i2sNode@@UAEPAVMachNode@@PAVState@@AAVNode_List@@PAVNode@@@Z 080214b0 f   ad_x86_32_expand.obj
 0001:000204b0       ?Expand@loadI2BNode@@UAEPAVMachNode@@PAVState@@AAVNode_List@@PAVNode@@@Z 080214b0 f   ad_x86_32_expand.obj
 0001:000204b0       ?Expand@loadUS2BNode@@UAEPAVMachNode@@PAVState@@AAVNode_List@@PAVNode@@@Z 080214b0 f   ad_x86_32_expand.obj
 0001:000204b0       ?Expand@i2bNode@@UAEPAVMachNode@@PAVState@@AAVNode_List@@PAVNode@@@Z 080214b0 f   ad_x86_32_expand.obj
 0001:000204b0       ?Expand@loadI2SNode@@UAEPAVMachNode@@PAVState@@AAVNode_List@@PAVNode@@@Z 080214b0 f   ad_x86_32_expand.obj
 0001:00020530       ?Expand@storeLX_volatileNode@@UAEPAVMachNode@@PAVState@@AAVNode_List@@PAVNode@@@Z 08021530 f   ad_x86_32_expand.obj
 0001:00020680       ?Expand@storeLX_reg_volatileNode@@UAEPAVMachNode@@PAVState@@AAVNode_List@@PAVNode@@@Z 08021680 f   ad_x86_32_expand.obj
 0001:00020850       ?Expand@cmovI_regUCFNode@@UAEPAVMachNode@@PAVState@@AAVNode_List@@PAVNode@@@Z 08021850 f   ad_x86_32_expand.obj
 0001:00020a60       ?Expand@cmovI_memUCFNode@@UAEPAVMachNode@@PAVState@@AAVNode_List@@PAVNode@@@Z 08021a60 f   ad_x86_32_expand.obj
 0001:00020c90       ?Expand@cmovP_regUCFNode@@UAEPAVMachNode@@PAVState@@AAVNode_List@@PAVNode@@@Z 08021c90 f   ad_x86_32_expand.obj
 0001:00020e90       ?Expand@fcmovX_regUCFNode@@UAEPAVMachNode@@PAVState@@AAVNode_List@@PAVNode@@@Z 08021e90 f   ad_x86_32_expand.obj
 0001:00021090       ?Expand@fcmovXD_regUCFNode@@UAEPAVMachNode@@PAVState@@AAVNode_List@@PAVNode@@@Z 08022090 f   ad_x86_32_expand.obj
 0001:00021290       ?Expand@cmovL_regUCFNode@@UAEPAVMachNode@@PAVState@@AAVNode_List@@PAVNode@@@Z 08022290 f   ad_x86_32_expand.obj
 0001:00021490       ?Expand@addI_mem_eRegNode@@UAEPAVMachNode@@PAVState@@AAVNode_List@@PAVNode@@@Z 08022490 f   ad_x86_32_expand.obj
 0001:00021490       ?Expand@sarI_mem_1Node@@UAEPAVMachNode@@PAVState@@AAVNode_List@@PAVNode@@@Z 08022490 f   ad_x86_32_expand.obj
 0001:00021490       ?Expand@sarI_mem_immNode@@UAEPAVMachNode@@PAVState@@AAVNode_List@@PAVNode@@@Z 08022490 f   ad_x86_32_expand.obj
 0001:00021490       ?Expand@subI_mem_eRegNode@@UAEPAVMachNode@@PAVState@@AAVNode_List@@PAVNode@@@Z 08022490 f   ad_x86_32_expand.obj
 0001:00021490       ?Expand@andI_mem_immNode@@UAEPAVMachNode@@PAVState@@AAVNode_List@@PAVNode@@@Z 08022490 f   ad_x86_32_expand.obj
 0001:00021490       ?Expand@incI_memNode@@UAEPAVMachNode@@PAVState@@AAVNode_List@@PAVNode@@@Z 08022490 f   ad_x86_32_expand.obj
 0001:00021490       ?Expand@andI_mem_eRegNode@@UAEPAVMachNode@@PAVState@@AAVNode_List@@PAVNode@@@Z 08022490 f   ad_x86_32_expand.obj
 0001:00021490       ?Expand@decI_memNode@@UAEPAVMachNode@@PAVState@@AAVNode_List@@PAVNode@@@Z 08022490 f   ad_x86_32_expand.obj
 0001:00021490       ?Expand@orI_mem_eRegNode@@UAEPAVMachNode@@PAVState@@AAVNode_List@@PAVNode@@@Z 08022490 f   ad_x86_32_expand.obj
 0001:00021490       ?Expand@xorI_mem_immNode@@UAEPAVMachNode@@PAVState@@AAVNode_List@@PAVNode@@@Z 08022490 f   ad_x86_32_expand.obj
 0001:00021490       ?Expand@xorI_mem_eRegNode@@UAEPAVMachNode@@PAVState@@AAVNode_List@@PAVNode@@@Z 08022490 f   ad_x86_32_expand.obj
 0001:00021490       ?Expand@addI_mem_immNode@@UAEPAVMachNode@@PAVState@@AAVNode_List@@PAVNode@@@Z 08022490 f   ad_x86_32_expand.obj
 0001:00021490       ?Expand@orI_mem_immNode@@UAEPAVMachNode@@PAVState@@AAVNode_List@@PAVNode@@@Z 08022490 f   ad_x86_32_expand.obj
 0001:00021610       ?Expand@loadLX_LockedNode@@UAEPAVMachNode@@PAVState@@AAVNode_List@@PAVNode@@@Z 08022610 f   ad_x86_32_expand.obj
 0001:00021610       ?Expand@loadLX_volatileNode@@UAEPAVMachNode@@PAVState@@AAVNode_List@@PAVNode@@@Z 08022610 f   ad_x86_32_expand.obj
 0001:00021610       ?Expand@loadLX_reg_LockedNode@@UAEPAVMachNode@@PAVState@@AAVNode_List@@PAVNode@@@Z 08022610 f   ad_x86_32_expand.obj
 0001:00021610       ?Expand@loadLX_reg_volatileNode@@UAEPAVMachNode@@PAVState@@AAVNode_List@@PAVNode@@@Z 08022610 f   ad_x86_32_expand.obj
 0001:00021610       ?Expand@MoveD2L_reg_reg_sseNode@@UAEPAVMachNode@@PAVState@@AAVNode_List@@PAVNode@@@Z 08022610 f   ad_x86_32_expand.obj
 0001:000216c0       ?Expand@cmpX_ccNode@@UAEPAVMachNode@@PAVState@@AAVNode_List@@PAVNode@@@Z 080226c0 f   ad_x86_32_expand.obj
 0001:000216c0       ?Expand@cmpD_cc_P6Node@@UAEPAVMachNode@@PAVState@@AAVNode_List@@PAVNode@@@Z 080226c0 f   ad_x86_32_expand.obj
 0001:000216c0       ?Expand@cmpD_ccNode@@UAEPAVMachNode@@PAVState@@AAVNode_List@@PAVNode@@@Z 080226c0 f   ad_x86_32_expand.obj
 0001:000216c0       ?Expand@cmpF_ccNode@@UAEPAVMachNode@@PAVState@@AAVNode_List@@PAVNode@@@Z 080226c0 f   ad_x86_32_expand.obj
 0001:000216c0       ?Expand@cmpXD_ccmemNode@@UAEPAVMachNode@@PAVState@@AAVNode_List@@PAVNode@@@Z 080226c0 f   ad_x86_32_expand.obj
 0001:000216c0       ?Expand@cmpXD_ccNode@@UAEPAVMachNode@@PAVState@@AAVNode_List@@PAVNode@@@Z 080226c0 f   ad_x86_32_expand.obj
 0001:000216c0       ?Expand@cmpF_cc_P6Node@@UAEPAVMachNode@@PAVState@@AAVNode_List@@PAVNode@@@Z 080226c0 f   ad_x86_32_expand.obj
 0001:000216c0       ?Expand@storeIConditionalNode@@UAEPAVMachNode@@PAVState@@AAVNode_List@@PAVNode@@@Z 080226c0 f   ad_x86_32_expand.obj
 0001:000216c0       ?Expand@cmpX_ccmemNode@@UAEPAVMachNode@@PAVState@@AAVNode_List@@PAVNode@@@Z 080226c0 f   ad_x86_32_expand.obj
 0001:00021790       ?Expand@storeLConditionalNode@@UAEPAVMachNode@@PAVState@@AAVNode_List@@PAVNode@@@Z 08022790 f   ad_x86_32_expand.obj
 0001:00021860       ?Expand@compareAndSwapLNode@@UAEPAVMachNode@@PAVState@@AAVNode_List@@PAVNode@@@Z 08022860 f   ad_x86_32_expand.obj
 0001:000219f0       ?Expand@compareAndSwapPNode@@UAEPAVMachNode@@PAVState@@AAVNode_List@@PAVNode@@@Z 080229f0 f   ad_x86_32_expand.obj
 0001:00021b80       ?Expand@mulIS_eRegNode@@UAEPAVMachNode@@PAVState@@AAVNode_List@@PAVNode@@@Z 08022b80 f   ad_x86_32_expand.obj
 0001:00021b80       ?Expand@mulIS_eReg_0Node@@UAEPAVMachNode@@PAVState@@AAVNode_List@@PAVNode@@@Z 08022b80 f   ad_x86_32_expand.obj
 0001:00021cc0       ?Expand@mulL_eReg_rhi0Node@@UAEPAVMachNode@@PAVState@@AAVNode_List@@PAVNode@@@Z 08022cc0 f   ad_x86_32_expand.obj
 0001:00021cc0       ?Expand@mulL_eRegNode@@UAEPAVMachNode@@PAVState@@AAVNode_List@@PAVNode@@@Z 08022cc0 f   ad_x86_32_expand.obj
 0001:00021cc0       ?Expand@mulL_eReg_lhi0Node@@UAEPAVMachNode@@PAVState@@AAVNode_List@@PAVNode@@@Z 08022cc0 f   ad_x86_32_expand.obj
 0001:00021cc0       ?Expand@mulL_eReg_conNode@@UAEPAVMachNode@@PAVState@@AAVNode_List@@PAVNode@@@Z 08022cc0 f   ad_x86_32_expand.obj
 0001:00021e10       ?Expand@divI_eRegNode@@UAEPAVMachNode@@PAVState@@AAVNode_List@@PAVNode@@@Z 08022e10 f   ad_x86_32_expand.obj
 0001:00021e10       ?Expand@convF2I_reg_regNode@@UAEPAVMachNode@@PAVState@@AAVNode_List@@PAVNode@@@Z 08022e10 f   ad_x86_32_expand.obj
 0001:00021e10       ?Expand@convD2I_reg_regNode@@UAEPAVMachNode@@PAVState@@AAVNode_List@@PAVNode@@@Z 08022e10 f   ad_x86_32_expand.obj
 0001:00021e10       ?Expand@convXD2I_reg_regNode@@UAEPAVMachNode@@PAVState@@AAVNode_List@@PAVNode@@@Z 08022e10 f   ad_x86_32_expand.obj
 0001:00021e10       ?Expand@convX2I_regNode@@UAEPAVMachNode@@PAVState@@AAVNode_List@@PAVNode@@@Z 08022e10 f   ad_x86_32_expand.obj
 0001:00021fa0       ?Expand@modL_eRegNode@@UAEPAVMachNode@@PAVState@@AAVNode_List@@PAVNode@@@Z 08022fa0 f   ad_x86_32_expand.obj
 0001:00021fa0       ?Expand@divL_eRegNode@@UAEPAVMachNode@@PAVState@@AAVNode_List@@PAVNode@@@Z 08022fa0 f   ad_x86_32_expand.obj
 0001:000221c0       ?Expand@andI_mem_eReg_0Node@@UAEPAVMachNode@@PAVState@@AAVNode_List@@PAVNode@@@Z 080231c0 f   ad_x86_32_expand.obj
 0001:000221c0       ?Expand@orI_mem_eReg_0Node@@UAEPAVMachNode@@PAVState@@AAVNode_List@@PAVNode@@@Z 080231c0 f   ad_x86_32_expand.obj
 0001:000221c0       ?Expand@xorI_mem_eReg_0Node@@UAEPAVMachNode@@PAVState@@AAVNode_List@@PAVNode@@@Z 080231c0 f   ad_x86_32_expand.obj
 0001:000221c0       ?Expand@addI_mem_eReg_0Node@@UAEPAVMachNode@@PAVState@@AAVNode_List@@PAVNode@@@Z 080231c0 f   ad_x86_32_expand.obj
 0001:000222e0       ?Expand@rolI_eReg_i1Node@@UAEPAVMachNode@@PAVState@@AAVNode_List@@PAVNode@@@Z 080232e0 f   ad_x86_32_expand.obj
 0001:00022440       ?Expand@rolI_eReg_i1_0Node@@UAEPAVMachNode@@PAVState@@AAVNode_List@@PAVNode@@@Z 08023440 f   ad_x86_32_expand.obj
 0001:000225b0       ?Expand@rolI_eReg_i8Node@@UAEPAVMachNode@@PAVState@@AAVNode_List@@PAVNode@@@Z 080235b0 f   ad_x86_32_expand.obj
 0001:00022710       ?Expand@rolI_eReg_i8_0Node@@UAEPAVMachNode@@PAVState@@AAVNode_List@@PAVNode@@@Z 08023710 f   ad_x86_32_expand.obj
 0001:00022880       ?Expand@rolI_eReg_Var_C0Node@@UAEPAVMachNode@@PAVState@@AAVNode_List@@PAVNode@@@Z 08023880 f   ad_x86_32_expand.obj
 0001:00022880       ?Expand@rolI_eReg_Var_C32Node@@UAEPAVMachNode@@PAVState@@AAVNode_List@@PAVNode@@@Z 08023880 f   ad_x86_32_expand.obj
 0001:000229f0       ?Expand@rolI_eReg_Var_C0_0Node@@UAEPAVMachNode@@PAVState@@AAVNode_List@@PAVNode@@@Z 080239f0 f   ad_x86_32_expand.obj
 0001:000229f0       ?Expand@rolI_eReg_Var_C32_0Node@@UAEPAVMachNode@@PAVState@@AAVNode_List@@PAVNode@@@Z 080239f0 f   ad_x86_32_expand.obj
 0001:00022b60       ?Expand@rorI_eReg_i1Node@@UAEPAVMachNode@@PAVState@@AAVNode_List@@PAVNode@@@Z 08023b60 f   ad_x86_32_expand.obj
 0001:00022cc0       ?Expand@rorI_eReg_i1_0Node@@UAEPAVMachNode@@PAVState@@AAVNode_List@@PAVNode@@@Z 08023cc0 f   ad_x86_32_expand.obj
 0001:00022e30       ?Expand@rorI_eReg_i8Node@@UAEPAVMachNode@@PAVState@@AAVNode_List@@PAVNode@@@Z 08023e30 f   ad_x86_32_expand.obj
 0001:00022f90       ?Expand@rorI_eReg_i8_0Node@@UAEPAVMachNode@@PAVState@@AAVNode_List@@PAVNode@@@Z 08023f90 f   ad_x86_32_expand.obj
 0001:00023100       ?Expand@rorI_eReg_Var_C0Node@@UAEPAVMachNode@@PAVState@@AAVNode_List@@PAVNode@@@Z 08024100 f   ad_x86_32_expand.obj
 0001:00023100       ?Expand@rorI_eReg_Var_C32Node@@UAEPAVMachNode@@PAVState@@AAVNode_List@@PAVNode@@@Z 08024100 f   ad_x86_32_expand.obj
 0001:00023270       ?Expand@rorI_eReg_Var_C0_0Node@@UAEPAVMachNode@@PAVState@@AAVNode_List@@PAVNode@@@Z 08024270 f   ad_x86_32_expand.obj
 0001:00023270       ?Expand@rorI_eReg_Var_C32_0Node@@UAEPAVMachNode@@PAVState@@AAVNode_List@@PAVNode@@@Z 08024270 f   ad_x86_32_expand.obj
 0001:000233e0       ?Expand@convI2BNode@@UAEPAVMachNode@@PAVState@@AAVNode_List@@PAVNode@@@Z 080243e0 f   ad_x86_32_expand.obj
 0001:000235b0       ?Expand@convP2BNode@@UAEPAVMachNode@@PAVState@@AAVNode_List@@PAVNode@@@Z 080245b0 f   ad_x86_32_expand.obj
 0001:00023780       ?Expand@cadd_cmpLTMask_1Node@@UAEPAVMachNode@@PAVState@@AAVNode_List@@PAVNode@@@Z 08024780 f   ad_x86_32_expand.obj
 0001:000239d0       ?Expand@cadd_cmpLTMask_0Node@@UAEPAVMachNode@@PAVState@@AAVNode_List@@PAVNode@@@Z 080249d0 f   ad_x86_32_expand.obj
 0001:000239d0       ?Expand@cadd_cmpLTMaskNode@@UAEPAVMachNode@@PAVState@@AAVNode_List@@PAVNode@@@Z 080249d0 f   ad_x86_32_expand.obj
 0001:000239d0       ?Expand@cadd_cmpLTMask_2Node@@UAEPAVMachNode@@PAVState@@AAVNode_List@@PAVNode@@@Z 080249d0 f   ad_x86_32_expand.obj
 0001:00023bd0       ?Expand@andI_eReg_memNode@@UAEPAVMachNode@@PAVState@@AAVNode_List@@PAVNode@@@Z 08024bd0 f   ad_x86_32_expand.obj
 0001:00023bd0       ?Expand@cmpL3_reg_regNode@@UAEPAVMachNode@@PAVState@@AAVNode_List@@PAVNode@@@Z 08024bd0 f   ad_x86_32_expand.obj
 0001:00023bd0       ?Expand@shrL_eReg_32_63Node@@UAEPAVMachNode@@PAVState@@AAVNode_List@@PAVNode@@@Z 08024bd0 f   ad_x86_32_expand.obj
 0001:00023bd0       ?Expand@convX2D_regNode@@UAEPAVMachNode@@PAVState@@AAVNode_List@@PAVNode@@@Z 08024bd0 f   ad_x86_32_expand.obj
 0001:00023bd0       ?Expand@loadI2L_immI_65535Node@@UAEPAVMachNode@@PAVState@@AAVNode_List@@PAVNode@@@Z 08024bd0 f   ad_x86_32_expand.obj
 0001:00023bd0       ?Expand@sarI_eReg_immNode@@UAEPAVMachNode@@PAVState@@AAVNode_List@@PAVNode@@@Z 08024bd0 f   ad_x86_32_expand.obj
 0001:00023bd0       ?Expand@orl_eRegNode@@UAEPAVMachNode@@PAVState@@AAVNode_List@@PAVNode@@@Z 08024bd0 f   ad_x86_32_expand.obj
 0001:00023bd0       ?Expand@loadUS2L_immI_255Node@@UAEPAVMachNode@@PAVState@@AAVNode_List@@PAVNode@@@Z 08024bd0 f   ad_x86_32_expand.obj
 0001:00023bd0       ?Expand@mulI2L_0Node@@UAEPAVMachNode@@PAVState@@AAVNode_List@@PAVNode@@@Z 08024bd0 f   ad_x86_32_expand.obj
 0001:00023bd0       ?Expand@orI_eReg_castP2XNode@@UAEPAVMachNode@@PAVState@@AAVNode_List@@PAVNode@@@Z 08024bd0 f   ad_x86_32_expand.obj
 0001:00023bd0       ?Expand@subL_eReg_memNode@@UAEPAVMachNode@@PAVState@@AAVNode_List@@PAVNode@@@Z 08024bd0 f   ad_x86_32_expand.obj
 0001:00023bd0       ?Expand@loadUB2LNode@@UAEPAVMachNode@@PAVState@@AAVNode_List@@PAVNode@@@Z 08024bd0 f   ad_x86_32_expand.obj
 0001:00023bd0       ?Expand@cmpLTMaskNode@@UAEPAVMachNode@@PAVState@@AAVNode_List@@PAVNode@@@Z 08024bd0 f   ad_x86_32_expand.obj
 0001:00023bd0       ?Expand@addL_eReg_immNode@@UAEPAVMachNode@@PAVState@@AAVNode_List@@PAVNode@@@Z 08024bd0 f   ad_x86_32_expand.obj
 0001:00023bd0       ?Expand@zerox_longNode@@UAEPAVMachNode@@PAVState@@AAVNode_List@@PAVNode@@@Z 08024bd0 f   ad_x86_32_expand.obj
 0001:00023bd0       ?Expand@xorl_eRegNode@@UAEPAVMachNode@@PAVState@@AAVNode_List@@PAVNode@@@Z 08024bd0 f   ad_x86_32_expand.obj
 0001:00023bd0       ?Expand@storeL_volatileNode@@UAEPAVMachNode@@PAVState@@AAVNode_List@@PAVNode@@@Z 08024bd0 f   ad_x86_32_expand.obj
 0001:00023bd0       ?Expand@loadConI0Node@@UAEPAVMachNode@@PAVState@@AAVNode_List@@PAVNode@@@Z 08024bd0 f   ad_x86_32_expand.obj
 0001:00023bd0       ?Expand@atanXD_regNode@@UAEPAVMachNode@@PAVState@@AAVNode_List@@PAVNode@@@Z 08024bd0 f   ad_x86_32_expand.obj
 0001:00023bd0       ?Expand@subL_eReg_immNode@@UAEPAVMachNode@@PAVState@@AAVNode_List@@PAVNode@@@Z 08024bd0 f   ad_x86_32_expand.obj
 0001:00023bd0       ?Expand@sarI_eReg_1Node@@UAEPAVMachNode@@PAVState@@AAVNode_List@@PAVNode@@@Z 08024bd0 f   ad_x86_32_expand.obj
 0001:00023bd0       ?Expand@loadS2LNode@@UAEPAVMachNode@@PAVState@@AAVNode_List@@PAVNode@@@Z 08024bd0 f   ad_x86_32_expand.obj
 0001:00023bd0       ?Expand@loadUS2L_immI16Node@@UAEPAVMachNode@@PAVState@@AAVNode_List@@PAVNode@@@Z 08024bd0 f   ad_x86_32_expand.obj
 0001:00023bd0       ?Expand@andL_eReg_immNode@@UAEPAVMachNode@@PAVState@@AAVNode_List@@PAVNode@@@Z 08024bd0 f   ad_x86_32_expand.obj
 0001:00023bd0       ?Expand@countLeadingZerosI_bsrNode@@UAEPAVMachNode@@PAVState@@AAVNode_List@@PAVNode@@@Z 08024bd0 f   ad_x86_32_expand.obj
 0001:00023bd0       ?Expand@xorI_eRegNode@@UAEPAVMachNode@@PAVState@@AAVNode_List@@PAVNode@@@Z 08024bd0 f   ad_x86_32_expand.obj
 0001:00023bd0       ?Expand@addI_eReg_immNode@@UAEPAVMachNode@@PAVState@@AAVNode_List@@PAVNode@@@Z 08024bd0 f   ad_x86_32_expand.obj
 0001:00023bd0       ?Expand@shrI_eReg_1Node@@UAEPAVMachNode@@PAVState@@AAVNode_List@@PAVNode@@@Z 08024bd0 f   ad_x86_32_expand.obj
 0001:00023bd0       ?Expand@subL_eRegNode@@UAEPAVMachNode@@PAVState@@AAVNode_List@@PAVNode@@@Z 08024bd0 f   ad_x86_32_expand.obj
 0001:00023bd0       ?Expand@cp2bNode@@UAEPAVMachNode@@PAVState@@AAVNode_List@@PAVNode@@@Z 08024bd0 f   ad_x86_32_expand.obj
 0001:00023bd0       ?Expand@mulI_eReg_immNode@@UAEPAVMachNode@@PAVState@@AAVNode_List@@PAVNode@@@Z 08024bd0 f   ad_x86_32_expand.obj
 0001:00023bd0       ?Expand@andL_eReg_memNode@@UAEPAVMachNode@@PAVState@@AAVNode_List@@PAVNode@@@Z 08024bd0 f   ad_x86_32_expand.obj
 0001:00023bd0       ?Expand@convI2L_regNode@@UAEPAVMachNode@@PAVState@@AAVNode_List@@PAVNode@@@Z 08024bd0 f   ad_x86_32_expand.obj
 0001:00023bd0       ?Expand@shlL_eReg_1_31Node@@UAEPAVMachNode@@PAVState@@AAVNode_List@@PAVNode@@@Z 08024bd0 f   ad_x86_32_expand.obj
 0001:00023bd0       ?Expand@addL_eReg_mem_0Node@@UAEPAVMachNode@@PAVState@@AAVNode_List@@PAVNode@@@Z 08024bd0 f   ad_x86_32_expand.obj
 0001:00023bd0       ?Expand@subI_eRegNode@@UAEPAVMachNode@@PAVState@@AAVNode_List@@PAVNode@@@Z 08024bd0 f   ad_x86_32_expand.obj
 0001:00023bd0       ?Expand@loadI2LNode@@UAEPAVMachNode@@PAVState@@AAVNode_List@@PAVNode@@@Z 08024bd0 f   ad_x86_32_expand.obj
 0001:00023bd0       ?Expand@orI_eReg_memNode@@UAEPAVMachNode@@PAVState@@AAVNode_List@@PAVNode@@@Z 08024bd0 f   ad_x86_32_expand.obj
 0001:00023bd0       ?Expand@loadUS2LNode@@UAEPAVMachNode@@PAVState@@AAVNode_List@@PAVNode@@@Z 08024bd0 f   ad_x86_32_expand.obj
 0001:00023bd0       ?Expand@mulI_0Node@@UAEPAVMachNode@@PAVState@@AAVNode_List@@PAVNode@@@Z 08024bd0 f   ad_x86_32_expand.obj
 0001:00023bd0       ?Expand@loadConL_low_onlyNode@@UAEPAVMachNode@@PAVState@@AAVNode_List@@PAVNode@@@Z 08024bd0 f   ad_x86_32_expand.obj
 0001:00023bd0       ?Expand@negI_eRegNode@@UAEPAVMachNode@@PAVState@@AAVNode_List@@PAVNode@@@Z 08024bd0 f   ad_x86_32_expand.obj
 0001:00023bd0       ?Expand@subP_eRegNode@@UAEPAVMachNode@@PAVState@@AAVNode_List@@PAVNode@@@Z 08024bd0 f   ad_x86_32_expand.obj
 0001:00023bd0       ?Expand@andI_eReg_immNode@@UAEPAVMachNode@@PAVState@@AAVNode_List@@PAVNode@@@Z 08024bd0 f   ad_x86_32_expand.obj
 0001:00023bd0       ?Expand@logXD_regNode@@UAEPAVMachNode@@PAVState@@AAVNode_List@@PAVNode@@@Z 08024bd0 f   ad_x86_32_expand.obj
 0001:00023bd0       ?Expand@addI_eReg_mem_0Node@@UAEPAVMachNode@@PAVState@@AAVNode_List@@PAVNode@@@Z 08024bd0 f   ad_x86_32_expand.obj
 0001:00023bd0       ?Expand@rorI_eReg_imm8Node@@UAEPAVMachNode@@PAVState@@AAVNode_List@@PAVNode@@@Z 08024bd0 f   ad_x86_32_expand.obj
 0001:00023bd0       ?Expand@shlL_eReg_3Node@@UAEPAVMachNode@@PAVState@@AAVNode_List@@PAVNode@@@Z 08024bd0 f   ad_x86_32_expand.obj
 0001:00023bd0       ?Expand@cosXD_regNode@@UAEPAVMachNode@@PAVState@@AAVNode_List@@PAVNode@@@Z 08024bd0 f   ad_x86_32_expand.obj
 0001:00023bd0       ?Expand@shrL_eReg_CLNode@@UAEPAVMachNode@@PAVState@@AAVNode_List@@PAVNode@@@Z 08024bd0 f   ad_x86_32_expand.obj
 0001:00023bd0       ?Expand@sarL_eReg_32_63Node@@UAEPAVMachNode@@PAVState@@AAVNode_List@@PAVNode@@@Z 08024bd0 f   ad_x86_32_expand.obj
 0001:00023bd0       ?Expand@incI_eRegNode@@UAEPAVMachNode@@PAVState@@AAVNode_List@@PAVNode@@@Z 08024bd0 f   ad_x86_32_expand.obj
 0001:00023bd0       ?Expand@cmpX_regNode@@UAEPAVMachNode@@PAVState@@AAVNode_List@@PAVNode@@@Z 08024bd0 f   ad_x86_32_expand.obj
 0001:00023bd0       ?Expand@convD2X_regNode@@UAEPAVMachNode@@PAVState@@AAVNode_List@@PAVNode@@@Z 08024bd0 f   ad_x86_32_expand.obj
 0001:00023bd0       ?Expand@rolI_eReg_imm1Node@@UAEPAVMachNode@@PAVState@@AAVNode_List@@PAVNode@@@Z 08024bd0 f   ad_x86_32_expand.obj
 0001:00023bd0       ?Expand@rolI_eReg_imm8Node@@UAEPAVMachNode@@PAVState@@AAVNode_List@@PAVNode@@@Z 08024bd0 f   ad_x86_32_expand.obj
 0001:00023bd0       ?Expand@addP_eReg_immNode@@UAEPAVMachNode@@PAVState@@AAVNode_List@@PAVNode@@@Z 08024bd0 f   ad_x86_32_expand.obj
 0001:00023bd0       ?Expand@mulINode@@UAEPAVMachNode@@PAVState@@AAVNode_List@@PAVNode@@@Z 08024bd0 f   ad_x86_32_expand.obj
 0001:00023bd0       ?Expand@orl_eReg_mem_0Node@@UAEPAVMachNode@@PAVState@@AAVNode_List@@PAVNode@@@Z 08024bd0 f   ad_x86_32_expand.obj
 0001:00023bd0       ?Expand@convXD2L_reg_regNode@@UAEPAVMachNode@@PAVState@@AAVNode_List@@PAVNode@@@Z 08024bd0 f   ad_x86_32_expand.obj
 0001:00023bd0       ?Expand@subI_eReg_immNode@@UAEPAVMachNode@@PAVState@@AAVNode_List@@PAVNode@@@Z 08024bd0 f   ad_x86_32_expand.obj
 0001:00023bd0       ?Expand@xorl_eReg_mem_0Node@@UAEPAVMachNode@@PAVState@@AAVNode_List@@PAVNode@@@Z 08024bd0 f   ad_x86_32_expand.obj
 0001:00023bd0       ?Expand@shlL_eReg_1Node@@UAEPAVMachNode@@PAVState@@AAVNode_List@@PAVNode@@@Z 08024bd0 f   ad_x86_32_expand.obj
 0001:00023bd0       ?Expand@cmpX_regmemNode@@UAEPAVMachNode@@PAVState@@AAVNode_List@@PAVNode@@@Z 08024bd0 f   ad_x86_32_expand.obj
 0001:00023bd0       ?Expand@convI2L_reg_zexNode@@UAEPAVMachNode@@PAVState@@AAVNode_List@@PAVNode@@@Z 08024bd0 f   ad_x86_32_expand.obj
 0001:00023bd0       ?Expand@countLeadingZerosINode@@UAEPAVMachNode@@PAVState@@AAVNode_List@@PAVNode@@@Z 08024bd0 f   ad_x86_32_expand.obj
 0001:00023bd0       ?Expand@convD2L_reg_regNode@@UAEPAVMachNode@@PAVState@@AAVNode_List@@PAVNode@@@Z 08024bd0 f   ad_x86_32_expand.obj
 0001:00023bd0       ?Expand@mulI_mem_immNode@@UAEPAVMachNode@@PAVState@@AAVNode_List@@PAVNode@@@Z 08024bd0 f   ad_x86_32_expand.obj
 0001:00023bd0       ?Expand@orI_eReg_immNode@@UAEPAVMachNode@@PAVState@@AAVNode_List@@PAVNode@@@Z 08024bd0 f   ad_x86_32_expand.obj
 0001:00023bd0       ?Expand@shrI_eReg_CLNode@@UAEPAVMachNode@@PAVState@@AAVNode_List@@PAVNode@@@Z 08024bd0 f   ad_x86_32_expand.obj
 0001:00023bd0       ?Expand@loadUB2L_immI8Node@@UAEPAVMachNode@@PAVState@@AAVNode_List@@PAVNode@@@Z 08024bd0 f   ad_x86_32_expand.obj
 0001:00023bd0       ?Expand@rorI_eReg_imm1Node@@UAEPAVMachNode@@PAVState@@AAVNode_List@@PAVNode@@@Z 08024bd0 f   ad_x86_32_expand.obj
 0001:00023bd0       ?Expand@convL2XD_regNode@@UAEPAVMachNode@@PAVState@@AAVNode_List@@PAVNode@@@Z 08024bd0 f   ad_x86_32_expand.obj
 0001:00023bd0       ?Expand@shrL_eReg_1_31Node@@UAEPAVMachNode@@PAVState@@AAVNode_List@@PAVNode@@@Z 08024bd0 f   ad_x86_32_expand.obj
 0001:00023bd0       ?Expand@convF2L_reg_regNode@@UAEPAVMachNode@@PAVState@@AAVNode_List@@PAVNode@@@Z 08024bd0 f   ad_x86_32_expand.obj
 0001:00023bd0       ?Expand@loadB2LNode@@UAEPAVMachNode@@PAVState@@AAVNode_List@@PAVNode@@@Z 08024bd0 f   ad_x86_32_expand.obj
 0001:00023bd0       ?Expand@mulI_imm_highNode@@UAEPAVMachNode@@PAVState@@AAVNode_List@@PAVNode@@@Z 08024bd0 f   ad_x86_32_expand.obj
 0001:00023bd0       ?Expand@ci2bNode@@UAEPAVMachNode@@PAVState@@AAVNode_List@@PAVNode@@@Z 08024bd0 f   ad_x86_32_expand.obj
 0001:00023bd0       ?Expand@convX2L_reg_regNode@@UAEPAVMachNode@@PAVState@@AAVNode_List@@PAVNode@@@Z 08024bd0 f   ad_x86_32_expand.obj
 0001:00023bd0       ?Expand@salI_eReg_immNode@@UAEPAVMachNode@@PAVState@@AAVNode_List@@PAVNode@@@Z 08024bd0 f   ad_x86_32_expand.obj
 0001:00023bd0       ?Expand@orI_eRegNode@@UAEPAVMachNode@@PAVState@@AAVNode_List@@PAVNode@@@Z 08024bd0 f   ad_x86_32_expand.obj
 0001:00023bd0       ?Expand@convL2F_regNode@@UAEPAVMachNode@@PAVState@@AAVNode_List@@PAVNode@@@Z 08024bd0 f   ad_x86_32_expand.obj
 0001:00023bd0       ?Expand@membar_volatileNode@@UAEPAVMachNode@@PAVState@@AAVNode_List@@PAVNode@@@Z 08024bd0 f   ad_x86_32_expand.obj
 0001:00023bd0       ?Expand@safePoint_pollNode@@UAEPAVMachNode@@PAVState@@AAVNode_List@@PAVNode@@@Z 08024bd0 f   ad_x86_32_expand.obj
 0001:00023bd0       ?Expand@xorI_eReg_immNode@@UAEPAVMachNode@@PAVState@@AAVNode_List@@PAVNode@@@Z 08024bd0 f   ad_x86_32_expand.obj
 0001:00023bd0       ?Expand@andL_eRegNode@@UAEPAVMachNode@@PAVState@@AAVNode_List@@PAVNode@@@Z 08024bd0 f   ad_x86_32_expand.obj
 0001:00023bd0       ?Expand@orI_eReg_mem_0Node@@UAEPAVMachNode@@PAVState@@AAVNode_List@@PAVNode@@@Z 08024bd0 f   ad_x86_32_expand.obj
 0001:00023bd0       ?Expand@mulL_eReg_hi0Node@@UAEPAVMachNode@@PAVState@@AAVNode_List@@PAVNode@@@Z 08024bd0 f   ad_x86_32_expand.obj
 0001:00023bd0       ?Expand@mulI_imm_high_0Node@@UAEPAVMachNode@@PAVState@@AAVNode_List@@PAVNode@@@Z 08024bd0 f   ad_x86_32_expand.obj
 0001:00023bd0       ?Expand@loadConL0Node@@UAEPAVMachNode@@PAVState@@AAVNode_List@@PAVNode@@@Z 08024bd0 f   ad_x86_32_expand.obj
 0001:00023bd0       ?Expand@maxI_eRegNode@@UAEPAVMachNode@@PAVState@@AAVNode_List@@PAVNode@@@Z 08024bd0 f   ad_x86_32_expand.obj
 0001:00023bd0       ?Expand@xorI_eReg_mem_0Node@@UAEPAVMachNode@@PAVState@@AAVNode_List@@PAVNode@@@Z 08024bd0 f   ad_x86_32_expand.obj
 0001:00023bd0       ?Expand@divModI_eReg_divmodNode@@UAEPAVMachNode@@PAVState@@AAVNode_List@@PAVNode@@@Z 08024bd0 f   ad_x86_32_expand.obj
 0001:00023bd0       ?Expand@mulI2LNode@@UAEPAVMachNode@@PAVState@@AAVNode_List@@PAVNode@@@Z 08024bd0 f   ad_x86_32_expand.obj
 0001:00023bd0       ?Expand@loadUI2LNode@@UAEPAVMachNode@@PAVState@@AAVNode_List@@PAVNode@@@Z 08024bd0 f   ad_x86_32_expand.obj
 0001:00023bd0       ?Expand@loadI2L_immINode@@UAEPAVMachNode@@PAVState@@AAVNode_List@@PAVNode@@@Z 08024bd0 f   ad_x86_32_expand.obj
 0001:00023bd0       ?Expand@sarL_eReg_1_31Node@@UAEPAVMachNode@@PAVState@@AAVNode_List@@PAVNode@@@Z 08024bd0 f   ad_x86_32_expand.obj
 0001:00023bd0       ?Expand@decI_eRegNode@@UAEPAVMachNode@@PAVState@@AAVNode_List@@PAVNode@@@Z 08024bd0 f   ad_x86_32_expand.obj
 0001:00023bd0       ?Expand@andI_eReg_mem_0Node@@UAEPAVMachNode@@PAVState@@AAVNode_List@@PAVNode@@@Z 08024bd0 f   ad_x86_32_expand.obj
 0001:00023bd0       ?Expand@loadConLNode@@UAEPAVMachNode@@PAVState@@AAVNode_List@@PAVNode@@@Z 08024bd0 f   ad_x86_32_expand.obj
 0001:00023bd0       ?Expand@loadI2L_immI_255Node@@UAEPAVMachNode@@PAVState@@AAVNode_List@@PAVNode@@@Z 08024bd0 f   ad_x86_32_expand.obj
 0001:00023bd0       ?Expand@orI_eReg_castP2X_0Node@@UAEPAVMachNode@@PAVState@@AAVNode_List@@PAVNode@@@Z 08024bd0 f   ad_x86_32_expand.obj
 0001:00023bd0       ?Expand@countTrailingZerosINode@@UAEPAVMachNode@@PAVState@@AAVNode_List@@PAVNode@@@Z 08024bd0 f   ad_x86_32_expand.obj
 0001:00023bd0       ?Expand@addP_eRegNode@@UAEPAVMachNode@@PAVState@@AAVNode_List@@PAVNode@@@Z 08024bd0 f   ad_x86_32_expand.obj
 0001:00023bd0       ?Expand@negL_eRegNode@@UAEPAVMachNode@@PAVState@@AAVNode_List@@PAVNode@@@Z 08024bd0 f   ad_x86_32_expand.obj
 0001:00023bd0       ?Expand@mulI_imm_RShift_high_0Node@@UAEPAVMachNode@@PAVState@@AAVNode_List@@PAVNode@@@Z 08024bd0 f   ad_x86_32_expand.obj
 0001:00023bd0       ?Expand@xorl_eReg_immNode@@UAEPAVMachNode@@PAVState@@AAVNode_List@@PAVNode@@@Z 08024bd0 f   ad_x86_32_expand.obj
 0001:00023bd0       ?Expand@cmpLTMask0Node@@UAEPAVMachNode@@PAVState@@AAVNode_List@@PAVNode@@@Z 08024bd0 f   ad_x86_32_expand.obj
 0001:00023bd0       ?Expand@log10XD_regNode@@UAEPAVMachNode@@PAVState@@AAVNode_List@@PAVNode@@@Z 08024bd0 f   ad_x86_32_expand.obj
 0001:00023bd0       ?Expand@orl_eReg_immNode@@UAEPAVMachNode@@PAVState@@AAVNode_List@@PAVNode@@@Z 08024bd0 f   ad_x86_32_expand.obj
 0001:00023bd0       ?Expand@addL_eReg_memNode@@UAEPAVMachNode@@PAVState@@AAVNode_List@@PAVNode@@@Z 08024bd0 f   ad_x86_32_expand.obj
 0001:00023bd0       ?Expand@shlL_eReg_32_63Node@@UAEPAVMachNode@@PAVState@@AAVNode_List@@PAVNode@@@Z 08024bd0 f   ad_x86_32_expand.obj
 0001:00023bd0       ?Expand@sinXD_regNode@@UAEPAVMachNode@@PAVState@@AAVNode_List@@PAVNode@@@Z 08024bd0 f   ad_x86_32_expand.obj
 0001:00023bd0       ?Expand@xorI_eReg_memNode@@UAEPAVMachNode@@PAVState@@AAVNode_List@@PAVNode@@@Z 08024bd0 f   ad_x86_32_expand.obj
 0001:00023bd0       ?Expand@addL_eRegNode@@UAEPAVMachNode@@PAVState@@AAVNode_List@@PAVNode@@@Z 08024bd0 f   ad_x86_32_expand.obj
 0001:00023bd0       ?Expand@andI_eRegNode@@UAEPAVMachNode@@PAVState@@AAVNode_List@@PAVNode@@@Z 08024bd0 f   ad_x86_32_expand.obj
 0001:00023bd0       ?Expand@shrI_eReg_immNode@@UAEPAVMachNode@@PAVState@@AAVNode_List@@PAVNode@@@Z 08024bd0 f   ad_x86_32_expand.obj
 0001:00023bd0       ?Expand@convL2D_regNode@@UAEPAVMachNode@@PAVState@@AAVNode_List@@PAVNode@@@Z 08024bd0 f   ad_x86_32_expand.obj
 0001:00023bd0       ?Expand@shlL_eReg_2Node@@UAEPAVMachNode@@PAVState@@AAVNode_List@@PAVNode@@@Z 08024bd0 f   ad_x86_32_expand.obj
 0001:00023bd0       ?Expand@rolI_eReg_CLNode@@UAEPAVMachNode@@PAVState@@AAVNode_List@@PAVNode@@@Z 08024bd0 f   ad_x86_32_expand.obj
 0001:00023bd0       ?Expand@cmpXD_regNode@@UAEPAVMachNode@@PAVState@@AAVNode_List@@PAVNode@@@Z 08024bd0 f   ad_x86_32_expand.obj
 0001:00023bd0       ?Expand@addI_eReg_memNode@@UAEPAVMachNode@@PAVState@@AAVNode_List@@PAVNode@@@Z 08024bd0 f   ad_x86_32_expand.obj
 0001:00023bd0       ?Expand@minI_eRegNode@@UAEPAVMachNode@@PAVState@@AAVNode_List@@PAVNode@@@Z 08024bd0 f   ad_x86_32_expand.obj
 0001:00023bd0       ?Expand@salI_eReg_CLNode@@UAEPAVMachNode@@PAVState@@AAVNode_List@@PAVNode@@@Z 08024bd0 f   ad_x86_32_expand.obj
 0001:00023bd0       ?Expand@addI_eRegNode@@UAEPAVMachNode@@PAVState@@AAVNode_List@@PAVNode@@@Z 08024bd0 f   ad_x86_32_expand.obj
 0001:00023bd0       ?Expand@sarI_eReg_CLNode@@UAEPAVMachNode@@PAVState@@AAVNode_List@@PAVNode@@@Z 08024bd0 f   ad_x86_32_expand.obj
 0001:00023bd0       ?Expand@mulI_imm_RShift_highNode@@UAEPAVMachNode@@PAVState@@AAVNode_List@@PAVNode@@@Z 08024bd0 f   ad_x86_32_expand.obj
 0001:00023bd0       ?Expand@andL_eReg_mem_0Node@@UAEPAVMachNode@@PAVState@@AAVNode_List@@PAVNode@@@Z 08024bd0 f   ad_x86_32_expand.obj
 0001:00023bd0       ?Expand@rorI_eReg_CLNode@@UAEPAVMachNode@@PAVState@@AAVNode_List@@PAVNode@@@Z 08024bd0 f   ad_x86_32_expand.obj
 0001:00023bd0       ?Expand@subI_eReg_memNode@@UAEPAVMachNode@@PAVState@@AAVNode_List@@PAVNode@@@Z 08024bd0 f   ad_x86_32_expand.obj
 0001:00023bd0       ?Expand@cmpXD_regmemNode@@UAEPAVMachNode@@PAVState@@AAVNode_List@@PAVNode@@@Z 08024bd0 f   ad_x86_32_expand.obj
 0001:00023bd0       ?Expand@xorl_eReg_memNode@@UAEPAVMachNode@@PAVState@@AAVNode_List@@PAVNode@@@Z 08024bd0 f   ad_x86_32_expand.obj
 0001:00023bd0       ?Expand@convL2X_regNode@@UAEPAVMachNode@@PAVState@@AAVNode_List@@PAVNode@@@Z 08024bd0 f   ad_x86_32_expand.obj
 0001:00023bd0       ?Expand@orl_eReg_memNode@@UAEPAVMachNode@@PAVState@@AAVNode_List@@PAVNode@@@Z 08024bd0 f   ad_x86_32_expand.obj
 0001:00023bd0       ?Expand@salL_eReg_CLNode@@UAEPAVMachNode@@PAVState@@AAVNode_List@@PAVNode@@@Z 08024bd0 f   ad_x86_32_expand.obj
 0001:00023bd0       ?Expand@mulI_eRegNode@@UAEPAVMachNode@@PAVState@@AAVNode_List@@PAVNode@@@Z 08024bd0 f   ad_x86_32_expand.obj
 0001:00023bd0       ?Expand@sarL_eReg_CLNode@@UAEPAVMachNode@@PAVState@@AAVNode_List@@PAVNode@@@Z 08024bd0 f   ad_x86_32_expand.obj
 0001:00023bd0       ?Expand@shlI_eReg_1Node@@UAEPAVMachNode@@PAVState@@AAVNode_List@@PAVNode@@@Z 08024bd0 f   ad_x86_32_expand.obj
 0001:00023bd0       ?Expand@tanXD_regNode@@UAEPAVMachNode@@PAVState@@AAVNode_List@@PAVNode@@@Z 08024bd0 f   ad_x86_32_expand.obj
 0001:00023ca0       ?Expand@cmpF_0Node@@UAEPAVMachNode@@PAVState@@AAVNode_List@@PAVNode@@@Z 08024ca0 f   ad_x86_32_expand.obj
 0001:00023ca0       ?Expand@cmpD_regNode@@UAEPAVMachNode@@PAVState@@AAVNode_List@@PAVNode@@@Z 08024ca0 f   ad_x86_32_expand.obj
 0001:00023ca0       ?Expand@modF_regNode@@UAEPAVMachNode@@PAVState@@AAVNode_List@@PAVNode@@@Z 08024ca0 f   ad_x86_32_expand.obj
 0001:00023ca0       ?Expand@cmpF_regNode@@UAEPAVMachNode@@PAVState@@AAVNode_List@@PAVNode@@@Z 08024ca0 f   ad_x86_32_expand.obj
 0001:00023ca0       ?Expand@modD_regNode@@UAEPAVMachNode@@PAVState@@AAVNode_List@@PAVNode@@@Z 08024ca0 f   ad_x86_32_expand.obj
 0001:00023ca0       ?Expand@modX_regNode@@UAEPAVMachNode@@PAVState@@AAVNode_List@@PAVNode@@@Z 08024ca0 f   ad_x86_32_expand.obj
 0001:00023ca0       ?Expand@modI_eRegNode@@UAEPAVMachNode@@PAVState@@AAVNode_List@@PAVNode@@@Z 08024ca0 f   ad_x86_32_expand.obj
 0001:00023ca0       ?Expand@modF24_regNode@@UAEPAVMachNode@@PAVState@@AAVNode_List@@PAVNode@@@Z 08024ca0 f   ad_x86_32_expand.obj
 0001:00023ca0       ?Expand@cmpD_0Node@@UAEPAVMachNode@@PAVState@@AAVNode_List@@PAVNode@@@Z 08024ca0 f   ad_x86_32_expand.obj
 0001:00023ca0       ?Expand@modXD_regNode@@UAEPAVMachNode@@PAVState@@AAVNode_List@@PAVNode@@@Z 08024ca0 f   ad_x86_32_expand.obj
 0001:00023ca0       ?Expand@compareAndSwapINode@@UAEPAVMachNode@@PAVState@@AAVNode_List@@PAVNode@@@Z 08024ca0 f   ad_x86_32_expand.obj
 0001:00023e30       ?Expand@addD_mem_regNode@@UAEPAVMachNode@@PAVState@@AAVNode_List@@PAVNode@@@Z 08024e30 f   ad_x86_32_expand.obj
 0001:00023f10       ?Expand@addD_mem_reg_0Node@@UAEPAVMachNode@@PAVState@@AAVNode_List@@PAVNode@@@Z 08024f10 f   ad_x86_32_expand.obj
 0001:00023f90       ?Expand@powD_regNode@@UAEPAVMachNode@@PAVState@@AAVNode_List@@PAVNode@@@Z 08024f90 f   ad_x86_32_expand.obj
 0001:00023f90       ?Expand@expD_regNode@@UAEPAVMachNode@@PAVState@@AAVNode_List@@PAVNode@@@Z 08024f90 f   ad_x86_32_expand.obj
 0001:000241b0       ?Expand@powXD_regNode@@UAEPAVMachNode@@PAVState@@AAVNode_List@@PAVNode@@@Z 080251b0 f   ad_x86_32_expand.obj
 0001:000241b0       ?Expand@expXD_regNode@@UAEPAVMachNode@@PAVState@@AAVNode_List@@PAVNode@@@Z 080251b0 f   ad_x86_32_expand.obj
 0001:00024470       ?Expand@convD2F_regNode@@UAEPAVMachNode@@PAVState@@AAVNode_List@@PAVNode@@@Z 08025470 f   ad_x86_32_expand.obj
 0001:00024560       ?Expand@convF2D_regNode@@UAEPAVMachNode@@PAVState@@AAVNode_List@@PAVNode@@@Z 08025560 f   ad_x86_32_expand.obj
 0001:00024650       ?Expand@MoveL2D_reg_reg_sseNode@@UAEPAVMachNode@@PAVState@@AAVNode_List@@PAVNode@@@Z 08025650 f   ad_x86_32_expand.obj
 0001:00024780       ?Expand@rep_stosNode@@UAEPAVMachNode@@PAVState@@AAVNode_List@@PAVNode@@@Z 08025780 f   ad_x86_32_expand.obj
 0001:00024a40       ?Expand@string_compareNode@@UAEPAVMachNode@@PAVState@@AAVNode_List@@PAVNode@@@Z 08025a40 f   ad_x86_32_expand.obj
 0001:00024ea0       ?Expand@string_equalsNode@@UAEPAVMachNode@@PAVState@@AAVNode_List@@PAVNode@@@Z 08025ea0 f   ad_x86_32_expand.obj
 0001:00025300       ?Expand@string_indexofNode@@UAEPAVMachNode@@PAVState@@AAVNode_List@@PAVNode@@@Z 08026300 f   ad_x86_32_expand.obj
 0001:00025780       ?Expand@array_equalsNode@@UAEPAVMachNode@@PAVState@@AAVNode_List@@PAVNode@@@Z 08026780 f   ad_x86_32_expand.obj
 0001:00025be0       ?Expand@partialSubtypeCheckNode@@UAEPAVMachNode@@PAVState@@AAVNode_List@@PAVNode@@@Z 08026be0 f   ad_x86_32_expand.obj
 0001:00025d70       ?Expand@partialSubtypeCheck_vs_ZeroNode@@UAEPAVMachNode@@PAVState@@AAVNode_List@@PAVNode@@@Z 08026d70 f   ad_x86_32_expand.obj
 0001:00025ef0       ?Expand@cmovXDD_reg_LTGENode@@UAEPAVMachNode@@PAVState@@AAVNode_List@@PAVNode@@@Z 08026ef0 f   ad_x86_32_expand.obj
 0001:00025ef0       ?Expand@cmovXDD_reg_LEGTNode@@UAEPAVMachNode@@PAVState@@AAVNode_List@@PAVNode@@@Z 08026ef0 f   ad_x86_32_expand.obj
 0001:00025ef0       ?Expand@cmovXDD_reg_EQNENode@@UAEPAVMachNode@@PAVState@@AAVNode_List@@PAVNode@@@Z 08026ef0 f   ad_x86_32_expand.obj
 0001:000260f0       ?Expand@cmpL_LEGTNode@@UAEPAVMachNode@@PAVState@@AAVNode_List@@PAVNode@@@Z 080270f0 f   ad_x86_32_expand.obj
 0001:000260f0       ?Expand@cmpL_EQNENode@@UAEPAVMachNode@@PAVState@@AAVNode_List@@PAVNode@@@Z 080270f0 f   ad_x86_32_expand.obj
 0001:000260f0       ?Expand@cmpL_LTGENode@@UAEPAVMachNode@@PAVState@@AAVNode_List@@PAVNode@@@Z 080270f0 f   ad_x86_32_expand.obj
 0001:000262b0       ?Expand@cmovDD_reg_LEGTNode@@UAEPAVMachNode@@PAVState@@AAVNode_List@@PAVNode@@@Z 080272b0 f   ad_x86_32_expand.obj
 0001:000262b0       ?Expand@cmovDD_reg_EQNENode@@UAEPAVMachNode@@PAVState@@AAVNode_List@@PAVNode@@@Z 080272b0 f   ad_x86_32_expand.obj
 0001:000262b0       ?Expand@cmovDD_reg_LTGENode@@UAEPAVMachNode@@PAVState@@AAVNode_List@@PAVNode@@@Z 080272b0 f   ad_x86_32_expand.obj
 0001:000264b0       ?Expand@cmovFF_reg_LTGENode@@UAEPAVMachNode@@PAVState@@AAVNode_List@@PAVNode@@@Z 080274b0 f   ad_x86_32_expand.obj
 0001:000264b0       ?Expand@cmovFF_reg_EQNENode@@UAEPAVMachNode@@PAVState@@AAVNode_List@@PAVNode@@@Z 080274b0 f   ad_x86_32_expand.obj
 0001:000264b0       ?Expand@cmovFF_reg_LEGTNode@@UAEPAVMachNode@@PAVState@@AAVNode_List@@PAVNode@@@Z 080274b0 f   ad_x86_32_expand.obj
 0001:000266b0       ?Expand@cmovXX_reg_LTGENode@@UAEPAVMachNode@@PAVState@@AAVNode_List@@PAVNode@@@Z 080276b0 f   ad_x86_32_expand.obj
 0001:000266b0       ?Expand@cmovXX_reg_EQNENode@@UAEPAVMachNode@@PAVState@@AAVNode_List@@PAVNode@@@Z 080276b0 f   ad_x86_32_expand.obj
 0001:000266b0       ?Expand@cmovXX_reg_LEGTNode@@UAEPAVMachNode@@PAVState@@AAVNode_List@@PAVNode@@@Z 080276b0 f   ad_x86_32_expand.obj
 0001:000268b0       ?Expand@cmpL_zero_flags_EQNENode@@UAEPAVMachNode@@PAVState@@AAVNode_List@@PAVNode@@@Z 080278b0 f   ad_x86_32_expand.obj
 0001:000268b0       ?Expand@cmpL_zero_flags_LEGTNode@@UAEPAVMachNode@@PAVState@@AAVNode_List@@PAVNode@@@Z 080278b0 f   ad_x86_32_expand.obj
 0001:000268b0       ?Expand@cmpL_reg_flags_LTGENode@@UAEPAVMachNode@@PAVState@@AAVNode_List@@PAVNode@@@Z 080278b0 f   ad_x86_32_expand.obj
 0001:000268b0       ?Expand@cmpL_reg_flags_LEGTNode@@UAEPAVMachNode@@PAVState@@AAVNode_List@@PAVNode@@@Z 080278b0 f   ad_x86_32_expand.obj
 0001:00026960       ?Expand@cmpFastLockNode@@UAEPAVMachNode@@PAVState@@AAVNode_List@@PAVNode@@@Z 08027960 f   ad_x86_32_expand.obj
 0001:00026a90       ?Expand@cmpFastUnlockNode@@UAEPAVMachNode@@PAVState@@AAVNode_List@@PAVNode@@@Z 08027a90 f   ad_x86_32_expand.obj
 0001:00026b40       ?Expand@TLSNode@@UAEPAVMachNode@@PAVState@@AAVNode_List@@PAVNode@@@Z 08027b40 f   ad_x86_32_expand.obj
 0001:00026cb0       ?get_int@Node@@QBEHXZ      08027cb0 f i ad_x86_32_gen.obj
 0001:00026ce0       ?is_maximal_no_gc@DefNewGeneration@@UBE_NXZ 08027ce0 f i asParNewGeneration.obj
 0001:00026ce0       ?is_CounterData@CounterData@@UAE_NXZ 08027ce0 f i ciMethodData.obj
 0001:00026ce0       ?is_switch_pad@ChangeSwitchPad@@UAE_NXZ 08027ce0 f i relocator.obj
 0001:00026ce0       ?oop_is_methodData@methodDataKlass@@UBE_NXZ 08027ce0 f i methodDataKlass.obj
 0001:00026ce0       ?must_be_youngest@DefNewGeneration@@UBE_NXZ 08027ce0 f i asParNewGeneration.obj
 0001:00026ce0       ?must_be_oldest@ConcurrentMarkSweepGeneration@@UBE_NXZ 08027ce0 f i concurrentMarkSweepGeneration.obj
 0001:00026ce0       ?is_Compiler_thread@CompilerThread@@UBE_NXZ 08027ce0 f i thread.obj
 0001:00026ce0       ?oop_is_typeArray_slow@typeArrayKlass@@UBE_NXZ 08027ce0 f i typeArrayKlass.obj
 0001:00026ce0       ?is_null_object@ciNullObject@@UBE_NXZ 08027ce0 f i ciObjectFactory.obj
 0001:00026ce0       ?pinned@TailCalljmpIndNode@@UBE_NXZ 08027ce0 f i ad_x86_32_gen.obj
 0001:00026ce0       ?is_constant@ObjectConstant@@UBE_NXZ 08027ce0 f i c1_GraphBuilder.obj
 0001:00026ce0       ?can_trap@TypeCheck@@UBE_NXZ 08027ce0 f i c1_GraphBuilder.obj
 0001:00026ce0       ?card_mark_must_follow_store@G1CollectedHeap@@UBE_NXZ 08027ce0 f i g1CollectedHeap.obj
 0001:00026ce0       ?is_interpreted@InterpretedRFrame@@UBE_NXZ 08027ce0 f i rframe.obj
 0001:00026ce0       ?validate_frame@FrameMap@@IAE_NXZ 08027ce0 f i c1_FrameMap_x86.obj
 0001:00026ce0       ?is_hidden_from_external_view@LowMemoryDetectorThread@@UBE_NXZ 08027ce0 f i lowMemoryDetector.obj
 0001:00026ce0       ?is_interpreted_frame@interpretedVFrame@@UBE_NXZ 08027ce0 f i vframe.obj
 0001:00026ce0       ?needs_stubs@C2Compiler@@UAE_NXZ 08027ce0 f i compileBroker.obj
 0001:00026ce0       ?depends_only_on_test@LoadPLockedNode@@UBE_NXZ 08027ce0 f i macro.obj
 0001:00026ce0       ?pinned@StartNode@@UBE_NXZ 08027ce0 f i compile.obj
 0001:00026ce0       ?is_ReceiverTypeData@ReceiverTypeData@@UAE_NXZ 08027ce0 f i ciMethodData.obj
 0001:00026ce0       ?pinned@cmpL_LTGENode@@UBE_NXZ 08027ce0 f i ad_x86_32_gen.obj
 0001:00026ce0       ?oop_is_constantPoolCache@constantPoolCacheKlass@@UBE_NXZ 08027ce0 f i cpCacheKlass.obj
 0001:00026ce0       ?is_CFG@RethrowNode@@UBE_NXZ 08027ce0 f i callnode.obj
 0001:00026ce0       ?pinned@cmpL_EQNENode@@UBE_NXZ 08027ce0 f i ad_x86_32_gen.obj
 0001:00026ce0       ?supports_heap_inspection@GenCollectedHeap@@UBE_NXZ 08027ce0 f i genCollectedHeap.obj
 0001:00026ce0       ?pinned@GotoNode@@UBE_NXZ  08027ce0 f i block.obj
 0001:00026ce0       ?can_trap@Throw@@UBE_NXZ   08027ce0 f i c1_GraphBuilder.obj
 0001:00026ce0       ?is_ArrayData@ArrayData@@UAE_NXZ 08027ce0 f i ciMethodData.obj
 0001:00026ce0       ?is_compiled@CompiledRFrame@@UBE_NXZ 08027ce0 f i rframe.obj
 0001:00026ce0       ?is_CFG@HaltNode@@UBE_NXZ  08027ce0 f i rootnode.obj
 0001:00026ce0       ?is_constant@FloatConstant@@UBE_NXZ 08027ce0 f i c1_Canonicalizer.obj
 0001:00026ce0       ?is_constant_long@ConstantLongValue@@UBE_NXZ 08027ce0 f i debugInfo.obj
 0001:00026ce0       ?is_method@ciMethod@@UAE_NXZ 08027ce0 f i ciMethod.obj
 0001:00026ce0       ?is_late_inline@LateInlineCallGenerator@@UBE_NXZ 08027ce0 f i callGenerator.obj
 0001:00026ce0       ?is_block@Block@@UAE_NXZ   08027ce0 f i block.obj
 0001:00026ce0       ?needs_pll@VM_CMS_Final_Remark@@UBE?B_NXZ 08027ce0 f i concurrentMarkSweepGeneration.obj
 0001:00026ce0       ?is_inline@InlineCallGenerator@@EBE_NXZ 08027ce0 f i callGenerator.obj
 0001:00026ce0       ?is_CFG@ReturnNode@@UBE_NXZ 08027ce0 f i callnode.obj
 0001:00026ce0       ?is_dynamic_code_event@JvmtiDynamicCodeEventCollector@@UAE_NXZ 08027ce0 f i jvmtiExport.obj
 0001:00026ce0       ?is_constant_int@ConstantIntValue@@UBE_NXZ 08027ce0 f i c1_LinearScan.obj
 0001:00026ce0       ?is_cheap_allocated@VM_ForceAsyncSafepoint@@UBE_NXZ 08027ce0 f i synchronizer.obj
 0001:00026ce0       ?can_trap@MonitorEnter@@UBE_NXZ 08027ce0 f i c1_GraphBuilder.obj
 0001:00026ce0       ?is_divbyzero_stub@DivByZeroStub@@UBE_NXZ 08027ce0 f i c1_LIRAssembler.obj
 0001:00026ce0       ?pinned@jmpDir_shortNode@@UBE_NXZ 08027ce0 f i ad_x86_32.obj
 0001:00026ce0       ?is_safepoint_stub@SafepointBlob@@UBE_NXZ 08027ce0 f i codeBlob.obj
 0001:00026ce0       ?pinned@cmpL_LEGTNode@@UBE_NXZ 08027ce0 f i ad_x86_32_gen.obj
 0001:00026ce0       ?is_constant@ArrayConstant@@UBE_NXZ 08027ce0 f i c1_GraphBuilder.obj
 0001:00026ce0       ?is_finite@TypeLong@@UBE_NXZ 08027ce0 f i type.obj
 0001:00026ce0       ?oop_is_method@methodKlass@@UBE_NXZ 08027ce0 f i methodKlass.obj
 0001:00026ce0       ?oop_is_instanceRef@instanceRefKlass@@UBE_NXZ 08027ce0 f i instanceKlassKlass.obj
 0001:00026ce0       ?is_exception_throw_stub@RangeCheckStub@@UBE_NXZ 08027ce0 f i c1_CodeStubs_x86.obj
 0001:00026ce0       ?is_runtime_stub@runtimeStubNode@@UBE_NXZ 08027ce0 f i fprofiler.obj
 0001:00026ce0       ?is_MultiBranchData@MultiBranchData@@UAE_NXZ 08027ce0 f i ciMethodData.obj
 0001:00026ce0       ?has_write_ref_array_opt@CardTableModRefBS@@UAE_NXZ 08027ce0 f i cardTableModRefBS.obj
 0001:00026ce0       ?is_location@LocationValue@@UBE_NXZ 08027ce0 f i c1_LinearScan.obj
 0001:00026ce0       ?pinned@jmpCon_shortNode@@UBE_NXZ 08027ce0 f i ad_x86_32.obj
 0001:00026ce0       ?pinned@NeverBranchNode@@UBE_NXZ 08027ce0 f i loopnode.obj
 0001:00026ce0       ?apply_to_weak_ref_discovered_field@FilterOutOfRegionClosure@@UAE_NXZ 08027ce0 f i heapRegion.obj
 0001:00026ce0       ?report_results@GenerateOopMap@@UBE_NXZ 08027ce0 f i generateOopMap.obj
 0001:00026ce0       ?report_init_vars@ResolveOopMapConflicts@@EBE_NXZ 08027ce0 f i rewriter.obj
 0001:00026ce0       ?pinned@jumpXtndNode@@UBE_NXZ 08027ce0 f i ad_x86_32_gen.obj
 0001:00026ce0       ?is_compiled@vmNode@@UBE_NXZ 08027ce0 f i fprofiler.obj
 0001:00026ce0       ?oop_is_instanceKlass@instanceKlassKlass@@UBE_NXZ 08027ce0 f i instanceKlassKlass.obj
 0001:00026ce0       ?allow_nested_vm_operations@VM_HandleFullCodeCache@@UBE_NXZ 08027ce0 f i sweeper.obj
 0001:00026ce0       ?supports_inline_contig_alloc@DefNewGeneration@@UBE_NXZ 08027ce0 f i asParNewGeneration.obj
 0001:00026ce0       ?is_java_object@ciArray@@UAE_NXZ 08027ce0 f i ciObjectFactory.obj
 0001:00026ce0       ?is_c2@C2Compiler@@UAE_NXZ 08027ce0 f i compileBroker.obj
 0001:00026ce0       ?can_elide_tlab_store_barriers@ParallelScavengeHeap@@UBE_NXZ 08027ce0 f i universe.obj
 0001:00026ce0       ?is_exception_stub@ExceptionBlob@@UBE_NXZ 08027ce0 f i codeBlob.obj
 0001:00026ce0       ?is_RetData@RetData@@UAE_NXZ 08027ce0 f i ciMethodData.obj
 0001:00026ce0       ?is_constant@InstanceConstant@@UBE_NXZ 08027ce0 f i c1_GraphBuilder.obj
 0001:00026ce0       ?is_constant@ClassConstant@@UBE_NXZ 08027ce0 f i c1_GraphBuilder.obj
 0001:00026ce0       ?oop_is_objArrayKlass@objArrayKlassKlass@@UBE_NXZ 08027ce0 f i objArrayKlassKlass.obj
 0001:00026ce0       ?is_cpcache@ciCPCache@@UBE_NXZ 08027ce0 f i ciObjectFactory.obj
 0001:00026ce0       ?is_obj_array_klass_klass@ciObjArrayKlassKlass@@UAE_NXZ 08027ce0 f i ciObjectFactory.obj
 0001:00026ce0       ?pinned@CreateExNode@@UBE_NXZ 08027ce0 f i doCall.obj
 0001:00026ce0       ?is_java_klass@ciInstanceKlass@@UAE_NXZ 08027ce0 f i ciInstanceKlass.obj
 0001:00026ce0       ?refs_discovery_is_atomic@Generation@@UBE_NXZ 08027ce0 f i asParNewGeneration.obj
 0001:00026ce0       ?is_deferred@WarmCallGenerator@@UBE_NXZ 08027ce0 f i callGenerator.obj
 0001:00026ce0       ?is_entry_frame@entryVFrame@@UBE_NXZ 08027ce0 f i vframe.obj
 0001:00026ce0       ?is_array@ciArray@@UAE_NXZ 08027ce0 f i ciObjectFactory.obj
 0001:00026ce0       ?should_remember_mdo@MarkAndPushClosure@MarkSweep@@UBE?B_NXZ 08027ce0 f i markSweep.obj
 0001:00026ce0       ?doit_prologue@VM_Operation@@UAE_NXZ 08027ce0 f i attachListener.obj
 0001:00026ce0       ?supports_tlab_allocation@G1CollectedHeap@@UBE_NXZ 08027ce0 f i g1CollectedHeap.obj
 0001:00026ce0       ?is_compiled@unknown_compiledNode@@UBE_NXZ 08027ce0 f i fprofiler.obj
 0001:00026ce0       ?pinned@jmpConUCF2_shortNode@@UBE_NXZ 08027ce0 f i ad_x86_32.obj
 0001:00026ce0       ?supports_native@Compiler@@UAE_NXZ 08027ce0 f i c1_Compiler.obj
 0001:00026ce0       ?is_symbol@ciSymbol@@UAE_NXZ 08027ce0 f i ciSymbol.obj
 0001:00026ce0       ?pinned@PCTableNode@@UBE_NXZ 08027ce0 f i doCall.obj
 0001:00026ce0       ?is_CFG@GotoNode@@UBE_NXZ  08027ce0 f i block.obj
 0001:00026ce0       ?is_GC_task_thread@GCTaskThread@@UBE_NXZ 08027ce0 f i gcTaskThread.obj
 0001:00026ce0       ?activate_current@IntervalWalker@@MAE_NXZ 08027ce0 f i c1_LinearScan.obj
 0001:00026ce0       ?apply_to_weak_ref_discovered_field@IntoCSOopClosure@@UAE_NXZ 08027ce0 f i g1RemSet.obj
 0001:00026ce0       ?allow_nested_vm_operations@VM_GetOrSetLocal@@UBE_NXZ 08027ce0 f i jvmtiImpl.obj
 0001:00026ce0       ?is_exception_throw_stub@SimpleExceptionStub@@UBE_NXZ 08027ce0 f i c1_LIRGenerator_x86.obj
 0001:00026ce0       ?can_trap@NewInstance@@UBE_NXZ 08027ce0 f i c1_GraphBuilder.obj
 0001:00026ce0       ?supports_osr@Compiler@@UAE_NXZ 08027ce0 f i c1_Compiler.obj
 0001:00026ce0       ?oop_is_typeArrayKlass@typeArrayKlassKlass@@UBE_NXZ 08027ce0 f i typeArrayKlassKlass.obj
 0001:00026ce0       ?is_parse@ParseGenerator@@UBE_NXZ 08027ce0 f i callGenerator.obj
 0001:00026ce0       ?is_constant@LongConstant@@UBE_NXZ 08027ce0 f i c1_Canonicalizer.obj
 0001:00026ce0       ?is_type_array_klass_klass@ciTypeArrayKlassKlass@@UAE_NXZ 08027ce0 f i ciObjectFactory.obj
 0001:00026ce0       ?is_obj_array@ciObjArray@@UAE_NXZ 08027ce0 f i ciObjectFactory.obj
 0001:00026ce0       ?is_jar_file@ClassPathZipEntry@@UAE_NXZ 08027ce0 f i classLoader.obj
 0001:00026ce0       ?pinned@jmpConUCF_shortNode@@UBE_NXZ 08027ce0 f i ad_x86_32.obj
 0001:00026ce0       ?is_data@poll_Relocation@@EAE_NXZ 08027ce0 f i relocInfo.obj
 0001:00026ce0       ?pinned@jmpConUNode@@UBE_NXZ 08027ce0 f i ad_x86_32_gen.obj
 0001:00026ce0       ?is_call_site@ciCallSite@@UBE_NXZ 08027ce0 f i ciObjectFactory.obj
 0001:00026ce0       ?has_write_ref_array_pre_opt@BarrierSet@@UAE_NXZ 08027ce0 f i cardTableModRefBS.obj
 0001:00026ce0       ?pinned@jmpLoopEndUCFNode@@UBE_NXZ 08027ce0 f i ad_x86_32_gen.obj
 0001:00026ce0       ?oop_is_arrayKlass@arrayKlassKlass@@UBE_NXZ 08027ce0 f i arrayKlassKlass.obj
 0001:00026ce0       ?is_commutative@LogicOp@@UBE_NXZ 08027ce0 f i c1_Instruction.obj
 0001:00026ce0       ?pinned@jmpDirNode@@UBE_NXZ 08027ce0 f i ad_x86_32_gen.obj
 0001:00026ce0       ?pinned@tailjmpIndNode@@UBE_NXZ 08027ce0 f i ad_x86_32_gen.obj
 0001:00026ce0       ?oop_is_objArray_slow@objArrayKlass@@UBE_NXZ 08027ce0 f i objArrayKlassKlass.obj
 0001:00026ce0       ?report_init_vars@GenerateOopMap@@UBE_NXZ 08027ce0 f i generateOopMap.obj
 0001:00026ce0       ?supports_tlab_allocation@ParallelScavengeHeap@@UBE_NXZ 08027ce0 f i universe.obj
 0001:00026ce0       ?is_java_object@ciNullObject@@UAE_NXZ 08027ce0 f i ciObjectFactory.obj
 0001:00026ce0       ?allow_nested_vm_operations@VM_EnterInterpOnlyMode@@UBE_NXZ 08027ce0 f i jvmtiEventController.obj
 0001:00026ce0       ?is_JumpData@JumpData@@UAE_NXZ 08027ce0 f i ciMethodData.obj
 0001:00026ce0       ?is_BranchData@BranchData@@UAE_NXZ 08027ce0 f i ciMethodData.obj
 0001:00026ce0       ?oop_is_constantPool@constantPoolKlass@@UBE_NXZ 08027ce0 f i constantPoolKlass.obj
 0001:00026ce0       ?pinned@ShouldNotReachHereNode@@UBE_NXZ 08027ce0 f i ad_x86_32_gen.obj
 0001:00026ce0       ?is_vm_object_alloc_event@JvmtiVMObjectAllocEventCollector@@UAE_NXZ 08027ce0 f i jvmtiExport.obj
 0001:00026ce0       ?is_gc_memory_manager@GCMemoryManager@@UAE_NXZ 08027ce0 f i memoryManager.obj
 0001:00026ce0       ?supports_heap_inspection@ParallelScavengeHeap@@UBE_NXZ 08027ce0 f i universe.obj
 0001:00026ce0       ?is_CFG@CProjNode@@UBE_NXZ 08027ce0 f i callGenerator.obj
 0001:00026ce0       ?pinned@jmpLoopEndU_shortNode@@UBE_NXZ 08027ce0 f i ad_x86_32.obj
 0001:00026ce0       ?is_CFG@JProjNode@@UBE_NXZ 08027ce0 f i parse2.obj
 0001:00026ce0       ?allow_nested_vm_operations@VM_ChangeSingleStep@@UBE_NXZ 08027ce0 f i jvmtiEventController.obj
 0001:00026ce0       ?is_method_handle@ciMethodHandle@@UBE_NXZ 08027ce0 f i ciObjectFactory.obj
 0001:00026ce0       ?is_Java_thread@JavaThread@@UBE_NXZ 08027ce0 f i concurrentGCThread.obj
 0001:00026ce0       ?singleton@TypeD@@UBE_NXZ  08027ce0 f i type.obj
 0001:00026ce0       ?is_jvmti_agent_thread@JvmtiAgentThread@@UBE_NXZ 08027ce0 f i jvmtiImpl.obj
 0001:00026ce0       ?is_data@poll_return_Relocation@@EAE_NXZ 08027ce0 f i relocInfo.obj
 0001:00026ce0       ?is_klass@ciKlass@@UAE_NXZ 08027ce0 f i ciArrayKlass.obj
 0001:00026ce0       ?is_constant@DoubleConstant@@UBE_NXZ 08027ce0 f i c1_Canonicalizer.obj
 0001:00026ce0       ?supports_heap_inspection@G1CollectedHeap@@UBE_NXZ 08027ce0 f i g1CollectedHeap.obj
 0001:00026ce0       ?is_alive@SingletonBlob@@UBE_NXZ 08027ce0 f i codeBlob.obj
 0001:00026ce0       ?guaranteed_safepoint@CallNode@@UAE_NXZ 08027ce0 f i callGenerator.obj
 0001:00026ce0       ?is_jump_widen@ChangeJumpWiden@@UAE_NXZ 08027ce0 f i relocator.obj
 0001:00026ce0       ?is_ArgInfoData@ArgInfoData@@UAE_NXZ 08027ce0 f i ciMethodData.obj
 0001:00026ce0       ?is_symbol_klass@ciSymbolKlass@@UAE_NXZ 08027ce0 f i ciObjectFactory.obj
 0001:00026ce0       ?is_ConcurrentGC_thread@ConcurrentGCThread@@UBE_NXZ 08027ce0 f i concurrentG1RefineThread.obj
 0001:00026ce0       ?is_top@vframe@@UBE_NXZ    08027ce0 f i vframe.obj
 0001:00026ce0       ?is_CFG@MultiNode@@UBE_NXZ 08027ce0 f i callGenerator.obj
 0001:00026ce0       ?is_ConcurrentGC_thread@ConcurrentMarkSweepThread@@UBE_NXZ 08027ce0 f i concurrentMarkSweepThread.obj
 0001:00026ce0       ?apply_to_weak_ref_discovered_field@FilterInHeapRegionAndIntoCSClosure@@UAE_NXZ 08027ce0 f i g1CollectedHeap.obj
 0001:00026ce0       ?oop_is_klass@klassKlass@@UBE_NXZ 08027ce0 f i arrayKlassKlass.obj
 0001:00026ce0       ?apply_to_weak_ref_discovered_field@G1ParClosureSuper@@UAE_NXZ 08027ce0 f i g1CollectedHeap.obj
 0001:00026ce0       ?is_constant_oop@ConstantOopReadValue@@UBE_NXZ 08027ce0 f i debugInfo.obj
 0001:00026ce0       ?is_return_address@ciReturnAddress@@UAE_NXZ 08027ce0 f i ciType.obj
 0001:00026ce0       ?oop_is_symbol@symbolKlass@@UBE_NXZ 08027ce0 f i symbolKlass.obj
 0001:00026ce0       ?pinned@jmpLoopEnd_shortNode@@UBE_NXZ 08027ce0 f i ad_x86_32.obj
 0001:00026ce0       ?convL2FSupported@Matcher@@SA?B_NXZ 08027ce0 f i ad_x86_32.obj
 0001:00026ce0       ?is_lazy@LazyClassPathEntry@@UAE_NXZ 08027ce0 f i classLoader.obj
 0001:00026ce0       ?is_compiled@adapterNode@@UBE_NXZ 08027ce0 f i fprofiler.obj
 0001:00026ce0       ?idempotent@IntoCSOopClosure@@UAE_NXZ 08027ce0 f i g1RemSet.obj
 0001:00026ce0       ?is_exception_throw_stub@ArrayStoreExceptionStub@@UBE_NXZ 08027ce0 f i c1_CodeStubs_x86.obj
 0001:00026ce0       ?is_compiled@compiledNode@@UBE_NXZ 08027ce0 f i fprofiler.obj
 0001:00026ce0       ?adapter_match@adapterNode@@UBE_NXZ 08027ce0 f i fprofiler.obj
 0001:00026ce0       ?oop_is_array@arrayKlass@@UBE_NXZ 08027ce0 f i objArrayKlassKlass.obj
 0001:00026ce0       ?has_write_region_opt@CardTableModRefBS@@UAE_NXZ 08027ce0 f i cardTableModRefBS.obj
 0001:00026ce0       ?is_stub@stubNode@@UBE_NXZ 08027ce0 f i fprofiler.obj
 0001:00026ce0       ?is_object@ObjectValue@@UBE_NXZ 08027ce0 f i debugInfo.obj
 0001:00026ce0       ?is_collected_pool@CollectedMemoryPool@@UAE_NXZ 08027ce0 f i g1MemoryPool.obj
 0001:00026ce0       ?is_exception_throw_stub@DivByZeroStub@@UBE_NXZ 08027ce0 f i c1_LIRAssembler.obj
 0001:00026ce0       ?pinned@jmpLoopEndUNode@@UBE_NXZ 08027ce0 f i ad_x86_32_gen.obj
 0001:00026ce0       ?is_Named_thread@NamedThread@@UBE_NXZ 08027ce0 f i concurrentG1RefineThread.obj
 0001:00026ce0       ?pinned@jmpConUCF2Node@@UBE_NXZ 08027ce0 f i ad_x86_32_gen.obj
 0001:00026ce0       ?is_intrinsic@LibraryIntrinsic@@UBE_NXZ 08027ce0 f i library_call.obj
 0001:00026ce0       ?reading@ReadClosure@@UBE_NXZ 08027ce0 f i restore.obj
 0001:00026ce0       ?pinned@RetNode@@UBE_NXZ   08027ce0 f i ad_x86_32_gen.obj
 0001:00026ce0       ?supports_osr@AbstractCompiler@@UAE_NXZ 08027ce0 f i c1_Compiler.obj
 0001:00026ce0       ?is_compiled_frame@compiledVFrame@@UBE_NXZ 08027ce0 f i vframe_hp.obj
 0001:00026ce0       ?is_instance@ciInstance@@UAE_NXZ 08027ce0 f i ciObjectFactory.obj
 0001:00026ce0       ?pinned@SafePointScalarObjectNode@@UBE_NXZ 08027ce0 f i callnode.obj
 0001:00026ce0       ?is_classless@ciNullObject@@UBE_NXZ 08027ce0 f i ciObjectFactory.obj
 0001:00026ce0       ?pinned@MachNullCheckNode@@UBE_NXZ 08027ce0 f i lcm.obj
 0001:00026ce0       ?is_klass_klass@ciKlassKlass@@UAE_NXZ 08027ce0 f i ciObjectFactory.obj
 0001:00026ce0       ?is_obj_array_klass@ciObjArrayKlass@@UAE_NXZ 08027ce0 f i ciObjArrayKlass.obj
 0001:00026ce0       ?pinned@jmpConU_shortNode@@UBE_NXZ 08027ce0 f i ad_x86_32.obj
 0001:00026ce0       ?pinned@jmpConUCFNode@@UBE_NXZ 08027ce0 f i ad_x86_32_gen.obj
 0001:00026ce0       ?can_trap@Invoke@@UBE_NXZ  08027ce0 f i c1_Instruction.obj
 0001:00026ce0       ?performs_in_place_marking@Generation@@UBE_NXZ 08027ce0 f i cmsPermGen.obj
 0001:00026ce0       ?is_java_frame@javaVFrame@@UBE_NXZ 08027ce0 f i vframe.obj
 0001:00026ce0       ?is_finite@TypeInt@@UBE_NXZ 08027ce0 f i type.obj
 0001:00026ce0       ?is_BitData@BitData@@UAE_NXZ 08027ce0 f i ciMethodData.obj
 0001:00026ce0       ?can_execute_large_page_memory@os@@SA_NXZ 08027ce0 f i os_windows.obj
 0001:00026ce0       ?pinned@jmpLoopEndNode@@UBE_NXZ 08027ce0 f i ad_x86_32_gen.obj
 0001:00026ce0       ?is_hidden_from_external_view@CompilerThread@@UBE_NXZ 08027ce0 f i thread.obj
 0001:00026ce0       ?is_nmethod@nmethod@@UBE_NXZ 08027ce0 f i nmethod.obj
 0001:00026ce0       ?is_widen@ChangeWiden@@UAE_NXZ 08027ce0 f i relocator.obj
 0001:00026ce0       ?is_uncommon_trap_stub@UncommonTrapBlob@@UBE_NXZ 08027ce0 f i codeBlob.obj
 0001:00026ce0       ?is_CFG@RegionNode@@UBE_NXZ 08027ce0 f i block.obj
 0001:00026ce0       ?is_range_check_stub@RangeCheckStub@@UBE_NXZ 08027ce0 f i c1_CodeStubs_x86.obj
 0001:00026ce0       ?pinned@HaltNode@@UBE_NXZ  08027ce0 f i rootnode.obj
 0001:00026ce0       ?pinned@jmpConNode@@UBE_NXZ 08027ce0 f i ad_x86_32_expand.obj
 0001:00026ce0       ?pinned@IfNode@@UBE_NXZ    08027ce0 f i callGenerator.obj
 0001:00026ce0       ?is_hidden_from_external_view@SurrogateLockerThread@@UBE_NXZ 08027ce0 f i concurrentGCThread.obj
 0001:00026ce0       ?is_virtual@PredictedCallGenerator@@UBE_NXZ 08027ce0 f i callGenerator.obj
 0001:00026ce0       ?is_java_klass@ciArrayKlass@@UAE_NXZ 08027ce0 f i ciArrayKlass.obj
 0001:00026ce0       ?allow_nested_vm_operations@VM_Deoptimize@@UBE_NXZ 08027ce0 f i jvmtiEventController.obj
 0001:00026ce0       ?supports_native@AbstractCompiler@@UAE_NXZ 08027ce0 f i c1_Compiler.obj
 0001:00026ce0       ?singleton@TypeF@@UBE_NXZ  08027ce0 f i type.obj
 0001:00026ce0       ?is_alive@RuntimeStub@@UBE_NXZ 08027ce0 f i codeBlob.obj
 0001:00026ce0       ?is_call@CallRelocation@@UAE_NXZ 08027ce0 f i ad_x86_32.obj
 0001:00026ce0       ?is_cheap_allocated@VM_ThreadStop@@UBE_NXZ 08027ce0 f i thread.obj
 0001:00026ce0       ?has_write_ref_pre_barrier@G1SATBCardTableModRefBS@@UAE_NXZ 08027ce0 f i g1SATBCardTableModRefBS.obj
 0001:00026ce0       ?allow_nested_vm_operations@VM_DeoptimizeFrame@@UBE_NXZ 08027ce0 f i vm_operations.obj
 0001:00026ce0       ?is_c1@Compiler@@UAE_NXZ   08027ce0 f i c1_Compiler.obj
 0001:00026ce0       ?pinned@RethrowExceptionNode@@UBE_NXZ 08027ce0 f i ad_x86_32_gen.obj
 0001:00026ce0       ?evaluate_at_safepoint@VM_CMS_Operation@@UBE_NXZ 08027ce0 f i concurrentMarkSweepGeneration.obj
 0001:00026ce0       ?is_array_klass@ciArrayKlass@@UAE_NXZ 08027ce0 f i ciArrayKlass.obj
 0001:00026ce0       ?is_constant@IntConstant@@UBE_NXZ 08027ce0 f i c1_Canonicalizer.obj
 0001:00026ce0       ?is_instance_klass@ciInstanceKlass@@UAE_NXZ 08027ce0 f i ciInstanceKlass.obj
 0001:00026ce0       ?is_method_data@ciMethodData@@UAE_NXZ 08027ce0 f i ciMethodData.obj
 0001:00026ce0       ?is_leaf_class@klassKlass@@UBE_NXZ 08027ce0 f i arrayKlassKlass.obj
 0001:00026ce0       ?is_array_klass_klass@ciArrayKlassKlass@@UAE_NXZ 08027ce0 f i ciObjectFactory.obj
 0001:00026ce0       ?doit_prologue@VM_BulkRevokeBias@@UAE_NXZ 08027ce0 f i biasedLocking.obj
 0001:00026ce0       ?allow_nested_vm_operations@VM_RedefineClasses@@UBE_NXZ 08027ce0 f i jvmtiRedefineClasses.obj
 0001:00026ce0       ?is_exception_throw_stub@ImplicitNullCheckStub@@UBE_NXZ 08027ce0 f i c1_LIRAssembler.obj
 0001:00026ce0       ?is_VM_thread@VMThread@@UBE_NXZ 08027ce0 f i vmThread.obj
 0001:00026ce0       ?is_loop@CFGLoop@@UAE_NXZ  08027ce0 f i gcm.obj
 0001:00026ce0       ?is_instance_klass_klass@ciInstanceKlassKlass@@UAE_NXZ 08027ce0 f i ciObjectFactory.obj
 0001:00026ce0       ?pinned@SafePointNode@@UBE_NXZ 08027ce0 f i callGenerator.obj
 0001:00026ce0       ?oop_is_constMethod@constMethodKlass@@UBE_NXZ 08027ce0 f i constMethodKlass.obj
 0001:00026ce0       ?is_constant_double@ConstantDoubleValue@@UBE_NXZ 08027ce0 f i debugInfo.obj
 0001:00026ce0       ?oop_is_klass@instanceKlassKlass@@UBE_NXZ 08027ce0 f i instanceKlassKlass.obj
 0001:00026ce0       ?is_constant_oop@ConstantOopWriteValue@@UBE_NXZ 08027ce0 f i c1_LinearScan.obj
 0001:00026ce0       ?allow_nested_vm_operations@VM_ThreadStop@@UBE_NXZ 08027ce0 f i thread.obj
 0001:00026ce0       ?supports_tlab_allocation@DefNewGeneration@@UBE_NXZ 08027ce0 f i asParNewGeneration.obj
 0001:00026ce0       ?is_java_object@ciInstance@@UAE_NXZ 08027ce0 f i ciObjectFactory.obj
 0001:00026ce0       ?can_elide_permanent_oop_store_barriers@G1CollectedHeap@@UBE_NXZ 08027ce0 f i g1CollectedHeap.obj
 0001:00026ce0       ?can_elide_permanent_oop_store_barriers@ParallelScavengeHeap@@UBE_NXZ 08027ce0 f i universe.obj
 0001:00026ce0       ?allow_rewrites@ResolveOopMapConflicts@@EBE_NXZ 08027ce0 f i rewriter.obj
 0001:00026ce0       ?is_data@DataRelocation@@UAE_NXZ 08027ce0 f i ad_x86_32.obj
 0001:00026ce0       ?is_virtual@VirtualCallGenerator@@UBE_NXZ 08027ce0 f i callGenerator.obj
 0001:00026ce0       ?is_runtime_stub@RuntimeStub@@UBE_NXZ 08027ce0 f i codeBlob.obj
 0001:00026ce0       ?register_code_area@os@@SA_NPAD0@Z 08027ce0 f i os_windows_x86.obj
 0001:00026ce0       ?pinned@MachReturnNode@@UBE_NXZ 08027ce0 f i ad_x86_32_gen.obj
 0001:00026ce0       ?oop_is_instance_slow@instanceKlass@@UBE_NXZ 08027ce0 f i instanceKlassKlass.obj
 0001:00026ce0       ?allow_nested_vm_operations@VM_GC_Operation@@UBE_NXZ 08027ce0 f i attachListener.obj
 0001:00026ce0       ?is_VirtualCallData@VirtualCallData@@UAE_NXZ 08027ce0 f i ciMethodData.obj
 0001:00026ce0       ?depends_only_on_test@LoadKlassNode@@UBE_NXZ 08027ce0 f i memnode.obj
 0001:00026ce0       ?apply_to_weak_ref_discovered_field@FilterAndMarkInHeapRegionAndIntoCSClosure@@UAE_NXZ 08027ce0 f i g1CollectedHeap.obj
 0001:00026ce0       ?oop_is_compiledICHolder@compiledICHolderKlass@@UBE_NXZ 08027ce0 f i compiledICHolderKlass.obj
 0001:00026ce0       ?depends_only_on_test@Node@@UBE_NXZ 08027ce0 f i ad_x86_32.obj
 0001:00026ce0       ?must_be_oldest@TenuredGeneration@@UBE_NXZ 08027ce0 f i tenuredGeneration.obj
 0001:00026ce0       ?is_deoptimization_stub@DeoptimizationBlob@@UBE_NXZ 08027ce0 f i codeBlob.obj
 0001:00026ce0       ?is_alive@BufferBlob@@UBE_NXZ 08027ce0 f i codeBlob.obj
 0001:00026ce0       ?can_trap@NewArray@@UBE_NXZ 08027ce0 f i c1_GraphBuilder.obj
 0001:00026ce0       ?has_write_ref_barrier@ModRefBarrierSet@@UAE_NXZ 08027ce0 f i cardTableModRefBS.obj
 0001:00026ce0       ?is_method_klass@ciMethodKlass@@UAE_NXZ 08027ce0 f i ciObjectFactory.obj
 0001:00026ce0       ?is_buffer_blob@BufferBlob@@UBE_NXZ 08027ce0 f i codeBlob.obj
 0001:00026ce0       ?apply_to_weak_ref_discovered_field@UpdateRSOopClosure@@UAE_NXZ 08027ce0 f i g1CollectedHeap.obj
 0001:00026ce0       ?is_trap@UncommonTrapCallGenerator@@UBE_NXZ 08027ce0 f i callGenerator.obj
 0001:00026ce0       ?is_interpreted@interpretedNode@@UBE_NXZ 08027ce0 f i fprofiler.obj
 0001:00026ce0       ?is_type_array_klass@ciTypeArrayKlass@@UAE_NXZ 08027ce0 f i ciTypeArrayKlass.obj
 0001:00026ce0       ?apply_to_weak_ref_discovered_field@FilterIntoCSClosure@@UAE_NXZ 08027ce0 f i heapRegion.obj
 0001:00026ce0       ?can_elide_tlab_store_barriers@GenCollectedHeap@@UBE_NXZ 08027ce0 f i genCollectedHeap.obj
 0001:00026ce0       ?is_type@ciType@@UAE_NXZ   08027ce0 f i ciArrayKlass.obj
 0001:00026ce0       ?is_Watcher_thread@WatcherThread@@UBE_NXZ 08027ce0 f i thread.obj
 0001:00026ce0       ?pinned@jmpLoopEndUCF_shortNode@@UBE_NXZ 08027ce0 f i ad_x86_32.obj
 0001:00026ce0       ?is_type_array@ciTypeArray@@UAE_NXZ 08027ce0 f i ciObjectFactory.obj
 0001:00026ce0       ?is_constant@AddressConstant@@UBE_NXZ 08027ce0 f i c1_GraphBuilder.obj
 0001:00026cf0       ?is_compiled@ProfilerNode@@UBE_NXZ 08027cf0 f i fprofiler.obj
 0001:00026cf0       ?is_type_array_klass@ciObject@@UAE_NXZ 08027cf0 f i ciArrayKlass.obj
 0001:00026cf0       ?has_read_region_opt@ModRefBarrierSet@@UAE_NXZ 08027cf0 f i cardTableModRefBS.obj
 0001:00026cf0       ?is_not_entrant@CodeBlob@@UBE_NXZ 08027cf0 f i codeBlob.obj
 0001:00026cf0       ?is_CFG@Node@@UBE_NXZ      08027cf0 f i ad_x86_32.obj
 0001:00026cf0       ?depends_only_on_test@AryEqNode@@UBE_NXZ 08027cf0 f i library_call.obj
 0001:00026cf0       ?depends_only_on_test@ReturnNode@@UBE_NXZ 08027cf0 f i callnode.obj
 0001:00026cf0       ?is_method_klass@ciObject@@UAE_NXZ 08027cf0 f i ciArrayKlass.obj
 0001:00026cf0       ?is_klass@ciObject@@UAE_NXZ 08027cf0 f i ciMethod.obj
 0001:00026cf0       ?empty@TypeFunc@@EBE_NXZ   08027cf0 f i type.obj
 0001:00026cf0       ?report_results@OopMapForCacheEntry@@EBE_NXZ 08027cf0 f i oopMapCache.obj
 0001:00026cf0       ?is_CounterData@ProfileData@@UAE_NXZ 08027cf0 f i ciMethodData.obj
 0001:00026cf0       ?can_elide_tlab_store_barriers@G1CollectedHeap@@UBE_NXZ 08027cf0 f i g1CollectedHeap.obj
 0001:00026cf0       ?is_instance_klass_klass@ciObject@@UAE_NXZ 08027cf0 f i ciArrayKlass.obj
 0001:00026cf0       ?oop_is_objArray_slow@Klass@@UBE_NXZ 08027cf0 f i arrayKlassKlass.obj
 0001:00026cf0       ?pinned@Node@@UBE_NXZ      08027cf0 f i ad_x86_32.obj
 0001:00026cf0       ?must_be_youngest@ConcurrentMarkSweepGeneration@@UBE_NXZ 08027cf0 f i concurrentMarkSweepGeneration.obj
 0001:00026cf0       ?is_interpreted_frame@vframe@@UBE_NXZ 08027cf0 f i vframe.obj
 0001:00026cf0       ?is_range_check_stub@CodeStub@@UBE_NXZ 08027cf0 f i c1_CodeStubs_x86.obj
 0001:00026cf0       ?singleton@TypeTuple@@UBE_NXZ 08027cf0 f i type.obj
 0001:00026cf0       ?is_jump_widen@ChangeItem@@UAE_NXZ 08027cf0 f i relocator.obj
 0001:00026cf0       ?is_CFG@DivModNode@@UBE_NXZ 08027cf0 f i divnode.obj
 0001:00026cf0       ?allocs_are_zero_filled@G1CollectedHeap@@UAE_NXZ 08027cf0 f i g1CollectedHeap.obj
 0001:00026cf0       ?depends_only_on_test@StoreNode@@MBE_NXZ 08027cf0 f i idealKit.obj
 0001:00026cf0       ?is_compiled_frame@vframe@@UBE_NXZ 08027cf0 f i vframe.obj
 0001:00026cf0       ?needs_pll@VM_CMS_Initial_Mark@@UBE?B_NXZ 08027cf0 f i concurrentMarkSweepGeneration.obj
 0001:00026cf0       ?is_locked_by_vm@CodeBlob@@UBE_NXZ 08027cf0 f i codeBlob.obj
 0001:00026cf0       ?is_divbyzero_stub@CodeStub@@UBE_NXZ 08027cf0 f i c1_CodeStubs_x86.obj
 0001:00026cf0       ?is_array_klass@ciObject@@UAE_NXZ 08027cf0 f i ciInstanceKlass.obj
 0001:00026cf0       ?is_instance_klass@ciObject@@UAE_NXZ 08027cf0 f i ciArrayKlass.obj
 0001:00026cf0       ?supports_tlab_allocation@CollectedHeap@@UBE_NXZ 08027cf0 f i collectedHeap.obj
 0001:00026cf0       ?empty@TypeD@@UBE_NXZ      08027cf0 f i type.obj
 0001:00026cf0       ?is_java_klass@ciObject@@UAE_NXZ 08027cf0 f i ciKlass.obj
 0001:00026cf0       ?depends_only_on_test@MultiNode@@UBE_NXZ 08027cf0 f i callGenerator.obj
 0001:00026cf0       ?is_cheap_allocated@VM_GenCollectFullConcurrent@@UBE_NXZ 08027cf0 f i genCollectedHeap.obj
 0001:00026cf0       ?is_probe_enabled@DTraceJSDT@@SAEPAU_jmethodID@@@Z 08027cf0 f i dtraceJSDT.obj
 0001:00026cf0       ?is_stub@ProfilerNode@@UBE_NXZ 08027cf0 f i fprofiler.obj
 0001:00026cf0       ?oop_is_symbol@Klass@@UBE_NXZ 08027cf0 f i arrayKlassKlass.obj
 0001:00026cf0       ?is_BitData@ProfileData@@UAE_NXZ 08027cf0 f i ciMethodData.obj
 0001:00026cf0       ?is_Compiler_thread@Thread@@UBE_NXZ 08027cf0 f i concurrentG1RefineThread.obj
 0001:00026cf0       ?is_Named_thread@Thread@@UBE_NXZ 08027cf0 f i concurrentGCThread.obj
 0001:00026cf0       ?is_obj_array@ciObject@@UAE_NXZ 08027cf0 f i ciArrayKlass.obj
 0001:00026cf0       ?is_finite@Type@@UBE_NXZ   08027cf0 f i type.obj
 0001:00026cf0       ?is_c1@AbstractCompiler@@UAE_NXZ 08027cf0 f i c1_Compiler.obj
 0001:00026cf0       ?get_page_info@os@@SA_NPADPAUpage_info@1@@Z 08027cf0 f i os_windows.obj
 0001:00026cf0       ?should_remember_mdo@Par_PushOrMarkClosure@@UBE?B_NXZ 08027cf0 f i concurrentMarkSweepGeneration.obj
 0001:00026cf0       ?is_virtual@CallGenerator@@UBE_NXZ 08027cf0 f i callGenerator.obj
 0001:00026cf0       ?is_nan@Type@@UBE_NXZ      08027cf0 f i type.obj
 0001:00026cf0       ?depends_only_on_test@StrCompNode@@UBE_NXZ 08027cf0 f i library_call.obj
 0001:00026cf0       ?is_obj_array_klass_klass@ciObject@@UAE_NXZ 08027cf0 f i ciArrayKlass.obj
 0001:00026cf0       ?is_deoptimization_stub@CodeBlob@@UBE_NXZ 08027cf0 f i codeBlob.obj
 0001:00026cf0       ?must_be_youngest@TenuredGeneration@@UBE_NXZ 08027cf0 f i tenuredGeneration.obj
 0001:00026cf0       ?oop_is_klass@Klass@@UBE_NXZ 08027cf0 f i arrayKlassKlass.obj
 0001:00026cf0       ?apply_to_weak_ref_discovered_field@OopClosure@@UAE_NXZ 08027cf0 f i cardTableExtension.obj
 0001:00026cf0       ?allow_nested_vm_operations@VM_Operation@@UBE_NXZ 08027cf0 f i attachListener.obj
 0001:00026cf0       ?is_constant_long@ScopeValue@@UBE_NXZ 08027cf0 f i c1_LinearScan.obj
 0001:00026cf0       ?is_instance@ciObject@@UAE_NXZ 08027cf0 f i ciArrayKlass.obj
 0001:00026cf0       ?oop_is_method@Klass@@UBE_NXZ 08027cf0 f i arrayKlassKlass.obj
 0001:00026cf0       ?oop_is_instanceKlass@Klass@@UBE_NXZ 08027cf0 f i arrayKlassKlass.obj
 0001:00026cf0       ?is_type_array_klass_klass@ciObject@@UAE_NXZ 08027cf0 f i ciArrayKlass.obj
 0001:00026cf0       ?skip_operation@VM_HeapDumper@@EBE_NXZ 08027cf0 f i heapDumper.obj
 0001:00026cf0       ?report_init_vars@GeneratePairingInfo@@EBE_NXZ 08027cf0 f i ciMethod.obj
 0001:00026cf0       ?idempotent@OopClosure@@UAE_NXZ 08027cf0 f i cardTableExtension.obj
 0001:00026cf0       ?is_vm_object_alloc_event@JvmtiEventCollector@@UAE_NXZ 08027cf0 f i jvmtiExport.obj
 0001:00026cf0       ?is_constant_double@ScopeValue@@UBE_NXZ 08027cf0 f i c1_LinearScan.obj
 0001:00026cf0       ?report_results@GeneratePairingInfo@@EBE_NXZ 08027cf0 f i ciMethod.obj
 0001:00026cf0       ?have_special_privileges@os@@SA_NXZ 08027cf0 f i os_windows.obj
 0001:00026cf0       ?is_constant@ValueType@@UBE_NXZ 08027cf0 f i c1_Canonicalizer.obj
 0001:00026cf0       ?is_Watcher_thread@Thread@@UBE_NXZ 08027cf0 f i concurrentG1RefineThread.obj
 0001:00026cf0       ?guaranteed_safepoint@CallLeafNode@@UAE_NXZ 08027cf0 f i graphKit.obj
 0001:00026cf0       ?must_be_oldest@CompactingPermGenGen@@UBE_NXZ 08027cf0 f i compactingPermGenGen.obj
 0001:00026cf0       ?is_predicted@CallGenerator@@UBE_NXZ 08027cf0 f i callGenerator.obj
 0001:00026cf0       ?has_read_ref_array_opt@ModRefBarrierSet@@UAE_NXZ 08027cf0 f i cardTableModRefBS.obj
 0001:00026cf0       ?has_soft_ended_eden@CollectorPolicy@@UAE_NXZ 08027cf0 f i cmsCollectorPolicy.obj
 0001:00026cf0       ?oop_is_constMethod@Klass@@UBE_NXZ 08027cf0 f i arrayKlassKlass.obj
 0001:00026cf0       ?is_gc_memory_manager@MemoryManager@@UAE_NXZ 08027cf0 f i memoryManager.obj
 0001:00026cf0       ?is_method_data@ciObject@@UAE_NXZ 08027cf0 f i ciArrayKlass.obj
 0001:00026cf0       ?depends_only_on_test@ProjNode@@UBE_NXZ 08027cf0 f i ad_x86_32_expand.obj
 0001:00026cf0       ?depends_only_on_test@LoadStoreNode@@UBE_NXZ 08027cf0 f i library_call.obj
 0001:00026cf0       ?is_compiled_by_c1@CodeBlob@@UBE_NXZ 08027cf0 f i codeBlob.obj
 0001:00026cf0       ?oop_is_methodData@Klass@@UBE_NXZ 08027cf0 f i arrayKlassKlass.obj
 0001:00026cf0       ?allow_nested_vm_operations@VM_EnableBiasedLocking@@UBE_NXZ 08027cf0 f i biasedLocking.obj
 0001:00026cf0       ?is_runtime_stub@ProfilerNode@@UBE_NXZ 08027cf0 f i fprofiler.obj
 0001:00026cf0       ?is_interpreted@RFrame@@UBE_NXZ 08027cf0 f i rframe.obj
 0001:00026cf0       ?constant_is_oop@MachOper@@UBE_NXZ 08027cf0 f i machnode.obj
 0001:00026cf0       ?is_commutative@Op2@@UBE_NXZ 08027cf0 f i c1_GraphBuilder.obj
 0001:00026cf0       ?is_deferred@CallGenerator@@UBE_NXZ 08027cf0 f i callGenerator.obj
 0001:00026cf0       ?is_exception_throw_stub@CodeStub@@UBE_NXZ 08027cf0 f i c1_CodeStubs_x86.obj
 0001:00026cf0       ?pinned@MachCallNode@@UBE_NXZ 08027cf0 f i ad_x86_32_gen.obj
 0001:00026cf0       ?is_trap@CallGenerator@@UBE_NXZ 08027cf0 f i callGenerator.obj
 0001:00026cf0       ?is_RetData@ProfileData@@UAE_NXZ 08027cf0 f i ciMethodData.obj
 0001:00026cf0       ?refs_discovery_is_mt@Generation@@UBE_NXZ 08027cf0 f i compactingPermGenGen.obj
 0001:00026cf0       ?depends_only_on_test@SafePointScalarObjectNode@@UBE_NXZ 08027cf0 f i callnode.obj
 0001:00026cf0       ?is_jvmti_agent_thread@Thread@@UBE_NXZ 08027cf0 f i concurrentG1RefineThread.obj
 0001:00026cf0       ?is_ArrayData@ProfileData@@UAE_NXZ 08027cf0 f i ciMethodData.obj
 0001:00026cf0       ?performs_in_place_marking@DefNewGeneration@@UBE_NXZ 08027cf0 f i asParNewGeneration.obj
 0001:00026cf0       ?is_jar_file@ClassPathDirEntry@@UAE_NXZ 08027cf0 f i classLoader.obj
 0001:00026cf0       ?is_array_klass_klass@ciObject@@UAE_NXZ 08027cf0 f i ciArrayKlass.obj
 0001:00026cf0       ?is_type_array@ciObject@@UAE_NXZ 08027cf0 f i ciArrayKlass.obj
 0001:00026cf0       ?is_ConcurrentGC_thread@Thread@@UBE_NXZ 08027cf0 f i concurrentGCThread.obj
 0001:00026cf0       ?needs_stubs@Compiler@@UAE_NXZ 08027cf0 f i c1_Compiler.obj
 0001:00026cf0       ?is_GC_task_thread@Thread@@UBE_NXZ 08027cf0 f i concurrentG1RefineThread.obj
 0001:00026cf0       ?distribute_processes@os@@SA_NIPAI@Z 08027cf0 f i os_windows.obj
 0001:00026cf0       ?is_supported@DTraceJSDT@@SAEXZ 08027cf0 f i dtraceJSDT.obj
 0001:00026cf0       ?depends_only_on_test@GotoNode@@UBE_NXZ 08027cf0 f i block.obj
 0001:00026cf0       ?is_java_lang_Object@ciObject@@UAE_NXZ 08027cf0 f i ciArrayKlass.obj
 0001:00026cf0       ?is_method_handle@ciObject@@UBE_NXZ 08027cf0 f i ciArrayKlass.obj
 0001:00026cf0       ?is_compiled@RFrame@@UBE_NXZ 08027cf0 f i rframe.obj
 0001:00026cf0       ?is_lazy@ClassPathEntry@@UAE_NXZ 08027cf0 f i classLoader.obj
 0001:00026cf0       ?has_write_prim_barrier@ModRefBarrierSet@@UAE_NXZ 08027cf0 f i cardTableModRefBS.obj
 0001:00026cf0       ?card_mark_must_follow_store@ParallelScavengeHeap@@UBE_NXZ 08027cf0 f i universe.obj
 0001:00026cf0       ?is_array@ciObject@@UAE_NXZ 08027cf0 f i ciArrayKlass.obj
 0001:00026cf0       ?is_constant_oop@ScopeValue@@UBE_NXZ 08027cf0 f i c1_LinearScan.obj
 0001:00026cf0       ?is_java_frame@vframe@@UBE_NXZ 08027cf0 f i vframe.obj
 0001:00026cf0       ?is_buffer_blob@CodeBlob@@UBE_NXZ 08027cf0 f i codeBlob.obj
 0001:00026cf0       ?has_read_prim_barrier@ModRefBarrierSet@@UAE_NXZ 08027cf0 f i cardTableModRefBS.obj
 0001:00026cf0       ?is_methodCompiler@VM_Operation@@UBE_NXZ 08027cf0 f i attachListener.obj
 0001:00026cf0       ?is_cheap_allocated@VM_Operation@@UBE_NXZ 08027cf0 f i attachListener.obj
 0001:00026cf0       ?is_obj_array_klass@ciObject@@UAE_NXZ 08027cf0 f i ciArrayKlass.obj
 0001:00026cf0       ?allow_rewrites@GenerateOopMap@@UBE_NXZ 08027cf0 f i generateOopMap.obj
 0001:00026cf0       ?supports_inline_contig_alloc@Generation@@UBE_NXZ 08027cf0 f i cmsPermGen.obj
 0001:00026cf0       ?oop_is_array@Klass@@UBE_NXZ 08027cf0 f i arrayKlassKlass.obj
 0001:00026cf0       ?is_abstract@ciKlass@@UAE_NXZ 08027cf0 f i ciArrayKlass.obj
 0001:00026cf0       ?is_entry_frame@vframe@@UBE_NXZ 08027cf0 f i vframe.obj
 0001:00026cf0       ?is_call_site@ciObject@@UBE_NXZ 08027cf0 f i ciArrayKlass.obj
 0001:00026cf0       ?oop_is_objArrayKlass@Klass@@UBE_NXZ 08027cf0 f i arrayKlassKlass.obj
 0001:00026cf0       ?oop_is_instanceRef@Klass@@UBE_NXZ 08027cf0 f i arrayKlassKlass.obj
 0001:00026cf0       ?guaranteed_safepoint@LockNode@@UAE_NXZ 08027cf0 f i graphKit.obj
 0001:00026cf0       ?can_trap@Instruction@@UBE_NXZ 08027cf0 f i c1_Canonicalizer.obj
 0001:00026cf0       ?is_java_object@ciObject@@UAE_NXZ 08027cf0 f i ciArrayKlass.obj
 0001:00026cf0       ?is_ReceiverTypeData@ProfileData@@UAE_NXZ 08027cf0 f i ciMethodData.obj
 0001:00026cf0       ?must_be_youngest@CMSPermGenGen@@UBE_NXZ 08027cf0 f i cmsPermGen.obj
 0001:00026cf0       ?allow_nested_vm_operations@VM_CMS_Operation@@UBE_NXZ 08027cf0 f i concurrentMarkSweepGeneration.obj
 0001:00026cf0       ?is_null_object@ciObject@@UBE_NXZ 08027cf0 f i ciArrayKlass.obj
 0001:00026cf0       ?depends_only_on_test@StrEqualsNode@@UBE_NXZ 08027cf0 f i library_call.obj
 0001:00026cf0       ?needs_polling_address_input@SafePointNode@@SA_NXZ 08027cf0 f i ad_x86_32.obj
 0001:00026cf0       ?is_adapter_blob@CodeBlob@@UBE_NXZ 08027cf0 f i codeBlob.obj
 0001:00026cf0       ?is_c2@AbstractCompiler@@UAE_NXZ 08027cf0 f i c1_Compiler.obj
 0001:00026cf0       ?is_CFG@SCMemProjNode@@UBE_NXZ 08027cf0 f i library_call.obj
 0001:00026cf0       ?depends_only_on_test@CastP2XNode@@UBE_NXZ 08027cf0 f i graphKit.obj
 0001:00026cf0       ?is_intrinsic@CallGenerator@@UBE_NXZ 08027cf0 f i callGenerator.obj
 0001:00026cf0       ?is_compiled_by_c2@CodeBlob@@UBE_NXZ 08027cf0 f i codeBlob.obj
 0001:00026cf0       ?is_zombie@CodeBlob@@UBE_NXZ 08027cf0 f i codeBlob.obj
 0001:00026cf0       ?is_MultiBranchData@ProfileData@@UAE_NXZ 08027cf0 f i ciMethodData.obj
 0001:00026cf0       ?reading@WriteClosure@@UBE_NXZ 08027cf0 f i dump.obj
 0001:00026cf0       ?should_remember_mdo@PushOrMarkClosure@@UBE?B_NXZ 08027cf0 f i concurrentMarkSweepGeneration.obj
 0001:00026cf0       ?is_runtime_stub@CodeBlob@@UBE_NXZ 08027cf0 f i codeBlob.obj
 0001:00026cf0       ?is_collected_pool@MemoryPool@@UAE_NXZ 08027cf0 f i memoryPool.obj
 0001:00026cf0       ?has_write_ref_pre_barrier@CardTableModRefBS@@UAE_NXZ 08027cf0 f i cardTableModRefBS.obj
 0001:00026cf0       ?oop_is_thread@Klass@@UBE_NXZ 08027cf0 f i arrayKlassKlass.obj
 0001:00026cf0       ?is_Java_thread@Thread@@UBE_NXZ 08027cf0 f i concurrentG1RefineThread.obj
 0001:00026cf0       ?full_collects_younger_generations@Generation@@UBE_NXZ 08027cf0 f i asParNewGeneration.obj
 0001:00026cf0       ?should_remember_mdo@Par_PushAndMarkClosure@@UBE?B_NXZ 08027cf0 f i concurrentMarkSweepGeneration.obj
 0001:00026cf0       ?is_dynamic_code_event@JvmtiEventCollector@@UAE_NXZ 08027cf0 f i jvmtiExport.obj
 0001:00026cf0       ?is_leaf_type@ciKlass@@UAE_NXZ 08027cf0 f i ciKlass.obj
 0001:00026cf0       ?should_remember_klasses@OopClosure@@UBE?B_NXZ 08027cf0 f i cardTableExtension.obj
 0001:00026cf0       ?is_klass_klass@ciObject@@UAE_NXZ 08027cf0 f i ciArrayKlass.obj
 0001:00026cf0       ?is_exception_stub@CodeBlob@@UBE_NXZ 08027cf0 f i codeBlob.obj
 0001:00026cf0       ?is_init_trigger@AttachListener@@SA_NXZ 08027cf0 f i attachListener_windows.obj
 0001:00026cf0       ?has_read_ref_barrier@ModRefBarrierSet@@UAE_NXZ 08027cf0 f i cardTableModRefBS.obj
 0001:00026cf0       ?report_results@ResolveOopMapConflicts@@EBE_NXZ 08027cf0 f i rewriter.obj
 0001:00026cf0       ?should_remember_mdo@OopClosure@@UBE?B_NXZ 08027cf0 f i cardTableExtension.obj
 0001:00026cf0       ?adapter_match@ProfilerNode@@UBE_NXZ 08027cf0 f i fprofiler.obj
 0001:00026cf0       ?stack_direction@Matcher@@UBE_NXZ 08027cf0 f i ad_x86_32.obj
 0001:00026cf0       ?is_interpreted@ProfilerNode@@UBE_NXZ 08027cf0 f i fprofiler.obj
 0001:00026cf0       ?is_interface@ciKlass@@UAE_NXZ 08027cf0 f i ciArrayKlass.obj
 0001:00026cf0       ?is_type@ciObject@@UAE_NXZ 08027cf0 f i ciMethod.obj
 0001:00026cf0       ?numa_topology_changed@os@@SA_NXZ 08027cf0 f i os_windows.obj
 0001:00026cf0       ?is_location@ScopeValue@@UBE_NXZ 08027cf0 f i c1_LinearScan.obj
 0001:00026cf0       ?refs_discovery_is_atomic@ConcurrentMarkSweepGeneration@@UBE_NXZ 08027cf0 f i cmsPermGen.obj
 0001:00026cf0       ?is_symbol_klass@ciObject@@UAE_NXZ 08027cf0 f i ciArrayKlass.obj
 0001:00026cf0       ?supports_tlab_allocation@Generation@@UBE_NXZ 08027cf0 f i cmsPermGen.obj
 0001:00026cf0       ?is_return_address@ciObject@@UAE_NXZ 08027cf0 f i ciArrayKlass.obj
 0001:00026cf0       ?has_write_prim_array_opt@ModRefBarrierSet@@UAE_NXZ 08027cf0 f i cardTableModRefBS.obj
 0001:00026cf0       ?isSimpleConstant64@Matcher@@SA?B_N_J@Z 08027cf0 f i ad_x86_32.obj
 0001:00026cf0       ?depends_only_on_test@HaltNode@@UBE_NXZ 08027cf0 f i rootnode.obj
 0001:00026cf0       ?must_be_youngest@CompactingPermGenGen@@UBE_NXZ 08027cf0 f i compactingPermGenGen.obj
 0001:00026cf0       ?is_unloaded@CodeBlob@@UBE_NXZ 08027cf0 f i codeBlob.obj
 0001:00026cf0       ?oop_is_arrayKlass@Klass@@UBE_NXZ 08027cf0 f i arrayKlassKlass.obj
 0001:00026cf0       ?is_data@Relocation@@UAE_NXZ 08027cf0 f i ad_x86_32.obj
 0001:00026cf0       ?is_VM_thread@Thread@@UBE_NXZ 08027cf0 f i concurrentG1RefineThread.obj
 0001:00026cf0       ?empty@TypeF@@UBE_NXZ      08027cf0 f i type.obj
 0001:00026cf0       ?is_JumpData@ProfileData@@UAE_NXZ 08027cf0 f i ciMethodData.obj
 0001:00026cf0       ?is_uncommon_trap_stub@CodeBlob@@UBE_NXZ 08027cf0 f i codeBlob.obj
 0001:00026cf0       ?is_call@Relocation@@UAE_NXZ 08027cf0 f i ad_x86_32.obj
 0001:00026cf0       ?is_symbol@ciObject@@UAE_NXZ 08027cf0 f i ciArrayKlass.obj
 0001:00026cf0       ?is_block@CFGElement@@UAE_NXZ 08027cf0 f i block.obj
 0001:00026cf0       ?guaranteed_safepoint@UnlockNode@@UAE_NXZ 08027cf0 f i graphKit.obj
 0001:00026cf0       ?singleton@TypeFunc@@EBE_NXZ 08027cf0 f i type.obj
 0001:00026cf0       ?depends_only_on_test@RegionNode@@UBE_NXZ 08027cf0 f i block.obj
 0001:00026cf0       ?depends_only_on_test@RethrowNode@@UBE_NXZ 08027cf0 f i callnode.obj
 0001:00026cf0       ?should_be_initialized@Klass@@UBE_NXZ 08027cf0 f i arrayKlassKlass.obj
 0001:00026cf0       ?is_nmethod@CodeBlob@@UBE_NXZ 08027cf0 f i codeBlob.obj
 0001:00026cf0       ?is_ArgInfoData@ProfileData@@UAE_NXZ 08027cf0 f i ciMethodData.obj
 0001:00026cf0       ?supports_inline_contig_alloc@CollectedHeap@@UBE_NXZ 08027cf0 f i collectedHeap.obj
 0001:00026cf0       ?is_switch_pad@ChangeItem@@UAE_NXZ 08027cf0 f i relocator.obj
 0001:00026cf0       ?is_widen@ChangeItem@@UAE_NXZ 08027cf0 f i relocator.obj
 0001:00026cf0       ?is_loop@CFGElement@@UAE_NXZ 08027cf0 f i block.obj
 0001:00026cf0       ?is_hidden_from_external_view@Thread@@UBE_NXZ 08027cf0 f i concurrentG1RefineThread.obj
 0001:00026cf0       ?skip_operation@VM_GC_HeapInspection@@UBE_NXZ 08027cf0 f i vmGCOperations.obj
 0001:00026cf0       ?is_method@ciObject@@UAE_NXZ 08027cf0 f i ciArrayKlass.obj
 0001:00026cf0       ?oop_is_typeArrayKlass@Klass@@UBE_NXZ 08027cf0 f i arrayKlassKlass.obj
 0001:00026cf0       ?is_parse@CallGenerator@@UBE_NXZ 08027cf0 f i callGenerator.obj
 0001:00026cf0       ?supports_vtime@os@@SA_NXZ 08027cf0 f i os_windows.obj
 0001:00026cf0       ?oop_is_constantPool@Klass@@UBE_NXZ 08027cf0 f i arrayKlassKlass.obj
 0001:00026cf0       ?disp_is_oop@MachOper@@UBE_NXZ 08027cf0 f i machnode.obj
 0001:00026cf0       ?can_commit_large_page_memory@os@@SA_NXZ 08027cf0 f i os_windows.obj
 0001:00026cf0       ?should_remember_mdo@PushAndMarkClosure@@UBE?B_NXZ 08027cf0 f i concurrentMarkSweepGeneration.obj
 0001:00026cf0       ?is_VirtualCallData@ProfileData@@UAE_NXZ 08027cf0 f i ciMethodData.obj
 0001:00026cf0       ?oop_is_instance_slow@Klass@@UBE_NXZ 08027cf0 f i arrayKlassKlass.obj
 0001:00026cf0       ?must_be_oldest@DefNewGeneration@@UBE_NXZ 08027cf0 f i asParNewGeneration.obj
 0001:00026cf0       ?is_object@ScopeValue@@UBE_NXZ 08027cf0 f i c1_LinearScan.obj
 0001:00026cf0       ?oop_is_compiledICHolder@Klass@@UBE_NXZ 08027cf0 f i arrayKlassKlass.obj
 0001:00026cf0       ?is_classless@ciObject@@UBE_NXZ 08027cf0 f i ciMethod.obj
 0001:00026cf0       ?is_late_inline@CallGenerator@@UBE_NXZ 08027cf0 f i callGenerator.obj
 0001:00026cf0       ?refs_discovery_is_mt@ConcurrentMarkSweepGeneration@@UBE_NXZ 08027cf0 f i cmsPermGen.obj
 0001:00026cf0       ?enable_vtime@os@@SA_NXZ   08027cf0 f i os_windows.obj
 0001:00026cf0       ?is_safepoint_stub@CodeBlob@@UBE_NXZ 08027cf0 f i codeBlob.obj
 0001:00026cf0       ?oop_is_constantPoolCache@Klass@@UBE_NXZ 08027cf0 f i arrayKlassKlass.obj
 0001:00026cf0       ?depends_only_on_test@StrIndexOfNode@@UBE_NXZ 08027cf0 f i library_call.obj
 0001:00026cf0       ?oop_is_typeArray_slow@Klass@@UBE_NXZ 08027cf0 f i arrayKlassKlass.obj
 0001:00026cf0       ?guaranteed_safepoint@AllocateNode@@UAE_NXZ 08027cf0 f i callnode.obj
 0001:00026cf0       ?is_constant_int@ScopeValue@@UBE_NXZ 08027cf0 f i c1_LinearScan.obj
 0001:00026cf0       ?is_inline@CallGenerator@@UBE_NXZ 08027cf0 f i callGenerator.obj
 0001:00026cf0       ?singleton@TypeAry@@UBE_NXZ 08027cf0 f i type.obj
 0001:00026cf0       ?must_be_oldest@CMSPermGenGen@@UBE_NXZ 08027cf0 f i cmsPermGen.obj
 0001:00026cf0       ?bind_to_processor@os@@SA_NI@Z 08027cf0 f i os_windows.obj
 0001:00026cf0       ?has_read_prim_array_opt@ModRefBarrierSet@@UAE_NXZ 08027cf0 f i cardTableModRefBS.obj
 0001:00026cf0       ?allow_rewrites@GeneratePairingInfo@@EBE_NXZ 08027cf0 f i ciMethod.obj
 0001:00026cf0       ?is_cheap_allocated@VM_CMS_Operation@@UBE_NXZ 08027cf0 f i concurrentMarkSweepGeneration.obj
 0001:00026cf0       ?needs_adapters@Compiler@@UAE_NXZ 08027cf0 f i c1_Compiler.obj
 0001:00026cf0       ?is_cpcache@ciObject@@UBE_NXZ 08027cf0 f i ciArrayKlass.obj
 0001:00026cf0       ?is_BranchData@ProfileData@@UAE_NXZ 08027cf0 f i ciMethodData.obj
 0001:00026d00       ?num_edges@immL32Oper@@EBEIXZ 08027d00 f i ad_x86_32_clone.obj
 0001:00026d00       ?as_mark_sweep_policy@CollectorPolicy@@UAEPAVMarkSweepPolicy@@XZ 08027d00 f i cmsCollectorPolicy.obj
 0001:00026d00       ?as_constant@LIR_OprPtr@@UAEPAVLIR_Const@@XZ 08027d00 f i c1_FrameMap_x86.obj
 0001:00026d00       ?num_edges@immXD0Oper@@EBEIXZ 08027d00 f i ad_x86_32_clone.obj
 0001:00026d00       ?num_edges@immI_32Oper@@EBEIXZ 08027d00 f i ad_x86_32_clone.obj
 0001:00026d00       ?const_size@MachNode@@UBEHXZ 08027d00 f i ad_x86_32.obj
 0001:00026d00       ?kind@AdaptiveSizePolicy@@MBE?AW4GCPolicyKind@1@XZ 08027d00 f i adaptiveSizePolicy.obj
 0001:00026d00       ?ideal_reg@MemBarCPUOrderNode@@UBEIXZ 08027d00 f i memnode.obj
 0001:00026d00       ?reloc@MachPrologNode@@UBEHXZ 08027d00 f i ad_x86_32.obj
 0001:00026d00       ?as_Intrinsic@Instruction@@UAEPAVIntrinsic@@XZ 08027d00 f i c1_Canonicalizer.obj
 0001:00026d00       ?as_OpDelay@LIR_Op@@UAEPAVLIR_OpDelay@@XZ 08027d00 f i c1_LIR.obj
 0001:00026d00       ?num_edges@cmpOp_fcmovOper@@EBEIXZ 08027d00 f i ad_x86_32_clone.obj
 0001:00026d00       ?as_OpTypeCheck@LIR_Op@@UAEPAVLIR_OpTypeCheck@@XZ 08027d00 f i c1_LIR.obj
 0001:00026d00       ?as_IfInstanceOf@Instruction@@UAEPAVIfInstanceOf@@XZ 08027d00 f i c1_Canonicalizer.obj
 0001:00026d00       ?as_LongType@ValueType@@UAEPAVLongType@@XZ 08027d00 f i c1_Canonicalizer.obj
 0001:00026d00       ?as_StoreIndexed@Instruction@@UAEPAVStoreIndexed@@XZ 08027d00 f i c1_Canonicalizer.obj
 0001:00026d00       ?as_OpLabel@LIR_Op@@UAEPAVLIR_OpLabel@@XZ 08027d00 f i c1_LIR.obj
 0001:00026d00       ?scale@stackSlotPOper@@UBEHXZ 08027d00 f i ad_x86_32_clone.obj
 0001:00026d00       ?constant_disp@indIndexOper@@UBEHXZ 08027d00 f i ad_x86_32_clone.obj
 0001:00026d00       ?as_AddressType@ValueType@@UAEPAVAddressType@@XZ 08027d00 f i c1_Canonicalizer.obj
 0001:00026d00       ?as_NullCheck@Instruction@@UAEPAVNullCheck@@XZ 08027d00 f i c1_Canonicalizer.obj
 0001:00026d00       ?as_OpRoundFP@LIR_Op@@UAEPAVLIR_OpRoundFP@@XZ 08027d00 f i c1_LIR.obj
 0001:00026d00       ?scale@indOffset32_win95_safeOper@@UBEHXZ 08027d00 f i ad_x86_32.obj
 0001:00026d00       ?scale@indirectOper@@UBEHXZ 08027d00 f i ad_x86_32_clone.obj
 0001:00026d00       ?hash@Opaque2Node@@EBEIXZ  08027d00 f i connode.obj
 0001:00026d00       ?num_edges@directOper@@EBEIXZ 08027d00 f i ad_x86_32_clone.obj
 0001:00026d00       ?hash@RethrowNode@@UBEIXZ  08027d00 f i callnode.obj
 0001:00026d00       ?as_address@LIR_OprPtr@@UAEPAVLIR_Address@@XZ 08027d00 f i c1_FrameMap_x86.obj
 0001:00026d00       ?num_edges@cmpOpUCF2Oper@@EBEIXZ 08027d00 f i ad_x86_32_clone.obj
 0001:00026d00       ?num_edges@methodOper@@EBEIXZ 08027d00 f i ad_x86_32.obj
 0001:00026d00       ?constant_disp@indIndexScaleOper@@UBEHXZ 08027d00 f i ad_x86_32_clone.obj
 0001:00026d00       ?hash@Instruction@@UBEHXZ  08027d00 f i c1_Canonicalizer.obj
 0001:00026d00       ?cell_count@BitData@@UAEHXZ 08027d00 f i ciMethodData.obj
 0001:00026d00       ?base_position@indOffset32XOper@@UBEHXZ 08027d00 f i ad_x86_32_clone.obj
 0001:00026d00       ?Opcode@Node@@UBEHXZ       08027d00 f i classes.obj
 0001:00026d00       ?exact_type@Instruction@@UBEPAVciType@@XZ 08027d00 f i c1_Canonicalizer.obj
 0001:00026d00       ?num_edges@immFOper@@EBEIXZ 08027d00 f i ad_x86_32_clone.obj
 0001:00026d00       ?hash@MergeMemNode@@EBEIXZ 08027d00 f i memnode.obj
 0001:00026d00       ?number_of_saved_registers@Matcher@@SAHXZ 08027d00 f i ad_x86_32.obj
 0001:00026d00       ?as_NewObjectArray@Instruction@@UAEPAVNewObjectArray@@XZ 08027d00 f i c1_Canonicalizer.obj
 0001:00026d00       ?two_adr@MachNode@@UBEIXZ  08027d00 f i ad_x86_32.obj
 0001:00026d00       ?hash@CProjNode@@UBEIXZ    08027d00 f i callGenerator.obj
 0001:00026d00       ?as_DoubleConstant@ValueType@@UAEPAVDoubleConstant@@XZ 08027d00 f i c1_Canonicalizer.obj
 0001:00026d00       ?as_Return@Instruction@@UAEPAVReturn@@XZ 08027d00 f i c1_Canonicalizer.obj
 0001:00026d00       ?num_edges@immD1Oper@@EBEIXZ 08027d00 f i ad_x86_32_clone.obj
 0001:00026d00       ?scale@load_long_indOffset32Oper@@UBEHXZ 08027d00 f i ad_x86_32_clone.obj
 0001:00026d00       ?as_FloatType@ValueType@@UAEPAVFloatType@@XZ 08027d00 f i c1_Canonicalizer.obj
 0001:00026d00       ?as_OpBranch@LIR_Op@@UAEPAVLIR_OpBranch@@XZ 08027d00 f i c1_LIR.obj
 0001:00026d00       ?hash@JProjNode@@UBEIXZ    08027d00 f i parse2.obj
 0001:00026d00       ?as_ArrayType@ValueType@@UAEPAVArrayType@@XZ 08027d00 f i c1_Canonicalizer.obj
 0001:00026d00       ?num_edges@immL_32bitsOper@@EBEIXZ 08027d00 f i ad_x86_32_clone.obj
 0001:00026d00       ?as_Op2@LIR_Op@@UAEPAVLIR_Op2@@XZ 08027d00 f i c1_LIR.obj
 0001:00026d00       ?num_edges@immI_1_31Oper@@EBEIXZ 08027d00 f i ad_x86_32_clone.obj
 0001:00026d00       ?scale@load_long_indirectOper@@UBEHXZ 08027d00 f i ad_x86_32_clone.obj
 0001:00026d00       ?scale@indIndexOffset_win95_safeOper@@UBEHXZ 08027d00 f i ad_x86_32.obj
 0001:00026d00       ?as_InstanceType@ValueType@@UAEPAVInstanceType@@XZ 08027d00 f i c1_Canonicalizer.obj
 0001:00026d00       ?as_OpConvert@LIR_Op@@UAEPAVLIR_OpConvert@@XZ 08027d00 f i c1_LIR.obj
 0001:00026d00       ?info@CodeStub@@UBEPAVCodeEmitInfo@@XZ 08027d00 f i c1_CodeStubs_x86.obj
 0001:00026d00       ?num_edges@immL_127Oper@@EBEIXZ 08027d00 f i ad_x86_32_clone.obj
 0001:00026d00       ?as_LongConstant@ValueType@@UAEPAVLongConstant@@XZ 08027d00 f i c1_Canonicalizer.obj
 0001:00026d00       ?num_edges@cmpOp_commuteOper@@EBEIXZ 08027d00 f i ad_x86_32_clone.obj
 0001:00026d00       ?out_preserve_stack_slots@SharedRuntime@@SAIXZ 08027d00 f i sharedRuntime_x86_32.obj
 0001:00026d00       ?num_edges@immIOper@@EBEIXZ 08027d00 f i ad_x86_32_clone.obj
 0001:00026d00       ?constant_disp@indIndexScale_win95_safeOper@@UBEHXZ 08027d00 f i ad_x86_32.obj
 0001:00026d00       ?as_VoidType@ValueType@@UAEPAVVoidType@@XZ 08027d00 f i c1_Canonicalizer.obj
 0001:00026d00       ?as_OpAllocArray@LIR_Op@@UAEPAVLIR_OpAllocArray@@XZ 08027d00 f i c1_LIR.obj
 0001:00026d00       ?ideal_reg@SCMemProjNode@@UBEIXZ 08027d00 f i library_call.obj
 0001:00026d00       ?as_ArrayConstant@ValueType@@UAEPAVArrayConstant@@XZ 08027d00 f i c1_Canonicalizer.obj
 0001:00026d00       ?kind@CollectorPolicy@@UAE?AW4Name@1@XZ 08027d00 f i cmsCollectorPolicy.obj
 0001:00026d00       ?adr_type@Node@@UBEPBVTypePtr@@XZ 08027d00 f i addnode.obj
 0001:00026d00       ?java_super@Klass@@UBEPAVklassOopDesc@@XZ 08027d00 f i arrayKlassKlass.obj
 0001:00026d00       ?hash@ReturnNode@@UBEIXZ   08027d00 f i callnode.obj
 0001:00026d00       ?as_ObjectConstant@ValueType@@UAEPAVObjectConstant@@XZ 08027d00 f i c1_Canonicalizer.obj
 0001:00026d00       ?scale@indirect_win95_safeOper@@UBEHXZ 08027d00 f i ad_x86_32.obj
 0001:00026d00       ?as_StoreField@Instruction@@UAEPAVStoreField@@XZ 08027d00 f i c1_Canonicalizer.obj
 0001:00026d00       ?ideal_Opcode@MachNode@@UBEHXZ 08027d00 f i ad_x86_32.obj
 0001:00026d00       ?capacity_before_gc@Generation@@UBEIXZ 08027d00 f i cmsPermGen.obj
 0001:00026d00       ?num_edges@immI1Oper@@EBEIXZ 08027d00 f i ad_x86_32_clone.obj
 0001:00026d00       ?scale@indIndexOffsetOper@@UBEHXZ 08027d00 f i ad_x86_32_clone.obj
 0001:00026d00       ?as_OpCompareAndSwap@LIR_Op@@UAEPAVLIR_OpCompareAndSwap@@XZ 08027d00 f i c1_LIR.obj
 0001:00026d00       ?as_StateSplit@Instruction@@UAEPAVStateSplit@@XZ 08027d00 f i c1_Canonicalizer.obj
 0001:00026d00       ?preferred_heap_base@Universe@@SAPADIW4NARROW_OOP_MODE@1@@Z 08027d00 f i universe.obj
 0001:00026d00       ?constant_disp@load_long_indirectOper@@UBEHXZ 08027d00 f i ad_x86_32_clone.obj
 0001:00026d00       ?as_NewArray@Instruction@@UAEPAVNewArray@@XZ 08027d00 f i c1_Canonicalizer.obj
 0001:00026d00       ?num_edges@cmpOpUOper@@EBEIXZ 08027d00 f i ad_x86_32_clone.obj
 0001:00026d00       ?as_OpProfileCall@LIR_Op@@UAEPAVLIR_OpProfileCall@@XZ 08027d00 f i c1_LIR.obj
 0001:00026d00       ?as_InstanceConstant@ValueType@@UAEPAVInstanceConstant@@XZ 08027d00 f i c1_Canonicalizer.obj
 0001:00026d00       ?base_position@indOffset8_win95_safeOper@@UBEHXZ 08027d00 f i ad_x86_32.obj
 0001:00026d00       ?is_IterGVN@PhaseValues@@UAEPAVPhaseIterGVN@@XZ 08027d00 f i compile.obj
 0001:00026d00       ?as_AddressConstant@ValueType@@UAEPAVAddressConstant@@XZ 08027d00 f i c1_Canonicalizer.obj
 0001:00026d00       ?hash@MemBarNode@@EBEIXZ   08027d00 f i memnode.obj
 0001:00026d00       ?as_ShiftOp@Instruction@@UAEPAVShiftOp@@XZ 08027d00 f i c1_Canonicalizer.obj
 0001:00026d00       ?base_position@indIndexOper@@UBEHXZ 08027d00 f i ad_x86_32_clone.obj
 0001:00026d00       ?ideal_reg@Node@@UBEIXZ    08027d00 f i node.obj
 0001:00026d00       ?base_position@indIndexScaleOffset_win95_safeOper@@UBEHXZ 08027d00 f i ad_x86_32.obj
 0001:00026d00       ?base_position@load_long_indirectOper@@UBEHXZ 08027d00 f i ad_x86_32_clone.obj
 0001:00026d00       ?num_edges@immI_16Oper@@EBEIXZ 08027d00 f i ad_x86_32_clone.obj
 0001:00026d00       ?as_Local@Instruction@@UAEPAVLocal@@XZ 08027d00 f i c1_Canonicalizer.obj
 0001:00026d00       ?base_position@load_long_indOffset32Oper@@UBEHXZ 08027d00 f i ad_x86_32_clone.obj
 0001:00026d00       ?num_edges@cmpOpOper@@EBEIXZ 08027d00 f i ad_x86_32_clone.obj
 0001:00026d00       ?num_edges@immL0Oper@@EBEIXZ 08027d00 f i ad_x86_32_clone.obj
 0001:00026d00       ?base_position@indOffset32Oper@@UBEHXZ 08027d00 f i ad_x86_32.obj
 0001:00026d00       ?scale@directOper@@UBEHXZ  08027d00 f i ad_x86_32_clone.obj
 0001:00026d00       ?as_BlockBegin@Instruction@@UAEPAVBlockBegin@@XZ 08027d00 f i c1_Canonicalizer.obj
 0001:00026d00       ?method@vmNode@@UAEPAVmethodOopDesc@@XZ 08027d00 f i fprofiler.obj
 0001:00026d00       ?is_block_proj@Node@@UBEPBV1@XZ 08027d00 f i node.obj
 0001:00026d00       ?opcode@UniverseOper@@UBEIXZ 08027d00 f i ad_x86_32_clone.obj
 0001:00026d00       ?as_HRInto_G1RemSet@G1RemSet@@UAEPAVHRInto_G1RemSet@@XZ 08027d00 f i g1CollectedHeap.obj
 0001:00026d00       ?as_NewMultiArray@Instruction@@UAEPAVNewMultiArray@@XZ 08027d00 f i c1_Canonicalizer.obj
 0001:00026d00       ?num_edges@UniverseOper@@EBEIXZ 08027d00 f i ad_x86_32_clone.obj
 0001:00026d00       ?as_OpRTCall@LIR_Op@@UAEPAVLIR_OpRTCall@@XZ 08027d00 f i c1_LIR.obj
 0001:00026d00       ?varargs_C_out_slots_killed@Compile@@QBEIXZ 08027d00 f i ad_x86_32.obj
 0001:00026d00       ?num_edges@immXFOper@@EBEIXZ 08027d00 f i ad_x86_32_clone.obj
 0001:00026d00       ?as_Throw@Instruction@@UAEPAVThrow@@XZ 08027d00 f i c1_Canonicalizer.obj
 0001:00026d00       ?vtable@Klass@@UBEPAVklassVtable@@XZ 08027d00 f i arrayKlassKlass.obj
 0001:00026d00       ?as_generation_policy@CollectorPolicy@@UAEPAVGenCollectorPolicy@@XZ 08027d00 f i cmsCollectorPolicy.obj
 0001:00026d00       ?scale@indOffset8_win95_safeOper@@UBEHXZ 08027d00 f i ad_x86_32.obj
 0001:00026d00       ?as_OsrEntry@Instruction@@UAEPAVOsrEntry@@XZ 08027d00 f i c1_Canonicalizer.obj
 0001:00026d00       ?as_CardTableRS@GenRemSet@@UAEPAVCardTableRS@@XZ 08027d00 f i cardTableRS.obj
 0001:00026d00       ?as_Op2@Instruction@@UAEPAVOp2@@XZ 08027d00 f i c1_Canonicalizer.obj
 0001:00026d00       ?as_LoadField@Instruction@@UAEPAVLoadField@@XZ 08027d00 f i c1_Canonicalizer.obj
 0001:00026d00       ?name@LIR_Op1@@UBEPBDXZ    08027d00 f i c1_LIR.obj
 0001:00026d00       ?as_Base@Instruction@@UAEPAVBase@@XZ 08027d00 f i c1_Canonicalizer.obj
 0001:00026d00       ?reloc@MachNode@@UBEHXZ    08027d00 f i ad_x86_32.obj
 0001:00026d00       ?base_position@indIndexOffsetOper@@UBEHXZ 08027d00 f i ad_x86_32_clone.obj
 0001:00026d00       ?scale@stackSlotIOper@@UBEHXZ 08027d00 f i ad_x86_32_clone.obj
 0001:00026d00       ?toContiguousSpace@Space@@UAEPAVContiguousSpace@@XZ 08027d00 f i compactibleFreeListSpace.obj
 0001:00026d00       ?hash@Opaque1Node@@EBEIXZ  08027d00 f i connode.obj
 0001:00026d00       ?declared_type@Instruction@@UBEPAVciType@@XZ 08027d00 f i c1_Canonicalizer.obj
 0001:00026d00       ?as_OpArrayCopy@LIR_Op@@UAEPAVLIR_OpArrayCopy@@XZ 08027d00 f i c1_LIR.obj
 0001:00026d00       ?method@unknown_compiledNode@@UAEPAVmethodOopDesc@@XZ 08027d00 f i fprofiler.obj
 0001:00026d00       ?scale@indOffset32XOper@@UBEHXZ 08027d00 f i ad_x86_32_clone.obj
 0001:00026d00       ?as_Op3@LIR_Op@@UAEPAVLIR_Op3@@XZ 08027d00 f i c1_LIR.obj
 0001:00026d00       ?cisc_RegMask@MachNode@@UBEPBVRegMask@@XZ 08027d00 f i ad_x86_32.obj
 0001:00026d00       ?as_IntConstant@ValueType@@UAEPAVIntConstant@@XZ 08027d00 f i c1_Canonicalizer.obj
 0001:00026d00       ?as_Phi@Instruction@@UAEPAVPhi@@XZ 08027d00 f i c1_Canonicalizer.obj
 0001:00026d00       ?scale@stackSlotFOper@@UBEHXZ 08027d00 f i ad_x86_32_clone.obj
 0001:00026d00       ?num_edges@immI_M1Oper@@EBEIXZ 08027d00 f i ad_x86_32_clone.obj
 0001:00026d00       ?base_position@indOffset32_win95_safeOper@@UBEHXZ 08027d00 f i ad_x86_32.obj
 0001:00026d00       ?num_edges@immI8Oper@@EBEIXZ 08027d00 f i ad_x86_32_clone.obj
 0001:00026d00       ?base_position@indIndexScaleOper@@UBEHXZ 08027d00 f i ad_x86_32_clone.obj
 0001:00026d00       ?kind@GCStats@@UAE?AW4Name@1@XZ 08027d00 f i gcStats.obj
 0001:00026d00       ?scale@indOffset32Oper@@UBEHXZ 08027d00 f i ad_x86_32.obj
 0001:00026d00       ?num_edges@immL_M1Oper@@EBEIXZ 08027d00 f i ad_x86_32_clone.obj
 0001:00026d00       ?as_ObjectType@ValueType@@UAEPAVObjectType@@XZ 08027d00 f i c1_Canonicalizer.obj
 0001:00026d00       ?hash@GotoNode@@UBEIXZ     08027d00 f i block.obj
 0001:00026d00       ?constant@MachOper@@UBEHXZ 08027d00 f i machnode.obj
 0001:00026d00       ?num_edges@immI_32_63Oper@@EBEIXZ 08027d00 f i ad_x86_32_clone.obj
 0001:00026d00       ?num_edges@immD0Oper@@EBEIXZ 08027d00 f i ad_x86_32_clone.obj
 0001:00026d00       ?ideal_reg@InitializeNode@@UBEIXZ 08027d00 f i memnode.obj
 0001:00026d00       ?as_ArithmeticOp@Instruction@@UAEPAVArithmeticOp@@XZ 08027d00 f i c1_Canonicalizer.obj
 0001:00026d00       ?num_edges@immI16Oper@@EBEIXZ 08027d00 f i ad_x86_32_clone.obj
 0001:00026d00       ?as_RoundFP@Instruction@@UAEPAVRoundFP@@XZ 08027d00 f i c1_Canonicalizer.obj
 0001:00026d00       ?ccode@MachOper@@UBEHXZ    08027d00 f i machnode.obj
 0001:00026d00       ?ideal_reg@SafePointScalarObjectNode@@UBEIXZ 08027d00 f i callnode.obj
 0001:00026d00       ?as_OpJavaCall@LIR_Op@@UAEPAVLIR_OpJavaCall@@XZ 08027d00 f i c1_LIR.obj
 0001:00026d00       ?hash@HaltNode@@UBEIXZ     08027d00 f i rootnode.obj
 0001:00026d00       ?lock_stack@Instruction@@UBEPAVValueStack@@XZ 08027d00 f i c1_Canonicalizer.obj
 0001:00026d00       ?num_edges@immXDOper@@EBEIXZ 08027d00 f i ad_x86_32_clone.obj
 0001:00026d00       ?as_LookupSwitch@Instruction@@UAEPAVLookupSwitch@@XZ 08027d00 f i c1_Canonicalizer.obj
 0001:00026d00       ?base_position@indOffset8Oper@@UBEHXZ 08027d00 f i ad_x86_32_clone.obj
 0001:00026d00       ?ideal_reg@StartNode@@UBEIXZ 08027d00 f i compile.obj
 0001:00026d00       ?jvmti_class_status@Klass@@UBEHXZ 08027d00 f i klass.obj
 0001:00026d00       ?ret_addr_offset@MachCallNode@@UAEHXZ 08027d00 f i ad_x86_32_gen.obj
 0001:00026d00       ?memory_operand@MachNode@@UBEPBVMachOper@@XZ 08027d00 f i ad_x86_32.obj
 0001:00026d00       ?ideal_reg@CProjNode@@UBEIXZ 08027d00 f i callGenerator.obj
 0001:00026d00       ?num_edges@immDOper@@EBEIXZ 08027d00 f i ad_x86_32_clone.obj
 0001:00026d00       ?hash@FastLockNode@@UBEIXZ 08027d00 f i locknode.obj
 0001:00026d00       ?pd_find_operation@AttachListener@@SAPAUAttachOperationFunctionInfo@@PBD@Z 08027d00 f i attachListener_windows.obj
 0001:00026d00       ?constant_disp@indirectOper@@UBEHXZ 08027d00 f i ad_x86_32_clone.obj
 0001:00026d00       ?num_edges@immI_2Oper@@EBEIXZ 08027d00 f i ad_x86_32_clone.obj
 0001:00026d00       ?hash@StoreNode@@UBEIXZ    08027d00 f i memnode.obj
 0001:00026d00       ?method@adapterNode@@UAEPAVmethodOopDesc@@XZ 08027d00 f i fprofiler.obj
 0001:00026d00       ?num_edges@immI_3Oper@@EBEIXZ 08027d00 f i ad_x86_32_clone.obj
 0001:00026d00       ?allowed_dead_ratio@CompactibleSpace@@UBEIXZ 08027d00 f i compactibleFreeListSpace.obj
 0001:00026d00       ?as_AccessField@Instruction@@UAEPAVAccessField@@XZ 08027d00 f i c1_Canonicalizer.obj
 0001:00026d00       ?scale@indOffset8Oper@@UBEHXZ 08027d00 f i ad_x86_32_clone.obj
 0001:00026d00       ?as_Constant@Instruction@@UAEPAVConstant@@XZ 08027d00 f i c1_Canonicalizer.obj
 0001:00026d00       ?ideal_reg@BinaryNode@@UBEIXZ 08027d00 f i matcher.obj
 0001:00026d00       ?hash@MultiNode@@UBEIXZ    08027d00 f i callGenerator.obj
 0001:00026d00       ?as_IllegalType@ValueType@@UAEPAVIllegalType@@XZ 08027d00 f i c1_Canonicalizer.obj
 0001:00026d00       ?as_CheckCast@Instruction@@UAEPAVCheckCast@@XZ 08027d00 f i c1_Canonicalizer.obj
 0001:00026d00       ?name@LIR_Op@@UBEPBDXZ     08027d00 f i c1_LIR.obj
 0001:00026d00       ?as_MonitorExit@Instruction@@UAEPAVMonitorExit@@XZ 08027d00 f i c1_Canonicalizer.obj
 0001:00026d00       ?as_OpAllocObj@LIR_Op@@UAEPAVLIR_OpAllocObj@@XZ 08027d00 f i c1_LIR.obj
 0001:00026d00       ?ideal_reg@SafePointNode@@UBEIXZ 08027d00 f i callGenerator.obj
 0001:00026d00       ?as_DoubleType@ValueType@@UAEPAVDoubleType@@XZ 08027d00 f i c1_Canonicalizer.obj
 0001:00026d00       ?as_ClassConstant@ValueType@@UAEPAVClassConstant@@XZ 08027d00 f i c1_Canonicalizer.obj
 0001:00026d00       ?evaluation_mode@VM_Operation@@UBE?AW4Mode@1@XZ 08027d00 f i attachListener.obj
 0001:00026d00       ?as_Invoke@Instruction@@UAEPAVInvoke@@XZ 08027d00 f i c1_Canonicalizer.obj
 0001:00026d00       ?as_LogicOp@Instruction@@UAEPAVLogicOp@@XZ 08027d00 f i c1_Canonicalizer.obj
 0001:00026d00       ?scale@stackSlotDOper@@UBEHXZ 08027d00 f i ad_x86_32_clone.obj
 0001:00026d00       ?base_position@indIndexOffset_win95_safeOper@@UBEHXZ 08027d00 f i ad_x86_32.obj
 0001:00026d00       ?main_body_summary@PauseSummary@@UAEPAVMainBodySummary@@XZ 08027d00 f i g1CollectorPolicy.obj
 0001:00026d00       ?as_TableSwitch@Instruction@@UAEPAVTableSwitch@@XZ 08027d00 f i c1_Canonicalizer.obj
 0001:00026d00       ?disp_as_type@MachOper@@UBEPBVTypePtr@@XZ 08027d00 f i ad_x86_32.obj
 0001:00026d00       ?kind@MemoryManager@@UAE?AW4Name@1@XZ 08027d00 f i memoryManager.obj
 0001:00026d00       ?as_IfOp@Instruction@@UAEPAVIfOp@@XZ 08027d00 f i c1_Canonicalizer.obj
 0001:00026d00       ?as_ArrayLength@Instruction@@UAEPAVArrayLength@@XZ 08027d00 f i c1_Canonicalizer.obj
 0001:00026d00       ?num_edges@immI_65535Oper@@EBEIXZ 08027d00 f i ad_x86_32_clone.obj
 0001:00026d00       ?hash@MachCallNode@@MBEIXZ 08027d00 f i ad_x86_32_gen.obj
 0001:00026d00       ?reloc@MachEpilogNode@@UBEHXZ 08027d00 f i ad_x86_32.obj
 0001:00026d00       ?class_loader@Klass@@UBEPAVoopDesc@@XZ 08027d00 f i arrayKlassKlass.obj
 0001:00026d00       ?oop@MachOper@@UBEPAVTypeOopPtr@@XZ 08027d00 f i machnode.obj
 0001:00026d00       ?as_TypeCheck@Instruction@@UAEPAVTypeCheck@@XZ 08027d00 f i c1_Canonicalizer.obj
 0001:00026d00       ?base_position@indIndexScale_win95_safeOper@@UBEHXZ 08027d00 f i ad_x86_32.obj
 0001:00026d00       ?num_edges@immPOper@@EBEIXZ 08027d00 f i ad_x86_32_clone.obj
 0001:00026d00       ?as_Convert@Instruction@@UAEPAVConvert@@XZ 08027d00 f i c1_Canonicalizer.obj
 0001:00026d00       ?as_MonitorEnter@Instruction@@UAEPAVMonitorEnter@@XZ 08027d00 f i c1_Canonicalizer.obj
 0001:00026d00       ?minimum_free_block_size@ContiguousSpace@@UBEIXZ 08027d00 f i compactingPermGenGen.obj
 0001:00026d00       ?method@runtimeStubNode@@UAEPAVmethodOopDesc@@XZ 08027d00 f i fprofiler.obj
 0001:00026d00       ?hash@RegionNode@@UBEIXZ   08027d00 f i block.obj
 0001:00026d00       ?num_edges@immI0Oper@@EBEIXZ 08027d00 f i ad_x86_32_clone.obj
 0001:00026d00       ?numa_get_group_id@os@@SAHXZ 08027d00 f i os_windows.obj
 0001:00026d00       ?loader@ciKlass@@MAEPAVoopDesc@@XZ 08027d00 f i ciArrayKlass.obj
 0001:00026d00       ?as_FloatConstant@ValueType@@UAEPAVFloatConstant@@XZ 08027d00 f i c1_Canonicalizer.obj
 0001:00026d00       ?oper_input_base@MachIdealNode@@UBEIXZ 08027d00 f i ad_x86_32_pipeline.obj
 0001:00026d00       ?as_Op1@LIR_Op@@UAEPAVLIR_Op1@@XZ 08027d00 f i c1_LIR.obj
 0001:00026d00       ?num_edges@immXF0Oper@@EBEIXZ 08027d00 f i ad_x86_32_clone.obj
 0001:00026d00       ?protection_domain@Klass@@UAEPAVoopDesc@@XZ 08027d00 f i arrayKlassKlass.obj
 0001:00026d00       ?as_If@Instruction@@UAEPAVIf@@XZ 08027d00 f i c1_Canonicalizer.obj
 0001:00026d00       ?top_addr@Generation@@UBEPAPAVHeapWord@@XZ 08027d00 f i cmsPermGen.obj
 0001:00026d00       ?base_position@indirectOper@@UBEHXZ 08027d00 f i ad_x86_32_clone.obj
 0001:00026d00       ?num_edges@labelOper@@EBEIXZ 08027d00 f i ad_x86_32.obj
 0001:00026d00       ?protection_domain@ciKlass@@MAEPAVoopDesc@@XZ 08027d00 f i ciArrayKlass.obj
 0001:00026d00       ?type@VM_Dummy@@EBE?AW4VMOp_Type@VM_Operation@@XZ 08027d00 f i vmThread.obj
 0001:00026d00       ?scale@stackSlotLOper@@UBEHXZ 08027d00 f i ad_x86_32_clone.obj
 0001:00026d00       ?as_IntType@ValueType@@UAEPAVIntType@@XZ 08027d00 f i c1_Canonicalizer.obj
 0001:00026d00       ?base_position@indIndexScaleOffsetOper@@UBEHXZ 08027d00 f i ad_x86_32_clone.obj
 0001:00026d00       ?num_edges@immF0Oper@@EBEIXZ 08027d00 f i ad_x86_32_clone.obj
 0001:00026d00       ?kind@ASParNewGeneration@@UAE?AW4Name@Generation@@XZ 08027d00 f i asParNewGeneration.obj
 0001:00026d00       ?rs_kind@CardTableRS@@UAE?AW4Name@GenRemSet@@XZ 08027d00 f i cardTableRS.obj
 0001:00026d00       ?type@Relocation@@UAE?AW4relocType@relocInfo@@XZ 08027d00 f i ad_x86_32.obj
 0001:00026d00       ?constant_disp@MachOper@@UBEHXZ 08027d00 f i machnode.obj
 0001:00026d00       ?is_Parse@GraphKit@@UBEPAVParse@@XZ 08027d00 f i graphKit.obj
 0001:00026d00       ?hash@FastUnlockNode@@UBEIXZ 08027d00 f i locknode.obj
 0001:00026d00       ?as_ExceptionObject@Instruction@@UAEPAVExceptionObject@@XZ 08027d00 f i c1_Canonicalizer.obj
 0001:00026d00       ?as_g1_policy@CollectorPolicy@@UAEPAVG1CollectorPolicy@@XZ 08027d00 f i cmsCollectorPolicy.obj
 0001:00026d00       ?as_BlockEnd@Instruction@@UAEPAVBlockEnd@@XZ 08027d00 f i c1_Canonicalizer.obj
 0001:00026d00       ?as_ClassType@ValueType@@UAEPAVClassType@@XZ 08027d00 f i c1_Canonicalizer.obj
 0001:00026d00       ?as_OpLock@LIR_Op@@UAEPAVLIR_OpLock@@XZ 08027d00 f i c1_LIR.obj
 0001:00026d00       ?num_edges@cmpOpUCFOper@@EBEIXZ 08027d00 f i ad_x86_32_clone.obj
 0001:00026d00       ?as_OpCall@LIR_Op@@UAEPAVLIR_OpCall@@XZ 08027d00 f i c1_LIR.obj
 0001:00026d00       ?size_policy@G1CollectedHeap@@UAEPAVAdaptiveSizePolicy@@XZ 08027d00 f i g1CollectedHeap.obj
 0001:00026d00       ?as_Goto@Instruction@@UAEPAVGoto@@XZ 08027d00 f i c1_Canonicalizer.obj
 0001:00026d00       ?num_edges@immP0Oper@@EBEIXZ 08027d00 f i ad_x86_32_clone.obj
 0001:00026d00       ?as_NewInstance@Instruction@@UAEPAVNewInstance@@XZ 08027d00 f i c1_Canonicalizer.obj
 0001:00026d00       ?kind@CollectedHeap@@UBE?AW4Name@1@XZ 08027d00 f i collectedHeap.obj
 0001:00026d00       ?num_edges@immI_1Oper@@EBEIXZ 08027d00 f i ad_x86_32_clone.obj
 0001:00026d00       ?as_AccessMonitor@Instruction@@UAEPAVAccessMonitor@@XZ 08027d00 f i c1_Canonicalizer.obj
 0001:00026d00       ?as_LoadIndexed@Instruction@@UAEPAVLoadIndexed@@XZ 08027d00 f i c1_Canonicalizer.obj
 0001:00026d00       ?as_two_generation_policy@CollectorPolicy@@UAEPAVTwoGenerationCollectorPolicy@@XZ 08027d00 f i cmsCollectorPolicy.obj
 0001:00026d00       ?as_CompareOp@Instruction@@UAEPAVCompareOp@@XZ 08027d00 f i c1_Canonicalizer.obj
 0001:00026d00       ?as_InstanceOf@Instruction@@UAEPAVInstanceOf@@XZ 08027d00 f i c1_Canonicalizer.obj
 0001:00026d00       ?num_edges@immI2Oper@@EBEIXZ 08027d00 f i ad_x86_32_clone.obj
 0001:00026d00       ?scale@MachOper@@UBEHXZ    08027d00 f i machnode.obj
 0001:00026d00       ?end_addr@Generation@@UBEPAPAVHeapWord@@XZ 08027d00 f i cmsPermGen.obj
 0001:00026d00       ?as_NewTypeArray@Instruction@@UAEPAVNewTypeArray@@XZ 08027d00 f i c1_Canonicalizer.obj
 0001:00026d00       ?loader_handle@ciKlass@@MAEPAV_jobject@@XZ 08027d00 f i ciArrayKlass.obj
 0001:00026d00       ?ideal_reg@JProjNode@@UBEIXZ 08027d00 f i parse2.obj
 0001:00026d00       ?offset@DataRelocation@@UAEHXZ 08027d00 f i ad_x86_32.obj
 0001:00026d00       ?constant_disp@indirect_win95_safeOper@@UBEHXZ 08027d00 f i ad_x86_32.obj
 0001:00026d00       ?as_concurrent_mark_sweep_policy@CollectorPolicy@@UAEPAVConcurrentMarkSweepPolicy@@XZ 08027d00 f i cmsCollectorPolicy.obj
 0001:00026d00       ?num_edges@immI_24Oper@@EBEIXZ 08027d00 f i ad_x86_32_clone.obj
 0001:00026d00       ?scale@indIndexOper@@UBEHXZ 08027d00 f i ad_x86_32_clone.obj
 0001:00026d00       ?as_Op0@LIR_Op@@UAEPAVLIR_Op0@@XZ 08027d00 f i c1_LIR.obj
 0001:00026d00       ?rem_set_name@G1CollectorPolicy@@UAE?AW4Name@GenRemSet@@XZ 08027d00 f i g1CollectorPolicy.obj
 0001:00026d00       ?as_UnsafeOp@Instruction@@UAEPAVUnsafeOp@@XZ 08027d00 f i c1_Canonicalizer.obj
 0001:00026d00       ?num_edges@immLOper@@EBEIXZ 08027d00 f i ad_x86_32_clone.obj
 0001:00026d00       ?as_AccessArray@Instruction@@UAEPAVAccessArray@@XZ 08027d00 f i c1_Canonicalizer.obj
 0001:00026d00       ?num_edges@immI_255Oper@@EBEIXZ 08027d00 f i ad_x86_32_clone.obj
 0001:00026d00       ?protection_domain_handle@ciKlass@@MAEPAV_jobject@@XZ 08027d00 f i ciArrayKlass.obj
 0001:00026d00       ?base_position@indirect_win95_safeOper@@UBEHXZ 08027d00 f i ad_x86_32.obj
 0001:00026d00       ?as_AccessIndexed@Instruction@@UAEPAVAccessIndexed@@XZ 08027d00 f i c1_Canonicalizer.obj
 0001:00026d00       ?as_NegateOp@Instruction@@UAEPAVNegateOp@@XZ 08027d00 f i c1_Canonicalizer.obj
 0001:00026d00       ?rem_set_name@TwoGenerationCollectorPolicy@@UAE?AW4Name@GenRemSet@@XZ 08027d00 f i cmsCollectorPolicy.obj
 0001:00026d00       ?as_HiWord@Instruction@@UAEPAVHiWord@@XZ 08027d00 f i c1_Canonicalizer.obj
 0001:00026d00       ?jvms@Node@@UBEPAVJVMState@@XZ 08027d00 f i node.obj
 0001:00026d10       ??0bytes_reverse_intNode@@QAE@XZ 08027d10 f i ad_x86_32_gen.obj
 0001:00026d40       ?rule@bytes_reverse_intNode@@EBEIXZ 08027d40 f i ad_x86_32_gen.obj
 0001:00026d50       ??0bytes_reverse_longNode@@QAE@XZ 08027d50 f i ad_x86_32_gen.obj
 0001:00026d80       ?rule@bytes_reverse_longNode@@EBEIXZ 08027d80 f i ad_x86_32_gen.obj
 0001:00026d90       ??0countLeadingZerosINode@@QAE@XZ 08027d90 f i ad_x86_32_gen.obj
 0001:00026dc0       ?rule@countLeadingZerosINode@@EBEIXZ 08027dc0 f i ad_x86_32_gen.obj
 0001:00026dd0       ??0countLeadingZerosI_bsrNode@@QAE@XZ 08027dd0 f i ad_x86_32_gen.obj
 0001:00026e00       ?rule@countLeadingZerosI_bsrNode@@EBEIXZ 08027e00 f i ad_x86_32_gen.obj
 0001:00026e10       ??0countLeadingZerosLNode@@QAE@XZ 08027e10 f i ad_x86_32_gen.obj
 0001:00026e40       ?rule@countLeadingZerosLNode@@EBEIXZ 08027e40 f i ad_x86_32_gen.obj
 0001:00026e50       ??0countLeadingZerosL_bsrNode@@QAE@XZ 08027e50 f i ad_x86_32_gen.obj
 0001:00026e80       ?rule@countLeadingZerosL_bsrNode@@EBEIXZ 08027e80 f i ad_x86_32_gen.obj
 0001:00026e90       ??0countTrailingZerosINode@@QAE@XZ 08027e90 f i ad_x86_32_gen.obj
 0001:00026ec0       ?rule@countTrailingZerosINode@@EBEIXZ 08027ec0 f i ad_x86_32_gen.obj
 0001:00026ed0       ??0countTrailingZerosLNode@@QAE@XZ 08027ed0 f i ad_x86_32_gen.obj
 0001:00026f00       ?rule@countTrailingZerosLNode@@EBEIXZ 08027f00 f i ad_x86_32_gen.obj
 0001:00026f10       ??0popCountINode@@QAE@XZ   08027f10 f i ad_x86_32_gen.obj
 0001:00026f40       ??0popCountLNode@@QAE@XZ   08027f40 f i ad_x86_32_gen.obj
 0001:00026f70       ?rule@popCountLNode@@EBEIXZ 08027f70 f i ad_x86_32_gen.obj
 0001:00026f80       ??0loadBNode@@QAE@XZ       08027f80 f i ad_x86_32_gen.obj
 0001:00026fb0       ?rule@loadBNode@@EBEIXZ    08027fb0 f i ad_x86_32_gen.obj
 0001:00026fc0       ??0loadB2LNode@@QAE@XZ     08027fc0 f i ad_x86_32_gen.obj
 0001:00026ff0       ?rule@loadB2LNode@@EBEIXZ  08027ff0 f i ad_x86_32_gen.obj
 0001:00027000       ??0loadUBNode@@QAE@XZ      08028000 f i ad_x86_32_gen.obj
 0001:00027030       ?rule@loadUBNode@@EBEIXZ   08028030 f i ad_x86_32_gen.obj
 0001:00027040       ??0loadUB2LNode@@QAE@XZ    08028040 f i ad_x86_32_gen.obj
 0001:00027070       ?rule@loadUB2LNode@@EBEIXZ 08028070 f i ad_x86_32_gen.obj
 0001:00027080       ??0loadUB2L_immI8Node@@QAE@XZ 08028080 f i ad_x86_32_gen.obj
 0001:000270b0       ?rule@loadUB2L_immI8Node@@EBEIXZ 080280b0 f i ad_x86_32_gen.obj
 0001:000270c0       ??0loadSNode@@QAE@XZ       080280c0 f i ad_x86_32_gen.obj
 0001:000270f0       ?rule@loadSNode@@EBEIXZ    080280f0 f i ad_x86_32_gen.obj
 0001:00027100       ??0loadS2BNode@@QAE@XZ     08028100 f i ad_x86_32_gen.obj
 0001:00027130       ?rule@loadS2BNode@@EBEIXZ  08028130 f i ad_x86_32_gen.obj
 0001:00027140       ??0loadS2LNode@@QAE@XZ     08028140 f i ad_x86_32_gen.obj
 0001:00027170       ?rule@loadS2LNode@@EBEIXZ  08028170 f i ad_x86_32_gen.obj
 0001:00027180       ??0loadUSNode@@QAE@XZ      08028180 f i ad_x86_32_gen.obj
 0001:000271b0       ?rule@loadUSNode@@EBEIXZ   080281b0 f i ad_x86_32_gen.obj
 0001:000271c0       ??0loadUS2BNode@@QAE@XZ    080281c0 f i ad_x86_32_gen.obj
 0001:000271f0       ?rule@loadUS2BNode@@EBEIXZ 080281f0 f i ad_x86_32_gen.obj
 0001:00027200       ??0loadUS2LNode@@QAE@XZ    08028200 f i ad_x86_32_gen.obj
 0001:00027230       ?rule@loadUS2LNode@@EBEIXZ 08028230 f i ad_x86_32_gen.obj
 0001:00027240       ??0loadUS2L_immI_255Node@@QAE@XZ 08028240 f i ad_x86_32_gen.obj
 0001:00027270       ?rule@loadUS2L_immI_255Node@@EBEIXZ 08028270 f i ad_x86_32_gen.obj
 0001:00027280       ??0loadUS2L_immI16Node@@QAE@XZ 08028280 f i ad_x86_32_gen.obj
 0001:000272b0       ?rule@loadUS2L_immI16Node@@EBEIXZ 080282b0 f i ad_x86_32_gen.obj
 0001:000272c0       ??0loadINode@@QAE@XZ       080282c0 f i ad_x86_32_gen.obj
 0001:000272f0       ?rule@loadINode@@EBEIXZ    080282f0 f i ad_x86_32_gen.obj
 0001:00027300       ??0loadI2UBNode@@QAE@XZ    08028300 f i ad_x86_32_gen.obj
 0001:00027330       ?rule@loadI2UBNode@@EBEIXZ 08028330 f i ad_x86_32_gen.obj
 0001:00027340       ??0loadI2USNode@@QAE@XZ    08028340 f i ad_x86_32_gen.obj
 0001:00027370       ?rule@loadI2USNode@@EBEIXZ 08028370 f i ad_x86_32_gen.obj
 0001:00027380       ??0loadI2L_immI_255Node@@QAE@XZ 08028380 f i ad_x86_32_gen.obj
 0001:000273b0       ?rule@loadI2L_immI_255Node@@EBEIXZ 080283b0 f i ad_x86_32_gen.obj
 0001:000273c0       ??0loadI2L_immI_65535Node@@QAE@XZ 080283c0 f i ad_x86_32_gen.obj
 0001:000273f0       ?rule@loadI2L_immI_65535Node@@EBEIXZ 080283f0 f i ad_x86_32_gen.obj
 0001:00027400       ??0loadI2L_immINode@@QAE@XZ 08028400 f i ad_x86_32_gen.obj
 0001:00027430       ?rule@loadI2L_immINode@@EBEIXZ 08028430 f i ad_x86_32_gen.obj
 0001:00027440       ??0loadUI2LNode@@QAE@XZ    08028440 f i ad_x86_32_gen.obj
 0001:00027470       ?rule@loadUI2LNode@@EBEIXZ 08028470 f i ad_x86_32_gen.obj
 0001:00027480       ??0loadLNode@@QAE@XZ       08028480 f i ad_x86_32_gen.obj
 0001:000274b0       ?rule@loadLNode@@EBEIXZ    080284b0 f i ad_x86_32_gen.obj
 0001:000274c0       ??0loadL_volatileNode@@QAE@XZ 080284c0 f i ad_x86_32_gen.obj
 0001:000274f0       ?rule@loadL_volatileNode@@EBEIXZ 080284f0 f i ad_x86_32_gen.obj
 0001:00027500       ??0loadLX_volatileNode@@QAE@XZ 08028500 f i ad_x86_32_gen.obj
 0001:00027530       ?rule@loadLX_volatileNode@@EBEIXZ 08028530 f i ad_x86_32_gen.obj
 0001:00027540       ??0loadLX_reg_volatileNode@@QAE@XZ 08028540 f i ad_x86_32_gen.obj
 0001:00027570       ?rule@loadLX_reg_volatileNode@@EBEIXZ 08028570 f i ad_x86_32_gen.obj
 0001:00027580       ??0loadRangeNode@@QAE@XZ   08028580 f i ad_x86_32_gen.obj
 0001:000275b0       ?rule@loadRangeNode@@EBEIXZ 080285b0 f i ad_x86_32_gen.obj
 0001:000275c0       ??0loadKlassNode@@QAE@XZ   080285c0 f i ad_x86_32_gen.obj
 0001:000275f0       ?rule@loadKlassNode@@EBEIXZ 080285f0 f i ad_x86_32_gen.obj
 0001:00027600       ??0loadDNode@@QAE@XZ       08028600 f i ad_x86_32_gen.obj
 0001:00027630       ?rule@loadDNode@@EBEIXZ    08028630 f i ad_x86_32_gen.obj
 0001:00027640       ??0loadXDNode@@QAE@XZ      08028640 f i ad_x86_32_gen.obj
 0001:00027670       ?rule@loadXDNode@@EBEIXZ   08028670 f i ad_x86_32_gen.obj
 0001:00027680       ??0loadXD_partialNode@@QAE@XZ 08028680 f i ad_x86_32_gen.obj
 0001:000276b0       ?rule@loadXD_partialNode@@EBEIXZ 080286b0 f i ad_x86_32_gen.obj
 0001:000276c0       ?ideal_Opcode@loadXD_partialNode@@EBEHXZ 080286c0 f i ad_x86_32_gen.obj
 0001:000276c0       ?ideal_Opcode@loadDNode@@EBEHXZ 080286c0 f i ad_x86_32_gen.obj
 0001:000276c0       ?ideal_Opcode@loadXDNode@@EBEHXZ 080286c0 f i ad_x86_32_gen.obj
 0001:000276c0       ?Opcode@LoadDNode@@UBEHXZ  080286c0 f i classes.obj
 0001:000276d0       ??0loadXNode@@QAE@XZ       080286d0 f i ad_x86_32_gen.obj
 0001:00027700       ?rule@loadXNode@@EBEIXZ    08028700 f i ad_x86_32_gen.obj
 0001:00027710       ??0loadFNode@@QAE@XZ       08028710 f i ad_x86_32_gen.obj
 0001:00027740       ?rule@loadFNode@@EBEIXZ    08028740 f i ad_x86_32_gen.obj
 0001:00027750       ?ideal_Opcode@loadFNode@@EBEHXZ 08028750 f i ad_x86_32_gen.obj
 0001:00027750       ?Opcode@LoadFNode@@UBEHXZ  08028750 f i classes.obj
 0001:00027750       ?ideal_Opcode@loadXNode@@EBEHXZ 08028750 f i ad_x86_32_gen.obj
 0001:00027760       ??0loadA8BNode@@QAE@XZ     08028760 f i ad_x86_32_gen.obj
 0001:00027790       ?rule@loadA8BNode@@EBEIXZ  08028790 f i ad_x86_32_gen.obj
 0001:000277a0       ??0loadA4SNode@@QAE@XZ     080287a0 f i ad_x86_32_gen.obj
 0001:000277d0       ?rule@loadA4SNode@@EBEIXZ  080287d0 f i ad_x86_32_gen.obj
 0001:000277e0       ??0loadA4CNode@@QAE@XZ     080287e0 f i ad_x86_32_gen.obj
 0001:00027810       ?rule@loadA4CNode@@EBEIXZ  08028810 f i ad_x86_32_gen.obj
 0001:00027820       ??0load2IUNode@@QAE@XZ     08028820 f i ad_x86_32_gen.obj
 0001:00027850       ?rule@load2IUNode@@EBEIXZ  08028850 f i ad_x86_32_gen.obj
 0001:00027860       ??0loadA2FNode@@QAE@XZ     08028860 f i ad_x86_32_gen.obj
 0001:00027890       ?rule@loadA2FNode@@EBEIXZ  08028890 f i ad_x86_32_gen.obj
 0001:000278a0       ??0leaP8Node@@QAE@XZ       080288a0 f i ad_x86_32_gen.obj
 0001:000278d0       ?bottom_type@leaPIdxOffNode@@UBEPBVType@@XZ 080288d0 f i ad_x86_32_gen.obj
 0001:000278d0       ?bottom_type@leaP32Node@@UBEPBVType@@XZ 080288d0 f i ad_x86_32_gen.obj
 0001:000278d0       ?bottom_type@addP_eRegNode@@UBEPBVType@@XZ 080288d0 f i ad_x86_32_gen.obj
 0001:000278d0       ?bottom_type@leaP_eReg_immINode@@UBEPBVType@@XZ 080288d0 f i ad_x86_32_gen.obj
 0001:000278d0       ?bottom_type@leaPIdxScaleNode@@UBEPBVType@@XZ 080288d0 f i ad_x86_32_gen.obj
 0001:000278d0       ?bottom_type@leaP8Node@@UBEPBVType@@XZ 080288d0 f i ad_x86_32_gen.obj
 0001:000278d0       ?bottom_type@leaPIdxScaleOffNode@@UBEPBVType@@XZ 080288d0 f i ad_x86_32_gen.obj
 0001:000278d0       ?bottom_type@subP_eRegNode@@UBEPBVType@@XZ 080288d0 f i ad_x86_32_gen.obj
 0001:000278d0       ?bottom_type@addP_eReg_immNode@@UBEPBVType@@XZ 080288d0 f i ad_x86_32_gen.obj
 0001:000278e0       ??0leaP32Node@@QAE@XZ      080288e0 f i ad_x86_32_gen.obj
 0001:00027910       ??0leaPIdxOffNode@@QAE@XZ  08028910 f i ad_x86_32_gen.obj
 0001:00027940       ??0leaPIdxScaleNode@@QAE@XZ 08028940 f i ad_x86_32_gen.obj
 0001:00027970       ??0leaPIdxScaleOffNode@@QAE@XZ 08028970 f i ad_x86_32_gen.obj
 0001:000279a0       ??0loadConINode@@QAE@XZ    080289a0 f i ad_x86_32_gen.obj
 0001:000279d0       ?rule@loadConINode@@EBEIXZ 080289d0 f i ad_x86_32_gen.obj
 0001:000279d0       ?Opcode@XorVNode@@UBEHXZ   080289d0 f i classes.obj
 0001:000279e0       ?bottom_type@loadConI0Node@@UBEPBVType@@XZ 080289e0 f i ad_x86_32_gen.obj
 0001:000279e0       ?bottom_type@loadConINode@@UBEPBVType@@XZ 080289e0 f i ad_x86_32_gen.obj
 0001:00027a00       ??0loadConI0Node@@QAE@XZ   08028a00 f i ad_x86_32_gen.obj
 0001:00027a30       ?Opcode@VectorLoadNode@@UBEHXZ 08028a30 f i classes.obj
 0001:00027a30       ?rule@loadConI0Node@@EBEIXZ 08028a30 f i ad_x86_32_gen.obj
 0001:00027a40       ?Opcode@ConINode@@UBEHXZ   08028a40 f i classes.obj
 0001:00027a40       ?ideal_Opcode@loadConINode@@EBEHXZ 08028a40 f i ad_x86_32_gen.obj
 0001:00027a40       ?opcode@eFlagsRegUOper@@UBEIXZ 08028a40 f i ad_x86_32_clone.obj
 0001:00027a40       ?ideal_Opcode@loadConI0Node@@EBEHXZ 08028a40 f i ad_x86_32_gen.obj
 0001:00027a50       ??0loadConPNode@@QAE@XZ    08028a50 f i ad_x86_32_gen.obj
 0001:00027a80       ?Opcode@Load16BNode@@UBEHXZ 08028a80 f i classes.obj
 0001:00027a80       ?rule@loadConPNode@@EBEIXZ 08028a80 f i ad_x86_32_gen.obj
 0001:00027a90       ?ideal_Opcode@loadConPNode@@EBEHXZ 08028a90 f i ad_x86_32_gen.obj
 0001:00027a90       ?size_of@MachProjNode@@UBEIXZ 08028a90 f i ad_x86_32_expand.obj
 0001:00027a90       ?Opcode@ConPNode@@UBEHXZ   08028a90 f i classes.obj
 0001:00027a90       ?opcode@flagsReg_long_LTGEOper@@UBEIXZ 08028a90 f i ad_x86_32_clone.obj
 0001:00027a90       ?size_of@string_compareNode@@UBEIXZ 08028a90 f i ad_x86_32_gen.obj
 0001:00027a90       ?size_of@CallJavaNode@@MBEIXZ 08028a90 f i callnode.obj
 0001:00027aa0       ?bottom_type@loadConPNode@@UBEPBVType@@XZ 08028aa0 f i ad_x86_32_gen.obj
 0001:00027ab0       ??0loadConLNode@@QAE@XZ    08028ab0 f i ad_x86_32_gen.obj
 0001:00027ae0       ?Opcode@Load8BNode@@UBEHXZ 08028ae0 f i classes.obj
 0001:00027ae0       ?ideal_Opcode@loadA8BNode@@EBEHXZ 08028ae0 f i ad_x86_32_gen.obj
 0001:00027ae0       ?rule@loadConLNode@@EBEIXZ 08028ae0 f i ad_x86_32_gen.obj
 0001:00027af0       ??0loadConL0Node@@QAE@XZ   08028af0 f i ad_x86_32_gen.obj
 0001:00027b20       ?rule@loadConL0Node@@EBEIXZ 08028b20 f i ad_x86_32_gen.obj
 0001:00027b20       ?Opcode@Load4BNode@@UBEHXZ 08028b20 f i classes.obj
 0001:00027b30       ??0loadConFNode@@QAE@XZ    08028b30 f i ad_x86_32_gen.obj
 0001:00027b60       ?Opcode@Load8CNode@@UBEHXZ 08028b60 f i classes.obj
 0001:00027b60       ?rule@loadConFNode@@EBEIXZ 08028b60 f i ad_x86_32_gen.obj
 0001:00027b70       ??0loadConXNode@@QAE@XZ    08028b70 f i ad_x86_32_gen.obj
 0001:00027ba0       ?rule@loadConXNode@@EBEIXZ 08028ba0 f i ad_x86_32_gen.obj
 0001:00027ba0       ?Opcode@Load4CNode@@UBEHXZ 08028ba0 f i classes.obj
 0001:00027ba0       ?ideal_Opcode@loadA4CNode@@EBEHXZ 08028ba0 f i ad_x86_32_gen.obj
 0001:00027bb0       ??0loadConX0Node@@QAE@XZ   08028bb0 f i ad_x86_32_gen.obj
 0001:00027be0       ?rule@loadConX0Node@@EBEIXZ 08028be0 f i ad_x86_32_gen.obj
 0001:00027be0       ?Opcode@Load2CNode@@UBEHXZ 08028be0 f i classes.obj
 0001:00027bf0       ?Opcode@ConFNode@@UBEHXZ   08028bf0 f i classes.obj
 0001:00027bf0       ?ideal_Opcode@loadConX0Node@@EBEHXZ 08028bf0 f i ad_x86_32_gen.obj
 0001:00027bf0       ?ideal_Opcode@loadConXNode@@EBEHXZ 08028bf0 f i ad_x86_32_gen.obj
 0001:00027bf0       ?opcode@eFlagsRegOper@@UBEIXZ 08028bf0 f i ad_x86_32_clone.obj
 0001:00027bf0       ?ideal_Opcode@loadConFNode@@EBEHXZ 08028bf0 f i ad_x86_32_gen.obj
 0001:00027c00       ?bottom_type@loadConXNode@@UBEPBVType@@XZ 08028c00 f i ad_x86_32_gen.obj
 0001:00027c00       ?bottom_type@loadConFNode@@UBEPBVType@@XZ 08028c00 f i ad_x86_32_gen.obj
 0001:00027c00       ?bottom_type@loadConX0Node@@UBEPBVType@@XZ 08028c00 f i ad_x86_32_gen.obj
 0001:00027c20       ??0loadConDNode@@QAE@XZ    08028c20 f i ad_x86_32_gen.obj
 0001:00027c50       ?rule@loadConDNode@@EBEIXZ 08028c50 f i ad_x86_32_gen.obj
 0001:00027c50       ?Opcode@Load8SNode@@UBEHXZ 08028c50 f i classes.obj
 0001:00027c60       ?bottom_type@loadConDNode@@UBEPBVType@@XZ 08028c60 f i ad_x86_32_gen.obj
 0001:00027c60       ?bottom_type@loadConXDNode@@UBEPBVType@@XZ 08028c60 f i ad_x86_32_gen.obj
 0001:00027c60       ?bottom_type@loadConXD0Node@@UBEPBVType@@XZ 08028c60 f i ad_x86_32_gen.obj
 0001:00027c80       ??0loadConXDNode@@QAE@XZ   08028c80 f i ad_x86_32_gen.obj
 0001:00027cb0       ?rule@loadConXDNode@@EBEIXZ 08028cb0 f i ad_x86_32_gen.obj
 0001:00027cb0       ?Opcode@Load4SNode@@UBEHXZ 08028cb0 f i classes.obj
 0001:00027cb0       ?ideal_Opcode@loadA4SNode@@EBEHXZ 08028cb0 f i ad_x86_32_gen.obj
 0001:00027cc0       ??0loadConXD0Node@@QAE@XZ  08028cc0 f i ad_x86_32_gen.obj
 0001:00027cf0       ?Opcode@Load2SNode@@UBEHXZ 08028cf0 f i classes.obj
 0001:00027cf0       ?rule@loadConXD0Node@@EBEIXZ 08028cf0 f i ad_x86_32_gen.obj
 0001:00027d00       ?size_of@cmovII_reg_LTGENode@@UBEIXZ 08028d00 f i ad_x86_32_gen.obj
 0001:00027d00       ?size_of@string_indexofNode@@UBEIXZ 08028d00 f i ad_x86_32_gen.obj
 0001:00027d00       ?size_of@cadd_cmpLTMask_1Node@@UBEIXZ 08028d00 f i ad_x86_32_gen.obj
 0001:00027d00       ?size_of@jmpConUCF2Node@@UBEIXZ 08028d00 f i ad_x86_32_gen.obj
 0001:00027d00       ?size_of@rolI_eReg_Var_C0Node@@UBEIXZ 08028d00 f i ad_x86_32_gen.obj
 0001:00027d00       ?size_of@jmpConUNode@@UBEIXZ 08028d00 f i ad_x86_32_gen.obj
 0001:00027d00       ?size_of@string_equalsNode@@UBEIXZ 08028d00 f i ad_x86_32_gen.obj
 0001:00027d00       ?size_of@jmpLoopEnd_shortNode@@UBEIXZ 08028d00 f i ad_x86_32.obj
 0001:00027d00       ?ideal_Opcode@loadConXD0Node@@EBEHXZ 08028d00 f i ad_x86_32_gen.obj
 0001:00027d00       ?size_of@rolI_eReg_Var_C0_0Node@@UBEIXZ 08028d00 f i ad_x86_32_gen.obj
 0001:00027d00       ?size_of@cmpL_LTGENode@@UBEIXZ 08028d00 f i ad_x86_32_gen.obj
 0001:00027d00       ?size_of@rorI_eReg_Var_C0_0Node@@UBEIXZ 08028d00 f i ad_x86_32_gen.obj
 0001:00027d00       ?size_of@rolI_eReg_Var_C32_0Node@@UBEIXZ 08028d00 f i ad_x86_32_gen.obj
 0001:00027d00       ?size_of@jmpConUCF_shortNode@@UBEIXZ 08028d00 f i ad_x86_32.obj
 0001:00027d00       ?size_of@jmpLoopEndU_shortNode@@UBEIXZ 08028d00 f i ad_x86_32.obj
 0001:00027d00       ?size_of@rorI_eReg_Var_C32_0Node@@UBEIXZ 08028d00 f i ad_x86_32_gen.obj
 0001:00027d00       ?size_of@cmovI_regUNode@@UBEIXZ 08028d00 f i ad_x86_32_expand.obj
 0001:00027d00       ?size_of@cmovI_regUCFNode@@UBEIXZ 08028d00 f i ad_x86_32_gen.obj
 0001:00027d00       ?ideal_Opcode@loadConXDNode@@EBEHXZ 08028d00 f i ad_x86_32_gen.obj
 0001:00027d00       ?opcode@eADXRegL_low_onlyOper@@UBEIXZ 08028d00 f i ad_x86_32_clone.obj
 0001:00027d00       ?size_of@cmovI_regNode@@UBEIXZ 08028d00 f i ad_x86_32_gen.obj
 0001:00027d00       ?size_of@cmovLL_reg_EQNENode@@UBEIXZ 08028d00 f i ad_x86_32_gen.obj
 0001:00027d00       ?size_of@rolI_eReg_Var_C32Node@@UBEIXZ 08028d00 f i ad_x86_32_gen.obj
 0001:00027d00       ?size_of@jmpConU_shortNode@@UBEIXZ 08028d00 f i ad_x86_32.obj
 0001:00027d00       ?size_of@cmovLL_reg_LTGENode@@UBEIXZ 08028d00 f i ad_x86_32_gen.obj
 0001:00027d00       ?size_of@cmpL_EQNENode@@UBEIXZ 08028d00 f i ad_x86_32_gen.obj
 0001:00027d00       ?size_of@jmpLoopEndUNode@@UBEIXZ 08028d00 f i ad_x86_32_gen.obj
 0001:00027d00       ?size_of@cmovII_reg_LEGTNode@@UBEIXZ 08028d00 f i ad_x86_32_gen.obj
 0001:00027d00       ?size_of@jmpLoopEndUCF_shortNode@@UBEIXZ 08028d00 f i ad_x86_32.obj
 0001:00027d00       ?size_of@jmpCon_shortNode@@UBEIXZ 08028d00 f i ad_x86_32.obj
 0001:00027d00       ?size_of@jmpConUCF2_shortNode@@UBEIXZ 08028d00 f i ad_x86_32.obj
 0001:00027d00       ?size_of@rorI_eReg_Var_C32Node@@UBEIXZ 08028d00 f i ad_x86_32_gen.obj
 0001:00027d00       ?size_of@cmpL_LEGTNode@@UBEIXZ 08028d00 f i ad_x86_32_gen.obj
 0001:00027d00       ?size_of@cmovLL_reg_LEGTNode@@UBEIXZ 08028d00 f i ad_x86_32_gen.obj
 0001:00027d00       ?size_of@cadd_cmpLTMaskNode@@UBEIXZ 08028d00 f i ad_x86_32_gen.obj
 0001:00027d00       ?size_of@storeLX_reg_volatileNode@@UBEIXZ 08028d00 f i ad_x86_32_gen.obj
 0001:00027d00       ?size_of@rorI_eReg_Var_C0Node@@UBEIXZ 08028d00 f i ad_x86_32_gen.obj
 0001:00027d00       ?Opcode@ConDNode@@UBEHXZ   08028d00 f i classes.obj
 0001:00027d00       ?size_of@jmpLoopEndUCFNode@@UBEIXZ 08028d00 f i ad_x86_32_gen.obj
 0001:00027d00       ?size_of@jmpLoopEndNode@@UBEIXZ 08028d00 f i ad_x86_32_gen.obj
 0001:00027d00       ?size_of@cmovII_reg_EQNENode@@UBEIXZ 08028d00 f i ad_x86_32_gen.obj
 0001:00027d00       ?size_of@cadd_cmpLTMask_2Node@@UBEIXZ 08028d00 f i ad_x86_32_gen.obj
 0001:00027d00       ?size_of@cmpFastLockNode@@UBEIXZ 08028d00 f i ad_x86_32_gen.obj
 0001:00027d00       ?ideal_Opcode@loadConDNode@@EBEHXZ 08028d00 f i ad_x86_32_gen.obj
 0001:00027d00       ?size_of@jmpConNode@@UBEIXZ 08028d00 f i ad_x86_32_expand.obj
 0001:00027d00       ?size_of@jmpConUCFNode@@UBEIXZ 08028d00 f i ad_x86_32_gen.obj
 0001:00027d00       ?size_of@cadd_cmpLTMask_0Node@@UBEIXZ 08028d00 f i ad_x86_32_gen.obj
 0001:00027d00       ?size_of@jumpXtndNode@@UBEIXZ 08028d00 f i ad_x86_32_gen.obj
 0001:00027d00       ?size_of@TailCalljmpIndNode@@UBEIXZ 08028d00 f i ad_x86_32_gen.obj
 0001:00027d00       ?size_of@tailjmpIndNode@@UBEIXZ 08028d00 f i ad_x86_32_gen.obj
 0001:00027d10       ?size_of@loadUBNode@@UBEIXZ 08028d10 f i ad_x86_32_gen.obj
 0001:00027d10       ?size_of@loadS2LNode@@UBEIXZ 08028d10 f i ad_x86_32_gen.obj
 0001:00027d10       ?size_of@log10D_regNode@@UBEIXZ 08028d10 f i ad_x86_32_gen.obj
 0001:00027d10       ?size_of@MoveF2I_stack_regNode@@UBEIXZ 08028d10 f i ad_x86_32_gen.obj
 0001:00027d10       ?size_of@loadB2LNode@@UBEIXZ 08028d10 f i ad_x86_32_gen.obj
 0001:00027d10       ?size_of@Repl4S_immI0Node@@UBEIXZ 08028d10 f i ad_x86_32_gen.obj
 0001:00027d10       ?size_of@loadDNode@@UBEIXZ 08028d10 f i ad_x86_32_gen.obj
 0001:00027d10       ?size_of@expXD_regNode@@UBEIXZ 08028d10 f i ad_x86_32_gen.obj
 0001:00027d10       ?size_of@Repl4C_immI0Node@@UBEIXZ 08028d10 f i ad_x86_32_gen.obj
 0001:00027d10       ?size_of@loadFNode@@UBEIXZ 08028d10 f i ad_x86_32_gen.obj
 0001:00027d10       ?size_of@bytes_reverse_longNode@@UBEIXZ 08028d10 f i ad_x86_32_gen.obj
 0001:00027d10       ?size_of@loadA4SNode@@UBEIXZ 08028d10 f i ad_x86_32_gen.obj
 0001:00027d10       ?size_of@Repl8B_regNode@@UBEIXZ 08028d10 f i ad_x86_32_gen.obj
 0001:00027d10       ?size_of@sqrtD_regNode@@UBEIXZ 08028d10 f i ad_x86_32_gen.obj
 0001:00027d10       ?size_of@MoveL2D_reg_stackNode@@UBEIXZ 08028d10 f i ad_x86_32_gen.obj
 0001:00027d10       ?size_of@loadSSLNode@@UBEIXZ 08028d10 f i ad_x86_32_gen.obj
 0001:00027d10       ?size_of@prefetchrNTANode@@UBEIXZ 08028d10 f i ad_x86_32_gen.obj
 0001:00027d10       ?size_of@Repl4S_eRegINode@@UBEIXZ 08028d10 f i ad_x86_32_gen.obj
 0001:00027d10       ?size_of@storeSSINode@@UBEIXZ 08028d10 f i ad_x86_32_gen.obj
 0001:00027d10       ?size_of@loadConL0Node@@UBEIXZ 08028d10 f i ad_x86_32_gen.obj
 0001:00027d10       ?size_of@castP2XNode@@UBEIXZ 08028d10 f i ad_x86_32_gen.obj
 0001:00027d10       ?size_of@MoveF2I_reg_stack_sseNode@@UBEIXZ 08028d10 f i ad_x86_32_gen.obj
 0001:00027d10       ?size_of@MoveI2F_stack_reg_sseNode@@UBEIXZ 08028d10 f i ad_x86_32_gen.obj
 0001:00027d10       ?size_of@Repl4C_eRegINode@@UBEIXZ 08028d10 f i ad_x86_32_gen.obj
 0001:00027d10       ?size_of@MoveL2D_stack_reg_sseNode@@UBEIXZ 08028d10 f i ad_x86_32_gen.obj
 0001:00027d10       ?size_of@roundDouble_mem_regNode@@UBEIXZ 08028d10 f i ad_x86_32_expand.obj
 0001:00027d10       ?size_of@Repl2F_regNode@@UBEIXZ 08028d10 f i ad_x86_32_gen.obj
 0001:00027d10       ?size_of@MoveF2I_reg_reg_sseNode@@UBEIXZ 08028d10 f i ad_x86_32_gen.obj
 0001:00027d10       ?size_of@loadXNode@@UBEIXZ 08028d10 f i ad_x86_32_gen.obj
 0001:00027d10       ?size_of@negD_regNode@@UBEIXZ 08028d10 f i ad_x86_32_gen.obj
 0001:00027d10       ?size_of@castIINode@@UBEIXZ 08028d10 f i ad_x86_32_gen.obj
 0001:00027d10       ?size_of@convF2I_reg_regNode@@UBEIXZ 08028d10 f i ad_x86_32_gen.obj
 0001:00027d10       ?size_of@sinD_regNode@@UBEIXZ 08028d10 f i ad_x86_32_gen.obj
 0001:00027d10       ?size_of@loadI2LNode@@UBEIXZ 08028d10 f i ad_x86_32.obj
 0001:00027d10       ?size_of@Repl2I_eRegINode@@UBEIXZ 08028d10 f i ad_x86_32_gen.obj
 0001:00027d10       ?size_of@leaP32Node@@UBEIXZ 08028d10 f i ad_x86_32_gen.obj
 0001:00027d10       ?ideal_Opcode@cmpXD_ccmemNode@@EBEHXZ 08028d10 f i ad_x86_32.obj
 0001:00027d10       ?size_of@jmpDirNode@@UBEIXZ 08028d10 f i ad_x86_32_gen.obj
 0001:00027d10       ?size_of@logXD_regNode@@UBEIXZ 08028d10 f i ad_x86_32_gen.obj
 0001:00027d10       ?size_of@MoveF2I_reg_stackNode@@UBEIXZ 08028d10 f i ad_x86_32_gen.obj
 0001:00027d10       ?size_of@MoveL2D_stack_reg_sse_partialNode@@UBEIXZ 08028d10 f i ad_x86_32_gen.obj
 0001:00027d10       ?size_of@sinXD_regNode@@UBEIXZ 08028d10 f i ad_x86_32_gen.obj
 0001:00027d10       ?size_of@prefetchwT2Node@@UBEIXZ 08028d10 f i ad_x86_32_gen.obj
 0001:00027d10       ?ideal_Opcode@cmpD_cc_P6CFNode@@EBEHXZ 08028d10 f i ad_x86_32_gen.obj
 0001:00027d10       ?size_of@MoveI2F_reg_reg_sseNode@@UBEIXZ 08028d10 f i ad_x86_32_gen.obj
 0001:00027d10       ?size_of@convI2BNode@@UBEIXZ 08028d10 f i ad_x86_32_gen.obj
 0001:00027d10       ?size_of@convI2F_regNode@@UBEIXZ 08028d10 f i ad_x86_32_gen.obj
 0001:00027d10       ?size_of@convI2F_memNode@@UBEIXZ 08028d10 f i ad_x86_32_gen.obj
 0001:00027d10       ?ideal_Opcode@cmpXD_ccmemCFNode@@EBEHXZ 08028d10 f i ad_x86_32.obj
 0001:00027d10       ?size_of@loadINode@@UBEIXZ 08028d10 f i ad_x86_32_gen.obj
 0001:00027d10       ?size_of@loadUS2LNode@@UBEIXZ 08028d10 f i ad_x86_32_gen.obj
 0001:00027d10       ?size_of@convP2BNode@@UBEIXZ 08028d10 f i ad_x86_32_gen.obj
 0001:00027d10       ?size_of@loadConLNode@@UBEIXZ 08028d10 f i ad_x86_32_gen.obj
 0001:00027d10       ?size_of@Repl4S_regNode@@UBEIXZ 08028d10 f i ad_x86_32_gen.obj
 0001:00027d10       ?size_of@Repl4C_regNode@@UBEIXZ 08028d10 f i ad_x86_32_gen.obj
 0001:00027d10       ?size_of@convX2D_regNode@@UBEIXZ 08028d10 f i ad_x86_32_gen.obj
 0001:00027d10       ?size_of@convF2D_reg_regNode@@UBEIXZ 08028d10 f i ad_x86_32_gen.obj
 0001:00027d10       ?size_of@convX2XD_regNode@@UBEIXZ 08028d10 f i ad_x86_32_gen.obj
 0001:00027d10       ?size_of@loadSSDNode@@UBEIXZ 08028d10 f i ad_x86_32_gen.obj
 0001:00027d10       ?size_of@logD_regNode@@UBEIXZ 08028d10 f i ad_x86_32_gen.obj
 0001:00027d10       ?size_of@Repl8B_eRegINode@@UBEIXZ 08028d10 f i ad_x86_32_gen.obj
 0001:00027d10       ?size_of@negXD_regNode@@UBEIXZ 08028d10 f i ad_x86_32_gen.obj
 0001:00027d10       ?size_of@convX2I_regNode@@UBEIXZ 08028d10 f i ad_x86_32_gen.obj
 0001:00027d10       ?size_of@loadConFNode@@UBEIXZ 08028d10 f i ad_x86_32_gen.obj
 0001:00027d10       ?size_of@loadSSINode@@UBEIXZ 08028d10 f i ad_x86_32_gen.obj
 0001:00027d10       ?size_of@convI2F_SSFNode@@UBEIXZ 08028d10 f i ad_x86_32_gen.obj
 0001:00027d10       ?size_of@negF_regNode@@UBEIXZ 08028d10 f i ad_x86_32_gen.obj
 0001:00027d10       ?size_of@loadConI0Node@@UBEIXZ 08028d10 f i ad_x86_32_gen.obj
 0001:00027d10       ?size_of@negX_regNode@@UBEIXZ 08028d10 f i ad_x86_32_gen.obj
 0001:00027d10       ?size_of@countLeadingZerosI_bsrNode@@UBEIXZ 08028d10 f i ad_x86_32_gen.obj
 0001:00027d10       ?size_of@loadRangeNode@@UBEIXZ 08028d10 f i ad_x86_32_gen.obj
 0001:00027d10       ?size_of@loadConDNode@@UBEIXZ 08028d10 f i ad_x86_32_gen.obj
 0001:00027d10       ?size_of@loadBNode@@UBEIXZ 08028d10 f i ad_x86_32_gen.obj
 0001:00027d10       ?size_of@Repl2F_immXF0Node@@UBEIXZ 08028d10 f i ad_x86_32_gen.obj
 0001:00027d10       ?size_of@leaPIdxOffNode@@UBEIXZ 08028d10 f i ad_x86_32_gen.obj
 0001:00027d10       ?size_of@convI2XD_regNode@@UBEIXZ 08028d10 f i ad_x86_32_gen.obj
 0001:00027d10       ?size_of@popCountI_memNode@@UBEIXZ 08028d10 f i ad_x86_32.obj
 0001:00027d10       ?size_of@convXD2L_reg_regNode@@UBEIXZ 08028d10 f i ad_x86_32_gen.obj
 0001:00027d10       ?size_of@convI2F_SSF_memNode@@UBEIXZ 08028d10 f i ad_x86_32_gen.obj
 0001:00027d10       ?size_of@prefetchrT2Node@@UBEIXZ 08028d10 f i ad_x86_32_gen.obj
 0001:00027d10       ?size_of@convD2X_regNode@@UBEIXZ 08028d10 f i ad_x86_32_gen.obj
 0001:00027d10       ?size_of@movP_nocopyNode@@UBEIXZ 08028d10 f i ad_x86_32_expand.obj
 0001:00027d10       ?size_of@Repl2I_immI0Node@@UBEIXZ 08028d10 f i ad_x86_32_gen.obj
 0001:00027d10       ?size_of@convF2D_regNode@@UBEIXZ 08028d10 f i ad_x86_32_gen.obj
 0001:00027d10       ?size_of@loadConX0Node@@UBEIXZ 08028d10 f i ad_x86_32_gen.obj
 0001:00027d10       ?size_of@loadConL_low_onlyNode@@UBEIXZ 08028d10 f i ad_x86_32_gen.obj
 0001:00027d10       ?size_of@absF_regNode@@UBEIXZ 08028d10 f i ad_x86_32_gen.obj
 0001:00027d10       ?size_of@convXD2X_regNode@@UBEIXZ 08028d10 f i ad_x86_32_gen.obj
 0001:00027d10       ?size_of@tanXD_regNode@@UBEIXZ 08028d10 f i ad_x86_32_gen.obj
 0001:00027d10       ?size_of@convL2XD_regNode@@UBEIXZ 08028d10 f i ad_x86_32_gen.obj
 0001:00027d10       ?size_of@loadL_volatileNode@@UBEIXZ 08028d10 f i ad_x86_32_gen.obj
 0001:00027d10       ?size_of@prefetchrT0Node@@UBEIXZ 08028d10 f i ad_x86_32_gen.obj
 0001:00027d10       ?size_of@Repl2F_regXNode@@UBEIXZ 08028d10 f i ad_x86_32_gen.obj
 0001:00027d10       ?size_of@load2IUNode@@UBEIXZ 08028d10 f i ad_x86_32_gen.obj
 0001:00027d10       ?size_of@tlsLoadPNode@@UBEIXZ 08028d10 f i ad_x86_32_expand.obj
 0001:00027d10       ?size_of@absXD_regNode@@UBEIXZ 08028d10 f i ad_x86_32_gen.obj
 0001:00027d10       ?size_of@movI_nocopyNode@@UBEIXZ 08028d10 f i ad_x86_32_expand.obj
 0001:00027d10       ?size_of@MoveD2L_reg_stack_sseNode@@UBEIXZ 08028d10 f i ad_x86_32_gen.obj
 0001:00027d10       ?size_of@MoveD2L_reg_stackNode@@UBEIXZ 08028d10 f i ad_x86_32_gen.obj
 0001:00027d10       ?size_of@loadA8BNode@@UBEIXZ 08028d10 f i ad_x86_32_gen.obj
 0001:00027d10       ?size_of@tanD_regNode@@UBEIXZ 08028d10 f i ad_x86_32_gen.obj
 0001:00027d10       ?size_of@sqrtX_memNode@@UBEIXZ 08028d10 f i ad_x86_32.obj
 0001:00027d10       ?size_of@prefetchwNTANode@@UBEIXZ 08028d10 f i ad_x86_32_gen.obj
 0001:00027d10       ?size_of@countTrailingZerosINode@@UBEIXZ 08028d10 f i ad_x86_32_gen.obj
 0001:00027d10       ?size_of@prefetchr0Node@@UBEIXZ 08028d10 f i ad_x86_32_gen.obj
 0001:00027d10       ?size_of@convX2L_reg_regNode@@UBEIXZ 08028d10 f i ad_x86_32_gen.obj
 0001:00027d10       ?size_of@storeSSLNode@@UBEIXZ 08028d10 f i ad_x86_32_gen.obj
 0001:00027d10       ?ideal_Opcode@cmpD_cc_P6Node@@EBEHXZ 08028d10 f i ad_x86_32_gen.obj
 0001:00027d10       ?size_of@prefetchwNode@@UBEIXZ 08028d10 f i ad_x86_32_gen.obj
 0001:00027d10       ?size_of@log10XD_regNode@@UBEIXZ 08028d10 f i ad_x86_32_gen.obj
 0001:00027d10       ?size_of@countLeadingZerosINode@@UBEIXZ 08028d10 f i ad_x86_32_gen.obj
 0001:00027d10       ?ideal_Opcode@cmpXD_ccCFNode@@EBEHXZ 08028d10 f i ad_x86_32_gen.obj
 0001:00027d10       ?size_of@Repl2I_regNode@@UBEIXZ 08028d10 f i ad_x86_32_gen.obj
 0001:00027d10       ?size_of@convL2X_regNode@@UBEIXZ 08028d10 f i ad_x86_32_gen.obj
 0001:00027d10       ?size_of@prefetchw0Node@@UBEIXZ 08028d10 f i ad_x86_32_gen.obj
 0001:00027d10       ?size_of@loadConPNode@@UBEIXZ 08028d10 f i ad_x86_32_gen.obj
 0001:00027d10       ?size_of@convXD2I_reg_regNode@@UBEIXZ 08028d10 f i ad_x86_32_gen.obj
 0001:00027d10       ?size_of@loadConXDNode@@UBEIXZ 08028d10 f i ad_x86_32_gen.obj
 0001:00027d10       ?size_of@convI2X_regNode@@UBEIXZ 08028d10 f i ad_x86_32_gen.obj
 0001:00027d10       ?size_of@loadSSFNode@@UBEIXZ 08028d10 f i ad_x86_32_gen.obj
 0001:00027d10       ?size_of@MoveD2L_stack_regNode@@UBEIXZ 08028d10 f i ad_x86_32_gen.obj
 0001:00027d10       ?size_of@absD_regNode@@UBEIXZ 08028d10 f i ad_x86_32_gen.obj
 0001:00027d10       ?opcode@eSIRegIOper@@UBEIXZ 08028d10 f i ad_x86_32_clone.obj
 0001:00027d10       ?size_of@convL2F_regNode@@UBEIXZ 08028d10 f i ad_x86_32_gen.obj
 0001:00027d10       ?size_of@conv24I2F_regNode@@UBEIXZ 08028d10 f i ad_x86_32_gen.obj
 0001:00027d10       ?size_of@convI2D_regNode@@UBEIXZ 08028d10 f i ad_x86_32_gen.obj
 0001:00027d10       ?ideal_Opcode@cmpD_ccNode@@EBEHXZ 08028d10 f i ad_x86_32_gen.obj
 0001:00027d10       ?size_of@loadConXNode@@UBEIXZ 08028d10 f i ad_x86_32_gen.obj
 0001:00027d10       ?size_of@MoveI2F_stack_regNode@@UBEIXZ 08028d10 f i ad_x86_32_gen.obj
 0001:00027d10       ?size_of@convI2D_memNode@@UBEIXZ 08028d10 f i ad_x86_32_gen.obj
 0001:00027d10       ?size_of@loadUSNode@@UBEIXZ 08028d10 f i ad_x86_32_gen.obj
 0001:00027d10       ?size_of@expD_regNode@@UBEIXZ 08028d10 f i ad_x86_32_gen.obj
 0001:00027d10       ?size_of@convF2L_reg_regNode@@UBEIXZ 08028d10 f i ad_x86_32_gen.obj
 0001:00027d10       ?size_of@loadSNode@@UBEIXZ 08028d10 f i ad_x86_32_gen.obj
 0001:00027d10       ?Opcode@CmpDNode@@UBEHXZ   08028d10 f i classes.obj
 0001:00027d10       ?size_of@jmpDir_shortNode@@UBEIXZ 08028d10 f i ad_x86_32.obj
 0001:00027d10       ?size_of@convXI2XD_regNode@@UBEIXZ 08028d10 f i ad_x86_32_gen.obj
 0001:00027d10       ?size_of@convD2I_reg_regNode@@UBEIXZ 08028d10 f i ad_x86_32_gen.obj
 0001:00027d10       ?size_of@loadLLockedNode@@UBEIXZ 08028d10 f i ad_x86_32_gen.obj
 0001:00027d10       ?size_of@sqrtXD_memNode@@UBEIXZ 08028d10 f i ad_x86_32.obj
 0001:00027d10       ?size_of@convL2I_regNode@@UBEIXZ 08028d10 f i ad_x86_32_gen.obj
 0001:00027d10       ?size_of@MachIfNode@@EBEIXZ 08028d10 f i ad_x86_32.obj
 0001:00027d10       ?size_of@convD2F_regNode@@UBEIXZ 08028d10 f i ad_x86_32_gen.obj
 0001:00027d10       ?size_of@CreateExceptionNode@@UBEIXZ 08028d10 f i ad_x86_32_gen.obj
 0001:00027d10       ?size_of@absX_regNode@@UBEIXZ 08028d10 f i ad_x86_32_gen.obj
 0001:00027d10       ?size_of@convD2L_reg_regNode@@UBEIXZ 08028d10 f i ad_x86_32_gen.obj
 0001:00027d10       ?size_of@cosD_regNode@@UBEIXZ 08028d10 f i ad_x86_32_gen.obj
 0001:00027d10       ?size_of@loadUB2LNode@@UBEIXZ 08028d10 f i ad_x86_32_gen.obj
 0001:00027d10       ?size_of@loadA2FNode@@UBEIXZ 08028d10 f i ad_x86_32_gen.obj
 0001:00027d10       ?size_of@convI2XD_memNode@@UBEIXZ 08028d10 f i ad_x86_32_gen.obj
 0001:00027d10       ?size_of@loadConINode@@UBEIXZ 08028d10 f i ad_x86_32_gen.obj
 0001:00027d10       ?ideal_Opcode@cmpXD_ccNode@@EBEHXZ 08028d10 f i ad_x86_32_gen.obj
 0001:00027d10       ?size_of@loadUI2LNode@@UBEIXZ 08028d10 f i ad_x86_32_gen.obj
 0001:00027d10       ?size_of@Repl8B_immI0Node@@UBEIXZ 08028d10 f i ad_x86_32_gen.obj
 0001:00027d10       ?size_of@storeSSPNode@@UBEIXZ 08028d10 f i ad_x86_32_gen.obj
 0001:00027d10       ?size_of@MoveI2F_reg_stackNode@@UBEIXZ 08028d10 f i ad_x86_32_gen.obj
 0001:00027d10       ?size_of@loadXDNode@@UBEIXZ 08028d10 f i ad_x86_32_gen.obj
 0001:00027d10       ?type@VM_ReportJavaOutOfMemory@@UBE?AW4VMOp_Type@VM_Operation@@XZ 08028d10 f i vmError.obj
 0001:00027d10       ?size_of@membar_volatileNode@@UBEIXZ 08028d10 f i ad_x86_32_gen.obj
 0001:00027d10       ?size_of@prefetchwT0Node@@UBEIXZ 08028d10 f i ad_x86_32_gen.obj
 0001:00027d10       ?size_of@loadLNode@@UBEIXZ 08028d10 f i ad_x86_32_gen.obj
 0001:00027d10       ?size_of@loadXD_partialNode@@UBEIXZ 08028d10 f i ad_x86_32_gen.obj
 0001:00027d10       ?size_of@convL2D_regNode@@UBEIXZ 08028d10 f i ad_x86_32_gen.obj
 0001:00027d10       ?size_of@prefetchrNode@@UBEIXZ 08028d10 f i ad_x86_32_gen.obj
 0001:00027d10       ?size_of@leaPIdxScaleNode@@UBEIXZ 08028d10 f i ad_x86_32_gen.obj
 0001:00027d10       ?size_of@loadA4CNode@@UBEIXZ 08028d10 f i ad_x86_32_gen.obj
 0001:00027d10       ?size_of@leaP8Node@@UBEIXZ 08028d10 f i ad_x86_32_gen.obj
 0001:00027d10       ?size_of@cosXD_regNode@@UBEIXZ 08028d10 f i ad_x86_32_gen.obj
 0001:00027d10       ?size_of@loadSSPNode@@UBEIXZ 08028d10 f i ad_x86_32_gen.obj
 0001:00027d10       ?size_of@MoveL2D_stack_regNode@@UBEIXZ 08028d10 f i ad_x86_32_gen.obj
 0001:00027d10       ?size_of@leaPIdxScaleOffNode@@UBEIXZ 08028d10 f i ad_x86_32_gen.obj
 0001:00027d10       ?size_of@convXI2X_regNode@@UBEIXZ 08028d10 f i ad_x86_32_gen.obj
 0001:00027d10       ?size_of@loadConXD0Node@@UBEIXZ 08028d10 f i ad_x86_32_gen.obj
 0001:00027d10       ?size_of@roundFloat_mem_regNode@@UBEIXZ 08028d10 f i ad_x86_32_expand.obj
 0001:00027d10       ?size_of@bytes_reverse_intNode@@UBEIXZ 08028d10 f i ad_x86_32_gen.obj
 0001:00027d20       ?cisc_operand@sqrtX_regNode@@EBEHXZ 08028d20 f i ad_x86_32_gen.obj
 0001:00027d20       ?reloc@xorI_eReg_memNode@@EBEHXZ 08028d20 f i ad_x86_32.obj
 0001:00027d20       ?opcode@labelOper@@UBEIXZ  08028d20 f i ad_x86_32.obj
 0001:00027d20       ?reloc@addXD_immNode@@EBEHXZ 08028d20 f i ad_x86_32.obj
 0001:00027d20       ?const_size@addF_reg_immNode@@UBEHXZ 08028d20 f i ad_x86_32_gen.obj
 0001:00027d20       ?reloc@cmpXD_regmemNode@@EBEHXZ 08028d20 f i ad_x86_32.obj
 0001:00027d20       ?reloc@loadI2BNode@@EBEHXZ 08028d20 f i ad_x86_32.obj
 0001:00027d20       ?reloc@subI_eReg_memNode@@EBEHXZ 08028d20 f i ad_x86_32.obj
 0001:00027d20       ?oper_input_base@jmpConUCF_shortNode@@EBEIXZ 08028d20 f i ad_x86_32.obj
 0001:00027d20       ?oper_input_base@cmpL_LEGTNode@@EBEIXZ 08028d20 f i ad_x86_32_gen.obj
 0001:00027d20       ?reloc@subXD_memNode@@EBEHXZ 08028d20 f i ad_x86_32.obj
 0001:00027d20       ?reloc@addD_reg_imm_roundNode@@EBEHXZ 08028d20 f i ad_x86_32.obj
 0001:00027d20       ?reloc@loadI2UBNode@@EBEHXZ 08028d20 f i ad_x86_32.obj
 0001:00027d20       ?reloc@loadS2BNode@@EBEHXZ 08028d20 f i ad_x86_32.obj
 0001:00027d20       ?reloc@loadUSNode@@EBEHXZ  08028d20 f i ad_x86_32.obj
 0001:00027d20       ?reloc@partialSubtypeCheck_vs_ZeroNode@@EBEHXZ 08028d20 f i ad_x86_32.obj
 0001:00027d20       ?pd_breakpoint_size@Relocation@@KAHXZ 08028d20 f i relocInfo_x86.obj
 0001:00027d20       ?oper_input_base@jmpConU_shortNode@@EBEIXZ 08028d20 f i ad_x86_32.obj
 0001:00027d20       ?reloc@loadUS2LNode@@EBEHXZ 08028d20 f i ad_x86_32.obj
 0001:00027d20       ?reloc@CallDynamicJavaDirectNode@@EBEHXZ 08028d20 f i ad_x86_32.obj
 0001:00027d20       ?reloc@loadLNode@@EBEHXZ   08028d20 f i ad_x86_32.obj
 0001:00027d20       ?const_size@addX_immNode@@UBEHXZ 08028d20 f i ad_x86_32_gen.obj
 0001:00027d20       ?reloc@cmovI_memNode@@EBEHXZ 08028d20 f i ad_x86_32.obj
 0001:00027d20       ?reloc@RetNode@@EBEHXZ     08028d20 f i ad_x86_32.obj
 0001:00027d20       ?reloc@compP_eReg_immNode@@EBEHXZ 08028d20 f i ad_x86_32.obj
 0001:00027d20       ?const_size@storeX_immNode@@UBEHXZ 08028d20 f i ad_x86_32_gen.obj
 0001:00027d20       ?reloc@mulD_reg_immNode@@EBEHXZ 08028d20 f i ad_x86_32.obj
 0001:00027d20       ?const_size@storeF_immNode@@UBEHXZ 08028d20 f i ad_x86_32_gen.obj
 0001:00027d20       ?reloc@CallLeafDirectNode@@EBEHXZ 08028d20 f i ad_x86_32.obj
 0001:00027d20       ?reloc@loadA4SNode@@EBEHXZ 08028d20 f i ad_x86_32.obj
 0001:00027d20       ?reloc@loadB2LNode@@EBEHXZ 08028d20 f i ad_x86_32.obj
 0001:00027d20       ?reloc@addF_mulF_reg_load1_1Node@@EBEHXZ 08028d20 f i ad_x86_32.obj
 0001:00027d20       ?reloc@mulF_reg_load1Node@@EBEHXZ 08028d20 f i ad_x86_32.obj
 0001:00027d20       ?oper_input_base@jmpLoopEndUCF_shortNode@@EBEIXZ 08028d20 f i ad_x86_32.obj
 0001:00027d20       ?reloc@andI_eReg_mem_0Node@@EBEHXZ 08028d20 f i ad_x86_32.obj
 0001:00027d20       ?oper_input_base@jmpLoopEndUNode@@EBEIXZ 08028d20 f i ad_x86_32_gen.obj
 0001:00027d20       ?reloc@subXD_immNode@@EBEHXZ 08028d20 f i ad_x86_32.obj
 0001:00027d20       ?const_size@loadConFNode@@UBEHXZ 08028d20 f i ad_x86_32_gen.obj
 0001:00027d20       ?reloc@addI_eReg_memNode@@EBEHXZ 08028d20 f i ad_x86_32.obj
 0001:00027d20       ?reloc@subD_reg_memNode@@EBEHXZ 08028d20 f i ad_x86_32.obj
 0001:00027d20       ?oper_input_base@CreateExceptionNode@@EBEIXZ 08028d20 f i ad_x86_32_gen.obj
 0001:00027d20       ?reloc@loadI2L_immINode@@EBEHXZ 08028d20 f i ad_x86_32.obj
 0001:00027d20       ?reloc@cmpX_ccmemNode@@EBEHXZ 08028d20 f i ad_x86_32.obj
 0001:00027d20       ?reloc@prefetchrNode@@EBEHXZ 08028d20 f i ad_x86_32.obj
 0001:00027d20       ?reloc@divXD_immNode@@EBEHXZ 08028d20 f i ad_x86_32.obj
 0001:00027d20       ?reloc@loadSNode@@EBEHXZ   08028d20 f i ad_x86_32.obj
 0001:00027d20       ?kind@PSAdaptiveSizePolicy@@MBE?AW4GCPolicyKind@AdaptiveSizePolicy@@XZ 08028d20 f i psAdaptiveSizePolicy.obj
 0001:00027d20       ?reloc@orI_eReg_memNode@@EBEHXZ 08028d20 f i ad_x86_32.obj
 0001:00027d20       ?reloc@mulF_reg_memNode@@EBEHXZ 08028d20 f i ad_x86_32.obj
 0001:00027d20       ?reloc@storeLConditionalNode@@EBEHXZ 08028d20 f i ad_x86_32.obj
 0001:00027d20       ?reloc@addD_reg_memNode@@EBEHXZ 08028d20 f i ad_x86_32.obj
 0001:00027d20       ?reloc@divX_memNode@@EBEHXZ 08028d20 f i ad_x86_32.obj
 0001:00027d20       ?reloc@cmovII_mem_LEGTNode@@EBEHXZ 08028d20 f i ad_x86_32.obj
 0001:00027d20       ?reloc@mulD_reg_mem_cisc_0Node@@EBEHXZ 08028d20 f i ad_x86_32.obj
 0001:00027d20       ?reloc@andI_eReg_memNode@@EBEHXZ 08028d20 f i ad_x86_32.obj
 0001:00027d20       ?reloc@tailjmpIndNode@@EBEHXZ 08028d20 f i ad_x86_32.obj
 0001:00027d20       ?oper_input_base@castPPNode@@EBEIXZ 08028d20 f i ad_x86_32_gen.obj
 0001:00027d20       ?const_size@cmpD_0Node@@UBEHXZ 08028d20 f i ad_x86_32_gen.obj
 0001:00027d20       ?reloc@loadUBNode@@EBEHXZ  08028d20 f i ad_x86_32.obj
 0001:00027d20       ?oper_input_base@castX2PNode@@EBEIXZ 08028d20 f i ad_x86_32_gen.obj
 0001:00027d20       ?reloc@loadUS2L_immI16Node@@EBEHXZ 08028d20 f i ad_x86_32.obj
 0001:00027d20       ?reloc@loadI2L_immI_255Node@@EBEHXZ 08028d20 f i ad_x86_32.obj
 0001:00027d20       ?reloc@cmovI_memUNode@@EBEHXZ 08028d20 f i ad_x86_32.obj
 0001:00027d20       ?reloc@addF24_reg_mem_0Node@@EBEHXZ 08028d20 f i ad_x86_32.obj
 0001:00027d20       ?reloc@addF_mulF_reg_load1_0Node@@EBEHXZ 08028d20 f i ad_x86_32.obj
 0001:00027d20       ?reloc@xorl_eReg_memNode@@EBEHXZ 08028d20 f i ad_x86_32.obj
 0001:00027d20       ?oper_input_base@cmpL_EQNENode@@EBEIXZ 08028d20 f i ad_x86_32_gen.obj
 0001:00027d20       ?reloc@orl_eReg_memNode@@EBEHXZ 08028d20 f i ad_x86_32.obj
 0001:00027d20       ?num_edges@MachOper@@UBEIXZ 08028d20 f i ad_x86_32.obj
 0001:00027d20       ?reloc@sqrtXD_memNode@@EBEHXZ 08028d20 f i ad_x86_32.obj
 0001:00027d20       ?reloc@addF_mulF_reg_load1Node@@EBEHXZ 08028d20 f i ad_x86_32.obj
 0001:00027d20       ?reloc@compP_eReg_memNode@@EBEHXZ 08028d20 f i ad_x86_32.obj
 0001:00027d20       ?oper_input_base@jmpConNode@@EBEIXZ 08028d20 f i ad_x86_32_expand.obj
 0001:00027d20       ?cisc_operand@addF_mulF_regNode@@EBEHXZ 08028d20 f i ad_x86_32_gen.obj
 0001:00027d20       ?reloc@divX_immNode@@EBEHXZ 08028d20 f i ad_x86_32.obj
 0001:00027d20       ?reloc@addL_eReg_memNode@@EBEHXZ 08028d20 f i ad_x86_32.obj
 0001:00027d20       ?reloc@mulX_mem_0Node@@EBEHXZ 08028d20 f i ad_x86_32.obj
 0001:00027d20       ?kind@TwoGenerationCollectorPolicy@@UAE?AW4Name@CollectorPolicy@@XZ 08028d20 f i cmsCollectorPolicy.obj
 0001:00027d20       ?reloc@mulF_reg_immNode@@EBEHXZ 08028d20 f i ad_x86_32.obj
 0001:00027d20       ?cisc_operand@popCountINode@@EBEHXZ 08028d20 f i ad_x86_32_gen.obj
 0001:00027d20       ?reloc@mulXD_memNode@@EBEHXZ 08028d20 f i ad_x86_32.obj
 0001:00027d20       ?reloc@loadUS2BNode@@EBEHXZ 08028d20 f i ad_x86_32.obj
 0001:00027d20       ?reloc@subX_immNode@@EBEHXZ 08028d20 f i ad_x86_32.obj
 0001:00027d20       ?const_size@mulF24_reg_immNode@@UBEHXZ 08028d20 f i ad_x86_32_gen.obj
 0001:00027d20       ?reloc@addF24_mem_regNode@@EBEHXZ 08028d20 f i ad_x86_32.obj
 0001:00027d20       ?reloc@subL_eReg_memNode@@EBEHXZ 08028d20 f i ad_x86_32.obj
 0001:00027d20       ?reloc@cmpXD_ccmemNode@@EBEHXZ 08028d20 f i ad_x86_32.obj
 0001:00027d20       ?reloc@loadKlassNode@@EBEHXZ 08028d20 f i ad_x86_32.obj
 0001:00027d20       ?const_size@addD_reg_immNode@@UBEHXZ 08028d20 f i ad_x86_32_gen.obj
 0001:00027d20       ?oper_input_base@jmpLoopEndUCFNode@@EBEIXZ 08028d20 f i ad_x86_32_gen.obj
 0001:00027d20       ?reloc@loadLLockedNode@@EBEHXZ 08028d20 f i ad_x86_32.obj
 0001:00027d20       ?reloc@loadPLockedNode@@EBEHXZ 08028d20 f i ad_x86_32.obj
 0001:00027d20       ?reloc@loadLX_volatileNode@@EBEHXZ 08028d20 f i ad_x86_32.obj
 0001:00027d20       ?oper_input_base@CallStaticJavaDirectNode@@EBEIXZ 08028d20 f i ad_x86_32_gen.obj
 0001:00027d20       ?oper_input_base@cmpFastLockNode@@EBEIXZ 08028d20 f i ad_x86_32_gen.obj
 0001:00027d20       ?index_position@indIndexScaleOffset_win95_safeOper@@UBEHXZ 08028d20 f i ad_x86_32.obj
 0001:00027d20       ?const_size@subXD_immNode@@UBEHXZ 08028d20 f i ad_x86_32_gen.obj
 0001:00027d20       ?oper_input_base@jmpLoopEndNode@@EBEIXZ 08028d20 f i ad_x86_32_gen.obj
 0001:00027d20       ?cell_count@CounterData@@UAEHXZ 08028d20 f i ciMethodData.obj
 0001:00027d20       ?reloc@Repl2F_immXF0Node@@EBEHXZ 08028d20 f i ad_x86_32.obj
 0001:00027d20       ?reloc@cmovLL_mem_LEGTNode@@EBEHXZ 08028d20 f i ad_x86_32.obj
 0001:00027d20       ?const_size@mulX_immNode@@UBEHXZ 08028d20 f i ad_x86_32_gen.obj
 0001:00027d20       ?reloc@storePConditionalNode@@EBEHXZ 08028d20 f i ad_x86_32.obj
 0001:00027d20       ?reloc@cmpF_0Node@@EBEHXZ  08028d20 f i ad_x86_32.obj
 0001:00027d20       ?reloc@cmovII_mem_LTGENode@@EBEHXZ 08028d20 f i ad_x86_32.obj
 0001:00027d20       ?reloc@xorl_eReg_mem_0Node@@EBEHXZ 08028d20 f i ad_x86_32.obj
 0001:00027d20       ?reloc@addF_mulF_reg_load1_2Node@@EBEHXZ 08028d20 f i ad_x86_32.obj
 0001:00027d20       ?reloc@loadFNode@@EBEHXZ   08028d20 f i ad_x86_32.obj
 0001:00027d20       ?const_size@loadConX0Node@@UBEHXZ 08028d20 f i ad_x86_32_gen.obj
 0001:00027d20       ?reloc@safePoint_pollNode@@EBEHXZ 08028d20 f i ad_x86_32.obj
 0001:00027d20       ?reloc@loadA4CNode@@EBEHXZ 08028d20 f i ad_x86_32.obj
 0001:00027d20       ?reloc@addF_reg_mem_0Node@@EBEHXZ 08028d20 f i ad_x86_32.obj
 0001:00027d20       ?reloc@xorI_eReg_mem_0Node@@EBEHXZ 08028d20 f i ad_x86_32.obj
 0001:00027d20       ?const_size@addD_reg_imm1Node@@UBEHXZ 08028d20 f i ad_x86_32_gen.obj
 0001:00027d20       ?const_size@divXD_immNode@@UBEHXZ 08028d20 f i ad_x86_32_gen.obj
 0001:00027d20       ?const_size@mulXD_immNode@@UBEHXZ 08028d20 f i ad_x86_32_gen.obj
 0001:00027d20       ?reloc@addF_reg_immNode@@EBEHXZ 08028d20 f i ad_x86_32.obj
 0001:00027d20       ?reloc@sqrtX_memNode@@EBEHXZ 08028d20 f i ad_x86_32.obj
 0001:00027d20       ?reloc@prefetchrNTANode@@EBEHXZ 08028d20 f i ad_x86_32.obj
 0001:00027d20       ?cisc_operand@addF24_reg_memNode@@EBEHXZ 08028d20 f i ad_x86_32.obj
 0001:00027d20       ?reloc@addX_immNode@@EBEHXZ 08028d20 f i ad_x86_32.obj
 0001:00027d20       ?oper_input_base@CallLeafDirectNode@@EBEIXZ 08028d20 f i ad_x86_32_gen.obj
 0001:00027d20       ?reloc@mulD_reg_mem_ciscNode@@EBEHXZ 08028d20 f i ad_x86_32.obj
 0001:00027d20       ?reloc@loadI2SNode@@EBEHXZ 08028d20 f i ad_x86_32.obj
 0001:00027d20       ?oper_input_base@MachNode@@UBEIXZ 08028d20 f i ad_x86_32.obj
 0001:00027d20       ?index_position@indIndexOffset_win95_safeOper@@UBEHXZ 08028d20 f i ad_x86_32.obj
 0001:00027d20       ?reloc@addF_reg_memNode@@EBEHXZ 08028d20 f i ad_x86_32.obj
 0001:00027d20       ?reloc@loadBNode@@EBEHXZ   08028d20 f i ad_x86_32.obj
 0001:00027d20       ?reloc@divXD_memNode@@EBEHXZ 08028d20 f i ad_x86_32.obj
 0001:00027d20       ?reloc@RethrowExceptionNode@@EBEHXZ 08028d20 f i ad_x86_32.obj
 0001:00027d20       ?const_size@cmpF_0Node@@UBEHXZ 08028d20 f i ad_x86_32_gen.obj
 0001:00027d20       ?const_size@loadConXDNode@@UBEHXZ 08028d20 f i ad_x86_32_gen.obj
 0001:00027d20       ?reloc@storeIConditionalNode@@EBEHXZ 08028d20 f i ad_x86_32.obj
 0001:00027d20       ?reloc@prefetchr0Node@@EBEHXZ 08028d20 f i ad_x86_32.obj
 0001:00027d20       ?reloc@loadUS2L_immI_255Node@@EBEHXZ 08028d20 f i ad_x86_32.obj
 0001:00027d20       ?oper_input_base@MachSpillCopyNode@@UBEIXZ 08028d20 f i chaitin.obj
 0001:00027d20       ?reloc@testP_Reg_memNode@@EBEHXZ 08028d20 f i ad_x86_32.obj
 0001:00027d20       ?reloc@addXD_memNode@@EBEHXZ 08028d20 f i ad_x86_32.obj
 0001:00027d20       ?reloc@loadLX_reg_LockedNode@@EBEHXZ 08028d20 f i ad_x86_32.obj
 0001:00027d20       ?const_size@divX_immNode@@UBEHXZ 08028d20 f i ad_x86_32_gen.obj
 0001:00027d20       ?const_size@loadConXD0Node@@UBEHXZ 08028d20 f i ad_x86_32_gen.obj
 0001:00027d20       ?reloc@addL_eReg_mem_0Node@@EBEHXZ 08028d20 f i ad_x86_32.obj
 0001:00027d20       ?reloc@loadA2FNode@@EBEHXZ 08028d20 f i ad_x86_32.obj
 0001:00027d20       ?reloc@orI_eReg_mem_0Node@@EBEHXZ 08028d20 f i ad_x86_32.obj
 0001:00027d20       ?reloc@mulF24_reg_mem_0Node@@EBEHXZ 08028d20 f i ad_x86_32.obj
 0001:00027d20       ?oper_input_base@CallDynamicJavaDirectNode@@EBEIXZ 08028d20 f i ad_x86_32_gen.obj
 0001:00027d20       ?reloc@mulD_reg_mem_0Node@@EBEHXZ 08028d20 f i ad_x86_32.obj
 0001:00027d20       ?reloc@compI_eReg_memNode@@EBEHXZ 08028d20 f i ad_x86_32.obj
 0001:00027d20       ?oper_input_base@checkCastPPNode@@EBEIXZ 08028d20 f i ad_x86_32_gen.obj
 0001:00027d20       ?cisc_operand@sqrtXD_regNode@@EBEHXZ 08028d20 f i ad_x86_32_gen.obj
 0001:00027d20       ?const_size@mulD_reg_immNode@@UBEHXZ 08028d20 f i ad_x86_32_gen.obj
 0001:00027d20       ?reloc@compP_mem_eRegNode@@EBEHXZ 08028d20 f i ad_x86_32.obj
 0001:00027d20       ?alignment_required@MachNode@@UBEHXZ 08028d20 f i ad_x86_32.obj
 0001:00027d20       ?reloc@orl_eReg_mem_0Node@@EBEHXZ 08028d20 f i ad_x86_32.obj
 0001:00027d20       ?kind@GCPolicyCounters@@UBE?AW4Name@1@XZ 08028d20 f i gcPolicyCounters.obj
 0001:00027d20       ?cisc_operand@popCountLNode@@EBEHXZ 08028d20 f i ad_x86_32_gen.obj
 0001:00027d20       ?reloc@loadLX_reg_volatileNode@@EBEHXZ 08028d20 f i ad_x86_32.obj
 0001:00027d20       ?reloc@convI2XD_memNode@@EBEHXZ 08028d20 f i ad_x86_32.obj
 0001:00027d20       ?n_covered_regions@GenerationSpec@@UBEHXZ 08028d20 f i cmsCollectorPolicy.obj
 0001:00027d20       ?index_position@indIndexScale_win95_safeOper@@UBEHXZ 08028d20 f i ad_x86_32.obj
 0001:00027d20       ?reloc@addD_reg_immNode@@EBEHXZ 08028d20 f i ad_x86_32.obj
 0001:00027d20       ?reloc@cmpD_0Node@@EBEHXZ  08028d20 f i ad_x86_32.obj
 0001:00027d20       ?reloc@CallRuntimeDirectNode@@EBEHXZ 08028d20 f i ad_x86_32.obj
 0001:00027d20       ?reloc@loadI2USNode@@EBEHXZ 08028d20 f i ad_x86_32.obj
 0001:00027d20       ?barrier_set_name@TwoGenerationCollectorPolicy@@UAE?AW4Name@BarrierSet@@XZ 08028d20 f i cmsCollectorPolicy.obj
 0001:00027d20       ?reloc@prefetchrT2Node@@EBEHXZ 08028d20 f i ad_x86_32.obj
 0001:00027d20       ?oper_input_base@CallStaticJavaHandleNode@@EBEIXZ 08028d20 f i ad_x86_32_gen.obj
 0001:00027d20       ?oper_input_base@jmpConUCF2_shortNode@@EBEIXZ 08028d20 f i ad_x86_32.obj
 0001:00027d20       ?index_position@indIndexOffsetOper@@UBEHXZ 08028d20 f i ad_x86_32_clone.obj
 0001:00027d20       ?reloc@loadUB2L_immI8Node@@EBEHXZ 08028d20 f i ad_x86_32.obj
 0001:00027d20       ?kind@CMSGCStats@@UAE?AW4Name@GCStats@@XZ 08028d20 f i gcStats.obj
 0001:00027d20       ?reloc@CallStaticJavaHandleNode@@EBEHXZ 08028d20 f i ad_x86_32.obj
 0001:00027d20       ?reloc@addX_mem_0Node@@EBEHXZ 08028d20 f i ad_x86_32.obj
 0001:00027d20       ?oper_input_base@jmpLoopEnd_shortNode@@EBEIXZ 08028d20 f i ad_x86_32.obj
 0001:00027d20       ?reloc@loadI2L_immI_65535Node@@EBEHXZ 08028d20 f i ad_x86_32.obj
 0001:00027d20       ?reloc@cmpX_regmemNode@@EBEHXZ 08028d20 f i ad_x86_32.obj
 0001:00027d20       ?oper_input_base@cmpL_LTGENode@@EBEIXZ 08028d20 f i ad_x86_32_gen.obj
 0001:00027d20       ?reloc@mulD_reg_memNode@@EBEHXZ 08028d20 f i ad_x86_32.obj
 0001:00027d20       ?type@VM_ThreadStop@@UBE?AW4VMOp_Type@VM_Operation@@XZ 08028d20 f i thread.obj
 0001:00027d20       ?reloc@convI2F_memNode@@EBEHXZ 08028d20 f i ad_x86_32.obj
 0001:00027d20       ?cisc_operand@convI2L_regNode@@EBEHXZ 08028d20 f i ad_x86_32_gen.obj
 0001:00027d20       ?const_size@addXD_immNode@@UBEHXZ 08028d20 f i ad_x86_32_gen.obj
 0001:00027d20       ?reloc@mulINode@@EBEHXZ    08028d20 f i ad_x86_32.obj
 0001:00027d20       ?reloc@addXD_mem_0Node@@EBEHXZ 08028d20 f i ad_x86_32.obj
 0001:00027d20       ?reloc@mulF24_reg_memNode@@EBEHXZ 08028d20 f i ad_x86_32.obj
 0001:00027d20       ?sync_stack_slots@Compile@@QBEHXZ 08028d20 f i ad_x86_32.obj
 0001:00027d20       ?reloc@CallLeafNoFPDirectNode@@EBEHXZ 08028d20 f i ad_x86_32.obj
 0001:00027d20       ?reloc@cmovI_memUCFNode@@EBEHXZ 08028d20 f i ad_x86_32.obj
 0001:00027d20       ?cisc_operand@i2bNode@@EBEHXZ 08028d20 f i ad_x86_32_gen.obj
 0001:00027d20       ?reloc@addI_eReg_mem_0Node@@EBEHXZ 08028d20 f i ad_x86_32.obj
 0001:00027d20       ?oper_input_base@jmpConUCFNode@@EBEIXZ 08028d20 f i ad_x86_32_gen.obj
 0001:00027d20       ?reloc@loadUB2LNode@@EBEHXZ 08028d20 f i ad_x86_32.obj
 0001:00027d20       ?reloc@loadRangeNode@@EBEHXZ 08028d20 f i ad_x86_32.obj
 0001:00027d20       ?reloc@cmovLL_mem_EQNENode@@EBEHXZ 08028d20 f i ad_x86_32.obj
 0001:00027d20       ?reloc@mulF_reg_mem_0Node@@EBEHXZ 08028d20 f i ad_x86_32.obj
 0001:00027d20       ?oper_input_base@jmpCon_shortNode@@EBEIXZ 08028d20 f i ad_x86_32.obj
 0001:00027d20       ?reloc@loadConPNode@@EBEHXZ 08028d20 f i ad_x86_32.obj
 0001:00027d20       ?reloc@loadINode@@EBEHXZ   08028d20 f i ad_x86_32.obj
 0001:00027d20       ?reloc@addF24_reg_immNode@@EBEHXZ 08028d20 f i ad_x86_32.obj
 0001:00027d20       ?reloc@loadLX_LockedNode@@EBEHXZ 08028d20 f i ad_x86_32.obj
 0001:00027d20       ?reloc@prefetchrT0Node@@EBEHXZ 08028d20 f i ad_x86_32.obj
 0001:00027d20       ?reloc@load2IUNode@@EBEHXZ 08028d20 f i ad_x86_32.obj
 0001:00027d20       ?reloc@mulX_memNode@@EBEHXZ 08028d20 f i ad_x86_32.obj
 0001:00027d20       ?const_size@subX_immNode@@UBEHXZ 08028d20 f i ad_x86_32_gen.obj
 0001:00027d20       ?reloc@loadL_volatileNode@@EBEHXZ 08028d20 f i ad_x86_32.obj
 0001:00027d20       ?reloc@cmovLL_mem_LTGENode@@EBEHXZ 08028d20 f i ad_x86_32.obj
 0001:00027d20       ?reloc@cmpX_ccmemCFNode@@EBEHXZ 08028d20 f i ad_x86_32.obj
 0001:00027d20       ?reloc@mulI_mem_immNode@@EBEHXZ 08028d20 f i ad_x86_32.obj
 0001:00027d20       ?numa_get_groups_num@os@@SAIXZ 08028d20 f i os_windows.obj
 0001:00027d20       ?reloc@mulXD_immNode@@EBEHXZ 08028d20 f i ad_x86_32.obj
 0001:00027d20       ?reloc@addD_reg_imm1Node@@EBEHXZ 08028d20 f i ad_x86_32.obj
 0001:00027d20       ?cisc_operand@mulI_eReg_immNode@@EBEHXZ 08028d20 f i ad_x86_32_gen.obj
 0001:00027d20       ?reloc@loadXDNode@@EBEHXZ  08028d20 f i ad_x86_32.obj
 0001:00027d20       ?reloc@prefetchwNode@@EBEHXZ 08028d20 f i ad_x86_32.obj
 0001:00027d20       ?reloc@andL_eReg_memNode@@EBEHXZ 08028d20 f i ad_x86_32.obj
 0001:00027d20       ?index_position@indIndexScaleOper@@UBEHXZ 08028d20 f i ad_x86_32_clone.obj
 0001:00027d20       ?const_size@Repl2F_immXF0Node@@UBEHXZ 08028d20 f i ad_x86_32_gen.obj
 0001:00027d20       ?reloc@convI2F_SSF_memNode@@EBEHXZ 08028d20 f i ad_x86_32.obj
 0001:00027d20       ?reloc@mulXD_mem_0Node@@EBEHXZ 08028d20 f i ad_x86_32.obj
 0001:00027d20       ?kind@ASConcurrentMarkSweepGeneration@@UAE?AW4Name@Generation@@XZ 08028d20 f i generationSpec.obj
 0001:00027d20       ?reloc@loadXNode@@EBEHXZ   08028d20 f i ad_x86_32.obj
 0001:00027d20       ?reloc@TailCalljmpIndNode@@EBEHXZ 08028d20 f i ad_x86_32.obj
 0001:00027d20       ?reloc@loadPNode@@EBEHXZ   08028d20 f i ad_x86_32.obj
 0001:00027d20       ?reloc@mulF_reg_load1_0Node@@EBEHXZ 08028d20 f i ad_x86_32.obj
 0001:00027d20       ?reloc@compU_eReg_memNode@@EBEHXZ 08028d20 f i ad_x86_32.obj
 0001:00027d20       ?reloc@addF24_reg_memNode@@EBEHXZ 08028d20 f i ad_x86_32.obj
 0001:00027d20       ?type@oop_Relocation@@EAE?AW4relocType@relocInfo@@XZ 08028d20 f i ad_x86_32.obj
 0001:00027d20       ?reloc@loadS2LNode@@EBEHXZ 08028d20 f i ad_x86_32.obj
 0001:00027d20       ?reloc@popCountI_memNode@@EBEHXZ 08028d20 f i ad_x86_32.obj
 0001:00027d20       ?reloc@subX_memNode@@EBEHXZ 08028d20 f i ad_x86_32.obj
 0001:00027d20       ?reloc@andL_eReg_mem_0Node@@EBEHXZ 08028d20 f i ad_x86_32.obj
 0001:00027d20       ?reloc@loadDNode@@EBEHXZ   08028d20 f i ad_x86_32.obj
 0001:00027d20       ?cisc_operand@i2sNode@@EBEHXZ 08028d20 f i ad_x86_32_gen.obj
 0001:00027d20       ?reloc@loadI2LNode@@EBEHXZ 08028d20 f i ad_x86_32.obj
 0001:00027d20       ?reloc@cmovII_mem_EQNENode@@EBEHXZ 08028d20 f i ad_x86_32.obj
 0001:00027d20       ?kind@CodeCacheMemoryManager@@UAE?AW4Name@MemoryManager@@XZ 08028d20 f i memoryManager.obj
 0001:00027d20       ?reloc@mulI_0Node@@EBEHXZ  08028d20 f i ad_x86_32.obj
 0001:00027d20       ?reloc@addD_reg_mem_0Node@@EBEHXZ 08028d20 f i ad_x86_32.obj
 0001:00027d20       ?const_size@loadConDNode@@UBEHXZ 08028d20 f i ad_x86_32_gen.obj
 0001:00027d20       ?const_size@addD_reg_imm_roundNode@@UBEHXZ 08028d20 f i ad_x86_32_gen.obj
 0001:00027d20       ?oper_input_base@CallRuntimeDirectNode@@EBEIXZ 08028d20 f i ad_x86_32_gen.obj
 0001:00027d20       ?reloc@prefetchw0Node@@EBEHXZ 08028d20 f i ad_x86_32.obj
 0001:00027d20       ?oper_input_base@jmpConUCF2Node@@EBEIXZ 08028d20 f i ad_x86_32_gen.obj
 0001:00027d20       ?reloc@cmpXD_ccmemCFNode@@EBEHXZ 08028d20 f i ad_x86_32.obj
 0001:00027d20       ?oper_input_base@CallLeafNoFPDirectNode@@EBEIXZ 08028d20 f i ad_x86_32_gen.obj
 0001:00027d20       ?reloc@prefetchwT0Node@@EBEHXZ 08028d20 f i ad_x86_32.obj
 0001:00027d20       ?reloc@testI_reg_memNode@@EBEHXZ 08028d20 f i ad_x86_32.obj
 0001:00027d20       ?reloc@convI2D_memNode@@EBEHXZ 08028d20 f i ad_x86_32.obj
 0001:00027d20       ?const_size@mulF_reg_immNode@@UBEHXZ 08028d20 f i ad_x86_32_gen.obj
 0001:00027d20       ?oper_input_base@jmpLoopEndU_shortNode@@EBEIXZ 08028d20 f i ad_x86_32.obj
 0001:00027d20       ?reloc@testP_regNode@@EBEHXZ 08028d20 f i ad_x86_32.obj
 0001:00027d20       ?reloc@loadUI2LNode@@EBEHXZ 08028d20 f i ad_x86_32.obj
 0001:00027d20       ?reloc@addX_memNode@@EBEHXZ 08028d20 f i ad_x86_32.obj
 0001:00027d20       ?index_position@indIndexScaleOffsetOper@@UBEHXZ 08028d20 f i ad_x86_32_clone.obj
 0001:00027d20       ?const_size@addF24_reg_immNode@@UBEHXZ 08028d20 f i ad_x86_32_gen.obj
 0001:00027d20       ?reloc@prefetchwT2Node@@EBEHXZ 08028d20 f i ad_x86_32.obj
 0001:00027d20       ?reloc@mulF24_reg_immNode@@EBEHXZ 08028d20 f i ad_x86_32.obj
 0001:00027d20       ?reloc@prefetchwNTANode@@EBEHXZ 08028d20 f i ad_x86_32.obj
 0001:00027d20       ?reloc@loadXD_partialNode@@EBEHXZ 08028d20 f i ad_x86_32.obj
 0001:00027d20       ?index_position@indIndexOper@@UBEHXZ 08028d20 f i ad_x86_32_clone.obj
 0001:00027d20       ?reloc@popCountL_memNode@@EBEHXZ 08028d20 f i ad_x86_32.obj
 0001:00027d20       ?reloc@loadA8BNode@@EBEHXZ 08028d20 f i ad_x86_32.obj
 0001:00027d20       ?reloc@CallStaticJavaDirectNode@@EBEHXZ 08028d20 f i ad_x86_32.obj
 0001:00027d20       ?const_size@loadConXNode@@UBEHXZ 08028d20 f i ad_x86_32_gen.obj
 0001:00027d20       ?oper_input_base@jmpConUNode@@EBEIXZ 08028d20 f i ad_x86_32_gen.obj
 0001:00027d20       ?reloc@mulX_immNode@@EBEHXZ 08028d20 f i ad_x86_32.obj
 0001:00027d30       ??0loadSSINode@@QAE@XZ     08028d30 f i ad_x86_32_gen.obj
 0001:00027d60       ?rule@loadSSINode@@EBEIXZ  08028d60 f i ad_x86_32_gen.obj
 0001:00027d60       ?Opcode@Load4INode@@UBEHXZ 08028d60 f i classes.obj
 0001:00027d70       ??0loadSSLNode@@QAE@XZ     08028d70 f i ad_x86_32_gen.obj
 0001:00027da0       ?Opcode@Load2INode@@UBEHXZ 08028da0 f i classes.obj
 0001:00027da0       ?ideal_Opcode@load2IUNode@@EBEHXZ 08028da0 f i ad_x86_32_gen.obj
 0001:00027da0       ?rule@loadSSLNode@@EBEIXZ  08028da0 f i ad_x86_32_gen.obj
 0001:00027db0       ??0loadSSPNode@@QAE@XZ     08028db0 f i ad_x86_32_gen.obj
 0001:00027de0       ??0loadSSFNode@@QAE@XZ     08028de0 f i ad_x86_32_gen.obj
 0001:00027e10       ??0loadSSDNode@@QAE@XZ     08028e10 f i ad_x86_32_gen.obj
 0001:00027e40       ??0prefetchr0Node@@QAE@XZ  08028e40 f i ad_x86_32_gen.obj
 0001:00027e70       ?rule@prefetchr0Node@@EBEIXZ 08028e70 f i ad_x86_32_gen.obj
 0001:00027e80       ??0prefetchrNode@@QAE@XZ   08028e80 f i ad_x86_32_gen.obj
 0001:00027eb0       ?rule@prefetchrNode@@EBEIXZ 08028eb0 f i ad_x86_32_gen.obj
 0001:00027ec0       ??0prefetchrNTANode@@QAE@XZ 08028ec0 f i ad_x86_32_gen.obj
 0001:00027ef0       ?rule@prefetchrNTANode@@EBEIXZ 08028ef0 f i ad_x86_32_gen.obj
 0001:00027f00       ??0prefetchrT0Node@@QAE@XZ 08028f00 f i ad_x86_32_gen.obj
 0001:00027f30       ?rule@prefetchrT0Node@@EBEIXZ 08028f30 f i ad_x86_32_gen.obj
 0001:00027f40       ??0prefetchrT2Node@@QAE@XZ 08028f40 f i ad_x86_32_gen.obj
 0001:00027f70       ?rule@prefetchrT2Node@@EBEIXZ 08028f70 f i ad_x86_32_gen.obj
 0001:00027f80       ??0prefetchw0Node@@QAE@XZ  08028f80 f i ad_x86_32_gen.obj
 0001:00027fb0       ?rule@prefetchw0Node@@EBEIXZ 08028fb0 f i ad_x86_32_gen.obj
 0001:00027fc0       ??0prefetchwNode@@QAE@XZ   08028fc0 f i ad_x86_32_gen.obj
 0001:00027ff0       ?rule@prefetchwNode@@EBEIXZ 08028ff0 f i ad_x86_32_gen.obj
 0001:00028000       ??0prefetchwNTANode@@QAE@XZ 08029000 f i ad_x86_32_gen.obj
 0001:00028030       ?rule@prefetchwNTANode@@EBEIXZ 08029030 f i ad_x86_32_gen.obj
 0001:00028040       ??0prefetchwT0Node@@QAE@XZ 08029040 f i ad_x86_32_gen.obj
 0001:00028070       ?rule@prefetchwT0Node@@EBEIXZ 08029070 f i ad_x86_32_gen.obj
 0001:00028080       ??0prefetchwT2Node@@QAE@XZ 08029080 f i ad_x86_32_gen.obj
 0001:000280b0       ?rule@prefetchwT2Node@@EBEIXZ 080290b0 f i ad_x86_32_gen.obj
 0001:000280c0       ??0storeBNode@@QAE@XZ      080290c0 f i ad_x86_32_gen.obj
 0001:000280f0       ?rule@storeBNode@@EBEIXZ   080290f0 f i ad_x86_32_gen.obj
 0001:00028100       ??0storeCNode@@QAE@XZ      08029100 f i ad_x86_32_gen.obj
 0001:00028130       ?rule@storeCNode@@EBEIXZ   08029130 f i ad_x86_32_gen.obj
 0001:00028140       ??0storeINode@@QAE@XZ      08029140 f i ad_x86_32_gen.obj
 0001:00028170       ?rule@storeINode@@EBEIXZ   08029170 f i ad_x86_32_gen.obj
 0001:00028180       ??0storeLNode@@QAE@XZ      08029180 f i ad_x86_32_gen.obj
 0001:000281b0       ?rule@storeLNode@@EBEIXZ   080291b0 f i ad_x86_32_gen.obj
 0001:000281c0       ??0storeL2INode@@QAE@XZ    080291c0 f i ad_x86_32_gen.obj
 0001:000281f0       ?rule@storeL2INode@@EBEIXZ 080291f0 f i ad_x86_32_gen.obj
 0001:00028200       ??0storeL_volatileNode@@QAE@XZ 08029200 f i ad_x86_32_gen.obj
 0001:00028230       ?rule@storeL_volatileNode@@EBEIXZ 08029230 f i ad_x86_32_gen.obj
 0001:00028240       ??0storeLX_volatileNode@@QAE@XZ 08029240 f i ad_x86_32_gen.obj
 0001:00028270       ?rule@storeLX_volatileNode@@EBEIXZ 08029270 f i ad_x86_32_gen.obj
 0001:00028280       ??0storeLX_reg_volatileNode@@QAE@XZ 08029280 f i ad_x86_32_gen.obj
 0001:000282b0       ?rule@storeLX_reg_volatileNode@@EBEIXZ 080292b0 f i ad_x86_32_gen.obj
 0001:000282c0       ??0storePNode@@QAE@XZ      080292c0 f i ad_x86_32_gen.obj
 0001:000282f0       ?rule@storePNode@@EBEIXZ   080292f0 f i ad_x86_32_gen.obj
 0001:00028300       ??0storeImmINode@@QAE@XZ   08029300 f i ad_x86_32_gen.obj
 0001:00028330       ?rule@storeImmINode@@EBEIXZ 08029330 f i ad_x86_32_gen.obj
 0001:00028340       ??0storeImmI16Node@@QAE@XZ 08029340 f i ad_x86_32_gen.obj
 0001:00028370       ?rule@storeImmI16Node@@EBEIXZ 08029370 f i ad_x86_32_gen.obj
 0001:00028380       ??0storeImmPNode@@QAE@XZ   08029380 f i ad_x86_32_gen.obj
 0001:000283b0       ?rule@storeImmPNode@@EBEIXZ 080293b0 f i ad_x86_32_gen.obj
 0001:000283c0       ??0storeImmBNode@@QAE@XZ   080293c0 f i ad_x86_32_gen.obj
 0001:000283f0       ?rule@storeImmBNode@@EBEIXZ 080293f0 f i ad_x86_32_gen.obj
 0001:00028400       ??0storeA8BNode@@QAE@XZ    08029400 f i ad_x86_32_gen.obj
 0001:00028430       ?rule@storeA8BNode@@EBEIXZ 08029430 f i ad_x86_32_gen.obj
 0001:00028440       ??0storeA4CNode@@QAE@XZ    08029440 f i ad_x86_32_gen.obj
 0001:00028470       ?rule@storeA4CNode@@EBEIXZ 08029470 f i ad_x86_32_gen.obj
 0001:00028480       ??0storeA2INode@@QAE@XZ    08029480 f i ad_x86_32_gen.obj
 0001:000284b0       ?rule@storeA2INode@@EBEIXZ 080294b0 f i ad_x86_32_gen.obj
 0001:000284c0       ??0storeImmCMNode@@QAE@XZ  080294c0 f i ad_x86_32_gen.obj
 0001:000284f0       ?rule@storeImmCMNode@@EBEIXZ 080294f0 f i ad_x86_32_gen.obj
 0001:00028500       ??0storeDNode@@QAE@XZ      08029500 f i ad_x86_32_gen.obj
 0001:00028530       ?rule@storeDNode@@EBEIXZ   08029530 f i ad_x86_32_gen.obj
 0001:00028540       ??0storeD_roundedNode@@QAE@XZ 08029540 f i ad_x86_32_gen.obj
 0001:00028570       ?rule@storeD_roundedNode@@EBEIXZ 08029570 f i ad_x86_32_gen.obj
 0001:00028580       ??0storeXDNode@@QAE@XZ     08029580 f i ad_x86_32_gen.obj
 0001:000285b0       ?rule@storeXDNode@@EBEIXZ  080295b0 f i ad_x86_32_gen.obj
 0001:000285c0       ??0storeXNode@@QAE@XZ      080295c0 f i ad_x86_32_gen.obj
 0001:000285f0       ?rule@storeXNode@@EBEIXZ   080295f0 f i ad_x86_32_gen.obj
 0001:00028600       ??0storeA2FNode@@QAE@XZ    08029600 f i ad_x86_32_gen.obj
 0001:00028630       ?rule@storeA2FNode@@EBEIXZ 08029630 f i ad_x86_32_gen.obj
 0001:00028640       ??0storeFNode@@QAE@XZ      08029640 f i ad_x86_32_gen.obj
 0001:00028670       ?rule@storeFNode@@EBEIXZ   08029670 f i ad_x86_32_gen.obj
 0001:00028680       ??0storeF_roundedNode@@QAE@XZ 08029680 f i ad_x86_32_gen.obj
 0001:000286b0       ?rule@storeF_roundedNode@@EBEIXZ 080296b0 f i ad_x86_32_gen.obj
 0001:000286c0       ??0storeF_DroundedNode@@QAE@XZ 080296c0 f i ad_x86_32_gen.obj
 0001:000286f0       ?rule@storeF_DroundedNode@@EBEIXZ 080296f0 f i ad_x86_32_gen.obj
 0001:00028700       ??0storeF_immNode@@QAE@XZ  08029700 f i ad_x86_32_gen.obj
 0001:00028730       ?rule@storeF_immNode@@EBEIXZ 08029730 f i ad_x86_32_gen.obj
 0001:00028740       ??0storeX_immNode@@QAE@XZ  08029740 f i ad_x86_32_gen.obj
 0001:00028770       ?rule@storeX_immNode@@EBEIXZ 08029770 f i ad_x86_32_gen.obj
 0001:00028780       ??0storeSSINode@@QAE@XZ    08029780 f i ad_x86_32_gen.obj
 0001:000287b0       ??0storeSSPNode@@QAE@XZ    080297b0 f i ad_x86_32_gen.obj
 0001:000287e0       ?bottom_type@storeSSPNode@@UBEPBVType@@XZ 080297e0 f i ad_x86_32_gen.obj
 0001:000287f0       ??0storeSSLNode@@QAE@XZ    080297f0 f i ad_x86_32_gen.obj
 0001:00028820       ??0membar_acquireNode@@QAE@XZ 08029820 f i ad_x86_32_gen.obj
 0001:00028850       ?rule@membar_acquireNode@@EBEIXZ 08029850 f i ad_x86_32_gen.obj
 0001:00028860       ??0membar_acquire_lockNode@@QAE@XZ 08029860 f i ad_x86_32_gen.obj
 0001:00028890       ?rule@membar_acquire_lockNode@@EBEIXZ 08029890 f i ad_x86_32_gen.obj
 0001:000288a0       ??0membar_releaseNode@@QAE@XZ 080298a0 f i ad_x86_32_gen.obj
 0001:000288d0       ?rule@membar_releaseNode@@EBEIXZ 080298d0 f i ad_x86_32_gen.obj
 0001:000288e0       ??0membar_release_lockNode@@QAE@XZ 080298e0 f i ad_x86_32_gen.obj
 0001:00028910       ?rule@membar_release_lockNode@@EBEIXZ 08029910 f i ad_x86_32_gen.obj
 0001:00028920       ??0membar_volatileNode@@QAE@XZ 08029920 f i ad_x86_32_gen.obj
 0001:00028950       ??0unnecessary_membar_volatileNode@@QAE@XZ 08029950 f i ad_x86_32_gen.obj
 0001:00028980       ?rule@unnecessary_membar_volatileNode@@EBEIXZ 08029980 f i ad_x86_32_gen.obj
 0001:00028990       ?bottom_type@membar_release_lockNode@@UBEPBVType@@XZ 08029990 f i ad_x86_32_gen.obj
 0001:00028990       ?bottom_type@membar_volatileNode@@UBEPBVType@@XZ 08029990 f i ad_x86_32_gen.obj
 0001:00028990       ?bottom_type@membar_acquire_lockNode@@UBEPBVType@@XZ 08029990 f i ad_x86_32_gen.obj
 0001:00028990       ?bottom_type@membar_acquireNode@@UBEPBVType@@XZ 08029990 f i ad_x86_32_gen.obj
 0001:00028990       ?bottom_type@MemBarNode@@UBEPBVType@@XZ 08029990 f i memnode.obj
 0001:00028990       ?bottom_type@membar_releaseNode@@UBEPBVType@@XZ 08029990 f i ad_x86_32_gen.obj
 0001:00028990       ?bottom_type@unnecessary_membar_volatileNode@@UBEPBVType@@XZ 08029990 f i ad_x86_32_gen.obj
 0001:00028990       ?bottom_type@MachSafePointNode@@UBEPBVType@@XZ 08029990 f i machnode.obj
 0001:000289a0       ??0castX2PNode@@QAE@XZ     080299a0 f i ad_x86_32_gen.obj
 0001:000289d0       ??0castP2XNode@@QAE@XZ     080299d0 f i ad_x86_32_gen.obj
 0001:00028a00       ??0cmovI_regNode@@QAE@XZ   08029a00 f i ad_x86_32_gen.obj
 0001:00028a30       ?rule@cmovI_regNode@@EBEIXZ 08029a30 f i ad_x86_32_gen.obj
 0001:00028a40       ??0cmovI_regUCFNode@@QAE@XZ 08029a40 f i ad_x86_32_gen.obj
 0001:00028a70       ?rule@cmovI_regUCFNode@@EBEIXZ 08029a70 f i ad_x86_32_gen.obj
 0001:00028a80       ??0cmovP_regNode@@QAE@XZ   08029a80 f i ad_x86_32_gen.obj
 0001:00028ab0       ?rule@cmovP_regNode@@EBEIXZ 08029ab0 f i ad_x86_32_gen.obj
 0001:00028ac0       ??0cmovP_reg_nonP6Node@@QAE@XZ 08029ac0 f i ad_x86_32_gen.obj
 0001:00028af0       ?rule@cmovP_reg_nonP6Node@@EBEIXZ 08029af0 f i ad_x86_32_gen.obj
 0001:00028b00       ??0cmovP_regUCFNode@@QAE@XZ 08029b00 f i ad_x86_32_gen.obj
 0001:00028b30       ?rule@cmovP_regUCFNode@@EBEIXZ 08029b30 f i ad_x86_32_gen.obj
 0001:00028b40       ??0fcmovD_regUNode@@QAE@XZ 08029b40 f i ad_x86_32_gen.obj
 0001:00028b70       ?rule@fcmovD_regUNode@@EBEIXZ 08029b70 f i ad_x86_32_gen.obj
 0001:00028b80       ??0fcmovF_regUNode@@QAE@XZ 08029b80 f i ad_x86_32_gen.obj
 0001:00028bb0       ?rule@fcmovF_regUNode@@EBEIXZ 08029bb0 f i ad_x86_32_gen.obj
 0001:00028bc0       ??0fcmovX_regUCFNode@@QAE@XZ 08029bc0 f i ad_x86_32_gen.obj
 0001:00028bf0       ?rule@fcmovX_regUCFNode@@EBEIXZ 08029bf0 f i ad_x86_32_gen.obj
 0001:00028c00       ??0fcmovXD_regUCFNode@@QAE@XZ 08029c00 f i ad_x86_32_gen.obj
 0001:00028c30       ?rule@fcmovXD_regUCFNode@@EBEIXZ 08029c30 f i ad_x86_32_gen.obj
 0001:00028c40       ??0cmovL_regNode@@QAE@XZ   08029c40 f i ad_x86_32_gen.obj
 0001:00028c70       ?rule@cmovL_regNode@@EBEIXZ 08029c70 f i ad_x86_32_gen.obj
 0001:00028c80       ?two_adr@cmovLL_mem_EQNENode@@EBEIXZ 08029c80 f i ad_x86_32.obj
 0001:00028c80       ?two_adr@cmovXX_reg_LEGTNode@@EBEIXZ 08029c80 f i ad_x86_32_gen.obj
 0001:00028c80       ?two_adr@addD_mulD_regNode@@EBEIXZ 08029c80 f i ad_x86_32_gen.obj
 0001:00028c80       ?two_adr@fcmovX_regSNode@@EBEIXZ 08029c80 f i ad_x86_32_expand.obj
 0001:00028c80       ?two_adr@cmovII_reg_EQNENode@@EBEIXZ 08029c80 f i ad_x86_32_gen.obj
 0001:00028c80       ?two_adr@fcmovX_regUCFNode@@EBEIXZ 08029c80 f i ad_x86_32_gen.obj
 0001:00028c80       ?two_adr@cmovFF_reg_LTGENode@@EBEIXZ 08029c80 f i ad_x86_32_gen.obj
 0001:00028c80       ?two_adr@cmovII_mem_EQNENode@@EBEIXZ 08029c80 f i ad_x86_32.obj
 0001:00028c80       ?two_adr@cmovLL_mem_LTGENode@@EBEIXZ 08029c80 f i ad_x86_32.obj
 0001:00028c80       ?two_adr@cmovPP_reg_EQNENode@@EBEIXZ 08029c80 f i ad_x86_32_gen.obj
 0001:00028c80       ?two_adr@cmovXX_reg_LTGENode@@EBEIXZ 08029c80 f i ad_x86_32_gen.obj
 0001:00028c80       ?two_adr@fcmovX_regUNode@@EBEIXZ 08029c80 f i ad_x86_32_expand.obj
 0001:00028c80       ?two_adr@cmovI_memUCFNode@@EBEIXZ 08029c80 f i ad_x86_32.obj
 0001:00028c80       ?two_adr@fcmovXD_regUNode@@EBEIXZ 08029c80 f i ad_x86_32_expand.obj
 0001:00028c80       ?two_adr@cmovL_regUNode@@EBEIXZ 08029c80 f i ad_x86_32_expand.obj
 0001:00028c80       ?two_adr@cmovII_reg_LTGENode@@EBEIXZ 08029c80 f i ad_x86_32_gen.obj
 0001:00028c80       ?two_adr@cmovLL_reg_LEGTNode@@EBEIXZ 08029c80 f i ad_x86_32_gen.obj
 0001:00028c80       ?two_adr@subD_mulD_regNode@@EBEIXZ 08029c80 f i ad_x86_32_gen.obj
 0001:00028c80       ?two_adr@cmovDD_reg_LEGTNode@@EBEIXZ 08029c80 f i ad_x86_32_gen.obj
 0001:00028c80       ?two_adr@cmovXDD_reg_EQNENode@@EBEIXZ 08029c80 f i ad_x86_32_gen.obj
 0001:00028c80       ?two_adr@fcmovXD_regUCFNode@@EBEIXZ 08029c80 f i ad_x86_32_gen.obj
 0001:00028c80       ?two_adr@cmovII_mem_LTGENode@@EBEIXZ 08029c80 f i ad_x86_32.obj
 0001:00028c80       ?two_adr@cmovLL_reg_EQNENode@@EBEIXZ 08029c80 f i ad_x86_32_gen.obj
 0001:00028c80       ?two_adr@cmovI_regNode@@EBEIXZ 08029c80 f i ad_x86_32_gen.obj
 0001:00028c80       ?two_adr@fcmovF_regSNode@@EBEIXZ 08029c80 f i ad_x86_32_expand.obj
 0001:00028c80       ?two_adr@fcmovXD_regSNode@@EBEIXZ 08029c80 f i ad_x86_32_expand.obj
 0001:00028c80       ?two_adr@cmovII_reg_LEGTNode@@EBEIXZ 08029c80 f i ad_x86_32_gen.obj
 0001:00028c80       ?two_adr@cmovI_memNode@@EBEIXZ 08029c80 f i ad_x86_32.obj
 0001:00028c80       ?two_adr@cmovP_regNode@@EBEIXZ 08029c80 f i ad_x86_32_gen.obj
 0001:00028c80       ?two_adr@cmovXDD_reg_LEGTNode@@EBEIXZ 08029c80 f i ad_x86_32_gen.obj
 0001:00028c80       ?two_adr@cmovXDD_reg_LTGENode@@EBEIXZ 08029c80 f i ad_x86_32_gen.obj
 0001:00028c80       ?two_adr@cmovL_regNode@@EBEIXZ 08029c80 f i ad_x86_32_gen.obj
 0001:00028c80       ?two_adr@cmovII_mem_LEGTNode@@EBEIXZ 08029c80 f i ad_x86_32.obj
 0001:00028c80       ?two_adr@fcmovF_regUNode@@EBEIXZ 08029c80 f i ad_x86_32_gen.obj
 0001:00028c80       ?two_adr@cmovFF_reg_EQNENode@@EBEIXZ 08029c80 f i ad_x86_32_gen.obj
 0001:00028c80       ?two_adr@cmovDD_reg_EQNENode@@EBEIXZ 08029c80 f i ad_x86_32_gen.obj
 0001:00028c80       ?two_adr@cmovP_reg_nonP6Node@@EBEIXZ 08029c80 f i ad_x86_32_gen.obj
 0001:00028c80       ?two_adr@cmovDD_reg_LTGENode@@EBEIXZ 08029c80 f i ad_x86_32_gen.obj
 0001:00028c80       ?two_adr@fcmovD_regUNode@@EBEIXZ 08029c80 f i ad_x86_32_gen.obj
 0001:00028c80       ?two_adr@cmovI_regUNode@@EBEIXZ 08029c80 f i ad_x86_32_expand.obj
 0001:00028c80       ?two_adr@addF_mulF_regNode@@EBEIXZ 08029c80 f i ad_x86_32_gen.obj
 0001:00028c80       ?two_adr@cmovFF_reg_LEGTNode@@EBEIXZ 08029c80 f i ad_x86_32_gen.obj
 0001:00028c80       ?two_adr@cmovL_regUCFNode@@EBEIXZ 08029c80 f i ad_x86_32_gen.obj
 0001:00028c80       ?two_adr@cmovLL_mem_LEGTNode@@EBEIXZ 08029c80 f i ad_x86_32.obj
 0001:00028c80       ?two_adr@cmovP_regUCFNode@@EBEIXZ 08029c80 f i ad_x86_32_gen.obj
 0001:00028c80       ?two_adr@fcmovD_regSNode@@EBEIXZ 08029c80 f i ad_x86_32_expand.obj
 0001:00028c80       ?two_adr@cmovXX_reg_EQNENode@@EBEIXZ 08029c80 f i ad_x86_32_gen.obj
 0001:00028c80       ?two_adr@cmovP_regUNode@@EBEIXZ 08029c80 f i ad_x86_32_expand.obj
 0001:00028c80       ?two_adr@cmovI_regUCFNode@@EBEIXZ 08029c80 f i ad_x86_32_gen.obj
 0001:00028c80       ?two_adr@cmovPP_reg_LEGTNode@@EBEIXZ 08029c80 f i ad_x86_32_gen.obj
 0001:00028c80       ?two_adr@cmovI_memUNode@@EBEIXZ 08029c80 f i ad_x86_32.obj
 0001:00028c80       ?two_adr@cmovLL_reg_LTGENode@@EBEIXZ 08029c80 f i ad_x86_32_gen.obj
 0001:00028c80       ?two_adr@cmovPP_reg_LTGENode@@EBEIXZ 08029c80 f i ad_x86_32_gen.obj
 0001:00028cb0       ??0cmovL_regUCFNode@@QAE@XZ 08029cb0 f i ad_x86_32_gen.obj
 0001:00028ce0       ?rule@cmovL_regUCFNode@@EBEIXZ 08029ce0 f i ad_x86_32_gen.obj
 0001:00028cf0       ?ideal_Opcode@cmovLL_reg_EQNENode@@EBEHXZ 08029cf0 f i ad_x86_32_gen.obj
 0001:00028cf0       ?size_of@unnecessary_membar_volatileNode@@UBEIXZ 08029cf0 f i ad_x86_32_gen.obj
 0001:00028cf0       ?size_of@MachTypeNode@@EBEIXZ 08029cf0 f i ad_x86_32_gen.obj
 0001:00028cf0       ?size_of@membar_acquireNode@@UBEIXZ 08029cf0 f i ad_x86_32_gen.obj
 0001:00028cf0       ?ideal_Opcode@cmovL_regNode@@EBEHXZ 08029cf0 f i ad_x86_32_gen.obj
 0001:00028cf0       ?size_of@TLSNode@@UBEIXZ   08029cf0 f i ad_x86_32_gen.obj
 0001:00028cf0       ?ideal_Opcode@cmovL_regUCFNode@@EBEHXZ 08029cf0 f i ad_x86_32_gen.obj
 0001:00028cf0       ?ideal_Opcode@cmovLL_reg_LTGENode@@EBEHXZ 08029cf0 f i ad_x86_32_gen.obj
 0001:00028cf0       ?size_of@MachFastLockNode@@EBEIXZ 08029cf0 f i ad_x86_32_gen.obj
 0001:00028cf0       ?size_of@tlsLoadP_prefixLoadPNode@@UBEIXZ 08029cf0 f i ad_x86_32_expand.obj
 0001:00028cf0       ?size_of@SafePointNode@@EBEIXZ 08029cf0 f i callnode.obj
 0001:00028cf0       ?ideal_Opcode@cmovLL_mem_EQNENode@@EBEHXZ 08029cf0 f i ad_x86_32.obj
 0001:00028cf0       ?size_of@MachTempNode@@UBEIXZ 08029cf0 f i ad_x86_32_expand.obj
 0001:00028cf0       ?size_of@CatchProjNode@@EBEIXZ 08029cf0 f i doCall.obj
 0001:00028cf0       ?opcode@eDIRegIOper@@UBEIXZ 08029cf0 f i ad_x86_32_clone.obj
 0001:00028cf0       ?size_of@membar_release_lockNode@@UBEIXZ 08029cf0 f i ad_x86_32_gen.obj
 0001:00028cf0       ?size_of@membar_releaseNode@@UBEIXZ 08029cf0 f i ad_x86_32_gen.obj
 0001:00028cf0       ?ideal_Opcode@cmovL_regUNode@@EBEHXZ 08029cf0 f i ad_x86_32_expand.obj
 0001:00028cf0       ?size_of@membar_acquire_lockNode@@UBEIXZ 08029cf0 f i ad_x86_32_gen.obj
 0001:00028cf0       ?ideal_Opcode@cmovLL_reg_LEGTNode@@EBEHXZ 08029cf0 f i ad_x86_32_gen.obj
 0001:00028cf0       ?ideal_Opcode@cmovLL_mem_LEGTNode@@EBEHXZ 08029cf0 f i ad_x86_32.obj
 0001:00028cf0       ?type@VM_EnterInterpOnlyMode@@UBE?AW4VMOp_Type@VM_Operation@@XZ 08029cf0 f i jvmtiEventController.obj
 0001:00028cf0       ?Opcode@CMoveLNode@@UBEHXZ 08029cf0 f i classes.obj
 0001:00028cf0       ?ideal_Opcode@cmovLL_mem_LTGENode@@EBEHXZ 08029cf0 f i ad_x86_32.obj
 0001:00028cf0       ?size_of@SafePointScalarObjectNode@@UBEIXZ 08029cf0 f i callnode.obj
 0001:00028d00       ??0addI_eRegNode@@QAE@XZ   08029d00 f i ad_x86_32_gen.obj
 0001:00028d30       ?rule@addI_eRegNode@@EBEIXZ 08029d30 f i ad_x86_32_gen.obj
 0001:00028d40       ??0addI_eReg_immNode@@QAE@XZ 08029d40 f i ad_x86_32_gen.obj
 0001:00028d70       ?rule@addI_eReg_immNode@@EBEIXZ 08029d70 f i ad_x86_32_gen.obj
 0001:00028d80       ??0incI_eRegNode@@QAE@XZ   08029d80 f i ad_x86_32_gen.obj
 0001:00028db0       ?rule@incI_eRegNode@@EBEIXZ 08029db0 f i ad_x86_32_gen.obj
 0001:00028dc0       ??0leaI_eReg_immINode@@QAE@XZ 08029dc0 f i ad_x86_32_gen.obj
 0001:00028df0       ?rule@leaI_eReg_immINode@@EBEIXZ 08029df0 f i ad_x86_32_gen.obj
 0001:00028df0       ?not_equal@cmpOp_fcmovOper@@UBEHXZ 08029df0 f i ad_x86_32_clone.obj
 0001:00028e00       ??0leaP_eReg_immINode@@QAE@XZ 08029e00 f i ad_x86_32_gen.obj
 0001:00028e30       ?rule@leaP_eReg_immINode@@EBEIXZ 08029e30 f i ad_x86_32_gen.obj
 0001:00028e40       ??0decI_eRegNode@@QAE@XZ   08029e40 f i ad_x86_32_gen.obj
 0001:00028e70       ?rule@decI_eRegNode@@EBEIXZ 08029e70 f i ad_x86_32_gen.obj
 0001:00028e80       ??0addP_eRegNode@@QAE@XZ   08029e80 f i ad_x86_32_gen.obj
 0001:00028eb0       ?rule@addP_eRegNode@@EBEIXZ 08029eb0 f i ad_x86_32_gen.obj
 0001:00028ec0       ??0addP_eReg_immNode@@QAE@XZ 08029ec0 f i ad_x86_32_gen.obj
 0001:00028ef0       ?rule@addP_eReg_immNode@@EBEIXZ 08029ef0 f i ad_x86_32_gen.obj
 0001:00028f00       ??0addI_eReg_mem_0Node@@QAE@XZ 08029f00 f i ad_x86_32_gen.obj
 0001:00028f30       ?rule@addI_eReg_mem_0Node@@EBEIXZ 08029f30 f i ad_x86_32_gen.obj
 0001:00028f40       ??0addI_mem_eRegNode@@QAE@XZ 08029f40 f i ad_x86_32_gen.obj
 0001:00028f70       ?rule@addI_mem_eRegNode@@EBEIXZ 08029f70 f i ad_x86_32_gen.obj
 0001:00028f80       ??0addI_mem_eReg_0Node@@QAE@XZ 08029f80 f i ad_x86_32_gen.obj
 0001:00028fb0       ?greater@cmpOp_fcmovOper@@UBEHXZ 08029fb0 f i ad_x86_32_clone.obj
 0001:00028fb0       ?rule@addI_mem_eReg_0Node@@EBEIXZ 08029fb0 f i ad_x86_32_gen.obj
 0001:00028fc0       ??0addI_mem_immNode@@QAE@XZ 08029fc0 f i ad_x86_32_gen.obj
 0001:00028ff0       ?rule@addI_mem_immNode@@EBEIXZ 08029ff0 f i ad_x86_32_gen.obj
 0001:00029000       ??0incI_memNode@@QAE@XZ    0802a000 f i ad_x86_32_gen.obj
 0001:00029030       ?rule@incI_memNode@@EBEIXZ 0802a030 f i ad_x86_32_gen.obj
 0001:00029040       ??0decI_memNode@@QAE@XZ    0802a040 f i ad_x86_32_gen.obj
 0001:00029070       ?rule@decI_memNode@@EBEIXZ 0802a070 f i ad_x86_32_gen.obj
 0001:00029080       ??0checkCastPPNode@@QAE@XZ 0802a080 f i ad_x86_32_gen.obj
 0001:000290b0       ?Opcode@CheckCastPPNode@@UBEHXZ 0802a0b0 f i classes.obj
 0001:000290b0       ?ideal_Opcode@checkCastPPNode@@EBEHXZ 0802a0b0 f i ad_x86_32_gen.obj
 0001:000290b0       ?opcode@eRegIOper@@UBEIXZ  0802a0b0 f i ad_x86_32_clone.obj
 0001:000290b0       ?type@VM_GetThreadListStackTraces@@UBE?AW4VMOp_Type@VM_Operation@@XZ 0802a0b0 f i jvmtiEnv.obj
 0001:000290c0       ??0castPPNode@@QAE@XZ      0802a0c0 f i ad_x86_32_gen.obj
 0001:000290f0       ?type@VM_GetStackTrace@@UBE?AW4VMOp_Type@VM_Operation@@XZ 0802a0f0 f i jvmtiEnv.obj
 0001:000290f0       ?ideal_Opcode@castPPNode@@EBEHXZ 0802a0f0 f i ad_x86_32_gen.obj
 0001:000290f0       ?Opcode@CastPPNode@@UBEHXZ 0802a0f0 f i classes.obj
 0001:000290f0       ?opcode@immI_24Oper@@UBEIXZ 0802a0f0 f i ad_x86_32_clone.obj
 0001:00029100       ??0castIINode@@QAE@XZ      0802a100 f i ad_x86_32_gen.obj
 0001:00029130       ?size_of@MemNode@@MBEIXZ   0802a130 f i memnode.obj
 0001:00029130       ?size_of@Node@@UBEIXZ      0802a130 f i node.obj
 0001:00029130       ?type@VM_GetOwnedMonitorInfo@@UBE?AW4VMOp_Type@VM_Operation@@XZ 0802a130 f i jvmtiEnv.obj
 0001:00029130       ?opcode@immXFOper@@UBEIXZ  0802a130 f i ad_x86_32_clone.obj
 0001:00029130       ?ideal_Opcode@castIINode@@EBEHXZ 0802a130 f i ad_x86_32_gen.obj
 0001:00029130       ?size_of@VectorStoreNode@@EBEIXZ 0802a130 f i vectornode.obj
 0001:00029130       ?Opcode@CastIINode@@UBEHXZ 0802a130 f i classes.obj
 0001:00029140       ??0loadPLockedNode@@QAE@XZ 0802a140 f i ad_x86_32_gen.obj
 0001:00029170       ?rule@loadPLockedNode@@EBEIXZ 0802a170 f i ad_x86_32_gen.obj
 0001:00029180       ?Opcode@LoadPLockedNode@@UBEHXZ 0802a180 f i classes.obj
 0001:00029180       ?ideal_Opcode@loadPLockedNode@@EBEHXZ 0802a180 f i ad_x86_32_gen.obj
 0001:00029190       ??0loadLLockedNode@@QAE@XZ 0802a190 f i ad_x86_32_gen.obj
 0001:000291c0       ?rule@loadLLockedNode@@EBEIXZ 0802a1c0 f i ad_x86_32_gen.obj
 0001:000291d0       ??0loadLX_LockedNode@@QAE@XZ 0802a1d0 f i ad_x86_32_gen.obj
 0001:00029200       ?rule@loadLX_LockedNode@@EBEIXZ 0802a200 f i ad_x86_32_gen.obj
 0001:00029210       ??0loadLX_reg_LockedNode@@QAE@XZ 0802a210 f i ad_x86_32_gen.obj
 0001:00029240       ?rule@loadLX_reg_LockedNode@@EBEIXZ 0802a240 f i ad_x86_32_gen.obj
 0001:00029250       ?ideal_Opcode@loadLX_reg_LockedNode@@EBEHXZ 0802a250 f i ad_x86_32_gen.obj
 0001:00029250       ?ideal_Opcode@loadLX_LockedNode@@EBEHXZ 0802a250 f i ad_x86_32_gen.obj
 0001:00029250       ?Opcode@LoadLLockedNode@@UBEHXZ 0802a250 f i classes.obj
 0001:00029250       ?ideal_Opcode@loadLLockedNode@@EBEHXZ 0802a250 f i ad_x86_32_gen.obj
 0001:00029260       ??0storePConditionalNode@@QAE@XZ 0802a260 f i ad_x86_32_gen.obj
 0001:00029290       ?store_Opcode@Load2INode@@UBEHXZ 0802a290 f i vectornode.obj
 0001:00029290       ?ideal_Opcode@storeA2INode@@EBEHXZ 0802a290 f i ad_x86_32_gen.obj
 0001:00029290       ?rule@storePConditionalNode@@EBEIXZ 0802a290 f i ad_x86_32_gen.obj
 0001:00029290       ?Opcode@Store2INode@@UBEHXZ 0802a290 f i classes.obj
 0001:000292a0       ?ideal_Opcode@storePConditionalNode@@EBEHXZ 0802a2a0 f i ad_x86_32_gen.obj
 0001:000292a0       ?store_Opcode@LoadPLockedNode@@UBEHXZ 0802a2a0 f i macro.obj
 0001:000292a0       ?Opcode@StorePConditionalNode@@UBEHXZ 0802a2a0 f i classes.obj
 0001:000292b0       ??0storeIConditionalNode@@QAE@XZ 0802a2b0 f i ad_x86_32_gen.obj
 0001:000292e0       ?store_Opcode@Load2LNode@@UBEHXZ 0802a2e0 f i vectornode.obj
 0001:000292e0       ?rule@storeIConditionalNode@@EBEIXZ 0802a2e0 f i ad_x86_32_gen.obj
 0001:000292e0       ?Opcode@Store2LNode@@UBEHXZ 0802a2e0 f i classes.obj
 0001:000292f0       ?Opcode@StoreIConditionalNode@@UBEHXZ 0802a2f0 f i classes.obj
 0001:000292f0       ?ideal_Opcode@storeIConditionalNode@@EBEHXZ 0802a2f0 f i ad_x86_32_gen.obj
 0001:00029300       ??0storeLConditionalNode@@QAE@XZ 0802a300 f i ad_x86_32_gen.obj
 0001:00029330       ?store_Opcode@Load4FNode@@UBEHXZ 0802a330 f i vectornode.obj
 0001:00029330       ?rule@storeLConditionalNode@@EBEIXZ 0802a330 f i ad_x86_32_gen.obj
 0001:00029330       ?Opcode@Store4FNode@@UBEHXZ 0802a330 f i classes.obj
 0001:00029340       ?ideal_Opcode@storeLConditionalNode@@EBEHXZ 0802a340 f i ad_x86_32_gen.obj
 0001:00029340       ?Opcode@StoreLConditionalNode@@UBEHXZ 0802a340 f i classes.obj
 0001:00029340       ?store_Opcode@LoadLLockedNode@@UBEHXZ 0802a340 f i library_call.obj
 0001:00029350       ??0compareAndSwapLNode@@QAE@XZ 0802a350 f i ad_x86_32_gen.obj
 0001:00029380       ?rule@compareAndSwapLNode@@EBEIXZ 0802a380 f i ad_x86_32_gen.obj
 0001:00029390       ?Opcode@CompareAndSwapLNode@@UBEHXZ 0802a390 f i classes.obj
 0001:00029390       ?opcode@eDIRegPOper@@UBEIXZ 0802a390 f i ad_x86_32_clone.obj
 0001:00029390       ?ideal_Opcode@compareAndSwapLNode@@EBEHXZ 0802a390 f i ad_x86_32_gen.obj
 0001:000293a0       ??0compareAndSwapPNode@@QAE@XZ 0802a3a0 f i ad_x86_32_gen.obj
 0001:000293d0       ?rule@compareAndSwapPNode@@EBEIXZ 0802a3d0 f i ad_x86_32_gen.obj
 0001:000293e0       ?size_of@AllocateNode@@UBEIXZ 0802a3e0 f i callnode.obj
 0001:000293e0       ?size_of@fcmovD_regUNode@@UBEIXZ 0802a3e0 f i ad_x86_32_gen.obj
 0001:000293e0       ?size_of@cmovII_mem_EQNENode@@UBEIXZ 0802a3e0 f i ad_x86_32.obj
 0001:000293e0       ?size_of@addD_mem_reg_0Node@@UBEIXZ 0802a3e0 f i ad_x86_32_gen.obj
 0001:000293e0       ?size_of@cmovP_regUCFNode@@UBEIXZ 0802a3e0 f i ad_x86_32_gen.obj
 0001:000293e0       ?size_of@orI_mem_eReg_0Node@@UBEIXZ 0802a3e0 f i ad_x86_32_gen.obj
 0001:000293e0       ?size_of@addF_mulF_reg_0Node@@UBEIXZ 0802a3e0 f i ad_x86_32_gen.obj
 0001:000293e0       ?size_of@cmovPP_reg_LEGTNode@@UBEIXZ 0802a3e0 f i ad_x86_32_gen.obj
 0001:000293e0       ?size_of@cmovI_memNode@@UBEIXZ 0802a3e0 f i ad_x86_32.obj
 0001:000293e0       ?size_of@fcmovX_regSNode@@UBEIXZ 0802a3e0 f i ad_x86_32_expand.obj
 0001:000293e0       ?size_of@fcmovX_regUCFNode@@UBEIXZ 0802a3e0 f i ad_x86_32_gen.obj
 0001:000293e0       ?size_of@sarI_mem_1Node@@UBEIXZ 0802a3e0 f i ad_x86_32_gen.obj
 0001:000293e0       ?size_of@cmovL_regUCFNode@@UBEIXZ 0802a3e0 f i ad_x86_32_gen.obj
 0001:000293e0       ?size_of@cmovII_mem_LEGTNode@@UBEIXZ 0802a3e0 f i ad_x86_32.obj
 0001:000293e0       ?size_of@decI_memNode@@UBEIXZ 0802a3e0 f i ad_x86_32_gen.obj
 0001:000293e0       ?size_of@andI_mem_eReg_0Node@@UBEIXZ 0802a3e0 f i ad_x86_32_gen.obj
 0001:000293e0       ?size_of@rorI_eReg_i8_0Node@@UBEIXZ 0802a3e0 f i ad_x86_32_gen.obj
 0001:000293e0       ?size_of@rolI_eReg_i8Node@@UBEIXZ 0802a3e0 f i ad_x86_32_gen.obj
 0001:000293e0       ?size_of@cmovXX_reg_LTGENode@@UBEIXZ 0802a3e0 f i ad_x86_32_gen.obj
 0001:000293e0       ?size_of@cmovFF_reg_EQNENode@@UBEIXZ 0802a3e0 f i ad_x86_32_gen.obj
 0001:000293e0       ?size_of@orI_mem_immNode@@UBEIXZ 0802a3e0 f i ad_x86_32_gen.obj
 0001:000293e0       ?size_of@cmovDD_reg_LTGENode@@UBEIXZ 0802a3e0 f i ad_x86_32_gen.obj
 0001:000293e0       ?size_of@LockNode@@UBEIXZ  0802a3e0 f i callnode.obj
 0001:000293e0       ?size_of@fcmovXD_regSNode@@UBEIXZ 0802a3e0 f i ad_x86_32_expand.obj
 0001:000293e0       ?size_of@mulIS_eReg_0Node@@UBEIXZ 0802a3e0 f i ad_x86_32_gen.obj
 0001:000293e0       ?size_of@addI_mem_immNode@@UBEIXZ 0802a3e0 f i ad_x86_32_gen.obj
 0001:000293e0       ?size_of@cmovPP_reg_EQNENode@@UBEIXZ 0802a3e0 f i ad_x86_32_gen.obj
 0001:000293e0       ?size_of@orI_mem_eRegNode@@UBEIXZ 0802a3e0 f i ad_x86_32_gen.obj
 0001:000293e0       ?size_of@addD_mem_regNode@@UBEIXZ 0802a3e0 f i ad_x86_32_gen.obj
 0001:000293e0       ?size_of@cmovLL_mem_EQNENode@@UBEIXZ 0802a3e0 f i ad_x86_32.obj
 0001:000293e0       ?size_of@cmovFF_reg_LTGENode@@UBEIXZ 0802a3e0 f i ad_x86_32_gen.obj
 0001:000293e0       ?size_of@cmovXX_reg_LEGTNode@@UBEIXZ 0802a3e0 f i ad_x86_32_gen.obj
 0001:000293e0       ?size_of@xorI_mem_eReg_0Node@@UBEIXZ 0802a3e0 f i ad_x86_32_gen.obj
 0001:000293e0       ?size_of@rorI_eReg_i1_0Node@@UBEIXZ 0802a3e0 f i ad_x86_32_gen.obj
 0001:000293e0       ?size_of@cmovP_regUNode@@UBEIXZ 0802a3e0 f i ad_x86_32_expand.obj
 0001:000293e0       ?size_of@addI_mem_eRegNode@@UBEIXZ 0802a3e0 f i ad_x86_32_gen.obj
 0001:000293e0       ?size_of@cmovLL_mem_LTGENode@@UBEIXZ 0802a3e0 f i ad_x86_32.obj
 0001:000293e0       ?ideal_Opcode@compareAndSwapPNode@@EBEHXZ 0802a3e0 f i ad_x86_32_gen.obj
 0001:000293e0       ?size_of@AllocateArrayNode@@UBEIXZ 0802a3e0 f i callnode.obj
 0001:000293e0       ?size_of@cmovXDD_reg_LTGENode@@UBEIXZ 0802a3e0 f i ad_x86_32_gen.obj
 0001:000293e0       ?size_of@rorI_eReg_i1Node@@UBEIXZ 0802a3e0 f i ad_x86_32_gen.obj
 0001:000293e0       ?size_of@cmovL_regUNode@@UBEIXZ 0802a3e0 f i ad_x86_32_expand.obj
 0001:000293e0       ?size_of@fcmovD_regSNode@@UBEIXZ 0802a3e0 f i ad_x86_32_expand.obj
 0001:000293e0       ?size_of@rorI_eReg_i8Node@@UBEIXZ 0802a3e0 f i ad_x86_32_gen.obj
 0001:000293e0       ?size_of@fcmovXD_regUCFNode@@UBEIXZ 0802a3e0 f i ad_x86_32_gen.obj
 0001:000293e0       ?size_of@cmovDD_reg_LEGTNode@@UBEIXZ 0802a3e0 f i ad_x86_32_gen.obj
 0001:000293e0       ?size_of@addI_mem_eReg_0Node@@UBEIXZ 0802a3e0 f i ad_x86_32_gen.obj
 0001:000293e0       ?size_of@subI_mem_eRegNode@@UBEIXZ 0802a3e0 f i ad_x86_32_gen.obj
 0001:000293e0       ?size_of@cmovFF_reg_LEGTNode@@UBEIXZ 0802a3e0 f i ad_x86_32_gen.obj
 0001:000293e0       ?size_of@xorI_mem_eRegNode@@UBEIXZ 0802a3e0 f i ad_x86_32_gen.obj
 0001:000293e0       ?opcode@eBPRegPOper@@UBEIXZ 0802a3e0 f i ad_x86_32_clone.obj
 0001:000293e0       ?size_of@fcmovX_regUNode@@UBEIXZ 0802a3e0 f i ad_x86_32_expand.obj
 0001:000293e0       ?size_of@BoxLockNode@@UBEIXZ 0802a3e0 f i locknode.obj
 0001:000293e0       ?size_of@andI_mem_immNode@@UBEIXZ 0802a3e0 f i ad_x86_32_gen.obj
 0001:000293e0       ?Opcode@CompareAndSwapPNode@@UBEHXZ 0802a3e0 f i classes.obj
 0001:000293e0       ?size_of@cmovPP_reg_LTGENode@@UBEIXZ 0802a3e0 f i ad_x86_32_gen.obj
 0001:000293e0       ?size_of@xorI_mem_immNode@@UBEIXZ 0802a3e0 f i ad_x86_32_gen.obj
 0001:000293e0       ?size_of@cmovL_regNode@@UBEIXZ 0802a3e0 f i ad_x86_32_gen.obj
 0001:000293e0       ?size_of@rolI_eReg_i1_0Node@@UBEIXZ 0802a3e0 f i ad_x86_32_gen.obj
 0001:000293e0       ?size_of@cmovDD_reg_EQNENode@@UBEIXZ 0802a3e0 f i ad_x86_32_gen.obj
 0001:000293e0       ?size_of@incI_memNode@@UBEIXZ 0802a3e0 f i ad_x86_32_gen.obj
 0001:000293e0       ?size_of@cmovXDD_reg_LEGTNode@@UBEIXZ 0802a3e0 f i ad_x86_32_gen.obj
 0001:000293e0       ?size_of@i2sNode@@UBEIXZ   0802a3e0 f i ad_x86_32_gen.obj
 0001:000293e0       ?size_of@storeLX_volatileNode@@UBEIXZ 0802a3e0 f i ad_x86_32_gen.obj
 0001:000293e0       ?size_of@fcmovF_regUNode@@UBEIXZ 0802a3e0 f i ad_x86_32_gen.obj
 0001:000293e0       ?size_of@mulIS_eRegNode@@UBEIXZ 0802a3e0 f i ad_x86_32_gen.obj
 0001:000293e0       ?size_of@rolI_eReg_i1Node@@UBEIXZ 0802a3e0 f i ad_x86_32_gen.obj
 0001:000293e0       ?size_of@array_equalsNode@@UBEIXZ 0802a3e0 f i ad_x86_32_gen.obj
 0001:000293e0       ?size_of@fcmovF_regSNode@@UBEIXZ 0802a3e0 f i ad_x86_32_expand.obj
 0001:000293e0       ?size_of@cmovLL_mem_LEGTNode@@UBEIXZ 0802a3e0 f i ad_x86_32.obj
 0001:000293e0       ?size_of@cmovI_memUCFNode@@UBEIXZ 0802a3e0 f i ad_x86_32.obj
 0001:000293e0       ?size_of@AbstractLockNode@@UBEIXZ 0802a3e0 f i graphKit.obj
 0001:000293e0       ?size_of@UnlockNode@@UBEIXZ 0802a3e0 f i callnode.obj
 0001:000293e0       ?size_of@cmovI_memUNode@@UBEIXZ 0802a3e0 f i ad_x86_32.obj
 0001:000293e0       ?size_of@CallRuntimeNode@@EBEIXZ 0802a3e0 f i callnode.obj
 0001:000293e0       ?size_of@sarI_mem_immNode@@UBEIXZ 0802a3e0 f i ad_x86_32_gen.obj
 0001:000293e0       ?size_of@addF_mulF_regNode@@UBEIXZ 0802a3e0 f i ad_x86_32_gen.obj
 0001:000293e0       ?size_of@popCountLNode@@UBEIXZ 0802a3e0 f i ad_x86_32_gen.obj
 0001:000293e0       ?size_of@cmovP_regNode@@UBEIXZ 0802a3e0 f i ad_x86_32_gen.obj
 0001:000293e0       ?size_of@cmovII_mem_LTGENode@@UBEIXZ 0802a3e0 f i ad_x86_32.obj
 0001:000293e0       ?size_of@fcmovXD_regUNode@@UBEIXZ 0802a3e0 f i ad_x86_32_expand.obj
 0001:000293e0       ?size_of@cmovXDD_reg_EQNENode@@UBEIXZ 0802a3e0 f i ad_x86_32_gen.obj
 0001:000293e0       ?size_of@cmovP_reg_nonP6Node@@UBEIXZ 0802a3e0 f i ad_x86_32_gen.obj
 0001:000293e0       ?size_of@andI_mem_eRegNode@@UBEIXZ 0802a3e0 f i ad_x86_32_gen.obj
 0001:000293e0       ?size_of@rolI_eReg_i8_0Node@@UBEIXZ 0802a3e0 f i ad_x86_32_gen.obj
 0001:000293e0       ?size_of@cmovXX_reg_EQNENode@@UBEIXZ 0802a3e0 f i ad_x86_32_gen.obj
 0001:000293e0       ?size_of@i2bNode@@UBEIXZ   0802a3e0 f i ad_x86_32_gen.obj
 0001:000293f0       ?oper_input_base@mulI_0Node@@EBEIXZ 0802a3f0 f i ad_x86_32_gen.obj
 0001:000293f0       ?oper_input_base@addF24_reg_mem_0Node@@EBEIXZ 0802a3f0 f i ad_x86_32_gen.obj
 0001:000293f0       ?cisc_operand@mulF_regNode@@EBEHXZ 0802a3f0 f i ad_x86_32_gen.obj
 0001:000293f0       ?num_edges@indIndexOffsetOper@@EBEIXZ 0802a3f0 f i ad_x86_32_clone.obj
 0001:000293f0       ?oper_input_base@addF_mulF_reg_load1Node@@EBEIXZ 0802a3f0 f i ad_x86_32.obj
 0001:000293f0       ?oper_input_base@addD_reg_memNode@@EBEIXZ 0802a3f0 f i ad_x86_32.obj
 0001:000293f0       ?reloc@storeDNode@@EBEHXZ  0802a3f0 f i ad_x86_32.obj
 0001:000293f0       ?oper_input_base@compareAndSwapPNode@@EBEIXZ 0802a3f0 f i ad_x86_32_gen.obj
 0001:000293f0       ?oper_input_base@mulF24_reg_memNode@@EBEIXZ 0802a3f0 f i ad_x86_32.obj
 0001:000293f0       ?oper_input_base@cmovLL_mem_LEGTNode@@EBEIXZ 0802a3f0 f i ad_x86_32.obj
 0001:000293f0       ?oper_input_base@divXD_memNode@@EBEIXZ 0802a3f0 f i ad_x86_32.obj
 0001:000293f0       ?reloc@storeINode@@EBEHXZ  0802a3f0 f i ad_x86_32.obj
 0001:000293f0       ?oper_input_base@leaPIdxOffNode@@EBEIXZ 0802a3f0 f i ad_x86_32_gen.obj
 0001:000293f0       ?oper_input_base@storeLNode@@EBEIXZ 0802a3f0 f i ad_x86_32_gen.obj
 0001:000293f0       ?opcode@sRegIOper@@UBEIXZ  0802a3f0 f i ad_x86_32_clone.obj
 0001:000293f0       ?oper_input_base@mulD_reg_mem_0Node@@EBEIXZ 0802a3f0 f i ad_x86_32_gen.obj
 0001:000293f0       ?oper_input_base@xorl_eReg_memNode@@EBEIXZ 0802a3f0 f i ad_x86_32.obj
 0001:000293f0       ?oper_input_base@sqrtXD_memNode@@EBEIXZ 0802a3f0 f i ad_x86_32.obj
 0001:000293f0       ?kind@CopyMemoryManager@@UAE?AW4Name@MemoryManager@@XZ 0802a3f0 f i memoryManager.obj
 0001:000293f0       ?reloc@storeL2INode@@EBEHXZ 0802a3f0 f i ad_x86_32.obj
 0001:000293f0       ?oper_input_base@xorl_eReg_mem_0Node@@EBEIXZ 0802a3f0 f i ad_x86_32_gen.obj
 0001:000293f0       ?cisc_operand@divX_regNode@@EBEHXZ 0802a3f0 f i ad_x86_32_gen.obj
 0001:000293f0       ?oper_input_base@storeBNode@@EBEIXZ 0802a3f0 f i ad_x86_32_gen.obj
 0001:000293f0       ?reloc@storeF_DroundedNode@@EBEHXZ 0802a3f0 f i ad_x86_32.obj
 0001:000293f0       ?reloc@loadConFNode@@EBEHXZ 0802a3f0 f i ad_x86_32.obj
 0001:000293f0       ?reloc@storeCNode@@EBEHXZ  0802a3f0 f i ad_x86_32.obj
 0001:000293f0       ?oper_input_base@loadUI2LNode@@EBEIXZ 0802a3f0 f i ad_x86_32_gen.obj
 0001:000293f0       ?oper_input_base@loadL_volatileNode@@EBEIXZ 0802a3f0 f i ad_x86_32_gen.obj
 0001:000293f0       ?oper_input_base@cmovLL_mem_LTGENode@@EBEIXZ 0802a3f0 f i ad_x86_32.obj
 0001:000293f0       ?oper_input_base@storePConditionalNode@@EBEIXZ 0802a3f0 f i ad_x86_32_gen.obj
 0001:000293f0       ?oper_input_base@storeLX_reg_volatileNode@@EBEIXZ 0802a3f0 f i ad_x86_32_gen.obj
 0001:000293f0       ?oper_input_base@loadKlassNode@@EBEIXZ 0802a3f0 f i ad_x86_32_gen.obj
 0001:000293f0       ?oper_input_base@storeImmINode@@EBEIXZ 0802a3f0 f i ad_x86_32_gen.obj
 0001:000293f0       ?oper_input_base@storeXNode@@EBEIXZ 0802a3f0 f i ad_x86_32_gen.obj
 0001:000293f0       ?oper_input_base@convI2XD_memNode@@EBEIXZ 0802a3f0 f i ad_x86_32_gen.obj
 0001:000293f0       ?oper_input_base@subL_eReg_memNode@@EBEIXZ 0802a3f0 f i ad_x86_32.obj
 0001:000293f0       ?oper_input_base@orl_eReg_memNode@@EBEIXZ 0802a3f0 f i ad_x86_32.obj
 0001:000293f0       ?oper_input_base@popCountI_memNode@@EBEIXZ 0802a3f0 f i ad_x86_32.obj
 0001:000293f0       ?oper_input_base@xorI_mem_immNode@@EBEIXZ 0802a3f0 f i ad_x86_32_gen.obj
 0001:000293f0       ?cisc_operand@mulXD_regNode@@EBEHXZ 0802a3f0 f i ad_x86_32_gen.obj
 0001:000293f0       ?oper_input_base@leaP32Node@@EBEIXZ 0802a3f0 f i ad_x86_32_gen.obj
 0001:000293f0       ?oper_input_base@mulXD_mem_0Node@@EBEIXZ 0802a3f0 f i ad_x86_32_gen.obj
 0001:000293f0       ?oper_input_base@mulF_reg_mem_0Node@@EBEIXZ 0802a3f0 f i ad_x86_32_gen.obj
 0001:000293f0       ?cisc_operand@xorl_eRegNode@@EBEHXZ 0802a3f0 f i ad_x86_32_gen.obj
 0001:000293f0       ?oper_input_base@convI2D_memNode@@EBEIXZ 0802a3f0 f i ad_x86_32_gen.obj
 0001:000293f0       ?oper_input_base@loadUSNode@@EBEIXZ 0802a3f0 f i ad_x86_32_gen.obj
 0001:000293f0       ?oper_input_base@loadLX_LockedNode@@EBEIXZ 0802a3f0 f i ad_x86_32_gen.obj
 0001:000293f0       ?oper_input_base@mulX_mem_0Node@@EBEIXZ 0802a3f0 f i ad_x86_32_gen.obj
 0001:000293f0       ?oper_input_base@andI_eReg_mem_0Node@@EBEIXZ 0802a3f0 f i ad_x86_32_gen.obj
 0001:000293f0       ?oper_input_base@andI_mem_immNode@@EBEIXZ 0802a3f0 f i ad_x86_32_gen.obj
 0001:000293f0       ?type@virtual_call_Relocation@@EAE?AW4relocType@relocInfo@@XZ 0802a3f0 f i ad_x86_32.obj
 0001:000293f0       ?less@cmpOpUCF2Oper@@UBEHXZ 0802a3f0 f i ad_x86_32_clone.obj
 0001:000293f0       ?oper_input_base@prefetchwT0Node@@EBEIXZ 0802a3f0 f i ad_x86_32_gen.obj
 0001:000293f0       ?oper_input_base@addP_eReg_immNode@@EBEIXZ 0802a3f0 f i ad_x86_32_gen.obj
 0001:000293f0       ?kind@GCAdaptivePolicyCounters@@UBE?AW4Name@GCPolicyCounters@@XZ 0802a3f0 f i gcAdaptivePolicyCounters.obj
 0001:000293f0       ?oper_input_base@cmovI_memUCFNode@@EBEIXZ 0802a3f0 f i ad_x86_32.obj
 0001:000293f0       ?oper_input_base@loadB2LNode@@EBEIXZ 0802a3f0 f i ad_x86_32_gen.obj
 0001:000293f0       ?oper_input_base@loadI2USNode@@EBEIXZ 0802a3f0 f i ad_x86_32_gen.obj
 0001:000293f0       ?oper_input_base@loadPLockedNode@@EBEIXZ 0802a3f0 f i ad_x86_32_gen.obj
 0001:000293f0       ?oper_input_base@addD_mem_reg_0Node@@EBEIXZ 0802a3f0 f i ad_x86_32_gen.obj
 0001:000293f0       ?number_of_generations@TwoGenerationCollectorPolicy@@UAEHXZ 0802a3f0 f i cmsCollectorPolicy.obj
 0001:000293f0       ?oper_input_base@loadUB2L_immI8Node@@EBEIXZ 0802a3f0 f i ad_x86_32_gen.obj
 0001:000293f0       ?oper_input_base@loadLX_reg_LockedNode@@EBEIXZ 0802a3f0 f i ad_x86_32_gen.obj
 0001:000293f0       ?cisc_operand@mulI_eRegNode@@EBEHXZ 0802a3f0 f i ad_x86_32_gen.obj
 0001:000293f0       ?oper_input_base@xorI_mem_eReg_0Node@@EBEIXZ 0802a3f0 f i ad_x86_32_gen.obj
 0001:000293f0       ?oper_input_base@addP_eRegNode@@EBEIXZ 0802a3f0 f i ad_x86_32_gen.obj
 0001:000293f0       ?oper_input_base@addI_mem_eRegNode@@EBEIXZ 0802a3f0 f i ad_x86_32_gen.obj
 0001:000293f0       ?oper_input_base@addI_eReg_mem_0Node@@EBEIXZ 0802a3f0 f i ad_x86_32_gen.obj
 0001:000293f0       ?reloc@storeImmINode@@EBEHXZ 0802a3f0 f i ad_x86_32.obj
 0001:000293f0       ?oper_input_base@testP_Reg_memNode@@EBEIXZ 0802a3f0 f i ad_x86_32_gen.obj
 0001:000293f0       ?cisc_operand@addF24_mem_regNode@@EBEHXZ 0802a3f0 f i ad_x86_32_gen.obj
 0001:000293f0       ?oper_input_base@orI_mem_eReg_0Node@@EBEIXZ 0802a3f0 f i ad_x86_32_gen.obj
 0001:000293f0       ?oper_input_base@prefetchrNode@@EBEIXZ 0802a3f0 f i ad_x86_32_gen.obj
 0001:000293f0       ?oper_input_base@subI_eReg_memNode@@EBEIXZ 0802a3f0 f i ad_x86_32.obj
 0001:000293f0       ?oper_input_base@loadXD_partialNode@@EBEIXZ 0802a3f0 f i ad_x86_32_gen.obj
 0001:000293f0       ?oper_input_base@cmovI_memNode@@EBEIXZ 0802a3f0 f i ad_x86_32.obj
 0001:000293f0       ?oper_input_base@loadINode@@EBEIXZ 0802a3f0 f i ad_x86_32_gen.obj
 0001:000293f0       ?oper_input_base@loadUS2L_immI_255Node@@EBEIXZ 0802a3f0 f i ad_x86_32_gen.obj
 0001:000293f0       ?oper_input_base@sqrtX_memNode@@EBEIXZ 0802a3f0 f i ad_x86_32.obj
 0001:000293f0       ?oper_input_base@convI2F_SSF_memNode@@EBEIXZ 0802a3f0 f i ad_x86_32_gen.obj
 0001:000293f0       ?length@Store2DNode@@UBEIXZ 0802a3f0 f i vectornode.obj
 0001:000293f0       ?oper_input_base@addI_mem_eReg_0Node@@EBEIXZ 0802a3f0 f i ad_x86_32_gen.obj
 0001:000293f0       ?oper_input_base@storeA2INode@@EBEIXZ 0802a3f0 f i ad_x86_32_gen.obj
 0001:000293f0       ?oper_input_base@cmovII_mem_EQNENode@@EBEIXZ 0802a3f0 f i ad_x86_32.obj
 0001:000293f0       ?oper_input_base@andL_eReg_mem_0Node@@EBEIXZ 0802a3f0 f i ad_x86_32_gen.obj
 0001:000293f0       ?oper_input_base@andI_eReg_memNode@@EBEIXZ 0802a3f0 f i ad_x86_32.obj
 0001:000293f0       ?num_edges@indIndexScaleOffsetOper@@EBEIXZ 0802a3f0 f i ad_x86_32_clone.obj
 0001:000293f0       ?oper_input_base@addXD_memNode@@EBEIXZ 0802a3f0 f i ad_x86_32.obj
 0001:000293f0       ?oper_input_base@subI_mem_eRegNode@@EBEIXZ 0802a3f0 f i ad_x86_32_gen.obj
 0001:000293f0       ?oper_input_base@subXD_memNode@@EBEIXZ 0802a3f0 f i ad_x86_32.obj
 0001:000293f0       ?oper_input_base@prefetchw0Node@@EBEIXZ 0802a3f0 f i ad_x86_32_gen.obj
 0001:000293f0       ?length@Load2INode@@UBEIXZ 0802a3f0 f i vectornode.obj
 0001:000293f0       ?kind@CMSAdaptiveSizePolicy@@MBE?AW4GCPolicyKind@AdaptiveSizePolicy@@XZ 0802a3f0 f i cmsAdaptiveSizePolicy.obj
 0001:000293f0       ?oper_input_base@cmovI_memUNode@@EBEIXZ 0802a3f0 f i ad_x86_32.obj
 0001:000293f0       ?oper_input_base@prefetchwNTANode@@EBEIXZ 0802a3f0 f i ad_x86_32_gen.obj
 0001:000293f0       ?oper_input_base@loadLLockedNode@@EBEIXZ 0802a3f0 f i ad_x86_32_gen.obj
 0001:000293f0       ?oper_input_base@storeImmBNode@@EBEIXZ 0802a3f0 f i ad_x86_32_gen.obj
 0001:000293f0       ?oper_input_base@divX_memNode@@EBEIXZ 0802a3f0 f i ad_x86_32.obj
 0001:000293f0       ?oper_input_base@loadI2L_immINode@@EBEIXZ 0802a3f0 f i ad_x86_32_gen.obj
 0001:000293f0       ?cisc_operand@compP_eRegNode@@EBEHXZ 0802a3f0 f i ad_x86_32_gen.obj
 0001:000293f0       ?oper_input_base@storeImmPNode@@EBEIXZ 0802a3f0 f i ad_x86_32_gen.obj
 0001:000293f0       ?cisc_operand@compU_eRegNode@@EBEHXZ 0802a3f0 f i ad_x86_32_gen.obj
 0001:000293f0       ?oper_input_base@storeIConditionalNode@@EBEIXZ 0802a3f0 f i ad_x86_32_gen.obj
 0001:000293f0       ?oper_input_base@loadLX_volatileNode@@EBEIXZ 0802a3f0 f i ad_x86_32_gen.obj
 0001:000293f0       ?oper_input_base@storeFNode@@EBEIXZ 0802a3f0 f i ad_x86_32_gen.obj
 0001:000293f0       ?oper_input_base@andL_eReg_memNode@@EBEIXZ 0802a3f0 f i ad_x86_32.obj
 0001:000293f0       ?oper_input_base@addX_memNode@@EBEIXZ 0802a3f0 f i ad_x86_32.obj
 0001:000293f0       ?oper_input_base@loadA4CNode@@EBEIXZ 0802a3f0 f i ad_x86_32_gen.obj
 0001:000293f0       ?oper_input_base@loadSNode@@EBEIXZ 0802a3f0 f i ad_x86_32_gen.obj
 0001:000293f0       ?oper_input_base@loadI2SNode@@EBEIXZ 0802a3f0 f i ad_x86_32.obj
 0001:000293f0       ?oper_input_base@loadLX_reg_volatileNode@@EBEIXZ 0802a3f0 f i ad_x86_32_gen.obj
 0001:000293f0       ?oper_input_base@mulD_reg_mem_cisc_0Node@@EBEIXZ 0802a3f0 f i ad_x86_32_gen.obj
 0001:000293f0       ?cisc_operand@subD_regNode@@EBEHXZ 0802a3f0 f i ad_x86_32_gen.obj
 0001:000293f0       ?reloc@storeImmCMNode@@EBEHXZ 0802a3f0 f i ad_x86_32.obj
 0001:000293f0       ?oper_input_base@subX_memNode@@EBEIXZ 0802a3f0 f i ad_x86_32.obj
 0001:000293f0       ?cisc_operand@mulF24_regNode@@EBEHXZ 0802a3f0 f i ad_x86_32_gen.obj
 0001:000293f0       ?reloc@storeA8BNode@@EBEHXZ 0802a3f0 f i ad_x86_32.obj
 0001:000293f0       ?oper_input_base@mulF24_reg_mem_0Node@@EBEIXZ 0802a3f0 f i ad_x86_32_gen.obj
 0001:000293f0       ?oper_input_base@storeXDNode@@EBEIXZ 0802a3f0 f i ad_x86_32_gen.obj
 0001:000293f0       ?oper_input_base@addI_eReg_memNode@@EBEIXZ 0802a3f0 f i ad_x86_32.obj
 0001:000293f0       ?oper_input_base@sarI_mem_immNode@@EBEIXZ 0802a3f0 f i ad_x86_32_gen.obj
 0001:000293f0       ?cisc_operand@xorI_eRegNode@@EBEHXZ 0802a3f0 f i ad_x86_32_gen.obj
 0001:000293f0       ?oper_input_base@storePNode@@EBEIXZ 0802a3f0 f i ad_x86_32_gen.obj
 0001:000293f0       ?oper_input_base@loadA8BNode@@EBEIXZ 0802a3f0 f i ad_x86_32_gen.obj
 0001:000293f0       ?reloc@loadConXDNode@@EBEHXZ 0802a3f0 f i ad_x86_32.obj
 0001:000293f0       ?oper_input_base@cmpXD_regmemNode@@EBEIXZ 0802a3f0 f i ad_x86_32.obj
 0001:000293f0       ?oper_input_base@mulXD_memNode@@EBEIXZ 0802a3f0 f i ad_x86_32.obj
 0001:000293f0       ?oper_input_base@loadUS2BNode@@EBEIXZ 0802a3f0 f i ad_x86_32_gen.obj
 0001:000293f0       ?cisc_operand@addX_regNode@@EBEHXZ 0802a3f0 f i ad_x86_32_gen.obj
 0001:000293f0       ?oper_input_base@addD_mem_regNode@@EBEIXZ 0802a3f0 f i ad_x86_32_gen.obj
 0001:000293f0       ?oper_input_base@addXD_mem_0Node@@EBEIXZ 0802a3f0 f i ad_x86_32_gen.obj
 0001:000293f0       ?oper_input_base@loadI2UBNode@@EBEIXZ 0802a3f0 f i ad_x86_32_gen.obj
 0001:000293f0       ?reloc@storeXNode@@EBEHXZ  0802a3f0 f i ad_x86_32.obj
 0001:000293f0       ?length@Store2FNode@@UBEIXZ 0802a3f0 f i vectornode.obj
 0001:000293f0       ?oper_input_base@array_equalsNode@@EBEIXZ 0802a3f0 f i ad_x86_32_gen.obj
 0001:000293f0       ?length@Load2DNode@@UBEIXZ 0802a3f0 f i vectornode.obj
 0001:000293f0       ?oper_input_base@storeF_immNode@@EBEIXZ 0802a3f0 f i ad_x86_32_gen.obj
 0001:000293f0       ?oper_input_base@orl_eReg_mem_0Node@@EBEIXZ 0802a3f0 f i ad_x86_32_gen.obj
 0001:000293f0       ?oper_input_base@leaPIdxScaleOffNode@@EBEIXZ 0802a3f0 f i ad_x86_32_gen.obj
 0001:000293f0       ?reloc@storeL_volatileNode@@EBEHXZ 0802a3f0 f i ad_x86_32.obj
 0001:000293f0       ?oper_input_base@cmovLL_mem_EQNENode@@EBEIXZ 0802a3f0 f i ad_x86_32.obj
 0001:000293f0       ?oper_input_base@compU_eReg_memNode@@EBEIXZ 0802a3f0 f i ad_x86_32.obj
 0001:000293f0       ?oper_input_base@loadUS2L_immI16Node@@EBEIXZ 0802a3f0 f i ad_x86_32_gen.obj
 0001:000293f0       ?oper_input_base@addI_mem_immNode@@EBEIXZ 0802a3f0 f i ad_x86_32_gen.obj
 0001:000293f0       ?reloc@storeImmBNode@@EBEHXZ 0802a3f0 f i ad_x86_32.obj
 0001:000293f0       ?cisc_operand@addI_eRegNode@@EBEHXZ 0802a3f0 f i ad_x86_32_gen.obj
 0001:000293f0       ?oper_input_base@mulF_reg_load1_0Node@@EBEIXZ 0802a3f0 f i ad_x86_32_gen.obj
 0001:000293f0       ?oper_input_base@addF24_mem_ciscNode@@EBEIXZ 0802a3f0 f i ad_x86_32.obj
 0001:000293f0       ?oper_input_base@convI2F_memNode@@EBEIXZ 0802a3f0 f i ad_x86_32_gen.obj
 0001:000293f0       ?oper_input_base@loadBNode@@EBEIXZ 0802a3f0 f i ad_x86_32_gen.obj
 0001:000293f0       ?reloc@storeBNode@@EBEHXZ  0802a3f0 f i ad_x86_32.obj
 0001:000293f0       ?reloc@storeD_roundedNode@@EBEHXZ 0802a3f0 f i ad_x86_32.obj
 0001:000293f0       ?oper_input_base@string_indexofNode@@EBEIXZ 0802a3f0 f i ad_x86_32_gen.obj
 0001:000293f0       ?oper_input_base@mulX_memNode@@EBEIXZ 0802a3f0 f i ad_x86_32.obj
 0001:000293f0       ?oper_input_base@loadPNode@@EBEIXZ 0802a3f0 f i ad_x86_32_gen.obj
 0001:000293f0       ?oper_input_base@addF_reg_mem_0Node@@EBEIXZ 0802a3f0 f i ad_x86_32_gen.obj
 0001:000293f0       ?oper_input_base@storeF_roundedNode@@EBEIXZ 0802a3f0 f i ad_x86_32_gen.obj
 0001:000293f0       ?oper_input_base@xorI_eReg_mem_0Node@@EBEIXZ 0802a3f0 f i ad_x86_32_gen.obj
 0001:000293f0       ?oper_input_base@addF_mulF_reg_load1_1Node@@EBEIXZ 0802a3f0 f i ad_x86_32.obj
 0001:000293f0       ?oper_input_base@storeL_volatileNode@@EBEIXZ 0802a3f0 f i ad_x86_32_gen.obj
 0001:000293f0       ?cisc_operand@cmpXD_ccCFNode@@EBEHXZ 0802a3f0 f i ad_x86_32_gen.obj
 0001:000293f0       ?cisc_operand@andL_eRegNode@@EBEHXZ 0802a3f0 f i ad_x86_32_gen.obj
 0001:000293f0       ?oper_input_base@loadA2FNode@@EBEIXZ 0802a3f0 f i ad_x86_32_gen.obj
 0001:000293f0       ?cisc_operand@cmpX_ccNode@@EBEHXZ 0802a3f0 f i ad_x86_32_gen.obj
 0001:000293f0       ?oper_input_base@loadXDNode@@EBEIXZ 0802a3f0 f i ad_x86_32_gen.obj
 0001:000293f0       ?interpreter_frame_pointer_reg@Matcher@@SAHXZ 0802a3f0 f i ad_x86_32.obj
 0001:000293f0       ?length@Load2CNode@@UBEIXZ 0802a3f0 f i vectornode.obj
 0001:000293f0       ?oper_input_base@compP_eReg_memNode@@EBEIXZ 0802a3f0 f i ad_x86_32.obj
 0001:000293f0       ?length@Load2LNode@@UBEIXZ 0802a3f0 f i vectornode.obj
 0001:000293f0       ?oper_input_base@loadDNode@@EBEIXZ 0802a3f0 f i ad_x86_32_gen.obj
 0001:000293f0       ?reloc@storeImmI16Node@@EBEHXZ 0802a3f0 f i ad_x86_32.obj
 0001:000293f0       ?oper_input_base@storeImmI16Node@@EBEIXZ 0802a3f0 f i ad_x86_32_gen.obj
 0001:000293f0       ?oper_input_base@loadS2BNode@@EBEIXZ 0802a3f0 f i ad_x86_32_gen.obj
 0001:000293f0       ?reloc@loadConXNode@@EBEHXZ 0802a3f0 f i ad_x86_32.obj
 0001:000293f0       ?oper_input_base@storeCNode@@EBEIXZ 0802a3f0 f i ad_x86_32_gen.obj
 0001:000293f0       ?oper_input_base@loadXNode@@EBEIXZ 0802a3f0 f i ad_x86_32_gen.obj
 0001:000293f0       ?oper_input_base@loadUBNode@@EBEIXZ 0802a3f0 f i ad_x86_32_gen.obj
 0001:000293f0       ?oper_input_base@leaPIdxScaleNode@@EBEIXZ 0802a3f0 f i ad_x86_32_gen.obj
 0001:000293f0       ?oper_input_base@compareAndSwapLNode@@EBEIXZ 0802a3f0 f i ad_x86_32_gen.obj
 0001:000293f0       ?oper_input_base@popCountL_memNode@@EBEIXZ 0802a3f0 f i ad_x86_32.obj
 0001:000293f0       ?oper_input_base@addF_mulF_reg_load1_0Node@@EBEIXZ 0802a3f0 f i ad_x86_32_gen.obj
 0001:000293f0       ?cisc_operand@orl_eRegNode@@EBEHXZ 0802a3f0 f i ad_x86_32_gen.obj
 0001:000293f0       ?cisc_operand@subX_regNode@@EBEHXZ 0802a3f0 f i ad_x86_32_gen.obj
 0001:000293f0       ?oper_input_base@addF_reg_memNode@@EBEIXZ 0802a3f0 f i ad_x86_32.obj
 0001:000293f0       ?num_edges@indIndexOper@@EBEIXZ 0802a3f0 f i ad_x86_32_clone.obj
 0001:000293f0       ?oper_input_base@loadFNode@@EBEIXZ 0802a3f0 f i ad_x86_32_gen.obj
 0001:000293f0       ?cisc_operand@cmpXD_regNode@@EBEHXZ 0802a3f0 f i ad_x86_32_gen.obj
 0001:000293f0       ?oper_input_base@xorI_eReg_memNode@@EBEIXZ 0802a3f0 f i ad_x86_32.obj
 0001:000293f0       ?oper_input_base@prefetchrT2Node@@EBEIXZ 0802a3f0 f i ad_x86_32_gen.obj
 0001:000293f0       ?reloc@loadConX0Node@@EBEHXZ 0802a3f0 f i ad_x86_32.obj
 0001:000293f0       ?num_edges@indIndexScaleOper@@EBEIXZ 0802a3f0 f i ad_x86_32_clone.obj
 0001:000293f0       ?cisc_operand@cmpX_ccCFNode@@EBEHXZ 0802a3f0 f i ad_x86_32_gen.obj
 0001:000293f0       ?cisc_operand@orI_eRegNode@@EBEHXZ 0802a3f0 f i ad_x86_32_gen.obj
 0001:000293f0       ?oper_input_base@mulD_reg_memNode@@EBEIXZ 0802a3f0 f i ad_x86_32_gen.obj
 0001:000293f0       ?length@Store2INode@@UBEIXZ 0802a3f0 f i vectornode.obj
 0001:000293f0       ?oper_input_base@cmpX_ccmemNode@@EBEIXZ 0802a3f0 f i ad_x86_32.obj
 0001:000293f0       ?kind@GenCollectedHeap@@UBE?AW4Name@CollectedHeap@@XZ 0802a3f0 f i genCollectedHeap.obj
 0001:000293f0       ?oper_input_base@prefetchr0Node@@EBEIXZ 0802a3f0 f i ad_x86_32_gen.obj
 0001:000293f0       ?oper_input_base@sarI_mem_1Node@@EBEIXZ 0802a3f0 f i ad_x86_32_gen.obj
 0001:000293f0       ?oper_input_base@storeL2INode@@EBEIXZ 0802a3f0 f i ad_x86_32_gen.obj
 0001:000293f0       ?length@Load2FNode@@UBEIXZ 0802a3f0 f i vectornode.obj
 0001:000293f0       ?oper_input_base@subP_eRegNode@@EBEIXZ 0802a3f0 f i ad_x86_32_gen.obj
 0001:000293f0       ?oper_input_base@andI_mem_eRegNode@@EBEIXZ 0802a3f0 f i ad_x86_32_gen.obj
 0001:000293f0       ?reloc@storeA2INode@@EBEHXZ 0802a3f0 f i ad_x86_32.obj
 0001:000293f0       ?oper_input_base@string_equalsNode@@EBEIXZ 0802a3f0 f i ad_x86_32_gen.obj
 0001:000293f0       ?reloc@storeXDNode@@EBEHXZ 0802a3f0 f i ad_x86_32.obj
 0001:000293f0       ?oper_input_base@loadA4SNode@@EBEIXZ 0802a3f0 f i ad_x86_32_gen.obj
 0001:000293f0       ?cisc_operand@cmpXD_ccNode@@EBEHXZ 0802a3f0 f i ad_x86_32_gen.obj
 0001:000293f0       ?oper_input_base@cmpX_ccmemCFNode@@EBEIXZ 0802a3f0 f i ad_x86_32.obj
 0001:000293f0       ?length@Store2CNode@@UBEIXZ 0802a3f0 f i vectornode.obj
 0001:000293f0       ?oper_input_base@storeDNode@@EBEIXZ 0802a3f0 f i ad_x86_32_gen.obj
 0001:000293f0       ?num_edges@indIndexScaleOffset_win95_safeOper@@EBEIXZ 0802a3f0 f i ad_x86_32.obj
 0001:000293f0       ?length@Load2SNode@@UBEIXZ 0802a3f0 f i vectornode.obj
 0001:000293f0       ?oper_input_base@prefetchwT2Node@@EBEIXZ 0802a3f0 f i ad_x86_32_gen.obj
 0001:000293f0       ?cisc_operand@addF24_regNode@@EBEHXZ 0802a3f0 f i ad_x86_32_gen.obj
 0001:000293f0       ?cisc_operand@addF_regNode@@EBEHXZ 0802a3f0 f i ad_x86_32_gen.obj
 0001:000293f0       ?oper_input_base@prefetchrNTANode@@EBEIXZ 0802a3f0 f i ad_x86_32_gen.obj
 0001:000293f0       ?reloc@storePNode@@EBEHXZ  0802a3f0 f i ad_x86_32.obj
 0001:000293f0       ?oper_input_base@prefetchwNode@@EBEIXZ 0802a3f0 f i ad_x86_32_gen.obj
 0001:000293f0       ?oper_input_base@mulD_reg_mem_ciscNode@@EBEIXZ 0802a3f0 f i ad_x86_32_gen.obj
 0001:000293f0       ?required_outcnt@IfNode@@UBEHXZ 0802a3f0 f i callGenerator.obj
 0001:000293f0       ?kind@DefNewGeneration@@UAE?AW4Name@Generation@@XZ 0802a3f0 f i defNewGeneration.obj
 0001:000293f0       ?oper_input_base@loadRangeNode@@EBEIXZ 0802a3f0 f i ad_x86_32_gen.obj
 0001:000293f0       ?reloc@loadConXD0Node@@EBEHXZ 0802a3f0 f i ad_x86_32.obj
 0001:000293f0       ?reloc@storeLNode@@EBEHXZ  0802a3f0 f i ad_x86_32.obj
 0001:000293f0       ?oper_input_base@loadI2BNode@@EBEIXZ 0802a3f0 f i ad_x86_32.obj
 0001:000293f0       ?oper_input_base@cmpX_regmemNode@@EBEIXZ 0802a3f0 f i ad_x86_32.obj
 0001:000293f0       ?cisc_operand@addF24_reg_mem_0Node@@EBEHXZ 0802a3f0 f i ad_x86_32_gen.obj
 0001:000293f0       ?oper_input_base@incI_memNode@@EBEIXZ 0802a3f0 f i ad_x86_32_gen.obj
 0001:000293f0       ?oper_input_base@xorI_mem_eRegNode@@EBEIXZ 0802a3f0 f i ad_x86_32_gen.obj
 0001:000293f0       ?oper_input_base@andI_mem_eReg_0Node@@EBEIXZ 0802a3f0 f i ad_x86_32_gen.obj
 0001:000293f0       ?oper_input_base@load2IUNode@@EBEIXZ 0802a3f0 f i ad_x86_32_gen.obj
 0001:000293f0       ?num_edges@indIndexOffset_win95_safeOper@@EBEIXZ 0802a3f0 f i ad_x86_32.obj
 0001:000293f0       ?oper_input_base@addX_mem_0Node@@EBEIXZ 0802a3f0 f i ad_x86_32_gen.obj
 0001:000293f0       ?oper_input_base@orI_mem_eRegNode@@EBEIXZ 0802a3f0 f i ad_x86_32_gen.obj
 0001:000293f0       ?oper_input_base@storeLConditionalNode@@EBEIXZ 0802a3f0 f i ad_x86_32_gen.obj
 0001:000293f0       ?oper_input_base@storeINode@@EBEIXZ 0802a3f0 f i ad_x86_32_gen.obj
 0001:000293f0       ?oper_input_base@cmovII_mem_LEGTNode@@EBEIXZ 0802a3f0 f i ad_x86_32.obj
 0001:000293f0       ?reloc@storeA4CNode@@EBEHXZ 0802a3f0 f i ad_x86_32.obj
 0001:000293f0       ?cisc_operand@divXD_regNode@@EBEHXZ 0802a3f0 f i ad_x86_32_gen.obj
 0001:000293f0       ?oper_input_base@storeA4CNode@@EBEIXZ 0802a3f0 f i ad_x86_32_gen.obj
 0001:000293f0       ?reloc@storeA2FNode@@EBEHXZ 0802a3f0 f i ad_x86_32.obj
 0001:000293f0       ?oper_input_base@decI_memNode@@EBEIXZ 0802a3f0 f i ad_x86_32_gen.obj
 0001:000293f0       ?in_preserve_stack_slots@Compile@@QAEIXZ 0802a3f0 f i ad_x86_32.obj
 0001:000293f0       ?oper_input_base@mulF_reg_memNode@@EBEIXZ 0802a3f0 f i ad_x86_32.obj
 0001:000293f0       ?cisc_operand@subI_eRegNode@@EBEHXZ 0802a3f0 f i ad_x86_32_gen.obj
 0001:000293f0       ?oper_input_base@orI_mem_immNode@@EBEIXZ 0802a3f0 f i ad_x86_32_gen.obj
 0001:000293f0       ?oper_input_base@leaP8Node@@EBEIXZ 0802a3f0 f i ad_x86_32_gen.obj
 0001:000293f0       ?oper_input_base@compareAndSwapINode@@EBEIXZ 0802a3f0 f i ad_x86_32_gen.obj
 0001:000293f0       ?oper_input_base@cmovII_mem_LTGENode@@EBEIXZ 0802a3f0 f i ad_x86_32.obj
 0001:000293f0       ?oper_input_base@rep_stosNode@@EBEIXZ 0802a3f0 f i ad_x86_32_gen.obj
 0001:000293f0       ?oper_input_base@storeD_roundedNode@@EBEIXZ 0802a3f0 f i ad_x86_32_gen.obj
 0001:000293f0       ?num_edges@indIndexScale_win95_safeOper@@EBEIXZ 0802a3f0 f i ad_x86_32.obj
 0001:000293f0       ?reloc@addF24_mem_cisc_0Node@@EBEHXZ 0802a3f0 f i ad_x86_32.obj
 0001:000293f0       ?ideal_reg@EncodePNode@@UBEIXZ 0802a3f0 f i memnode.obj
 0001:000293f0       ?cisc_operand@compI_eRegNode@@EBEHXZ 0802a3f0 f i ad_x86_32_gen.obj
 0001:000293f0       ?cisc_operand@subXD_regNode@@EBEHXZ 0802a3f0 f i ad_x86_32_gen.obj
 0001:000293f0       ?oper_input_base@loadI2L_immI_65535Node@@EBEIXZ 0802a3f0 f i ad_x86_32_gen.obj
 0001:000293f0       ?oper_input_base@storeF_DroundedNode@@EBEIXZ 0802a3f0 f i ad_x86_32_gen.obj
 0001:000293f0       ?oper_input_base@storeX_immNode@@EBEIXZ 0802a3f0 f i ad_x86_32_gen.obj
 0001:000293f0       ?oper_input_base@storeImmCMNode@@EBEIXZ 0802a3f0 f i ad_x86_32_gen.obj
 0001:000293f0       ?reloc@storeLX_volatileNode@@EBEHXZ 0802a3f0 f i ad_x86_32.obj
 0001:000293f0       ?less@cmpOpUCFOper@@UBEHXZ 0802a3f0 f i ad_x86_32_clone.obj
 0001:000293f0       ?cisc_operand@addL_eRegNode@@EBEHXZ 0802a3f0 f i ad_x86_32_gen.obj
 0001:000293f0       ?oper_input_base@loadUB2LNode@@EBEIXZ 0802a3f0 f i ad_x86_32_gen.obj
 0001:000293f0       ?cisc_operand@subL_eRegNode@@EBEHXZ 0802a3f0 f i ad_x86_32_gen.obj
 0001:000293f0       ?required_outcnt@NeverBranchNode@@UBEHXZ 0802a3f0 f i loopnode.obj
 0001:000293f0       ?reloc@storeLX_reg_volatileNode@@EBEHXZ 0802a3f0 f i ad_x86_32.obj
 0001:000293f0       ?reloc@mulF24_mem_memNode@@EBEHXZ 0802a3f0 f i ad_x86_32.obj
 0001:000293f0       ?oper_input_base@addL_eReg_memNode@@EBEIXZ 0802a3f0 f i ad_x86_32.obj
 0001:000293f0       ?reloc@storeFNode@@EBEHXZ  0802a3f0 f i ad_x86_32.obj
 0001:000293f0       ?oper_input_base@addL_eReg_mem_0Node@@EBEIXZ 0802a3f0 f i ad_x86_32_gen.obj
 0001:000293f0       ?oper_input_base@storeLX_volatileNode@@EBEIXZ 0802a3f0 f i ad_x86_32_gen.obj
 0001:000293f0       ?oper_input_base@storeA8BNode@@EBEIXZ 0802a3f0 f i ad_x86_32_gen.obj
 0001:000293f0       ?reloc@addF24_mem_memNode@@EBEHXZ 0802a3f0 f i ad_x86_32.obj
 0001:000293f0       ?reloc@addF24_mem_ciscNode@@EBEHXZ 0802a3f0 f i ad_x86_32.obj
 0001:000293f0       ?length@Store2LNode@@UBEIXZ 0802a3f0 f i vectornode.obj
 0001:000293f0       ?reloc@storeF_roundedNode@@EBEHXZ 0802a3f0 f i ad_x86_32.obj
 0001:000293f0       ?oper_input_base@prefetchrT0Node@@EBEIXZ 0802a3f0 f i ad_x86_32_gen.obj
 0001:000293f0       ?cisc_operand@addF_mulF_reg_0Node@@EBEHXZ 0802a3f0 f i ad_x86_32_gen.obj
 0001:000293f0       ?oper_input_base@mulINode@@EBEIXZ 0802a3f0 f i ad_x86_32.obj
 0001:000293f0       ?oper_input_base@cmpXD_ccmemCFNode@@EBEIXZ 0802a3f0 f i ad_x86_32.obj
 0001:000293f0       ?oper_input_base@mulF_reg_load1Node@@EBEIXZ 0802a3f0 f i ad_x86_32_gen.obj
 0001:000293f0       ?cisc_operand@addD_regNode@@EBEHXZ 0802a3f0 f i ad_x86_32_gen.obj
 0001:000293f0       ?oper_input_base@string_compareNode@@EBEIXZ 0802a3f0 f i ad_x86_32_gen.obj
 0001:000293f0       ?oper_input_base@loadI2L_immI_255Node@@EBEIXZ 0802a3f0 f i ad_x86_32_gen.obj
 0001:000293f0       ?oper_input_base@compP_mem_eRegNode@@EBEIXZ 0802a3f0 f i ad_x86_32_gen.obj
 0001:000293f0       ?type@VM_ThreadDump@@UBE?AW4VMOp_Type@VM_Operation@@XZ 0802a3f0 f i vm_operations.obj
 0001:000293f0       ?reloc@loadConDNode@@EBEHXZ 0802a3f0 f i ad_x86_32.obj
 0001:000293f0       ?cell_count@JumpData@@UAEHXZ 0802a3f0 f i ciMethodData.obj
 0001:000293f0       ?oper_input_base@loadUS2LNode@@EBEIXZ 0802a3f0 f i ad_x86_32_gen.obj
 0001:000293f0       ?oper_input_base@addD_reg_mem_0Node@@EBEIXZ 0802a3f0 f i ad_x86_32_gen.obj
 0001:000293f0       ?oper_input_base@orI_eReg_mem_0Node@@EBEIXZ 0802a3f0 f i ad_x86_32_gen.obj
 0001:000293f0       ?cisc_operand@mulX_regNode@@EBEHXZ 0802a3f0 f i ad_x86_32_gen.obj
 0001:000293f0       ?cisc_operand@cmpX_regNode@@EBEHXZ 0802a3f0 f i ad_x86_32_gen.obj
 0001:000293f0       ?oper_input_base@leaP_eReg_immINode@@EBEIXZ 0802a3f0 f i ad_x86_32_gen.obj
 0001:000293f0       ?oper_input_base@cmpXD_ccmemNode@@EBEIXZ 0802a3f0 f i ad_x86_32.obj
 0001:000293f0       ?oper_input_base@loadLNode@@EBEIXZ 0802a3f0 f i ad_x86_32_gen.obj
 0001:000293f0       ?oper_input_base@loadI2LNode@@EBEIXZ 0802a3f0 f i ad_x86_32.obj
 0001:000293f0       ?less@cmpOpUOper@@UBEHXZ   0802a3f0 f i ad_x86_32_clone.obj
 0001:000293f0       ?oper_input_base@mulI_mem_immNode@@EBEIXZ 0802a3f0 f i ad_x86_32.obj
 0001:000293f0       ?oper_input_base@addF_mulF_reg_load1_2Node@@EBEIXZ 0802a3f0 f i ad_x86_32_gen.obj
 0001:000293f0       ?oper_input_base@storeA2FNode@@EBEIXZ 0802a3f0 f i ad_x86_32_gen.obj
 0001:000293f0       ?cisc_operand@addXD_regNode@@EBEHXZ 0802a3f0 f i ad_x86_32_gen.obj
 0001:000293f0       ?oper_input_base@loadS2LNode@@EBEIXZ 0802a3f0 f i ad_x86_32_gen.obj
 0001:000293f0       ?oper_input_base@orI_eReg_memNode@@EBEIXZ 0802a3f0 f i ad_x86_32.obj
 0001:000293f0       ?oper_input_base@compI_eReg_memNode@@EBEIXZ 0802a3f0 f i ad_x86_32.obj
 0001:000293f0       ?oper_input_base@subD_reg_memNode@@EBEIXZ 0802a3f0 f i ad_x86_32.obj
 0001:000293f0       ?oper_input_base@addF24_mem_cisc_0Node@@EBEIXZ 0802a3f0 f i ad_x86_32.obj
 0001:000293f0       ?oper_input_base@addF24_reg_memNode@@EBEIXZ 0802a3f0 f i ad_x86_32.obj
 0001:000293f0       ?cisc_operand@andI_eRegNode@@EBEHXZ 0802a3f0 f i ad_x86_32_gen.obj
 0001:00029400       ?size_of@storeA2INode@@UBEIXZ 0802a400 f i ad_x86_32_gen.obj
 0001:00029400       ?size_of@addF24_mem_regNode@@UBEIXZ 0802a400 f i ad_x86_32_gen.obj
 0001:00029400       ?size_of@addF24_reg_mem_0Node@@UBEIXZ 0802a400 f i ad_x86_32_gen.obj
 0001:00029400       ?size_of@addF24_reg_memNode@@UBEIXZ 0802a400 f i ad_x86_32.obj
 0001:00029400       ?size_of@testI_reg_memNode@@UBEIXZ 0802a400 f i ad_x86_32_gen.obj
 0001:00029400       ?size_of@cmpL_zero_flags_EQNENode@@UBEIXZ 0802a400 f i ad_x86_32_gen.obj
 0001:00029400       ?size_of@cmpX_regNode@@UBEIXZ 0802a400 f i ad_x86_32_gen.obj
 0001:00029400       ?size_of@storeImmI16Node@@UBEIXZ 0802a400 f i ad_x86_32_gen.obj
 0001:00029400       ?size_of@CountedLoopNode@@EBEIXZ 0802a400 f i loopnode.obj
 0001:00029400       ?size_of@storeDNode@@UBEIXZ 0802a400 f i ad_x86_32_gen.obj
 0001:00029400       ?size_of@cmpXD_ccNode@@UBEIXZ 0802a400 f i ad_x86_32_gen.obj
 0001:00029400       ?size_of@testI_reg_immNode@@UBEIXZ 0802a400 f i ad_x86_32_gen.obj
 0001:00029400       ?size_of@ShouldNotReachHereNode@@UBEIXZ 0802a400 f i ad_x86_32_gen.obj
 0001:00029400       ?size_of@loadI2BNode@@UBEIXZ 0802a400 f i ad_x86_32.obj
 0001:00029400       ?size_of@storeA4CNode@@UBEIXZ 0802a400 f i ad_x86_32_gen.obj
 0001:00029400       ?size_of@subI_eRegNode@@UBEIXZ 0802a400 f i ad_x86_32_gen.obj
 0001:00029400       ?size_of@compareAndSwapLNode@@UBEIXZ 0802a400 f i ad_x86_32_gen.obj
 0001:00029400       ?size_of@addI_eRegNode@@UBEIXZ 0802a400 f i ad_x86_32_gen.obj
 0001:00029400       ?size_of@storeA2FNode@@UBEIXZ 0802a400 f i ad_x86_32_gen.obj
 0001:00029400       ?ideal_Opcode@testP_Reg_memNode@@EBEHXZ 0802a400 f i ad_x86_32_gen.obj
 0001:00029400       ?size_of@storeImmCMNode@@UBEIXZ 0802a400 f i ad_x86_32_gen.obj
 0001:00029400       ?size_of@mulI_imm_highNode@@UBEIXZ 0802a400 f i ad_x86_32_gen.obj
 0001:00029400       ?ideal_Opcode@compP_eRegNode@@EBEHXZ 0802a400 f i ad_x86_32_gen.obj
 0001:00029400       ?ideal_Opcode@compP_eReg_memNode@@EBEHXZ 0802a400 f i ad_x86_32.obj
 0001:00029400       ?size_of@subX_regNode@@UBEIXZ 0802a400 f i ad_x86_32_gen.obj
 0001:00029400       ?size_of@RethrowExceptionNode@@UBEIXZ 0802a400 f i ad_x86_32_gen.obj
 0001:00029400       ?size_of@cmpXD_regNode@@UBEIXZ 0802a400 f i ad_x86_32_gen.obj
 0001:00029400       ?size_of@storeXNode@@UBEIXZ 0802a400 f i ad_x86_32_gen.obj
 0001:00029400       ?opcode@eBXRegPOper@@UBEIXZ 0802a400 f i ad_x86_32_clone.obj
 0001:00029400       ?size_of@compU_eRegNode@@UBEIXZ 0802a400 f i ad_x86_32_gen.obj
 0001:00029400       ?size_of@mulF24_regNode@@UBEIXZ 0802a400 f i ad_x86_32_gen.obj
 0001:00029400       ?size_of@partialSubtypeCheck_vs_ZeroNode@@UBEIXZ 0802a400 f i ad_x86_32_gen.obj
 0001:00029400       ?size_of@mulXD_regNode@@UBEIXZ 0802a400 f i ad_x86_32_gen.obj
 0001:00029400       ?size_of@addF_mulF_reg_load1_2Node@@UBEIXZ 0802a400 f i ad_x86_32_gen.obj
 0001:00029400       ?size_of@storeImmPNode@@UBEIXZ 0802a400 f i ad_x86_32_gen.obj
 0001:00029400       ?size_of@mulI_eRegNode@@UBEIXZ 0802a400 f i ad_x86_32_gen.obj
 0001:00029400       ?size_of@mulI_imm_RShift_highNode@@UBEIXZ 0802a400 f i ad_x86_32_gen.obj
 0001:00029400       ?size_of@storeLNode@@UBEIXZ 0802a400 f i ad_x86_32_gen.obj
 0001:00029400       ?size_of@storeBNode@@UBEIXZ 0802a400 f i ad_x86_32_gen.obj
 0001:00029400       ?size_of@cmpX_ccCFNode@@UBEIXZ 0802a400 f i ad_x86_32_gen.obj
 0001:00029400       ?size_of@cmpL_reg_flags_LEGTNode@@UBEIXZ 0802a400 f i ad_x86_32_gen.obj
 0001:00029400       ?size_of@subP_eRegNode@@UBEIXZ 0802a400 f i ad_x86_32_gen.obj
 0001:00029400       ?size_of@compI_eRegNode@@UBEIXZ 0802a400 f i ad_x86_32_gen.obj
 0001:00029400       ?size_of@storeF_DroundedNode@@UBEIXZ 0802a400 f i ad_x86_32_gen.obj
 0001:00029400       ?size_of@storeD_roundedNode@@UBEIXZ 0802a400 f i ad_x86_32_gen.obj
 0001:00029400       ?size_of@mulL_eReg_lhi0Node@@UBEIXZ 0802a400 f i ad_x86_32_gen.obj
 0001:00029400       ?size_of@storeFNode@@UBEIXZ 0802a400 f i ad_x86_32_gen.obj
 0001:00029400       ?size_of@orl_eRegNode@@UBEIXZ 0802a400 f i ad_x86_32_gen.obj
 0001:00029400       ?size_of@orI_eRegNode@@UBEIXZ 0802a400 f i ad_x86_32_gen.obj
 0001:00029400       ?size_of@addD_regNode@@UBEIXZ 0802a400 f i ad_x86_32_gen.obj
 0001:00029400       ?size_of@storeLConditionalNode@@UBEIXZ 0802a400 f i ad_x86_32_gen.obj
 0001:00029400       ?size_of@mulI_imm_RShift_high_0Node@@UBEIXZ 0802a400 f i ad_x86_32_gen.obj
 0001:00029400       ?size_of@RetNode@@UBEIXZ   0802a400 f i ad_x86_32_gen.obj
 0001:00029400       ?ideal_Opcode@compP_mem_eRegNode@@EBEHXZ 0802a400 f i ad_x86_32_gen.obj
 0001:00029400       ?size_of@storeCNode@@UBEIXZ 0802a400 f i ad_x86_32_gen.obj
 0001:00029400       ?size_of@cmpX_ccNode@@UBEIXZ 0802a400 f i ad_x86_32_gen.obj
 0001:00029400       ?size_of@compP_eRegNode@@UBEIXZ 0802a400 f i ad_x86_32_gen.obj
 0001:00029400       ?size_of@xorI_eRegNode@@UBEIXZ 0802a400 f i ad_x86_32_gen.obj
 0001:00029400       ?size_of@popCountL_memNode@@UBEIXZ 0802a400 f i ad_x86_32.obj
 0001:00029400       ?size_of@storeF_immNode@@UBEIXZ 0802a400 f i ad_x86_32_gen.obj
 0001:00029400       ?size_of@addD_mulD_regNode@@UBEIXZ 0802a400 f i ad_x86_32_gen.obj
 0001:00029400       ?size_of@addF_regNode@@UBEIXZ 0802a400 f i ad_x86_32_gen.obj
 0001:00029400       ?size_of@storeL_volatileNode@@UBEIXZ 0802a400 f i ad_x86_32_gen.obj
 0001:00029400       ?size_of@addF_mulF_reg_load1Node@@UBEIXZ 0802a400 f i ad_x86_32.obj
 0001:00029400       ?size_of@subXD_regNode@@UBEIXZ 0802a400 f i ad_x86_32_gen.obj
 0001:00029400       ?size_of@cmpL_zero_flags_LEGTNode@@UBEIXZ 0802a400 f i ad_x86_32_gen.obj
 0001:00029400       ?size_of@storePNode@@UBEIXZ 0802a400 f i ad_x86_32_gen.obj
 0001:00029400       ?size_of@subL_eRegNode@@UBEIXZ 0802a400 f i ad_x86_32_gen.obj
 0001:00029400       ?size_of@addF_mulF_reg_load1_0Node@@UBEIXZ 0802a400 f i ad_x86_32_gen.obj
 0001:00029400       ?ideal_Opcode@testP_regNode@@EBEHXZ 0802a400 f i ad_x86_32_gen.obj
 0001:00029400       ?size_of@cmpFastUnlockNode@@UBEIXZ 0802a400 f i ad_x86_32_gen.obj
 0001:00029400       ?size_of@mulL_eReg_conNode@@UBEIXZ 0802a400 f i ad_x86_32_gen.obj
 0001:00029400       ?size_of@subD_mulD_regNode@@UBEIXZ 0802a400 f i ad_x86_32_gen.obj
 0001:00029400       ?size_of@storeXDNode@@UBEIXZ 0802a400 f i ad_x86_32_gen.obj
 0001:00029400       ?size_of@MoveL2D_reg_reg_sseNode@@UBEIXZ 0802a400 f i ad_x86_32_gen.obj
 0001:00029400       ?size_of@addL_eRegNode@@UBEIXZ 0802a400 f i ad_x86_32_gen.obj
 0001:00029400       ?size_of@storeImmBNode@@UBEIXZ 0802a400 f i ad_x86_32_gen.obj
 0001:00029400       ?size_of@storePConditionalNode@@UBEIXZ 0802a400 f i ad_x86_32_gen.obj
 0001:00029400       ?size_of@addF_mulF_reg_load1_1Node@@UBEIXZ 0802a400 f i ad_x86_32.obj
 0001:00029400       ?size_of@mulF_regNode@@UBEIXZ 0802a400 f i ad_x86_32_gen.obj
 0001:00029400       ?size_of@mulX_regNode@@UBEIXZ 0802a400 f i ad_x86_32_gen.obj
 0001:00029400       ?size_of@storeIConditionalNode@@UBEIXZ 0802a400 f i ad_x86_32_gen.obj
 0001:00029400       ?size_of@loadI2SNode@@UBEIXZ 0802a400 f i ad_x86_32.obj
 0001:00029400       ?size_of@mulI_imm_high_0Node@@UBEIXZ 0802a400 f i ad_x86_32_gen.obj
 0001:00029400       ?size_of@subF_divF_regNode@@UBEIXZ 0802a400 f i ad_x86_32_gen.obj
 0001:00029400       ?size_of@xorl_eRegNode@@UBEIXZ 0802a400 f i ad_x86_32_gen.obj
 0001:00029400       ?size_of@divXD_regNode@@UBEIXZ 0802a400 f i ad_x86_32_gen.obj
 0001:00029400       ?size_of@storeX_immNode@@UBEIXZ 0802a400 f i ad_x86_32_gen.obj
 0001:00029400       ?Opcode@CmpPNode@@UBEHXZ   0802a400 f i classes.obj
 0001:00029400       ?ideal_Opcode@partialSubtypeCheck_vs_ZeroNode@@EBEHXZ 0802a400 f i ad_x86_32_gen.obj
 0001:00029400       ?size_of@andI_eRegNode@@UBEIXZ 0802a400 f i ad_x86_32_gen.obj
 0001:00029400       ?size_of@cmpXD_ccCFNode@@UBEIXZ 0802a400 f i ad_x86_32_gen.obj
 0001:00029400       ?size_of@storeImmINode@@UBEIXZ 0802a400 f i ad_x86_32_gen.obj
 0001:00029400       ?size_of@loadUS2BNode@@UBEIXZ 0802a400 f i ad_x86_32_gen.obj
 0001:00029400       ?size_of@subD_regNode@@UBEIXZ 0802a400 f i ad_x86_32_gen.obj
 0001:00029400       ?size_of@andL_eRegNode@@UBEIXZ 0802a400 f i ad_x86_32_gen.obj
 0001:00029400       ?size_of@cmpL_reg_flags_LTGENode@@UBEIXZ 0802a400 f i ad_x86_32_gen.obj
 0001:00029400       ?size_of@addX_regNode@@UBEIXZ 0802a400 f i ad_x86_32_gen.obj
 0001:00029400       ?size_of@storeA8BNode@@UBEIXZ 0802a400 f i ad_x86_32_gen.obj
 0001:00029400       ?size_of@mulL_eReg_rhi0Node@@UBEIXZ 0802a400 f i ad_x86_32_gen.obj
 0001:00029400       ?size_of@mulL_eRegNode@@UBEIXZ 0802a400 f i ad_x86_32_gen.obj
 0001:00029400       ?size_of@compareAndSwapINode@@UBEIXZ 0802a400 f i ad_x86_32_gen.obj
 0001:00029400       ?size_of@divX_regNode@@UBEIXZ 0802a400 f i ad_x86_32_gen.obj
 0001:00029400       ?size_of@storeF_roundedNode@@UBEIXZ 0802a400 f i ad_x86_32_gen.obj
 0001:00029400       ?size_of@addD_mulD_reg_0Node@@UBEIXZ 0802a400 f i ad_x86_32_gen.obj
 0001:00029400       ?ideal_Opcode@compP_eReg_immNode@@EBEHXZ 0802a400 f i ad_x86_32_gen.obj
 0001:00029400       ?size_of@addXD_regNode@@UBEIXZ 0802a400 f i ad_x86_32_gen.obj
 0001:00029400       ?size_of@addF24_regNode@@UBEIXZ 0802a400 f i ad_x86_32_gen.obj
 0001:00029400       ?size_of@loadS2BNode@@UBEIXZ 0802a400 f i ad_x86_32_gen.obj
 0001:00029400       ?size_of@storeINode@@UBEIXZ 0802a400 f i ad_x86_32_gen.obj
 0001:00029400       ?size_of@storeL2INode@@UBEIXZ 0802a400 f i ad_x86_32_gen.obj
 0001:00029400       ?size_of@compareAndSwapPNode@@UBEIXZ 0802a400 f i ad_x86_32_gen.obj
 0001:00029400       ?size_of@mulI_eReg_immNode@@UBEIXZ 0802a400 f i ad_x86_32_gen.obj
 0001:00029410       ??0compareAndSwapINode@@QAE@XZ 0802a410 f i ad_x86_32_gen.obj
 0001:00029440       ?rule@compareAndSwapINode@@EBEIXZ 0802a440 f i ad_x86_32_gen.obj
 0001:00029450       ?opcode@eSIRegPOper@@UBEIXZ 0802a450 f i ad_x86_32_clone.obj
 0001:00029450       ?Opcode@CompareAndSwapINode@@UBEHXZ 0802a450 f i classes.obj
 0001:00029450       ?ideal_Opcode@compareAndSwapINode@@EBEHXZ 0802a450 f i ad_x86_32_gen.obj
 0001:00029460       ??0subI_eRegNode@@QAE@XZ   0802a460 f i ad_x86_32_gen.obj
 0001:00029490       ?rule@subI_eRegNode@@EBEIXZ 0802a490 f i ad_x86_32_gen.obj
 0001:000294a0       ?ideal_Opcode@subI_eReg_memNode@@EBEHXZ 0802a4a0 f i ad_x86_32.obj
 0001:000294a0       ?ideal_Opcode@subI_eReg_immNode@@EBEHXZ 0802a4a0 f i ad_x86_32_gen.obj
 0001:000294a0       ?ideal_Opcode@negI_eRegNode@@EBEHXZ 0802a4a0 f i ad_x86_32_gen.obj
 0001:000294a0       ?Opcode@SubINode@@UBEHXZ   0802a4a0 f i classes.obj
 0001:000294a0       ?ideal_Opcode@subI_eRegNode@@EBEHXZ 0802a4a0 f i ad_x86_32_gen.obj
 0001:000294b0       ??0subI_eReg_immNode@@QAE@XZ 0802a4b0 f i ad_x86_32_gen.obj
 0001:000294e0       ?rule@subI_eReg_immNode@@EBEIXZ 0802a4e0 f i ad_x86_32_gen.obj
 0001:000294f0       ?size_of@loadI2UBNode@@UBEIXZ 0802a4f0 f i ad_x86_32_gen.obj
 0001:000294f0       ?size_of@orI_eReg_mem_0Node@@UBEIXZ 0802a4f0 f i ad_x86_32_gen.obj
 0001:000294f0       ?size_of@loadI2USNode@@UBEIXZ 0802a4f0 f i ad_x86_32_gen.obj
 0001:000294f0       ?size_of@subL_eReg_immNode@@UBEIXZ 0802a4f0 f i ad_x86_32_gen.obj
 0001:000294f0       ?size_of@powXD_regNode@@UBEIXZ 0802a4f0 f i ad_x86_32_gen.obj
 0001:000294f0       ?size_of@modL_eRegNode@@UBEIXZ 0802a4f0 f i ad_x86_32_gen.obj
 0001:000294f0       ?size_of@subX_memNode@@UBEIXZ 0802a4f0 f i ad_x86_32.obj
 0001:000294f0       ?size_of@countLeadingZerosL_bsrNode@@UBEIXZ 0802a4f0 f i ad_x86_32_gen.obj
 0001:000294f0       ?size_of@JumpProjNode@@EBEIXZ 0802a4f0 f i parse2.obj
 0001:000294f0       ?size_of@cmpF_regNode@@UBEIXZ 0802a4f0 f i ad_x86_32_gen.obj
 0001:000294f0       ?size_of@castX2PNode@@UBEIXZ 0802a4f0 f i ad_x86_32_gen.obj
 0001:000294f0       ?size_of@mulI_mem_immNode@@UBEIXZ 0802a4f0 f i ad_x86_32.obj
 0001:000294f0       ?size_of@divD_regNode@@UBEIXZ 0802a4f0 f i ad_x86_32_gen.obj
 0001:000294f0       ?size_of@compP_eReg_immNode@@UBEIXZ 0802a4f0 f i ad_x86_32_gen.obj
 0001:000294f0       ?size_of@rolI_eReg_imm1Node@@UBEIXZ 0802a4f0 f i ad_x86_32_expand.obj
 0001:000294f0       ?size_of@loadI2L_immINode@@UBEIXZ 0802a4f0 f i ad_x86_32_gen.obj
 0001:000294f0       ?size_of@loadUB2L_immI8Node@@UBEIXZ 0802a4f0 f i ad_x86_32_gen.obj
 0001:000294f0       ?size_of@atanD_regNode@@UBEIXZ 0802a4f0 f i ad_x86_32_gen.obj
 0001:000294f0       ?size_of@shrL_eReg_1_31Node@@UBEIXZ 0802a4f0 f i ad_x86_32_gen.obj
 0001:000294f0       ?size_of@incI_eRegNode@@UBEIXZ 0802a4f0 f i ad_x86_32_gen.obj
 0001:000294f0       ?size_of@addL_eReg_memNode@@UBEIXZ 0802a4f0 f i ad_x86_32.obj
 0001:000294f0       ?size_of@cmpXD_ccmemNode@@UBEIXZ 0802a4f0 f i ad_x86_32.obj
 0001:000294f0       ?size_of@andI_eReg_immNode@@UBEIXZ 0802a4f0 f i ad_x86_32_gen.obj
 0001:000294f0       ?size_of@divX_immNode@@UBEIXZ 0802a4f0 f i ad_x86_32_gen.obj
 0001:000294f0       ?size_of@mulF_reg_mem_0Node@@UBEIXZ 0802a4f0 f i ad_x86_32_gen.obj
 0001:000294f0       ?size_of@compU_eReg_memNode@@UBEIXZ 0802a4f0 f i ad_x86_32.obj
 0001:000294f0       ?size_of@divD_reg_roundNode@@UBEIXZ 0802a4f0 f i ad_x86_32_gen.obj
 0001:000294f0       ?size_of@loadI2L_immI_255Node@@UBEIXZ 0802a4f0 f i ad_x86_32_gen.obj
 0001:000294f0       ?size_of@addD_reg_roundNode@@UBEIXZ 0802a4f0 f i ad_x86_32_gen.obj
 0001:000294f0       ?size_of@convI2L_reg_zexNode@@UBEIXZ 0802a4f0 f i ad_x86_32_gen.obj
 0001:000294f0       ?size_of@shrI_eReg_immNode@@UBEIXZ 0802a4f0 f i ad_x86_32_gen.obj
 0001:000294f0       ?size_of@cmpF_cc_P6CFNode@@UBEIXZ 0802a4f0 f i ad_x86_32_gen.obj
 0001:000294f0       ?size_of@xorl_eReg_im1Node@@UBEIXZ 0802a4f0 f i ad_x86_32_gen.obj
 0001:000294f0       ?size_of@loadLX_reg_volatileNode@@UBEIXZ 0802a4f0 f i ad_x86_32_gen.obj
 0001:000294f0       ?size_of@cmpF_0Node@@UBEIXZ 0802a4f0 f i ad_x86_32_gen.obj
 0001:000294f0       ?size_of@andL_eReg_mem_0Node@@UBEIXZ 0802a4f0 f i ad_x86_32_gen.obj
 0001:000294f0       ?size_of@addP_eReg_immNode@@UBEIXZ 0802a4f0 f i ad_x86_32_gen.obj
 0001:000294f0       ?size_of@orI_eReg_castP2X_0Node@@UBEIXZ 0802a4f0 f i ad_x86_32_gen.obj
 0001:000294f0       ?size_of@loadPLockedNode@@UBEIXZ 0802a4f0 f i ad_x86_32_gen.obj
 0001:000294f0       ?size_of@divXD_memNode@@UBEIXZ 0802a4f0 f i ad_x86_32.obj
 0001:000294f0       ?size_of@leaI_eReg_immINode@@UBEIXZ 0802a4f0 f i ad_x86_32_gen.obj
 0001:000294f0       ?size_of@negI_eRegNode@@UBEIXZ 0802a4f0 f i ad_x86_32_gen.obj
 0001:000294f0       ?size_of@zerox_longNode@@UBEIXZ 0802a4f0 f i ad_x86_32_gen.obj
 0001:000294f0       ?size_of@subF_regNode@@UBEIXZ 0802a4f0 f i ad_x86_32_gen.obj
 0001:000294f0       ?size_of@compI_eReg_immNode@@UBEIXZ 0802a4f0 f i ad_x86_32_gen.obj
 0001:000294f0       ?size_of@strictfp_divD_regNode@@UBEIXZ 0802a4f0 f i ad_x86_32_gen.obj
 0001:000294f0       ?size_of@mulD_reg_memNode@@UBEIXZ 0802a4f0 f i ad_x86_32_gen.obj
 0001:000294f0       ?size_of@addL_eReg_immNode@@UBEIXZ 0802a4f0 f i ad_x86_32_gen.obj
 0001:000294f0       ?size_of@addI_eReg_immNode@@UBEIXZ 0802a4f0 f i ad_x86_32_gen.obj
 0001:000294f0       ?size_of@shrL_eReg_CLNode@@UBEIXZ 0802a4f0 f i ad_x86_32_gen.obj
 0001:000294f0       ?size_of@shlL_eReg_3Node@@UBEIXZ 0802a4f0 f i ad_x86_32_gen.obj
 0001:000294f0       ?size_of@mulX_mem_0Node@@UBEIXZ 0802a4f0 f i ad_x86_32_gen.obj
 0001:000294f0       ?size_of@salL_eReg_CLNode@@UBEIXZ 0802a4f0 f i ad_x86_32_gen.obj
 0001:000294f0       ?size_of@orI_eReg_memNode@@UBEIXZ 0802a4f0 f i ad_x86_32.obj
 0001:000294f0       ?size_of@cmpD_cc_P6CFNode@@UBEIXZ 0802a4f0 f i ad_x86_32_gen.obj
 0001:000294f0       ?size_of@addX_immNode@@UBEIXZ 0802a4f0 f i ad_x86_32_gen.obj
 0001:000294f0       ?size_of@cmpX_ccmemCFNode@@UBEIXZ 0802a4f0 f i ad_x86_32.obj
 0001:000294f0       ?size_of@sarL_eReg_CLNode@@UBEIXZ 0802a4f0 f i ad_x86_32_gen.obj
 0001:000294f0       ?size_of@sqrtXD_regNode@@UBEIXZ 0802a4f0 f i ad_x86_32_gen.obj
 0001:000294f0       ?size_of@cmpLTMask0Node@@UBEIXZ 0802a4f0 f i ad_x86_32_gen.obj
 0001:000294f0       ?size_of@cp2bNode@@UBEIXZ  0802a4f0 f i ad_x86_32_expand.obj
 0001:000294f0       ?size_of@subXD_immNode@@UBEIXZ 0802a4f0 f i ad_x86_32_gen.obj
 0001:000294f0       ?size_of@modI_eRegNode@@UBEIXZ 0802a4f0 f i ad_x86_32_gen.obj
 0001:000294f0       ?size_of@xorI_eReg_immNode@@UBEIXZ 0802a4f0 f i ad_x86_32_gen.obj
 0001:000294f0       ?size_of@testU_regNode@@UBEIXZ 0802a4f0 f i ad_x86_32_gen.obj
 0001:000294f0       ?size_of@mulD_reg_mem_cisc_0Node@@UBEIXZ 0802a4f0 f i ad_x86_32_gen.obj
 0001:000294f0       ?size_of@negL_eRegNode@@UBEIXZ 0802a4f0 f i ad_x86_32_gen.obj
 0001:000294f0       ?size_of@orl_eReg_immNode@@UBEIXZ 0802a4f0 f i ad_x86_32_gen.obj
 0001:000294f0       ?size_of@subX_immNode@@UBEIXZ 0802a4f0 f i ad_x86_32_gen.obj
 0001:000294f0       ?ideal_Opcode@testI_regNode@@EBEHXZ 0802a4f0 f i ad_x86_32_gen.obj
 0001:000294f0       ?size_of@salI_eReg_CLNode@@UBEIXZ 0802a4f0 f i ad_x86_32_gen.obj
 0001:000294f0       ?size_of@testP_regNode@@UBEIXZ 0802a4f0 f i ad_x86_32_gen.obj
 0001:000294f0       ?size_of@shlL_eReg_32_63Node@@UBEIXZ 0802a4f0 f i ad_x86_32_gen.obj
 0001:000294f0       ?size_of@xorI_eReg_mem_0Node@@UBEIXZ 0802a4f0 f i ad_x86_32_gen.obj
 0001:000294f0       ?size_of@orI_eReg_immNode@@UBEIXZ 0802a4f0 f i ad_x86_32_gen.obj
 0001:000294f0       ?size_of@sarI_eReg_CLNode@@UBEIXZ 0802a4f0 f i ad_x86_32_gen.obj
 0001:000294f0       ?size_of@mulF24_mem_memNode@@UBEIXZ 0802a4f0 f i ad_x86_32_gen.obj
 0001:000294f0       ?size_of@xorl_eReg_immNode@@UBEIXZ 0802a4f0 f i ad_x86_32_gen.obj
 0001:000294f0       ?size_of@addXD_immNode@@UBEIXZ 0802a4f0 f i ad_x86_32_gen.obj
 0001:000294f0       ?size_of@mulF_reg_load1Node@@UBEIXZ 0802a4f0 f i ad_x86_32_gen.obj
 0001:000294f0       ?size_of@divXD_immNode@@UBEIXZ 0802a4f0 f i ad_x86_32_gen.obj
 0001:000294f0       ?size_of@divX_memNode@@UBEIXZ 0802a4f0 f i ad_x86_32.obj
 0001:000294f0       ?size_of@shlL_eReg_1_31Node@@UBEIXZ 0802a4f0 f i ad_x86_32_gen.obj
 0001:000294f0       ?size_of@addF24_mem_cisc_0Node@@UBEIXZ 0802a4f0 f i ad_x86_32.obj
 0001:000294f0       ?size_of@countLeadingZerosLNode@@UBEIXZ 0802a4f0 f i ad_x86_32_gen.obj
 0001:000294f0       ?size_of@popCountINode@@UBEIXZ 0802a4f0 f i ad_x86_32_gen.obj
 0001:000294f0       ?size_of@mulXD_immNode@@UBEIXZ 0802a4f0 f i ad_x86_32_gen.obj
 0001:000294f0       ?size_of@sarI_eReg_immNode@@UBEIXZ 0802a4f0 f i ad_x86_32_gen.obj
 0001:000294f0       ?size_of@compU_eReg_immNode@@UBEIXZ 0802a4f0 f i ad_x86_32_gen.obj
 0001:000294f0       ?size_of@atanXD_regNode@@UBEIXZ 0802a4f0 f i ad_x86_32_gen.obj
 0001:000294f0       ?size_of@convI2L_regNode@@UBEIXZ 0802a4f0 f i ad_x86_32_gen.obj
 0001:000294f0       ?size_of@cmpL_zero_flags_LTGENode@@UBEIXZ 0802a4f0 f i ad_x86_32_gen.obj
 0001:000294f0       ?size_of@addP_eRegNode@@UBEIXZ 0802a4f0 f i ad_x86_32_gen.obj
 0001:000294f0       ?size_of@subF24_regNode@@UBEIXZ 0802a4f0 f i ad_x86_32_gen.obj
 0001:000294f0       ?size_of@mulF24_reg_mem_0Node@@UBEIXZ 0802a4f0 f i ad_x86_32_gen.obj
 0001:000294f0       ?size_of@divF_regNode@@UBEIXZ 0802a4f0 f i ad_x86_32_gen.obj
 0001:000294f0       ?size_of@mulF24_reg_memNode@@UBEIXZ 0802a4f0 f i ad_x86_32.obj
 0001:000294f0       ?size_of@subXD_memNode@@UBEIXZ 0802a4f0 f i ad_x86_32.obj
 0001:000294f0       ?size_of@loadLX_reg_LockedNode@@UBEIXZ 0802a4f0 f i ad_x86_32_gen.obj
 0001:000294f0       ?size_of@modXD_regNode@@UBEIXZ 0802a4f0 f i ad_x86_32_gen.obj
 0001:000294f0       ?size_of@cmpD_0Node@@UBEIXZ 0802a4f0 f i ad_x86_32_gen.obj
 0001:000294f0       ?size_of@sarI_eReg_1Node@@UBEIXZ 0802a4f0 f i ad_x86_32_gen.obj
 0001:000294f0       ?size_of@xorI_eReg_memNode@@UBEIXZ 0802a4f0 f i ad_x86_32.obj
 0001:000294f0       ?size_of@andI_eReg_mem_0Node@@UBEIXZ 0802a4f0 f i ad_x86_32_gen.obj
 0001:000294f0       ?size_of@loadI2L_immI_65535Node@@UBEIXZ 0802a4f0 f i ad_x86_32_gen.obj
 0001:000294f0       ?size_of@addI_eReg_mem_0Node@@UBEIXZ 0802a4f0 f i ad_x86_32_gen.obj
 0001:000294f0       ?size_of@mulD_reg_mem_0Node@@UBEIXZ 0802a4f0 f i ad_x86_32_gen.obj
 0001:000294f0       ?size_of@addD_reg_immNode@@UBEIXZ 0802a4f0 f i ad_x86_32_gen.obj
 0001:000294f0       ?size_of@mulF24_reg_immNode@@UBEIXZ 0802a4f0 f i ad_x86_32_gen.obj
 0001:000294f0       ?size_of@cmpD_regNode@@UBEIXZ 0802a4f0 f i ad_x86_32_gen.obj
 0001:000294f0       ?size_of@sarL_eReg_32_63Node@@UBEIXZ 0802a4f0 f i ad_x86_32_gen.obj
 0001:000294f0       ?size_of@mulXD_mem_0Node@@UBEIXZ 0802a4f0 f i ad_x86_32_gen.obj
 0001:000294f0       ?size_of@loadUS2L_immI16Node@@UBEIXZ 0802a4f0 f i ad_x86_32_gen.obj
 0001:000294f0       ?size_of@andI_eReg_memNode@@UBEIXZ 0802a4f0 f i ad_x86_32.obj
 0001:000294f0       ?size_of@divI_eRegNode@@UBEIXZ 0802a4f0 f i ad_x86_32_gen.obj
 0001:000294f0       ?size_of@loadPNode@@UBEIXZ 0802a4f0 f i ad_x86_32_gen.obj
 0001:000294f0       ?size_of@rep_stosNode@@UBEIXZ 0802a4f0 f i ad_x86_32_gen.obj
 0001:000294f0       ?size_of@divModI_eReg_divmodNode@@UBEIXZ 0802a4f0 f i ad_x86_32_gen.obj
 0001:000294f0       ?size_of@castPPNode@@UBEIXZ 0802a4f0 f i ad_x86_32_gen.obj
 0001:000294f0       ?size_of@checkCastPPNode@@UBEIXZ 0802a4f0 f i ad_x86_32_gen.obj
 0001:000294f0       ?size_of@mulX_immNode@@UBEIXZ 0802a4f0 f i ad_x86_32_gen.obj
 0001:000294f0       ?size_of@cmpLTMaskNode@@UBEIXZ 0802a4f0 f i ad_x86_32_gen.obj
 0001:000294f0       ?size_of@addD_reg_imm_roundNode@@UBEIXZ 0802a4f0 f i ad_x86_32_gen.obj
 0001:000294f0       ?size_of@sarL_eReg_1_31Node@@UBEIXZ 0802a4f0 f i ad_x86_32_gen.obj
 0001:000294f0       ?size_of@addF24_mem_ciscNode@@UBEIXZ 0802a4f0 f i ad_x86_32.obj
 0001:000294f0       ?size_of@cmpX_regmemNode@@UBEIXZ 0802a4f0 f i ad_x86_32.obj
 0001:000294f0       ?size_of@cmpF_ccNode@@UBEIXZ 0802a4f0 f i ad_x86_32_gen.obj
 0001:000294f0       ?size_of@addL_eReg_mem_0Node@@UBEIXZ 0802a4f0 f i ad_x86_32_gen.obj
 0001:000294f0       ?size_of@xorl_eReg_memNode@@UBEIXZ 0802a4f0 f i ad_x86_32.obj
 0001:000294f0       ?size_of@mulINode@@UBEIXZ  0802a4f0 f i ad_x86_32.obj
 0001:000294f0       ?size_of@xorI_eReg_im1Node@@UBEIXZ 0802a4f0 f i ad_x86_32_gen.obj
 0001:000294f0       ?size_of@cmpD_cc_P6Node@@UBEIXZ 0802a4f0 f i ad_x86_32_gen.obj
 0001:000294f0       ?ideal_Opcode@testI_reg_memNode@@EBEHXZ 0802a4f0 f i ad_x86_32_gen.obj
 0001:000294f0       ?size_of@partialSubtypeCheckNode@@UBEIXZ 0802a4f0 f i ad_x86_32_gen.obj
 0001:000294f0       ?size_of@cmpL_reg_flags_EQNENode@@UBEIXZ 0802a4f0 f i ad_x86_32_gen.obj
 0001:000294f0       ?size_of@mulD_reg_mem_ciscNode@@UBEIXZ 0802a4f0 f i ad_x86_32_gen.obj
 0001:000294f0       ?ideal_Opcode@compI_eReg_memNode@@EBEHXZ 0802a4f0 f i ad_x86_32.obj
 0001:000294f0       ?size_of@ci2bNode@@UBEIXZ  0802a4f0 f i ad_x86_32_expand.obj
 0001:000294f0       ?size_of@loadLX_volatileNode@@UBEIXZ 0802a4f0 f i ad_x86_32_gen.obj
 0001:000294f0       ?size_of@modX_regNode@@UBEIXZ 0802a4f0 f i ad_x86_32_gen.obj
 0001:000294f0       ?size_of@addF_reg_mem_0Node@@UBEIXZ 0802a4f0 f i ad_x86_32_gen.obj
 0001:000294f0       ?size_of@cmpF_cc_P6Node@@UBEIXZ 0802a4f0 f i ad_x86_32_gen.obj
 0001:000294f0       ?size_of@andL_eReg_memNode@@UBEIXZ 0802a4f0 f i ad_x86_32.obj
 0001:000294f0       ?ideal_Opcode@testI_reg_immNode@@EBEHXZ 0802a4f0 f i ad_x86_32_gen.obj
 0001:000294f0       ?size_of@mulD_regNode@@UBEIXZ 0802a4f0 f i ad_x86_32_gen.obj
 0001:000294f0       ?size_of@addI_eReg_memNode@@UBEIXZ 0802a4f0 f i ad_x86_32.obj
 0001:000294f0       ?size_of@compP_mem_eRegNode@@UBEIXZ 0802a4f0 f i ad_x86_32_gen.obj
 0001:000294f0       ?Opcode@CmpINode@@UBEHXZ   0802a4f0 f i classes.obj
 0001:000294f0       ?size_of@modF24_regNode@@UBEIXZ 0802a4f0 f i ad_x86_32_gen.obj
 0001:000294f0       ?size_of@mulD_reg_immNode@@UBEIXZ 0802a4f0 f i ad_x86_32_gen.obj
 0001:000294f0       ?size_of@addF_reg_memNode@@UBEIXZ 0802a4f0 f i ad_x86_32.obj
 0001:000294f0       ?size_of@addF24_mem_memNode@@UBEIXZ 0802a4f0 f i ad_x86_32_gen.obj
 0001:000294f0       ?size_of@mulXD_memNode@@UBEIXZ 0802a4f0 f i ad_x86_32.obj
 0001:000294f0       ?size_of@orl_eReg_mem_0Node@@UBEIXZ 0802a4f0 f i ad_x86_32_gen.obj
 0001:000294f0       ?size_of@compI_eReg_memNode@@UBEIXZ 0802a4f0 f i ad_x86_32.obj
 0001:000294f0       ?size_of@leaP_eReg_immINode@@UBEIXZ 0802a4f0 f i ad_x86_32_gen.obj
 0001:000294f0       ?size_of@orl_eReg_memNode@@UBEIXZ 0802a4f0 f i ad_x86_32.obj
 0001:000294f0       ?size_of@loadKlassNode@@UBEIXZ 0802a4f0 f i ad_x86_32_gen.obj
 0001:000294f0       ?size_of@modD_regNode@@UBEIXZ 0802a4f0 f i ad_x86_32_gen.obj
 0001:000294f0       ?size_of@shrI_eReg_CLNode@@UBEIXZ 0802a4f0 f i ad_x86_32_gen.obj
 0001:000294f0       ?size_of@cmpXD_ccmemCFNode@@UBEIXZ 0802a4f0 f i ad_x86_32.obj
 0001:000294f0       ?size_of@addD_reg_imm1Node@@UBEIXZ 0802a4f0 f i ad_x86_32_gen.obj
 0001:000294f0       ?size_of@mulL_eReg_hi0Node@@UBEIXZ 0802a4f0 f i ad_x86_32_gen.obj
 0001:000294f0       ?size_of@subD_reg_roundNode@@UBEIXZ 0802a4f0 f i ad_x86_32_gen.obj
 0001:000294f0       ?size_of@loadLX_LockedNode@@UBEIXZ 0802a4f0 f i ad_x86_32_gen.obj
 0001:000294f0       ?size_of@subD_reg_memNode@@UBEIXZ 0802a4f0 f i ad_x86_32.obj
 0001:000294f0       ?size_of@rolI_eReg_CLNode@@UBEIXZ 0802a4f0 f i ad_x86_32_expand.obj
 0001:000294f0       ?size_of@countTrailingZerosLNode@@UBEIXZ 0802a4f0 f i ad_x86_32_gen.obj
 0001:000294f0       ?size_of@addXD_mem_0Node@@UBEIXZ 0802a4f0 f i ad_x86_32_gen.obj
 0001:000294f0       ?size_of@compP_eReg_memNode@@UBEIXZ 0802a4f0 f i ad_x86_32.obj
 0001:000294f0       ?size_of@powD_regNode@@UBEIXZ 0802a4f0 f i ad_x86_32_gen.obj
 0001:000294f0       ?size_of@addD_reg_mem_0Node@@UBEIXZ 0802a4f0 f i ad_x86_32_gen.obj
 0001:000294f0       ?size_of@mulF_reg_memNode@@UBEIXZ 0802a4f0 f i ad_x86_32.obj
 0001:000294f0       ?size_of@cmpL3_reg_regNode@@UBEIXZ 0802a4f0 f i ad_x86_32_gen.obj
 0001:000294f0       ?size_of@divF24_regNode@@UBEIXZ 0802a4f0 f i ad_x86_32_gen.obj
 0001:000294f0       ?size_of@modF_regNode@@UBEIXZ 0802a4f0 f i ad_x86_32_gen.obj
 0001:000294f0       ?size_of@mulF_reg_immNode@@UBEIXZ 0802a4f0 f i ad_x86_32_gen.obj
 0001:000294f0       ?size_of@subL_eReg_memNode@@UBEIXZ 0802a4f0 f i ad_x86_32.obj
 0001:000294f0       ?size_of@addX_mem_0Node@@UBEIXZ 0802a4f0 f i ad_x86_32_gen.obj
 0001:000294f0       ?ideal_Opcode@compI_eReg_immNode@@EBEHXZ 0802a4f0 f i ad_x86_32_gen.obj
 0001:000294f0       ?size_of@rorI_eReg_CLNode@@UBEIXZ 0802a4f0 f i ad_x86_32_expand.obj
 0001:000294f0       ?size_of@shrI_eReg_1Node@@UBEIXZ 0802a4f0 f i ad_x86_32_gen.obj
 0001:000294f0       ?size_of@minI_eRegNode@@UBEIXZ 0802a4f0 f i ad_x86_32_gen.obj
 0001:000294f0       ?size_of@PhiNode@@EBEIXZ   0802a4f0 f i cfgnode.obj
 0001:000294f0       ?size_of@shrL_eReg_32_63Node@@UBEIXZ 0802a4f0 f i ad_x86_32_gen.obj
 0001:000294f0       ?size_of@addXD_memNode@@UBEIXZ 0802a4f0 f i ad_x86_32.obj
 0001:000294f0       ?size_of@testP_Reg_memNode@@UBEIXZ 0802a4f0 f i ad_x86_32_gen.obj
 0001:000294f0       ?size_of@mulI_0Node@@UBEIXZ 0802a4f0 f i ad_x86_32_gen.obj
 0001:000294f0       ?size_of@orI_eReg_castP2XNode@@UBEIXZ 0802a4f0 f i ad_x86_32_gen.obj
 0001:000294f0       ?size_of@loadUS2L_immI_255Node@@UBEIXZ 0802a4f0 f i ad_x86_32_gen.obj
 0001:000294f0       ?size_of@addX_memNode@@UBEIXZ 0802a4f0 f i ad_x86_32.obj
 0001:000294f0       ?size_of@maxI_eRegNode@@UBEIXZ 0802a4f0 f i ad_x86_32_gen.obj
 0001:000294f0       ?size_of@subI_eReg_memNode@@UBEIXZ 0802a4f0 f i ad_x86_32.obj
 0001:000294f0       ?size_of@rolI_eReg_imm8Node@@UBEIXZ 0802a4f0 f i ad_x86_32_expand.obj
 0001:000294f0       ?size_of@shlL_eReg_2Node@@UBEIXZ 0802a4f0 f i ad_x86_32_gen.obj
 0001:000294f0       ?size_of@MachSpillCopyNode@@UBEIXZ 0802a4f0 f i chaitin.obj
 0001:000294f0       ?size_of@addF24_reg_immNode@@UBEIXZ 0802a4f0 f i ad_x86_32_gen.obj
 0001:000294f0       ?size_of@shlI_eReg_1Node@@UBEIXZ 0802a4f0 f i ad_x86_32_gen.obj
 0001:000294f0       ?size_of@MachReturnNode@@EBEIXZ 0802a4f0 f i machnode.obj
 0001:000294f0       ?ideal_Opcode@compI_eRegNode@@EBEHXZ 0802a4f0 f i ad_x86_32_gen.obj
 0001:000294f0       ?size_of@xorl_eReg_mem_0Node@@UBEIXZ 0802a4f0 f i ad_x86_32_gen.obj
 0001:000294f0       ?size_of@divL_eRegNode@@UBEIXZ 0802a4f0 f i ad_x86_32_gen.obj
 0001:000294f0       ?size_of@shlL_eReg_1Node@@UBEIXZ 0802a4f0 f i ad_x86_32_gen.obj
 0001:000294f0       ?size_of@cmpD_ccNode@@UBEIXZ 0802a4f0 f i ad_x86_32_gen.obj
 0001:000294f0       ?size_of@MoveD2L_reg_reg_sseNode@@UBEIXZ 0802a4f0 f i ad_x86_32_gen.obj
 0001:000294f0       ?size_of@addD_reg_memNode@@UBEIXZ 0802a4f0 f i ad_x86_32.obj
 0001:000294f0       ?size_of@addF_reg_immNode@@UBEIXZ 0802a4f0 f i ad_x86_32_gen.obj
 0001:000294f0       ?size_of@mulI2L_0Node@@UBEIXZ 0802a4f0 f i ad_x86_32_gen.obj
 0001:000294f0       ?opcode@naxRegPOper@@UBEIXZ 0802a4f0 f i ad_x86_32_clone.obj
 0001:000294f0       ?size_of@cmpXD_regmemNode@@UBEIXZ 0802a4f0 f i ad_x86_32.obj
 0001:000294f0       ?size_of@mulF_reg_load1_0Node@@UBEIXZ 0802a4f0 f i ad_x86_32_gen.obj
 0001:000294f0       ?size_of@rorI_eReg_imm1Node@@UBEIXZ 0802a4f0 f i ad_x86_32_expand.obj
 0001:000294f0       ?size_of@strictfp_mulD_regNode@@UBEIXZ 0802a4f0 f i ad_x86_32_gen.obj
 0001:000294f0       ?size_of@rorI_eReg_imm8Node@@UBEIXZ 0802a4f0 f i ad_x86_32_expand.obj
 0001:000294f0       ?size_of@mulX_memNode@@UBEIXZ 0802a4f0 f i ad_x86_32.obj
 0001:000294f0       ?size_of@mulI2LNode@@UBEIXZ 0802a4f0 f i ad_x86_32_gen.obj
 0001:000294f0       ?size_of@andL_eReg_immNode@@UBEIXZ 0802a4f0 f i ad_x86_32_gen.obj
 0001:000294f0       ?size_of@testI_regNode@@UBEIXZ 0802a4f0 f i ad_x86_32_gen.obj
 0001:000294f0       ?size_of@salI_eReg_immNode@@UBEIXZ 0802a4f0 f i ad_x86_32_gen.obj
 0001:000294f0       ?size_of@subI_eReg_immNode@@UBEIXZ 0802a4f0 f i ad_x86_32_gen.obj
 0001:000294f0       ?size_of@sqrtX_regNode@@UBEIXZ 0802a4f0 f i ad_x86_32_gen.obj
 0001:000294f0       ?size_of@cmpX_ccmemNode@@UBEIXZ 0802a4f0 f i ad_x86_32.obj
 0001:000294f0       ?size_of@decI_eRegNode@@UBEIXZ 0802a4f0 f i ad_x86_32_gen.obj
 0001:00029500       ??0subI_mem_eRegNode@@QAE@XZ 0802a500 f i ad_x86_32_gen.obj
 0001:00029530       ?rule@subI_mem_eRegNode@@EBEIXZ 0802a530 f i ad_x86_32_gen.obj
 0001:00029540       ?ideal_Opcode@andI_mem_immNode@@EBEHXZ 0802a540 f i ad_x86_32_gen.obj
 0001:00029540       ?ideal_Opcode@addI_mem_immNode@@EBEHXZ 0802a540 f i ad_x86_32_gen.obj
 0001:00029540       ?ideal_Opcode@xorI_mem_eReg_0Node@@EBEHXZ 0802a540 f i ad_x86_32_gen.obj
 0001:00029540       ?ideal_Opcode@storeINode@@EBEHXZ 0802a540 f i ad_x86_32_gen.obj
 0001:00029540       ?ideal_Opcode@subI_mem_eRegNode@@EBEHXZ 0802a540 f i ad_x86_32_gen.obj
 0001:00029540       ?ideal_Opcode@orI_mem_immNode@@EBEHXZ 0802a540 f i ad_x86_32_gen.obj
 0001:00029540       ?ideal_Opcode@sarI_mem_immNode@@EBEHXZ 0802a540 f i ad_x86_32_gen.obj
 0001:00029540       ?ideal_Opcode@andI_mem_eRegNode@@EBEHXZ 0802a540 f i ad_x86_32_gen.obj
 0001:00029540       ?ideal_Opcode@storeL2INode@@EBEHXZ 0802a540 f i ad_x86_32_gen.obj
 0001:00029540       ?ideal_Opcode@xorI_mem_eRegNode@@EBEHXZ 0802a540 f i ad_x86_32_gen.obj
 0001:00029540       ?ideal_Opcode@xorI_mem_immNode@@EBEHXZ 0802a540 f i ad_x86_32_gen.obj
 0001:00029540       ?store_Opcode@LoadINode@@UBEHXZ 0802a540 f i graphKit.obj
 0001:00029540       ?ideal_Opcode@incI_memNode@@EBEHXZ 0802a540 f i ad_x86_32_gen.obj
 0001:00029540       ?ideal_Opcode@sarI_mem_1Node@@EBEHXZ 0802a540 f i ad_x86_32_gen.obj
 0001:00029540       ?ideal_Opcode@orI_mem_eReg_0Node@@EBEHXZ 0802a540 f i ad_x86_32_gen.obj
 0001:00029540       ?Opcode@StoreINode@@UBEHXZ 0802a540 f i classes.obj
 0001:00029540       ?ideal_Opcode@storeImmINode@@EBEHXZ 0802a540 f i ad_x86_32_gen.obj
 0001:00029540       ?ideal_Opcode@addI_mem_eReg_0Node@@EBEHXZ 0802a540 f i ad_x86_32_gen.obj
 0001:00029540       ?ideal_Opcode@andI_mem_eReg_0Node@@EBEHXZ 0802a540 f i ad_x86_32_gen.obj
 0001:00029540       ?ideal_Opcode@orI_mem_eRegNode@@EBEHXZ 0802a540 f i ad_x86_32_gen.obj
 0001:00029540       ?ideal_Opcode@decI_memNode@@EBEHXZ 0802a540 f i ad_x86_32_gen.obj
 0001:00029540       ?ideal_Opcode@addI_mem_eRegNode@@EBEHXZ 0802a540 f i ad_x86_32_gen.obj
 0001:00029550       ??0subP_eRegNode@@QAE@XZ   0802a550 f i ad_x86_32_gen.obj
 0001:00029580       ?rule@subP_eRegNode@@EBEIXZ 0802a580 f i ad_x86_32_gen.obj
 0001:00029590       ?ideal_Opcode@leaPIdxScaleNode@@EBEHXZ 0802a590 f i ad_x86_32_gen.obj
 0001:00029590       ?ideal_Opcode@leaP_eReg_immINode@@EBEHXZ 0802a590 f i ad_x86_32_gen.obj
 0001:00029590       ?ideal_Opcode@leaP8Node@@EBEHXZ 0802a590 f i ad_x86_32_gen.obj
 0001:00029590       ?type@VM_GenCollectFull@@UBE?AW4VMOp_Type@VM_Operation@@XZ 0802a590 f i genCollectedHeap.obj
 0001:00029590       ?ideal_Opcode@leaPIdxOffNode@@EBEHXZ 0802a590 f i ad_x86_32_gen.obj
 0001:00029590       ?ideal_Opcode@addP_eRegNode@@EBEHXZ 0802a590 f i ad_x86_32_gen.obj
 0001:00029590       ?ideal_Opcode@subP_eRegNode@@EBEHXZ 0802a590 f i ad_x86_32_gen.obj
 0001:00029590       ?ideal_Opcode@addP_eReg_immNode@@EBEHXZ 0802a590 f i ad_x86_32_gen.obj
 0001:00029590       ?ideal_Opcode@leaP32Node@@EBEHXZ 0802a590 f i ad_x86_32_gen.obj
 0001:00029590       ?ideal_Opcode@leaPIdxScaleOffNode@@EBEHXZ 0802a590 f i ad_x86_32_gen.obj
 0001:00029590       ?opcode@immI_32_63Oper@@UBEIXZ 0802a590 f i ad_x86_32_clone.obj
 0001:00029590       ?Opcode@AddPNode@@UBEHXZ   0802a590 f i classes.obj
 0001:000295a0       ??0negI_eRegNode@@QAE@XZ   0802a5a0 f i ad_x86_32_gen.obj
 0001:000295d0       ?rule@negI_eRegNode@@EBEIXZ 0802a5d0 f i ad_x86_32_gen.obj
 0001:000295e0       ??0mulI_eRegNode@@QAE@XZ   0802a5e0 f i ad_x86_32_gen.obj
 0001:00029610       ?rule@mulI_eRegNode@@EBEIXZ 0802a610 f i ad_x86_32_gen.obj
 0001:00029620       ?ideal_Opcode@mulI_eRegNode@@EBEHXZ 0802a620 f i ad_x86_32_gen.obj
 0001:00029620       ?Opcode@MulINode@@UBEHXZ   0802a620 f i classes.obj
 0001:00029620       ?ideal_Opcode@mulI_eReg_immNode@@EBEHXZ 0802a620 f i ad_x86_32_gen.obj
 0001:00029620       ?ideal_Opcode@mulI_0Node@@EBEHXZ 0802a620 f i ad_x86_32_gen.obj
 0001:00029620       ?ideal_Opcode@mulINode@@EBEHXZ 0802a620 f i ad_x86_32.obj
 0001:00029620       ?mul_opcode@MulINode@@UBEHXZ 0802a620 f i cfgnode.obj
 0001:00029620       ?ideal_Opcode@mulI_mem_immNode@@EBEHXZ 0802a620 f i ad_x86_32.obj
 0001:00029630       ??0mulI_eReg_immNode@@QAE@XZ 0802a630 f i ad_x86_32_gen.obj
 0001:00029660       ?rule@mulI_eReg_immNode@@EBEIXZ 0802a660 f i ad_x86_32_gen.obj
 0001:00029670       ??0loadConL_low_onlyNode@@QAE@XZ 0802a670 f i ad_x86_32_gen.obj
 0001:000296a0       ?rule@loadConL_low_onlyNode@@EBEIXZ 0802a6a0 f i ad_x86_32_gen.obj
 0001:000296a0       ?Opcode@Load2DNode@@UBEHXZ 0802a6a0 f i classes.obj
 0001:000296b0       ?ideal_Opcode@loadConL0Node@@EBEHXZ 0802a6b0 f i ad_x86_32_gen.obj
 0001:000296b0       ?ideal_Opcode@loadConL_low_onlyNode@@EBEHXZ 0802a6b0 f i ad_x86_32_gen.obj
 0001:000296b0       ?opcode@eFlagsRegUCFOper@@UBEIXZ 0802a6b0 f i ad_x86_32_clone.obj
 0001:000296b0       ?ideal_Opcode@loadConLNode@@EBEHXZ 0802a6b0 f i ad_x86_32_gen.obj
 0001:000296b0       ?Opcode@ConLNode@@UBEHXZ   0802a6b0 f i classes.obj
 0001:000296c0       ?bottom_type@loadConL_low_onlyNode@@UBEPBVType@@XZ 0802a6c0 f i ad_x86_32_gen.obj
 0001:000296c0       ?bottom_type@loadConLNode@@UBEPBVType@@XZ 0802a6c0 f i ad_x86_32_gen.obj
 0001:000296c0       ?bottom_type@loadConL0Node@@UBEPBVType@@XZ 0802a6c0 f i ad_x86_32_gen.obj
 0001:000296e0       ??0mulI_imm_highNode@@QAE@XZ 0802a6e0 f i ad_x86_32_gen.obj
 0001:00029710       ?rule@mulI_imm_highNode@@EBEIXZ 0802a710 f i ad_x86_32_gen.obj
 0001:00029720       ?ideal_Opcode@convL2I_regNode@@EBEHXZ 0802a720 f i ad_x86_32_gen.obj
 0001:00029720       ?ideal_Opcode@mulI_imm_RShift_high_0Node@@EBEHXZ 0802a720 f i ad_x86_32_gen.obj
 0001:00029720       ?ideal_Opcode@mulI_imm_high_0Node@@EBEHXZ 0802a720 f i ad_x86_32_gen.obj
 0001:00029720       ?opcode@directOper@@UBEIXZ 0802a720 f i ad_x86_32_clone.obj
 0001:00029720       ?ideal_Opcode@mulI_imm_highNode@@EBEHXZ 0802a720 f i ad_x86_32_gen.obj
 0001:00029720       ?ideal_Opcode@mulI_imm_RShift_highNode@@EBEHXZ 0802a720 f i ad_x86_32_gen.obj
 0001:00029720       ?Opcode@ConvL2INode@@UBEHXZ 0802a720 f i classes.obj
 0001:00029730       ??0mulI_imm_high_0Node@@QAE@XZ 0802a730 f i ad_x86_32_gen.obj
 0001:00029760       ?rule@mulI_imm_high_0Node@@EBEIXZ 0802a760 f i ad_x86_32_gen.obj
 0001:00029770       ??0mulI_imm_RShift_highNode@@QAE@XZ 0802a770 f i ad_x86_32_gen.obj
 0001:000297a0       ?rule@mulI_imm_RShift_highNode@@EBEIXZ 0802a7a0 f i ad_x86_32_gen.obj
 0001:000297b0       ??0mulI_imm_RShift_high_0Node@@QAE@XZ 0802a7b0 f i ad_x86_32_gen.obj
 0001:000297e0       ?rule@mulI_imm_RShift_high_0Node@@EBEIXZ 0802a7e0 f i ad_x86_32_gen.obj
 0001:000297f0       ??0mulI_0Node@@QAE@XZ      0802a7f0 f i ad_x86_32_gen.obj
 0001:00029820       ?rule@mulI_0Node@@EBEIXZ   0802a820 f i ad_x86_32_gen.obj
 0001:00029830       ??0mulI2LNode@@QAE@XZ      0802a830 f i ad_x86_32_gen.obj
 0001:00029860       ?rule@mulI2LNode@@EBEIXZ   0802a860 f i ad_x86_32_gen.obj
 0001:00029870       ?ideal_Opcode@mulIS_eReg_0Node@@EBEHXZ 0802a870 f i ad_x86_32_gen.obj
 0001:00029870       ?Opcode@MulLNode@@UBEHXZ   0802a870 f i classes.obj
 0001:00029870       ?mul_opcode@MulLNode@@UBEHXZ 0802a870 f i compile.obj
 0001:00029870       ?ideal_Opcode@mulI2LNode@@EBEHXZ 0802a870 f i ad_x86_32_gen.obj
 0001:00029870       ?ideal_Opcode@mulL_eRegNode@@EBEHXZ 0802a870 f i ad_x86_32_gen.obj
 0001:00029870       ?ideal_Opcode@mulI2L_0Node@@EBEHXZ 0802a870 f i ad_x86_32_gen.obj
 0001:00029870       ?ideal_Opcode@mulL_eReg_rhi0Node@@EBEHXZ 0802a870 f i ad_x86_32_gen.obj
 0001:00029870       ?ideal_Opcode@mulL_eReg_hi0Node@@EBEHXZ 0802a870 f i ad_x86_32_gen.obj
 0001:00029870       ?ideal_Opcode@mulL_eReg_lhi0Node@@EBEHXZ 0802a870 f i ad_x86_32_gen.obj
 0001:00029870       ?ideal_Opcode@mulIS_eRegNode@@EBEHXZ 0802a870 f i ad_x86_32_gen.obj
 0001:00029870       ?ideal_Opcode@mulL_eReg_conNode@@EBEHXZ 0802a870 f i ad_x86_32_gen.obj
 0001:00029880       ??0mulI2L_0Node@@QAE@XZ    0802a880 f i ad_x86_32_gen.obj
 0001:000298b0       ?rule@mulI2L_0Node@@EBEIXZ 0802a8b0 f i ad_x86_32_gen.obj
 0001:000298c0       ??0mulIS_eRegNode@@QAE@XZ  0802a8c0 f i ad_x86_32_gen.obj
 0001:000298f0       ?rule@mulIS_eRegNode@@EBEIXZ 0802a8f0 f i ad_x86_32_gen.obj
 0001:00029900       ??0mulIS_eReg_0Node@@QAE@XZ 0802a900 f i ad_x86_32_gen.obj
 0001:00029930       ?rule@mulIS_eReg_0Node@@EBEIXZ 0802a930 f i ad_x86_32_gen.obj
 0001:00029940       ??0mulL_eRegNode@@QAE@XZ   0802a940 f i ad_x86_32_gen.obj
 0001:00029970       ?rule@mulL_eRegNode@@EBEIXZ 0802a970 f i ad_x86_32_gen.obj
 0001:00029980       ??0mulL_eReg_lhi0Node@@QAE@XZ 0802a980 f i ad_x86_32_gen.obj
 0001:000299b0       ?rule@mulL_eReg_lhi0Node@@EBEIXZ 0802a9b0 f i ad_x86_32_gen.obj
 0001:000299c0       ??0mulL_eReg_rhi0Node@@QAE@XZ 0802a9c0 f i ad_x86_32_gen.obj
 0001:000299f0       ?rule@mulL_eReg_rhi0Node@@EBEIXZ 0802a9f0 f i ad_x86_32_gen.obj
 0001:00029a00       ??0mulL_eReg_hi0Node@@QAE@XZ 0802aa00 f i ad_x86_32_gen.obj
 0001:00029a30       ?rule@mulL_eReg_hi0Node@@EBEIXZ 0802aa30 f i ad_x86_32_gen.obj
 0001:00029a40       ??0mulL_eReg_conNode@@QAE@XZ 0802aa40 f i ad_x86_32_gen.obj
 0001:00029a70       ?rule@mulL_eReg_conNode@@EBEIXZ 0802aa70 f i ad_x86_32_gen.obj
 0001:00029a80       ??0divI_eRegNode@@QAE@XZ   0802aa80 f i ad_x86_32_gen.obj
 0001:00029ab0       ?rule@divI_eRegNode@@EBEIXZ 0802aab0 f i ad_x86_32_gen.obj
 0001:00029ac0       ?Opcode@DivINode@@UBEHXZ   0802aac0 f i classes.obj
 0001:00029ac0       ?opcode@stackSlotPOper@@UBEIXZ 0802aac0 f i ad_x86_32_clone.obj
 0001:00029ac0       ?ideal_Opcode@divI_eRegNode@@EBEHXZ 0802aac0 f i ad_x86_32_gen.obj
 0001:00029ad0       ??0divL_eRegNode@@QAE@XZ   0802aad0 f i ad_x86_32_gen.obj
 0001:00029b00       ?rule@divL_eRegNode@@EBEIXZ 0802ab00 f i ad_x86_32_gen.obj
 0001:00029b10       ?opcode@stackSlotIOper@@UBEIXZ 0802ab10 f i ad_x86_32_clone.obj
 0001:00029b10       ?Opcode@DivLNode@@UBEHXZ   0802ab10 f i classes.obj
 0001:00029b10       ?ideal_Opcode@divL_eRegNode@@EBEHXZ 0802ab10 f i ad_x86_32_gen.obj
 0001:00029b20       ??0divModI_eReg_divmodNode@@QAE@XZ 0802ab20 f i ad_x86_32_gen.obj
 0001:00029b50       ?rule@divModI_eReg_divmodNode@@EBEIXZ 0802ab50 f i ad_x86_32_gen.obj
 0001:00029b60       ?ideal_Opcode@divModI_eReg_divmodNode@@EBEHXZ 0802ab60 f i ad_x86_32_gen.obj
 0001:00029b60       ?Opcode@DivModINode@@UBEHXZ 0802ab60 f i classes.obj
 0001:00029b60       ?size_of@MachCallStaticJavaNode@@EBEIXZ 0802ab60 f i machnode.obj
 0001:00029b60       ?opcode@stackSlotDOper@@UBEIXZ 0802ab60 f i ad_x86_32_clone.obj
 0001:00029b70       ??0modI_eRegNode@@QAE@XZ   0802ab70 f i ad_x86_32_gen.obj
 0001:00029ba0       ?rule@modI_eRegNode@@EBEIXZ 0802aba0 f i ad_x86_32_gen.obj
 0001:00029bb0       ?Opcode@ModINode@@UBEHXZ   0802abb0 f i classes.obj
 0001:00029bb0       ?ideal_Opcode@modI_eRegNode@@EBEHXZ 0802abb0 f i ad_x86_32_gen.obj
 0001:00029bc0       ??0modL_eRegNode@@QAE@XZ   0802abc0 f i ad_x86_32_gen.obj
 0001:00029bf0       ?rule@modL_eRegNode@@EBEIXZ 0802abf0 f i ad_x86_32_gen.obj
 0001:00029c00       ?ideal_Opcode@modL_eRegNode@@EBEHXZ 0802ac00 f i ad_x86_32_gen.obj
 0001:00029c00       ?Opcode@ModLNode@@UBEHXZ   0802ac00 f i classes.obj
 0001:00029c10       ??0shlI_eReg_1Node@@QAE@XZ 0802ac10 f i ad_x86_32_gen.obj
 0001:00029c40       ?rule@shlI_eReg_1Node@@EBEIXZ 0802ac40 f i ad_x86_32_gen.obj
 0001:00029c50       ?ideal_Opcode@salI_eReg_CLNode@@EBEHXZ 0802ac50 f i ad_x86_32_gen.obj
 0001:00029c50       ?ideal_Opcode@salI_eReg_immNode@@EBEHXZ 0802ac50 f i ad_x86_32_gen.obj
 0001:00029c50       ?ideal_Opcode@shlI_eReg_1Node@@EBEHXZ 0802ac50 f i ad_x86_32_gen.obj
 0001:00029c50       ?Opcode@LShiftINode@@UBEHXZ 0802ac50 f i classes.obj
 0001:00029c60       ??0salI_eReg_immNode@@QAE@XZ 0802ac60 f i ad_x86_32_gen.obj
 0001:00029c90       ?rule@salI_eReg_immNode@@EBEIXZ 0802ac90 f i ad_x86_32_gen.obj
 0001:00029ca0       ??0salI_eReg_CLNode@@QAE@XZ 0802aca0 f i ad_x86_32_gen.obj
 0001:00029cd0       ?rule@salI_eReg_CLNode@@EBEIXZ 0802acd0 f i ad_x86_32_gen.obj
 0001:00029ce0       ??0sarI_eReg_1Node@@QAE@XZ 0802ace0 f i ad_x86_32_gen.obj
 0001:00029d10       ?rule@sarI_eReg_1Node@@EBEIXZ 0802ad10 f i ad_x86_32_gen.obj
 0001:00029d20       ?ideal_Opcode@sarI_eReg_immNode@@EBEHXZ 0802ad20 f i ad_x86_32_gen.obj
 0001:00029d20       ?ideal_Opcode@i2sNode@@EBEHXZ 0802ad20 f i ad_x86_32_gen.obj
 0001:00029d20       ?ideal_Opcode@sarI_eReg_CLNode@@EBEHXZ 0802ad20 f i ad_x86_32_gen.obj
 0001:00029d20       ?ideal_Opcode@loadS2BNode@@EBEHXZ 0802ad20 f i ad_x86_32_gen.obj
 0001:00029d20       ?ideal_Opcode@loadUS2BNode@@EBEHXZ 0802ad20 f i ad_x86_32_gen.obj
 0001:00029d20       ?Opcode@RShiftINode@@UBEHXZ 0802ad20 f i classes.obj
 0001:00029d20       ?ideal_Opcode@loadI2BNode@@EBEHXZ 0802ad20 f i ad_x86_32.obj
 0001:00029d20       ?ideal_Opcode@i2bNode@@EBEHXZ 0802ad20 f i ad_x86_32_gen.obj
 0001:00029d20       ?ideal_Opcode@sarI_eReg_1Node@@EBEHXZ 0802ad20 f i ad_x86_32_gen.obj
 0001:00029d20       ?ideal_Opcode@loadI2SNode@@EBEHXZ 0802ad20 f i ad_x86_32.obj
 0001:00029d30       ??0sarI_mem_1Node@@QAE@XZ  0802ad30 f i ad_x86_32_gen.obj
 0001:00029d60       ?rule@sarI_mem_1Node@@EBEIXZ 0802ad60 f i ad_x86_32_gen.obj
 0001:00029d70       ??0sarI_eReg_immNode@@QAE@XZ 0802ad70 f i ad_x86_32_gen.obj
 0001:00029da0       ?rule@sarI_eReg_immNode@@EBEIXZ 0802ada0 f i ad_x86_32_gen.obj
 0001:00029db0       ??0sarI_mem_immNode@@QAE@XZ 0802adb0 f i ad_x86_32_gen.obj
 0001:00029de0       ?rule@sarI_mem_immNode@@EBEIXZ 0802ade0 f i ad_x86_32_gen.obj
 0001:00029df0       ??0sarI_eReg_CLNode@@QAE@XZ 0802adf0 f i ad_x86_32_gen.obj
 0001:00029e20       ?rule@sarI_eReg_CLNode@@EBEIXZ 0802ae20 f i ad_x86_32_gen.obj
 0001:00029e30       ??0shrI_eReg_1Node@@QAE@XZ 0802ae30 f i ad_x86_32_gen.obj
 0001:00029e60       ?rule@shrI_eReg_1Node@@EBEIXZ 0802ae60 f i ad_x86_32_gen.obj
 0001:00029e70       ?ideal_Opcode@shrI_eReg_CLNode@@EBEHXZ 0802ae70 f i ad_x86_32_gen.obj
 0001:00029e70       ?ideal_Opcode@shrI_eReg_1Node@@EBEHXZ 0802ae70 f i ad_x86_32_gen.obj
 0001:00029e70       ?ideal_Opcode@shrI_eReg_immNode@@EBEHXZ 0802ae70 f i ad_x86_32_gen.obj
 0001:00029e70       ?Opcode@URShiftINode@@UBEHXZ 0802ae70 f i classes.obj
 0001:00029e80       ??0shrI_eReg_immNode@@QAE@XZ 0802ae80 f i ad_x86_32_gen.obj
 0001:00029eb0       ?rule@shrI_eReg_immNode@@EBEIXZ 0802aeb0 f i ad_x86_32_gen.obj
 0001:00029ec0       ??0i2bNode@@QAE@XZ         0802aec0 f i ad_x86_32_gen.obj
 0001:00029ef0       ?rule@i2bNode@@EBEIXZ      0802aef0 f i ad_x86_32_gen.obj
 0001:00029f00       ??0i2sNode@@QAE@XZ         0802af00 f i ad_x86_32_gen.obj
 0001:00029f30       ?rule@i2sNode@@EBEIXZ      0802af30 f i ad_x86_32_gen.obj
 0001:00029f40       ??0shrI_eReg_CLNode@@QAE@XZ 0802af40 f i ad_x86_32_gen.obj
 0001:00029f70       ?rule@shrI_eReg_CLNode@@EBEIXZ 0802af70 f i ad_x86_32_gen.obj
 0001:00029f80       ??0andI_eRegNode@@QAE@XZ   0802af80 f i ad_x86_32_gen.obj
 0001:00029fb0       ?rule@andI_eRegNode@@EBEIXZ 0802afb0 f i ad_x86_32_gen.obj
 0001:00029fc0       ?ideal_Opcode@andI_eReg_memNode@@EBEHXZ 0802afc0 f i ad_x86_32.obj
 0001:00029fc0       ?mul_opcode@AndINode@@UBEHXZ 0802afc0 f i cfgnode.obj
 0001:00029fc0       ?ideal_Opcode@andI_eReg_mem_0Node@@EBEHXZ 0802afc0 f i ad_x86_32_gen.obj
 0001:00029fc0       ?type@VM_GenCollectForPermanentAllocation@@UBE?AW4VMOp_Type@VM_Operation@@XZ 0802afc0 f i permGen.obj
 0001:00029fc0       ?ideal_Opcode@loadI2USNode@@EBEHXZ 0802afc0 f i ad_x86_32_gen.obj
 0001:00029fc0       ?Opcode@AndINode@@UBEHXZ   0802afc0 f i classes.obj
 0001:00029fc0       ?ideal_Opcode@andI_eReg_immNode@@EBEHXZ 0802afc0 f i ad_x86_32_gen.obj
 0001:00029fc0       ?opcode@immI_3Oper@@UBEIXZ 0802afc0 f i ad_x86_32_clone.obj
 0001:00029fc0       ?ideal_Opcode@loadI2UBNode@@EBEHXZ 0802afc0 f i ad_x86_32_gen.obj
 0001:00029fc0       ?ideal_Opcode@andI_eRegNode@@EBEHXZ 0802afc0 f i ad_x86_32_gen.obj
 0001:00029fd0       ??0andI_eReg_immNode@@QAE@XZ 0802afd0 f i ad_x86_32_gen.obj
 0001:0002a000       ?rule@andI_eReg_immNode@@EBEIXZ 0802b000 f i ad_x86_32_gen.obj
 0001:0002a010       ??0andI_eReg_mem_0Node@@QAE@XZ 0802b010 f i ad_x86_32_gen.obj
 0001:0002a040       ?rule@andI_eReg_mem_0Node@@EBEIXZ 0802b040 f i ad_x86_32_gen.obj
 0001:0002a050       ??0andI_mem_eRegNode@@QAE@XZ 0802b050 f i ad_x86_32_gen.obj
 0001:0002a080       ?rule@andI_mem_eRegNode@@EBEIXZ 0802b080 f i ad_x86_32_gen.obj
 0001:0002a090       ??0andI_mem_eReg_0Node@@QAE@XZ 0802b090 f i ad_x86_32_gen.obj
 0001:0002a0c0       ?rule@andI_mem_eReg_0Node@@EBEIXZ 0802b0c0 f i ad_x86_32_gen.obj
 0001:0002a0d0       ??0andI_mem_immNode@@QAE@XZ 0802b0d0 f i ad_x86_32_gen.obj
 0001:0002a100       ?rule@andI_mem_immNode@@EBEIXZ 0802b100 f i ad_x86_32_gen.obj
 0001:0002a110       ??0orI_eRegNode@@QAE@XZ    0802b110 f i ad_x86_32_gen.obj
 0001:0002a140       ?rule@orI_eRegNode@@EBEIXZ 0802b140 f i ad_x86_32_gen.obj
 0001:0002a150       ?ideal_Opcode@rolI_eReg_i8_0Node@@EBEHXZ 0802b150 f i ad_x86_32_gen.obj
 0001:0002a150       ?ideal_Opcode@rorI_eReg_i8_0Node@@EBEHXZ 0802b150 f i ad_x86_32_gen.obj
 0001:0002a150       ?ideal_Opcode@rorI_eReg_i1Node@@EBEHXZ 0802b150 f i ad_x86_32_gen.obj
 0001:0002a150       ?ideal_Opcode@rolI_eReg_Var_C0Node@@EBEHXZ 0802b150 f i ad_x86_32_gen.obj
 0001:0002a150       ?ideal_Opcode@orI_eReg_memNode@@EBEHXZ 0802b150 f i ad_x86_32.obj
 0001:0002a150       ?ideal_Opcode@rolI_eReg_Var_C32_0Node@@EBEHXZ 0802b150 f i ad_x86_32_gen.obj
 0001:0002a150       ?ideal_Opcode@rolI_eReg_Var_C32Node@@EBEHXZ 0802b150 f i ad_x86_32_gen.obj
 0001:0002a150       ?ideal_Opcode@rorI_eReg_Var_C32_0Node@@EBEHXZ 0802b150 f i ad_x86_32_gen.obj
 0001:0002a150       ?ideal_Opcode@orI_eReg_castP2X_0Node@@EBEHXZ 0802b150 f i ad_x86_32_gen.obj
 0001:0002a150       ?ideal_Opcode@rorI_eReg_i8Node@@EBEHXZ 0802b150 f i ad_x86_32_gen.obj
 0001:0002a150       ?ideal_Opcode@rorI_eReg_Var_C0_0Node@@EBEHXZ 0802b150 f i ad_x86_32_gen.obj
 0001:0002a150       ?Opcode@OrINode@@UBEHXZ    0802b150 f i classes.obj
 0001:0002a150       ?ideal_Opcode@rolI_eReg_Var_C0_0Node@@EBEHXZ 0802b150 f i ad_x86_32_gen.obj
 0001:0002a150       ?ideal_Opcode@rorI_eReg_Var_C0Node@@EBEHXZ 0802b150 f i ad_x86_32_gen.obj
 0001:0002a150       ?ideal_Opcode@rolI_eReg_i1_0Node@@EBEHXZ 0802b150 f i ad_x86_32_gen.obj
 0001:0002a150       ?add_opcode@AndINode@@UBEHXZ 0802b150 f i cfgnode.obj
 0001:0002a150       ?ideal_Opcode@rorI_eReg_i1_0Node@@EBEHXZ 0802b150 f i ad_x86_32_gen.obj
 0001:0002a150       ?ideal_Opcode@orI_eReg_castP2XNode@@EBEHXZ 0802b150 f i ad_x86_32_gen.obj
 0001:0002a150       ?ideal_Opcode@orI_eRegNode@@EBEHXZ 0802b150 f i ad_x86_32_gen.obj
 0001:0002a150       ?ideal_Opcode@rolI_eReg_i1Node@@EBEHXZ 0802b150 f i ad_x86_32_gen.obj
 0001:0002a150       ?ideal_Opcode@rorI_eReg_Var_C32Node@@EBEHXZ 0802b150 f i ad_x86_32_gen.obj
 0001:0002a150       ?ideal_Opcode@orI_eReg_immNode@@EBEHXZ 0802b150 f i ad_x86_32_gen.obj
 0001:0002a150       ?ideal_Opcode@rolI_eReg_i8Node@@EBEHXZ 0802b150 f i ad_x86_32_gen.obj
 0001:0002a150       ?ideal_Opcode@orI_eReg_mem_0Node@@EBEHXZ 0802b150 f i ad_x86_32_gen.obj
 0001:0002a160       ??0orI_eReg_castP2XNode@@QAE@XZ 0802b160 f i ad_x86_32_gen.obj
 0001:0002a190       ?rule@orI_eReg_castP2XNode@@EBEIXZ 0802b190 f i ad_x86_32_gen.obj
 0001:0002a1a0       ??0orI_eReg_castP2X_0Node@@QAE@XZ 0802b1a0 f i ad_x86_32_gen.obj
 0001:0002a1d0       ?rule@orI_eReg_castP2X_0Node@@EBEIXZ 0802b1d0 f i ad_x86_32_gen.obj
 0001:0002a1e0       ??0orI_eReg_immNode@@QAE@XZ 0802b1e0 f i ad_x86_32_gen.obj
 0001:0002a210       ?rule@orI_eReg_immNode@@EBEIXZ 0802b210 f i ad_x86_32_gen.obj
 0001:0002a220       ??0orI_eReg_mem_0Node@@QAE@XZ 0802b220 f i ad_x86_32_gen.obj
 0001:0002a250       ?rule@orI_eReg_mem_0Node@@EBEIXZ 0802b250 f i ad_x86_32_gen.obj
 0001:0002a260       ??0orI_mem_eRegNode@@QAE@XZ 0802b260 f i ad_x86_32_gen.obj
 0001:0002a290       ?rule@orI_mem_eRegNode@@EBEIXZ 0802b290 f i ad_x86_32_gen.obj
 0001:0002a2a0       ??0orI_mem_eReg_0Node@@QAE@XZ 0802b2a0 f i ad_x86_32_gen.obj
 0001:0002a2d0       ?rule@orI_mem_eReg_0Node@@EBEIXZ 0802b2d0 f i ad_x86_32_gen.obj
 0001:0002a2e0       ??0orI_mem_immNode@@QAE@XZ 0802b2e0 f i ad_x86_32_gen.obj
 0001:0002a310       ?rule@orI_mem_immNode@@EBEIXZ 0802b310 f i ad_x86_32_gen.obj
 0001:0002a320       ??0rolI_eReg_i1Node@@QAE@XZ 0802b320 f i ad_x86_32_gen.obj
 0001:0002a350       ?rule@rolI_eReg_i1Node@@EBEIXZ 0802b350 f i ad_x86_32_gen.obj
 0001:0002a360       ??0rolI_eReg_i1_0Node@@QAE@XZ 0802b360 f i ad_x86_32_gen.obj
 0001:0002a390       ?rule@rolI_eReg_i1_0Node@@EBEIXZ 0802b390 f i ad_x86_32_gen.obj
 0001:0002a3a0       ??0rolI_eReg_i8Node@@QAE@XZ 0802b3a0 f i ad_x86_32_gen.obj
 0001:0002a3d0       ?rule@rolI_eReg_i8Node@@EBEIXZ 0802b3d0 f i ad_x86_32_gen.obj
 0001:0002a3e0       ??0rolI_eReg_i8_0Node@@QAE@XZ 0802b3e0 f i ad_x86_32_gen.obj
 0001:0002a410       ?rule@rolI_eReg_i8_0Node@@EBEIXZ 0802b410 f i ad_x86_32_gen.obj
 0001:0002a420       ??0rolI_eReg_Var_C0Node@@QAE@XZ 0802b420 f i ad_x86_32_gen.obj
 0001:0002a450       ?rule@rolI_eReg_Var_C0Node@@EBEIXZ 0802b450 f i ad_x86_32_gen.obj
 0001:0002a460       ??0rolI_eReg_Var_C0_0Node@@QAE@XZ 0802b460 f i ad_x86_32_gen.obj
 0001:0002a490       ?rule@rolI_eReg_Var_C0_0Node@@EBEIXZ 0802b490 f i ad_x86_32_gen.obj
 0001:0002a4a0       ??0rolI_eReg_Var_C32Node@@QAE@XZ 0802b4a0 f i ad_x86_32_gen.obj
 0001:0002a4d0       ?rule@rolI_eReg_Var_C32Node@@EBEIXZ 0802b4d0 f i ad_x86_32_gen.obj
 0001:0002a4e0       ??0rolI_eReg_Var_C32_0Node@@QAE@XZ 0802b4e0 f i ad_x86_32_gen.obj
 0001:0002a510       ?rule@rolI_eReg_Var_C32_0Node@@EBEIXZ 0802b510 f i ad_x86_32_gen.obj
 0001:0002a520       ??0rorI_eReg_i1Node@@QAE@XZ 0802b520 f i ad_x86_32_gen.obj
 0001:0002a550       ?rule@rorI_eReg_i1Node@@EBEIXZ 0802b550 f i ad_x86_32_gen.obj
 0001:0002a560       ??0rorI_eReg_i1_0Node@@QAE@XZ 0802b560 f i ad_x86_32_gen.obj
 0001:0002a590       ?rule@rorI_eReg_i1_0Node@@EBEIXZ 0802b590 f i ad_x86_32_gen.obj
 0001:0002a5a0       ??0rorI_eReg_i8Node@@QAE@XZ 0802b5a0 f i ad_x86_32_gen.obj
 0001:0002a5d0       ?rule@rorI_eReg_i8Node@@EBEIXZ 0802b5d0 f i ad_x86_32_gen.obj
 0001:0002a5e0       ??0rorI_eReg_i8_0Node@@QAE@XZ 0802b5e0 f i ad_x86_32_gen.obj
 0001:0002a610       ?rule@rorI_eReg_i8_0Node@@EBEIXZ 0802b610 f i ad_x86_32_gen.obj
 0001:0002a620       ??0rorI_eReg_Var_C0Node@@QAE@XZ 0802b620 f i ad_x86_32_gen.obj
 0001:0002a650       ?rule@rorI_eReg_Var_C0Node@@EBEIXZ 0802b650 f i ad_x86_32_gen.obj
 0001:0002a660       ??0rorI_eReg_Var_C0_0Node@@QAE@XZ 0802b660 f i ad_x86_32_gen.obj
 0001:0002a690       ?rule@rorI_eReg_Var_C0_0Node@@EBEIXZ 0802b690 f i ad_x86_32_gen.obj
 0001:0002a6a0       ??0rorI_eReg_Var_C32Node@@QAE@XZ 0802b6a0 f i ad_x86_32_gen.obj
 0001:0002a6d0       ?rule@rorI_eReg_Var_C32Node@@EBEIXZ 0802b6d0 f i ad_x86_32_gen.obj
 0001:0002a6e0       ??0rorI_eReg_Var_C32_0Node@@QAE@XZ 0802b6e0 f i ad_x86_32_gen.obj
 0001:0002a710       ?rule@rorI_eReg_Var_C32_0Node@@EBEIXZ 0802b710 f i ad_x86_32_gen.obj
 0001:0002a720       ??0xorI_eRegNode@@QAE@XZ   0802b720 f i ad_x86_32_gen.obj
 0001:0002a750       ?rule@xorI_eRegNode@@EBEIXZ 0802b750 f i ad_x86_32_gen.obj
 0001:0002a760       ?ideal_Opcode@xorI_eReg_mem_0Node@@EBEHXZ 0802b760 f i ad_x86_32_gen.obj
 0001:0002a760       ?ideal_Opcode@xorI_eReg_immNode@@EBEHXZ 0802b760 f i ad_x86_32_gen.obj
 0001:0002a760       ?ideal_Opcode@xorI_eRegNode@@EBEHXZ 0802b760 f i ad_x86_32_gen.obj
 0001:0002a760       ?ideal_Opcode@xorI_eReg_memNode@@EBEHXZ 0802b760 f i ad_x86_32.obj
 0001:0002a760       ?ideal_Opcode@xorI_eReg_im1Node@@EBEHXZ 0802b760 f i ad_x86_32_gen.obj
 0001:0002a760       ?Opcode@XorINode@@UBEHXZ   0802b760 f i classes.obj
 0001:0002a770       ??0xorI_eReg_im1Node@@QAE@XZ 0802b770 f i ad_x86_32_gen.obj
 0001:0002a7a0       ?rule@xorI_eReg_im1Node@@EBEIXZ 0802b7a0 f i ad_x86_32_gen.obj
 0001:0002a7b0       ??0xorI_eReg_immNode@@QAE@XZ 0802b7b0 f i ad_x86_32_gen.obj
 0001:0002a7e0       ?rule@xorI_eReg_immNode@@EBEIXZ 0802b7e0 f i ad_x86_32_gen.obj
 0001:0002a7f0       ??0xorI_eReg_mem_0Node@@QAE@XZ 0802b7f0 f i ad_x86_32_gen.obj
 0001:0002a820       ?rule@xorI_eReg_mem_0Node@@EBEIXZ 0802b820 f i ad_x86_32_gen.obj
 0001:0002a830       ??0xorI_mem_eRegNode@@QAE@XZ 0802b830 f i ad_x86_32_gen.obj
 0001:0002a860       ?rule@xorI_mem_eRegNode@@EBEIXZ 0802b860 f i ad_x86_32_gen.obj
 0001:0002a870       ??0xorI_mem_eReg_0Node@@QAE@XZ 0802b870 f i ad_x86_32_gen.obj
 0001:0002a8a0       ?rule@xorI_mem_eReg_0Node@@EBEIXZ 0802b8a0 f i ad_x86_32_gen.obj
 0001:0002a8b0       ??0xorI_mem_immNode@@QAE@XZ 0802b8b0 f i ad_x86_32_gen.obj
 0001:0002a8e0       ?rule@xorI_mem_immNode@@EBEIXZ 0802b8e0 f i ad_x86_32_gen.obj
 0001:0002a8f0       ??0convI2BNode@@QAE@XZ     0802b8f0 f i ad_x86_32_gen.obj
 0001:0002a920       ?rule@convI2BNode@@EBEIXZ  0802b920 f i ad_x86_32_gen.obj
 0001:0002a930       ?Opcode@Conv2BNode@@UBEHXZ 0802b930 f i classes.obj
 0001:0002a930       ?ideal_Opcode@convI2BNode@@EBEHXZ 0802b930 f i ad_x86_32_gen.obj
 0001:0002a930       ?ideal_Opcode@convP2BNode@@EBEHXZ 0802b930 f i ad_x86_32_gen.obj
 0001:0002a930       ?opcode@flagsReg_long_EQNEOper@@UBEIXZ 0802b930 f i ad_x86_32_clone.obj
 0001:0002a940       ??0convP2BNode@@QAE@XZ     0802b940 f i ad_x86_32_gen.obj
 0001:0002a970       ?rule@convP2BNode@@EBEIXZ  0802b970 f i ad_x86_32_gen.obj
 0001:0002a980       ??0cmpLTMaskNode@@QAE@XZ   0802b980 f i ad_x86_32_gen.obj
 0001:0002a9b0       ?rule@cmpLTMaskNode@@EBEIXZ 0802b9b0 f i ad_x86_32_gen.obj
 0001:0002a9c0       ?Opcode@CmpLTMaskNode@@UBEHXZ 0802b9c0 f i classes.obj
 0001:0002a9c0       ?ideal_Opcode@cmpLTMaskNode@@EBEHXZ 0802b9c0 f i ad_x86_32_gen.obj
 0001:0002a9c0       ?ideal_Opcode@cmpLTMask0Node@@EBEHXZ 0802b9c0 f i ad_x86_32_gen.obj
 0001:0002a9c0       ?opcode@eAXRegPOper@@UBEIXZ 0802b9c0 f i ad_x86_32_clone.obj
 0001:0002a9d0       ??0cmpLTMask0Node@@QAE@XZ  0802b9d0 f i ad_x86_32_gen.obj
 0001:0002aa00       ?rule@cmpLTMask0Node@@EBEIXZ 0802ba00 f i ad_x86_32_gen.obj
 0001:0002aa10       ??0cadd_cmpLTMaskNode@@QAE@XZ 0802ba10 f i ad_x86_32_gen.obj
 0001:0002aa40       ?rule@cadd_cmpLTMaskNode@@EBEIXZ 0802ba40 f i ad_x86_32_gen.obj
 0001:0002aa50       ?less@cmpOp_commuteOper@@UBEHXZ 0802ba50 f i ad_x86_32_clone.obj
 0001:0002aa50       ?ideal_Opcode@cadd_cmpLTMask_2Node@@EBEHXZ 0802ba50 f i ad_x86_32_gen.obj
 0001:0002aa50       ?Opcode@AddINode@@UBEHXZ   0802ba50 f i classes.obj
 0001:0002aa50       ?memory_type@StorePNode@@UBE?AW4BasicType@@XZ 0802ba50 f i macro.obj
 0001:0002aa50       ?add_opcode@MulINode@@UBEHXZ 0802ba50 f i cfgnode.obj
 0001:0002aa50       ?ideal_Opcode@addI_eReg_immNode@@EBEHXZ 0802ba50 f i ad_x86_32_gen.obj
 0001:0002aa50       ?ideal_Opcode@cadd_cmpLTMaskNode@@EBEHXZ 0802ba50 f i ad_x86_32_gen.obj
 0001:0002aa50       ?ideal_Opcode@addI_eReg_memNode@@EBEHXZ 0802ba50 f i ad_x86_32.obj
 0001:0002aa50       ?ideal_Opcode@incI_eRegNode@@EBEHXZ 0802ba50 f i ad_x86_32_gen.obj
 0001:0002aa50       ?ideal_Opcode@leaI_eReg_immINode@@EBEHXZ 0802ba50 f i ad_x86_32_gen.obj
 0001:0002aa50       ?memory_type@LoadPNode@@UBE?AW4BasicType@@XZ 0802ba50 f i macro.obj
 0001:0002aa50       ?ideal_Opcode@addI_eRegNode@@EBEHXZ 0802ba50 f i ad_x86_32_gen.obj
 0001:0002aa50       ?opcode@immI_32Oper@@UBEIXZ 0802ba50 f i ad_x86_32_clone.obj
 0001:0002aa50       ?ideal_Opcode@addI_eReg_mem_0Node@@EBEHXZ 0802ba50 f i ad_x86_32_gen.obj
 0001:0002aa50       ?greater@cmpOpOper@@UBEHXZ 0802ba50 f i ad_x86_32_clone.obj
 0001:0002aa50       ?ideal_Opcode@cadd_cmpLTMask_0Node@@EBEHXZ 0802ba50 f i ad_x86_32_gen.obj
 0001:0002aa50       ?ideal_Opcode@cadd_cmpLTMask_1Node@@EBEHXZ 0802ba50 f i ad_x86_32_gen.obj
 0001:0002aa50       ?ideal_Opcode@decI_eRegNode@@EBEHXZ 0802ba50 f i ad_x86_32_gen.obj
 0001:0002aa60       ??0cadd_cmpLTMask_1Node@@QAE@XZ 0802ba60 f i ad_x86_32_gen.obj
 0001:0002aa90       ?rule@cadd_cmpLTMask_1Node@@EBEIXZ 0802ba90 f i ad_x86_32_gen.obj
 0001:0002aaa0       ??0cadd_cmpLTMask_0Node@@QAE@XZ 0802baa0 f i ad_x86_32_gen.obj
 0001:0002aad0       ?rule@cadd_cmpLTMask_0Node@@EBEIXZ 0802bad0 f i ad_x86_32_gen.obj
 0001:0002aae0       ??0cadd_cmpLTMask_2Node@@QAE@XZ 0802bae0 f i ad_x86_32_gen.obj
 0001:0002ab10       ?rule@cadd_cmpLTMask_2Node@@EBEIXZ 0802bb10 f i ad_x86_32_gen.obj
 0001:0002ab20       ??0addL_eRegNode@@QAE@XZ   0802bb20 f i ad_x86_32_gen.obj
 0001:0002ab50       ?rule@addL_eRegNode@@EBEIXZ 0802bb50 f i ad_x86_32_gen.obj
 0001:0002ab60       ?length@Store16BNode@@UBEIXZ 0802bb60 f i vectornode.obj
 0001:0002ab60       ?ideal_Opcode@addL_eReg_immNode@@EBEHXZ 0802bb60 f i ad_x86_32_gen.obj
 0001:0002ab60       ?type@VM_GC_HeapInspection@@UBE?AW4VMOp_Type@VM_Operation@@XZ 0802bb60 f i attachListener.obj
 0001:0002ab60       ?ideal_Opcode@addL_eReg_memNode@@EBEHXZ 0802bb60 f i ad_x86_32.obj
 0001:0002ab60       ?ideal_Opcode@addL_eRegNode@@EBEHXZ 0802bb60 f i ad_x86_32_gen.obj
 0001:0002ab60       ?length@Load16BNode@@UBEIXZ 0802bb60 f i vectornode.obj
 0001:0002ab60       ?stack_alignment_in_bytes@Matcher@@SAIXZ 0802bb60 f i ad_x86_32.obj
 0001:0002ab60       ?add_opcode@MulLNode@@UBEHXZ 0802bb60 f i compile.obj
 0001:0002ab60       ?jvmti_class_status@arrayKlass@@UBEHXZ 0802bb60 f i arrayKlass.obj
 0001:0002ab60       ?ideal_Opcode@addL_eReg_mem_0Node@@EBEHXZ 0802bb60 f i ad_x86_32_gen.obj
 0001:0002ab60       ?opcode@immI_1_31Oper@@UBEIXZ 0802bb60 f i ad_x86_32_clone.obj
 0001:0002ab60       ?Opcode@AddLNode@@UBEHXZ   0802bb60 f i classes.obj
 0001:0002ab70       ??0addL_eReg_immNode@@QAE@XZ 0802bb70 f i ad_x86_32_gen.obj
 0001:0002aba0       ?rule@addL_eReg_immNode@@EBEIXZ 0802bba0 f i ad_x86_32_gen.obj
 0001:0002abb0       ??0addL_eReg_mem_0Node@@QAE@XZ 0802bbb0 f i ad_x86_32_gen.obj
 0001:0002abe0       ?rule@addL_eReg_mem_0Node@@EBEIXZ 0802bbe0 f i ad_x86_32_gen.obj
 0001:0002abf0       ??0subL_eRegNode@@QAE@XZ   0802bbf0 f i ad_x86_32_gen.obj
 0001:0002ac20       ?rule@subL_eRegNode@@EBEIXZ 0802bc20 f i ad_x86_32_gen.obj
 0001:0002ac30       ?Opcode@SubLNode@@UBEHXZ   0802bc30 f i classes.obj
 0001:0002ac30       ?ideal_Opcode@subL_eReg_memNode@@EBEHXZ 0802bc30 f i ad_x86_32.obj
 0001:0002ac30       ?ideal_Opcode@subL_eReg_immNode@@EBEHXZ 0802bc30 f i ad_x86_32_gen.obj
 0001:0002ac30       ?ideal_Opcode@negL_eRegNode@@EBEHXZ 0802bc30 f i ad_x86_32_gen.obj
 0001:0002ac30       ?ideal_Opcode@subL_eRegNode@@EBEHXZ 0802bc30 f i ad_x86_32_gen.obj
 0001:0002ac40       ??0subL_eReg_immNode@@QAE@XZ 0802bc40 f i ad_x86_32_gen.obj
 0001:0002ac70       ?rule@subL_eReg_immNode@@EBEIXZ 0802bc70 f i ad_x86_32_gen.obj
 0001:0002ac80       ??0negL_eRegNode@@QAE@XZ   0802bc80 f i ad_x86_32_gen.obj
 0001:0002acb0       ?rule@negL_eRegNode@@EBEIXZ 0802bcb0 f i ad_x86_32_gen.obj
 0001:0002acc0       ??0andL_eRegNode@@QAE@XZ   0802bcc0 f i ad_x86_32_gen.obj
 0001:0002acf0       ?rule@andL_eRegNode@@EBEIXZ 0802bcf0 f i ad_x86_32_gen.obj
 0001:0002ad00       ?Opcode@AndLNode@@UBEHXZ   0802bd00 f i classes.obj
 0001:0002ad00       ?ideal_Opcode@andL_eReg_immNode@@EBEHXZ 0802bd00 f i ad_x86_32_gen.obj
 0001:0002ad00       ?ideal_Opcode@zerox_longNode@@EBEHXZ 0802bd00 f i ad_x86_32_gen.obj
 0001:0002ad00       ?ideal_Opcode@andL_eReg_memNode@@EBEHXZ 0802bd00 f i ad_x86_32.obj
 0001:0002ad00       ?mul_opcode@AndLNode@@UBEHXZ 0802bd00 f i divnode.obj
 0001:0002ad00       ?ideal_Opcode@convI2L_reg_zexNode@@EBEHXZ 0802bd00 f i ad_x86_32_gen.obj
 0001:0002ad00       ?ideal_Opcode@andL_eReg_mem_0Node@@EBEHXZ 0802bd00 f i ad_x86_32_gen.obj
 0001:0002ad00       ?type@VM_ParallelGCFailedAllocation@@UBE?AW4VMOp_Type@VM_Operation@@XZ 0802bd00 f i vmPSOperations.obj
 0001:0002ad00       ?opcode@immPOper@@UBEIXZ   0802bd00 f i ad_x86_32_clone.obj
 0001:0002ad00       ?ideal_Opcode@andL_eRegNode@@EBEHXZ 0802bd00 f i ad_x86_32_gen.obj
 0001:0002ad10       ??0andL_eReg_immNode@@QAE@XZ 0802bd10 f i ad_x86_32_gen.obj
 0001:0002ad40       ?rule@andL_eReg_immNode@@EBEIXZ 0802bd40 f i ad_x86_32_gen.obj
 0001:0002ad50       ??0andL_eReg_mem_0Node@@QAE@XZ 0802bd50 f i ad_x86_32_gen.obj
 0001:0002ad80       ?rule@andL_eReg_mem_0Node@@EBEIXZ 0802bd80 f i ad_x86_32_gen.obj
 0001:0002ad90       ??0orl_eRegNode@@QAE@XZ    0802bd90 f i ad_x86_32_gen.obj
 0001:0002adc0       ?rule@orl_eRegNode@@EBEIXZ 0802bdc0 f i ad_x86_32_gen.obj
 0001:0002add0       ?ideal_Opcode@orl_eReg_mem_0Node@@EBEHXZ 0802bdd0 f i ad_x86_32_gen.obj
 0001:0002add0       ?ideal_Opcode@orl_eReg_immNode@@EBEHXZ 0802bdd0 f i ad_x86_32_gen.obj
 0001:0002add0       ?add_opcode@AndLNode@@UBEHXZ 0802bdd0 f i divnode.obj
 0001:0002add0       ?ideal_Opcode@orl_eRegNode@@EBEHXZ 0802bdd0 f i ad_x86_32_gen.obj
 0001:0002add0       ?Opcode@OrLNode@@UBEHXZ    0802bdd0 f i classes.obj
 0001:0002add0       ?ideal_Opcode@orl_eReg_memNode@@EBEHXZ 0802bdd0 f i ad_x86_32.obj
 0001:0002ade0       ??0orl_eReg_immNode@@QAE@XZ 0802bde0 f i ad_x86_32_gen.obj
 0001:0002ae10       ?rule@orl_eReg_immNode@@EBEIXZ 0802be10 f i ad_x86_32_gen.obj
 0001:0002ae20       ??0orl_eReg_mem_0Node@@QAE@XZ 0802be20 f i ad_x86_32_gen.obj
 0001:0002ae50       ?rule@orl_eReg_mem_0Node@@EBEIXZ 0802be50 f i ad_x86_32_gen.obj
 0001:0002ae60       ??0xorl_eRegNode@@QAE@XZ   0802be60 f i ad_x86_32_gen.obj
 0001:0002ae90       ?rule@xorl_eRegNode@@EBEIXZ 0802be90 f i ad_x86_32_gen.obj
 0001:0002aea0       ?ideal_Opcode@xorl_eReg_memNode@@EBEHXZ 0802bea0 f i ad_x86_32.obj
 0001:0002aea0       ?ideal_Opcode@xorl_eReg_mem_0Node@@EBEHXZ 0802bea0 f i ad_x86_32_gen.obj
 0001:0002aea0       ?Opcode@XorLNode@@UBEHXZ   0802bea0 f i classes.obj
 0001:0002aea0       ?ideal_Opcode@xorl_eReg_immNode@@EBEHXZ 0802bea0 f i ad_x86_32_gen.obj
 0001:0002aea0       ?ideal_Opcode@xorl_eRegNode@@EBEHXZ 0802bea0 f i ad_x86_32_gen.obj
 0001:0002aea0       ?ideal_Opcode@xorl_eReg_im1Node@@EBEHXZ 0802bea0 f i ad_x86_32_gen.obj
 0001:0002aeb0       ??0xorl_eReg_im1Node@@QAE@XZ 0802beb0 f i ad_x86_32_gen.obj
 0001:0002aee0       ?rule@xorl_eReg_im1Node@@EBEIXZ 0802bee0 f i ad_x86_32_gen.obj
 0001:0002aef0       ??0xorl_eReg_immNode@@QAE@XZ 0802bef0 f i ad_x86_32_gen.obj
 0001:0002af20       ?rule@xorl_eReg_immNode@@EBEIXZ 0802bf20 f i ad_x86_32_gen.obj
 0001:0002af30       ??0xorl_eReg_mem_0Node@@QAE@XZ 0802bf30 f i ad_x86_32_gen.obj
 0001:0002af60       ?rule@xorl_eReg_mem_0Node@@EBEIXZ 0802bf60 f i ad_x86_32_gen.obj
 0001:0002af70       ??0shlL_eReg_1Node@@QAE@XZ 0802bf70 f i ad_x86_32_gen.obj
 0001:0002afa0       ?rule@shlL_eReg_1Node@@EBEIXZ 0802bfa0 f i ad_x86_32_gen.obj
 0001:0002afb0       ?ideal_Opcode@shlL_eReg_2Node@@EBEHXZ 0802bfb0 f i ad_x86_32_gen.obj
 0001:0002afb0       ?Opcode@LShiftLNode@@UBEHXZ 0802bfb0 f i classes.obj
 0001:0002afb0       ?ideal_Opcode@shlL_eReg_1_31Node@@EBEHXZ 0802bfb0 f i ad_x86_32_gen.obj
 0001:0002afb0       ?ideal_Opcode@shlL_eReg_1Node@@EBEHXZ 0802bfb0 f i ad_x86_32_gen.obj
 0001:0002afb0       ?ideal_Opcode@shlL_eReg_3Node@@EBEHXZ 0802bfb0 f i ad_x86_32_gen.obj
 0001:0002afb0       ?ideal_Opcode@shlL_eReg_32_63Node@@EBEHXZ 0802bfb0 f i ad_x86_32_gen.obj
 0001:0002afb0       ?ideal_Opcode@salL_eReg_CLNode@@EBEHXZ 0802bfb0 f i ad_x86_32_gen.obj
 0001:0002afc0       ??0shlL_eReg_2Node@@QAE@XZ 0802bfc0 f i ad_x86_32_gen.obj
 0001:0002aff0       ?rule@shlL_eReg_2Node@@EBEIXZ 0802bff0 f i ad_x86_32_gen.obj
 0001:0002b000       ??0shlL_eReg_3Node@@QAE@XZ 0802c000 f i ad_x86_32_gen.obj
 0001:0002b030       ?rule@shlL_eReg_3Node@@EBEIXZ 0802c030 f i ad_x86_32_gen.obj
 0001:0002b040       ??0shlL_eReg_1_31Node@@QAE@XZ 0802c040 f i ad_x86_32_gen.obj
 0001:0002b070       ?rule@shlL_eReg_1_31Node@@EBEIXZ 0802c070 f i ad_x86_32_gen.obj
 0001:0002b080       ??0shlL_eReg_32_63Node@@QAE@XZ 0802c080 f i ad_x86_32_gen.obj
 0001:0002b0b0       ?rule@shlL_eReg_32_63Node@@EBEIXZ 0802c0b0 f i ad_x86_32_gen.obj
 0001:0002b0c0       ??0salL_eReg_CLNode@@QAE@XZ 0802c0c0 f i ad_x86_32_gen.obj
 0001:0002b0f0       ?rule@salL_eReg_CLNode@@EBEIXZ 0802c0f0 f i ad_x86_32_gen.obj
 0001:0002b100       ??0shrL_eReg_1_31Node@@QAE@XZ 0802c100 f i ad_x86_32_gen.obj
 0001:0002b130       ?rule@shrL_eReg_1_31Node@@EBEIXZ 0802c130 f i ad_x86_32_gen.obj
 0001:0002b140       ?Opcode@URShiftLNode@@UBEHXZ 0802c140 f i classes.obj
 0001:0002b140       ?ideal_Opcode@shrL_eReg_CLNode@@EBEHXZ 0802c140 f i ad_x86_32_gen.obj
 0001:0002b140       ?ideal_Opcode@shrL_eReg_1_31Node@@EBEHXZ 0802c140 f i ad_x86_32_gen.obj
 0001:0002b140       ?ideal_Opcode@shrL_eReg_32_63Node@@EBEHXZ 0802c140 f i ad_x86_32_gen.obj
 0001:0002b150       ??0shrL_eReg_32_63Node@@QAE@XZ 0802c150 f i ad_x86_32_gen.obj
 0001:0002b180       ?rule@shrL_eReg_32_63Node@@EBEIXZ 0802c180 f i ad_x86_32_gen.obj
 0001:0002b190       ??0shrL_eReg_CLNode@@QAE@XZ 0802c190 f i ad_x86_32_gen.obj
 0001:0002b1c0       ?rule@shrL_eReg_CLNode@@EBEIXZ 0802c1c0 f i ad_x86_32_gen.obj
 0001:0002b1d0       ??0sarL_eReg_1_31Node@@QAE@XZ 0802c1d0 f i ad_x86_32_gen.obj
 0001:0002b200       ?rule@sarL_eReg_1_31Node@@EBEIXZ 0802c200 f i ad_x86_32_gen.obj
 0001:0002b210       ?ideal_Opcode@sarL_eReg_32_63Node@@EBEHXZ 0802c210 f i ad_x86_32_gen.obj
 0001:0002b210       ?ideal_Opcode@sarL_eReg_CLNode@@EBEHXZ 0802c210 f i ad_x86_32_gen.obj
 0001:0002b210       ?ideal_Opcode@sarL_eReg_1_31Node@@EBEHXZ 0802c210 f i ad_x86_32_gen.obj
 0001:0002b210       ?Opcode@RShiftLNode@@UBEHXZ 0802c210 f i classes.obj
 0001:0002b220       ??0sarL_eReg_32_63Node@@QAE@XZ 0802c220 f i ad_x86_32_gen.obj
 0001:0002b250       ?rule@sarL_eReg_32_63Node@@EBEIXZ 0802c250 f i ad_x86_32_gen.obj
 0001:0002b260       ??0sarL_eReg_CLNode@@QAE@XZ 0802c260 f i ad_x86_32_gen.obj
 0001:0002b290       ?rule@sarL_eReg_CLNode@@EBEIXZ 0802c290 f i ad_x86_32_gen.obj
 0001:0002b2a0       ??0cmpD_cc_P6Node@@QAE@XZ  0802c2a0 f i ad_x86_32_gen.obj
 0001:0002b2d0       ??0cmpD_cc_P6CFNode@@QAE@XZ 0802c2d0 f i ad_x86_32_gen.obj
 0001:0002b300       ??0cmpD_ccNode@@QAE@XZ     0802c300 f i ad_x86_32_gen.obj
 0001:0002b330       ??0cmpD_0Node@@QAE@XZ      0802c330 f i ad_x86_32_gen.obj
 0001:0002b360       ?rule@cmpD_0Node@@EBEIXZ   0802c360 f i ad_x86_32_gen.obj
 0001:0002b370       ?ideal_Opcode@cmpD_regNode@@EBEHXZ 0802c370 f i ad_x86_32_gen.obj
 0001:0002b370       ?ideal_Opcode@cmpD_0Node@@EBEHXZ 0802c370 f i ad_x86_32_gen.obj
 0001:0002b370       ?ideal_Opcode@cmpXD_regmemNode@@EBEHXZ 0802c370 f i ad_x86_32.obj
 0001:0002b370       ?ideal_Opcode@cmpXD_regNode@@EBEHXZ 0802c370 f i ad_x86_32_gen.obj
 0001:0002b370       ?Opcode@CmpD3Node@@UBEHXZ  0802c370 f i classes.obj
 0001:0002b370       ?type@VM_Exit@@UBE?AW4VMOp_Type@VM_Operation@@XZ 0802c370 f i java.obj
 0001:0002b370       ?opcode@anyRegPOper@@UBEIXZ 0802c370 f i ad_x86_32_clone.obj
 0001:0002b380       ??0cmpD_regNode@@QAE@XZ    0802c380 f i ad_x86_32_gen.obj
 0001:0002b3b0       ?rule@cmpD_regNode@@EBEIXZ 0802c3b0 f i ad_x86_32_gen.obj
 0001:0002b3c0       ??0cmpXD_ccNode@@QAE@XZ    0802c3c0 f i ad_x86_32_gen.obj
 0001:0002b3f0       ??0cmpXD_ccCFNode@@QAE@XZ  0802c3f0 f i ad_x86_32_gen.obj
 0001:0002b420       ??0cmpXD_regNode@@QAE@XZ   0802c420 f i ad_x86_32_gen.obj
 0001:0002b450       ?rule@cmpXD_regNode@@EBEIXZ 0802c450 f i ad_x86_32_gen.obj
 0001:0002b460       ??0subD_regNode@@QAE@XZ    0802c460 f i ad_x86_32_gen.obj
 0001:0002b490       ?rule@subD_regNode@@EBEIXZ 0802c490 f i ad_x86_32_gen.obj
 0001:0002b4a0       ?ideal_Opcode@subXD_memNode@@EBEHXZ 0802c4a0 f i ad_x86_32.obj
 0001:0002b4a0       ?ideal_Opcode@subXD_immNode@@EBEHXZ 0802c4a0 f i ad_x86_32_gen.obj
 0001:0002b4a0       ?ideal_Opcode@subXD_regNode@@EBEHXZ 0802c4a0 f i ad_x86_32_gen.obj
 0001:0002b4a0       ?Opcode@SubDNode@@UBEHXZ   0802c4a0 f i classes.obj
 0001:0002b4a0       ?ideal_Opcode@subD_reg_memNode@@EBEHXZ 0802c4a0 f i ad_x86_32.obj
 0001:0002b4a0       ?ideal_Opcode@subD_mulD_regNode@@EBEHXZ 0802c4a0 f i ad_x86_32_gen.obj
 0001:0002b4a0       ?ideal_Opcode@subD_regNode@@EBEHXZ 0802c4a0 f i ad_x86_32_gen.obj
 0001:0002b4b0       ??0subD_reg_roundNode@@QAE@XZ 0802c4b0 f i ad_x86_32_gen.obj
 0001:0002b4e0       ?rule@subD_reg_roundNode@@EBEIXZ 0802c4e0 f i ad_x86_32_gen.obj
 0001:0002b4f0       ?Opcode@RoundDoubleNode@@UBEHXZ 0802c4f0 f i classes.obj
 0001:0002b4f0       ?ideal_Opcode@addD_reg_imm_roundNode@@EBEHXZ 0802c4f0 f i ad_x86_32_gen.obj
 0001:0002b4f0       ?ideal_Opcode@subD_reg_roundNode@@EBEHXZ 0802c4f0 f i ad_x86_32_gen.obj
 0001:0002b4f0       ?ideal_Opcode@roundDouble_mem_regNode@@EBEHXZ 0802c4f0 f i ad_x86_32_expand.obj
 0001:0002b4f0       ?ideal_Opcode@addD_reg_roundNode@@EBEHXZ 0802c4f0 f i ad_x86_32_gen.obj
 0001:0002b4f0       ?ideal_Opcode@divD_reg_roundNode@@EBEHXZ 0802c4f0 f i ad_x86_32_gen.obj
 0001:0002b500       ??0absD_regNode@@QAE@XZ    0802c500 f i ad_x86_32_gen.obj
 0001:0002b530       ??0absXD_regNode@@QAE@XZ   0802c530 f i ad_x86_32_gen.obj
 0001:0002b560       ??0negD_regNode@@QAE@XZ    0802c560 f i ad_x86_32_gen.obj
 0001:0002b590       ?ideal_Opcode@negD_regNode@@EBEHXZ 0802c590 f i ad_x86_32_gen.obj
