 ioser12

 Timestamp is 4cfac35e (Sat Dec 04 14:40:30 2010)

 Preferred load address is 10000000

 Start         Length     Name                   Class
 0001:00000000 00000f48H .text                   CODE
 0002:00000000 0000002cH .idata$5                DATA
 0002:00000030 00000340H .rdata                  DATA
 0002:00000370 00000080H .rdata$debug            DATA
 0002:000003f0 00000004H .rdata$sxdata           DATA
 0002:000003f4 00000004H .rtc$IAA                DATA
 0002:000003f8 00000004H .rtc$IZZ                DATA
 0002:000003fc 00000004H .rtc$TAA                DATA
 0002:00000400 00000004H .rtc$TZZ                DATA
 0002:00000404 00000028H .idata$2                DATA
 0002:0000042c 00000014H .idata$3                DATA
 0002:00000440 0000002cH .idata$4                DATA
 0002:0000046c 000000a2H .idata$6                DATA
 0002:00000510 00000f34H .edata                  DATA
 0003:00000000 00000004H .CRT$XCA                DATA
 0003:00000004 00000004H .CRT$XCZ                DATA
 0003:00000008 00000004H .CRT$XIA                DATA
 0003:0000000c 00000004H .CRT$XIZ                DATA
 0003:00000010 00000024H .data                   DATA
 0003:00000034 00000014H .bss                    DATA
 0004:00000000 00000058H .rsrc$01                DATA
 0004:00000060 00000350H .rsrc$02                DATA

  Address         Publics by Value              Rva+Base     Lib:Object

 0000:00000000       __except_list              00000000     <absolute>
 0000:00000001       ___safe_se_handler_count   00000001     <absolute>
 0000:00009876       __fltused                  00009876     <absolute>
 0000:00009876       __ldused                   00009876     <absolute>
 0001:00000000       _Java_com_sun_corba_se_internal_io_LibraryManager_getMajorVersion@8 10001000 f   ioser.obj
 0001:00000006       _Java_com_sun_corba_se_internal_io_LibraryManager_getMinorVersion@8 10001006 f   ioser.obj
 0001:0000000c       _Java_com_sun_corba_se_internal_io_LibraryManager_setEnableOverride@16 1000100c f   ioser.obj
 0001:0000004e       _Java_com_sun_corba_se_internal_io_IIOPInputStream_throwExceptionType@16 1000104e f   ioser.obj
 0001:0000004e       _Java_com_sun_corba_se_internal_io_IIOPOutputStream_throwExceptionType@16 1000104e f   ioser.obj
 0001:00000083       _Java_com_sun_corba_se_internal_io_IIOPInputStream_allocateNewObject@16 10001083 f   ioser.obj
 0001:000000b5       _Java_com_sun_corba_se_internal_io_IIOPInputStream_loadClass@16 100010b5 f   ioser.obj
 0001:000000ba       _Java_com_sun_corba_se_internal_io_ObjectStreamClass_hasStaticInitializer@12 100010ba f   ioser.obj
 0001:00000146       _Java_com_sun_corba_se_internal_io_IIOPInputStream_readObject@20 10001146 f   ioser.obj
 0001:000001b3       _Java_com_sun_corba_se_internal_io_IIOPOutputStream_writeObject@20 100011b3 f   ioser.obj
 0001:00000220       _Java_com_sun_corba_se_internal_io_IIOPOutputStream_getObjectField@24 10001220 f   ioser.obj
 0001:0000028a       _Java_com_sun_corba_se_internal_io_IIOPOutputStream_getBooleanField@24 1000128a f   ioser.obj
 0001:000002f4       _Java_com_sun_corba_se_internal_io_IIOPOutputStream_getByteField@24 100012f4 f   ioser.obj
 0001:0000035e       _Java_com_sun_corba_se_internal_io_IIOPOutputStream_getCharField@24 1000135e f   ioser.obj
 0001:000003c8       _Java_com_sun_corba_se_internal_io_IIOPOutputStream_getShortField@24 100013c8 f   ioser.obj
 0001:00000432       _Java_com_sun_corba_se_internal_io_IIOPOutputStream_getIntField@24 10001432 f   ioser.obj
 0001:0000049c       _Java_com_sun_corba_se_internal_io_IIOPOutputStream_getLongField@24 1000149c f   ioser.obj
 0001:00000506       _Java_com_sun_corba_se_internal_io_IIOPOutputStream_getFloatField@24 10001506 f   ioser.obj
 0001:00000570       _Java_com_sun_corba_se_internal_io_IIOPOutputStream_getDoubleField@24 10001570 f   ioser.obj
 0001:000005da       _Java_com_sun_corba_se_internal_io_IIOPInputStream_setObjectField@28 100015da f   ioser.obj
 0001:00000647       _Java_com_sun_corba_se_internal_io_IIOPInputStream_setBooleanField@28 10001647 f   ioser.obj
 0001:000006b4       _Java_com_sun_corba_se_internal_io_IIOPInputStream_setByteField@28 100016b4 f   ioser.obj
 0001:00000721       _Java_com_sun_corba_se_internal_io_IIOPInputStream_setCharField@28 10001721 f   ioser.obj
 0001:0000078e       _Java_com_sun_corba_se_internal_io_IIOPInputStream_setShortField@28 1000178e f   ioser.obj
 0001:000007fb       _Java_com_sun_corba_se_internal_io_IIOPInputStream_setIntField@28 100017fb f   ioser.obj
 0001:00000868       _Java_com_sun_corba_se_internal_io_IIOPInputStream_setLongField@32 10001868 f   ioser.obj
 0001:000008d8       _Java_com_sun_corba_se_internal_io_IIOPInputStream_setFloatField@28 100018d8 f   ioser.obj
 0001:00000949       _Java_com_sun_corba_se_internal_io_IIOPInputStream_setDoubleField@32 10001949 f   ioser.obj
 0001:000009bb       _Java_com_sun_corba_se_internal_util_JDKClassLoader_specialLoadClass@20 100019bb f   ioser.obj
 0001:00000a15       _Java_com_sun_corba_se_internal_io_IIOPOutputStream_getObjectFieldOpt@20 10001a15 f   ioser.obj
 0001:00000a2d       _Java_com_sun_corba_se_internal_io_IIOPOutputStream_getBooleanFieldOpt@20 10001a2d f   ioser.obj
 0001:00000a45       _Java_com_sun_corba_se_internal_io_IIOPOutputStream_getByteFieldOpt@20 10001a45 f   ioser.obj
 0001:00000a5d       _Java_com_sun_corba_se_internal_io_IIOPOutputStream_getCharFieldOpt@20 10001a5d f   ioser.obj
 0001:00000a75       _Java_com_sun_corba_se_internal_io_IIOPOutputStream_getShortFieldOpt@20 10001a75 f   ioser.obj
 0001:00000a8d       _Java_com_sun_corba_se_internal_io_IIOPOutputStream_getIntFieldOpt@20 10001a8d f   ioser.obj
 0001:00000aa5       _Java_com_sun_corba_se_internal_io_IIOPOutputStream_getLongFieldOpt@20 10001aa5 f   ioser.obj
 0001:00000abd       _Java_com_sun_corba_se_internal_io_IIOPOutputStream_getFloatFieldOpt@20 10001abd f   ioser.obj
 0001:00000ad5       _Java_com_sun_corba_se_internal_io_IIOPOutputStream_getDoubleFieldOpt@20 10001ad5 f   ioser.obj
 0001:00000aed       _Java_com_sun_corba_se_internal_io_IIOPInputStream_setObjectFieldOpt@24 10001aed f   ioser.obj
 0001:00000b09       _Java_com_sun_corba_se_internal_io_IIOPInputStream_setBooleanFieldOpt@24 10001b09 f   ioser.obj
 0001:00000b25       _Java_com_sun_corba_se_internal_io_IIOPInputStream_setByteFieldOpt@24 10001b25 f   ioser.obj
 0001:00000b41       _Java_com_sun_corba_se_internal_io_IIOPInputStream_setCharFieldOpt@24 10001b41 f   ioser.obj
 0001:00000b5d       _Java_com_sun_corba_se_internal_io_IIOPInputStream_setShortFieldOpt@24 10001b5d f   ioser.obj
 0001:00000b79       _Java_com_sun_corba_se_internal_io_IIOPInputStream_setIntFieldOpt@24 10001b79 f   ioser.obj
 0001:00000b95       _Java_com_sun_corba_se_internal_io_IIOPInputStream_setLongFieldOpt@28 10001b95 f   ioser.obj
 0001:00000bb4       _Java_com_sun_corba_se_internal_io_IIOPInputStream_setFloatFieldOpt@24 10001bb4 f   ioser.obj
 0001:00000bd4       _Java_com_sun_corba_se_internal_io_IIOPInputStream_setDoubleFieldOpt@28 10001bd4 f   ioser.obj
 0001:00000bf5       _Java_com_sun_corba_se_internal_io_ObjectStreamField_getFieldIDNative@20 10001bf5 f   ioser.obj
 0001:00000c60       __CRT_INIT@12              10001c60 f   MSVCRT:crtdll.obj
 0001:00000d1e       __DllMainCRTStartup@12     10001d1e f   MSVCRT:crtdll.obj
 0001:00000e02       __initterm                 10001e02 f   MSVCRT:MSVCR71.dll
 0001:00000e08       __onexit                   10001e08 f   MSVCRT:atonexit.obj
 0001:00000e2e       _atexit                    10001e2e f   MSVCRT:atonexit.obj
 0001:00000e40       __RTC_Initialize           10001e40 f   MSVCRT:initsect.obj
 0001:00000e84       __RTC_Terminate            10001e84 f   MSVCRT:initsect.obj
 0001:00000ec8       ___CppXcptFilter           10001ec8 f   MSVCRT:MSVCR71.dll
 0001:00000ece       _DllMain@12                10001ece f   MSVCRT:dllmain.obj
 0001:00000ef0       __SEH_prolog               10001ef0 f   MSVCRT:sehprolg.obj
 0001:00000f2b       __SEH_epilog               10001f2b f   MSVCRT:sehprolg.obj
 0001:00000f3c       __except_handler3          10001f3c f   MSVCRT:MSVCR71.dll
 0001:00000f42       ___dllonexit               10001f42 f   MSVCRT:MSVCR71.dll
 0002:00000000       __imp__DisableThreadLibraryCalls@4 10002000     kernel32:KERNEL32.dll
 0002:00000004       \177KERNEL32_NULL_THUNK_DATA 10002004     kernel32:KERNEL32.dll
 0002:00000008       __imp___adjust_fdiv        10002008     MSVCRT:MSVCR71.dll
 0002:0000000c       __imp____CppXcptFilter     1000200c     MSVCRT:MSVCR71.dll
 0002:00000010       __imp___initterm           10002010     MSVCRT:MSVCR71.dll
 0002:00000014       __imp____dllonexit         10002014     MSVCRT:MSVCR71.dll
 0002:00000018       __imp___onexit             10002018     MSVCRT:MSVCR71.dll
 0002:0000001c       __imp___except_handler3    1000201c     MSVCRT:MSVCR71.dll
 0002:00000020       __imp__malloc              10002020     MSVCRT:MSVCR71.dll
 0002:00000024       __imp__free                10002024     MSVCRT:MSVCR71.dll
 0002:00000028       \177MSVCR71_NULL_THUNK_DATA 10002028     MSVCRT:MSVCR71.dll
 0002:0000004c       ??_C@_0DD@IPFNDEJG@Palo?5Alto?0?5CA?5?594303?0?5U?4S?4A?4?5?5Al@ 1000204c     ioser.obj
 0002:00000080       ??_C@_0EB@MBDGHHGA@Copyright?51998?91999?5Sun?5Microsys@ 10002080     ioser.obj
 0002:000000c8       ??_C@_0EC@IOKHHBE@disclosure?5restricted?5by?5GSA?5ADP@ 100020c8     ioser.obj
 0002:0000010c       ??_C@_0DM@JAIOJIGK@US?5Government?5Users?5Restricted?5R@ 1000210c     ioser.obj
 0002:00000148       ??_C@_0DD@JBAHOOHF@Copyright?5IBM?5Corp?4?51998?51999?5?5A@ 10002148     ioser.obj
 0002:0000017c       ??_C@_0O@OFIIEFCI@RMI?9IIOP?5v1?40?$AA@ 1000217c     ioser.obj
 0002:0000018c       ??_C@_0CN@FJEGCLEH@Licensed?5Materials?5?9?5Property?5of@ 1000218c     ioser.obj
 0002:000001bc       ??_C@_0BN@IJLKCBFK@enableSubclassImplementation?$AA@ 100021bc     ioser.obj
 0002:000001dc       ??_C@_01POHCFINO@Z?$AA@    100021dc     ioser.obj
 0002:000001e0       ??_C@_06FALKBLGB@?$DMinit?$DO?$AA@ 100021e0     ioser.obj
 0002:000001e8       ??_C@_03GAEACAIP@?$CI?$CJV?$AA@ 100021e8     ioser.obj
 0002:000001ec       ??_C@_08JOGLKNJI@?$DMclinit?$DO?$AA@ 100021ec     ioser.obj
 0002:000001f8       ??_C@_0DB@LBJGPHEF@Serializable?5readObject?5method?5f@ 100021f8     ioser.obj
 0002:0000022c       ??_C@_0BE@EBAPEBGJ@java?1io?1IOException?$AA@ 1000222c     ioser.obj
 0002:00000240       ??_C@_0L@DDIGFLCE@readObject?$AA@ 10002240     ioser.obj
 0002:0000024c       ??_C@_0BP@EPNDCMHH@?$CILjava?1io?1ObjectInputStream?$DL?$CJV?$AA@ 1000224c     ioser.obj
 0002:0000026c       ??_C@_0M@EDMHKDPC@writeObject?$AA@ 1000226c     ioser.obj
 0002:00000278       ??_C@_0CA@OCMPEAGM@?$CILjava?1io?1ObjectOutputStream?$DL?$CJV?$AA@ 10002278     ioser.obj
 0002:00000298       ??_C@_0L@KPBPDPAH@loadClass0?$AA@ 10002298     ioser.obj
 0002:000002a4       ??_C@_0DH@OIAMBJAH@?$CILjava?1lang?1Class?$DLLjava?1lang?1Str@ 100022a4     ioser.obj
 0002:000002dc       ??_C@_0BK@EHMPBIJG@java?1io?1ObjectInputStream?$AA@ 100022dc     ioser.obj
 0002:00000328       __load_config_used         10002328     MSVCRT:loadcfg.obj
 0002:000003f0       ___safe_se_handler_table   100023f0     <linker-defined>
 0002:000003f4       ___rtc_iaa                 100023f4     MSVCRT:initsect.obj
 0002:000003f8       ___rtc_izz                 100023f8     MSVCRT:initsect.obj
 0002:000003fc       ___rtc_taa                 100023fc     MSVCRT:initsect.obj
 0002:00000400       ___rtc_tzz                 10002400     MSVCRT:initsect.obj
 0002:00000404       __IMPORT_DESCRIPTOR_MSVCR71 10002404     MSVCRT:MSVCR71.dll
 0002:00000418       __IMPORT_DESCRIPTOR_KERNEL32 10002418     kernel32:KERNEL32.dll
 0002:0000042c       __NULL_IMPORT_DESCRIPTOR   1000242c     MSVCRT:MSVCR71.dll
 0003:00000000       ___xc_a                    10004000     MSVCRT:cinitexe.obj
 0003:00000004       ___xc_z                    10004004     MSVCRT:cinitexe.obj
 0003:00000008       ___xi_a                    10004008     MSVCRT:cinitexe.obj
 0003:0000000c       ___xi_z                    1000400c     MSVCRT:cinitexe.obj
 0003:00000030       ___security_cookie         10004030     MSVCRT:seccook.obj
 0003:00000038       __adjust_fdiv              10004038     <common>
 0003:0000003c       ___onexitend               1000403c     <common>
 0003:00000040       ___onexitbegin             10004040     <common>
 0003:00000044       __pRawDllMain              10004044     <common>

 entry point at        0001:00000d1e

 Static symbols

