 management

 Timestamp is 4cfabeb3 (Sat Dec 04 14:20:35 2010)

 Preferred load address is 10000000

 Start         Length     Name                   Class
 0001:00000000 000016fcH .text                   CODE
 0002:00000000 000000a8H .idata$5                DATA
 0002:000000b0 000006e8H .rdata                  DATA
 0002:00000798 0000007fH .rdata$debug            DATA
 0002:00000820 00000004H .rdata$sxdata           DATA
 0002:00000824 00000004H .rtc$IAA                DATA
 0002:00000828 00000004H .rtc$IZZ                DATA
 0002:0000082c 00000004H .rtc$TAA                DATA
 0002:00000830 00000004H .rtc$TZZ                DATA
 0002:00000834 00000064H .idata$2                DATA
 0002:00000898 00000014H .idata$3                DATA
 0002:000008ac 000000a8H .idata$4                DATA
 0002:00000954 0000033aH .idata$6                DATA
 0002:00000c90 00001524H .edata                  DATA
 0003:00000000 00000004H .CRT$XCA                DATA
 0003:00000004 00000004H .CRT$XCZ                DATA
 0003:00000008 00000004H .CRT$XIA                DATA
 0003:0000000c 00000004H .CRT$XIZ                DATA
 0003:00000010 00000044H .data                   DATA
 0003:00000054 0000006cH .bss                    DATA
 0004:00000000 00000058H .rsrc$01                DATA
 0004:00000060 00000360H .rsrc$02                DATA

  Address         Publics by Value              Rva+Base     Lib:Object

 0000:00000000       __except_list              00000000     <absolute>
 0000:00000001       ___safe_se_handler_count   00000001     <absolute>
 0000:00009876       __ldused                   00009876     <absolute>
 0000:00009876       __fltused                  00009876     <absolute>
 0001:00000000       _Java_sun_management_ClassLoadingImpl_setVerboseClass@12 10001000 f   ClassLoadingImpl.obj
 0001:00000243       _Java_sun_management_FileSystemImpl_init0@8 10001243 f   FileSystemImpl.obj
 0001:00000328       _Java_sun_management_FileSystemImpl_isSecuritySupported0@12 10001328 f   FileSystemImpl.obj
 0001:0000037b       _Java_sun_management_FileSystemImpl_isAccessUserOnly0@12 1000137b f   FileSystemImpl.obj
 0001:00000418       _Java_sun_management_Flag_getInternalFlagCount@8 10001418 f   Flag.obj
 0001:0000042b       _Java_sun_management_Flag_getAllFlagNames@8 1000142b f   Flag.obj
 0001:00000460       _Java_sun_management_Flag_initialize@8 10001460 f   Flag.obj
 0001:000004df       _Java_sun_management_Flag_getFlags@20 100014df f   Flag.obj
 0001:00000697       _Java_sun_management_Flag_setLongValue@20 10001697 f   Flag.obj
 0001:000006b5       _Java_sun_management_Flag_setBooleanValue@16 100016b5 f   Flag.obj
 0001:000006db       _Java_sun_management_Flag_setStringValue@16 100016db f   Flag.obj
 0001:000006fc       _Java_sun_management_GarbageCollectorImpl_getCollectionCount@8 100016fc f   GarbageCollectorImpl.obj
 0001:00000711       _Java_sun_management_GarbageCollectorImpl_getCollectionTime@8 10001711 f   GarbageCollectorImpl.obj
 0001:00000726       _Java_sun_management_GcInfoBuilder_getNumGcExtAttributes@12 10001726 f   GcInfoBuilder.obj
 0001:00000757       _Java_sun_management_GcInfoBuilder_fillGcAttributeInfo@28 10001757 f   GcInfoBuilder.obj
 0001:00000893       _Java_sun_management_GcInfoBuilder_getLastGcInfo0@32 10001893 f   GcInfoBuilder.obj
 0001:00000ada       _Java_sun_management_HotSpotDiagnostic_dumpHeap@16 10001ada f   HotSpotDiagnostic.obj
 0001:00000af1       _Java_sun_management_HotspotThread_getInternalThreadCount@8 10001af1 f   HotspotThread.obj
 0001:00000b04       _Java_sun_management_HotspotThread_getInternalThreadTimes0@16 10001b04 f   HotspotThread.obj
 0001:00000b1b       _Java_sun_management_MemoryImpl_setVerboseGC@12 10001b1b f   MemoryImpl.obj
 0001:00000b30       _Java_sun_management_MemoryImpl_getMemoryPools0@8 10001b30 f   MemoryImpl.obj
 0001:00000b41       _Java_sun_management_MemoryImpl_getMemoryManagers0@8 10001b41 f   MemoryImpl.obj
 0001:00000b52       _Java_sun_management_MemoryImpl_getMemoryUsage0@12 10001b52 f   MemoryImpl.obj
 0001:00000b65       _Java_sun_management_MemoryManagerImpl_getMemoryPools0@8 10001b65 f   MemoryManagerImpl.obj
 0001:00000b90       _Java_sun_management_MemoryPoolImpl_getMemoryManagers0@8 10001b90 f   MemoryPoolImpl.obj
 0001:00000bbb       _Java_sun_management_MemoryPoolImpl_getUsage0@8 10001bbb f   MemoryPoolImpl.obj
 0001:00000be6       _Java_sun_management_MemoryPoolImpl_getPeakUsage0@8 10001be6 f   MemoryPoolImpl.obj
 0001:00000c11       _Java_sun_management_MemoryPoolImpl_setUsageThreshold0@24 10001c11 f   MemoryPoolImpl.obj
 0001:00000c76       _Java_sun_management_MemoryPoolImpl_setCollectionThreshold0@24 10001c76 f   MemoryPoolImpl.obj
 0001:00000cdb       _Java_sun_management_MemoryPoolImpl_resetPeakUsage0@8 10001cdb f   MemoryPoolImpl.obj
 0001:00000cfb       _Java_sun_management_MemoryPoolImpl_setPoolUsageSensor@12 10001cfb f   MemoryPoolImpl.obj
 0001:00000d17       _Java_sun_management_MemoryPoolImpl_setPoolCollectionSensor@12 10001d17 f   MemoryPoolImpl.obj
 0001:00000d33       _Java_sun_management_MemoryPoolImpl_getCollectionUsage0@8 10001d33 f   MemoryPoolImpl.obj
 0001:00000d3b       _Java_sun_management_ThreadImpl_setThreadContentionMonitoringEnabled0@12 10001d3b f   ThreadImpl.obj
 0001:00000d50       _Java_sun_management_ThreadImpl_setThreadCpuTimeEnabled0@12 10001d50 f   ThreadImpl.obj
 0001:00000d65       _Java_sun_management_ThreadImpl_getThreadInfo0@20 10001d65 f   ThreadImpl.obj
 0001:00000d80       _Java_sun_management_ThreadImpl_getThreads@8 10001d80 f   ThreadImpl.obj
 0001:00000d85       _Java_sun_management_ThreadImpl_getThreadTotalCpuTime0@16 10001d85 f   ThreadImpl.obj
 0001:00000d9e       _Java_sun_management_ThreadImpl_getThreadUserCpuTime0@16 10001d9e f   ThreadImpl.obj
 0001:00000db7       _Java_sun_management_ThreadImpl_findMonitorDeadlockedThreads0@8 10001db7 f   ThreadImpl.obj
 0001:00000dc6       _Java_sun_management_ThreadImpl_findDeadlockedThreads0@8 10001dc6 f   ThreadImpl.obj
 0001:00000dd7       _Java_sun_management_ThreadImpl_resetPeakThreadCount0@8 10001dd7 f   ThreadImpl.obj
 0001:00000df6       _Java_sun_management_ThreadImpl_resetContentionTimes0@16 10001df6 f   ThreadImpl.obj
 0001:00000e12       _Java_sun_management_ThreadImpl_dumpThreads0@20 10001e12 f   ThreadImpl.obj
 0001:00000e30       _Java_sun_management_VMManagementImpl_getVersion0@8 10001e30 f   VMManagementImpl.obj
 0001:00000e9f       _Java_sun_management_VMManagementImpl_initOptionalSupportFields@8 10001e9f f   VMManagementImpl.obj
 0001:00000f6f       _Java_sun_management_VMManagementImpl_getVmArguments0@8 10001f6f f   VMManagementImpl.obj
 0001:00000f7e       _Java_sun_management_VMManagementImpl_getTotalClassCount@8 10001f7e f   VMManagementImpl.obj
 0001:00000f91       _Java_sun_management_VMManagementImpl_getUnloadedClassCount@8 10001f91 f   VMManagementImpl.obj
 0001:00000fa4       _Java_sun_management_VMManagementImpl_getVerboseGC@8 10001fa4 f   VMManagementImpl.obj
 0001:00000fb5       _Java_sun_management_VMManagementImpl_getVerboseClass@8 10001fb5 f   VMManagementImpl.obj
 0001:00000fc6       _Java_sun_management_VMManagementImpl_getTotalThreadCount@8 10001fc6 f   VMManagementImpl.obj
 0001:00000fd9       _Java_sun_management_VMManagementImpl_getLiveThreadCount@8 10001fd9 f   VMManagementImpl.obj
 0001:00000fec       _Java_sun_management_VMManagementImpl_getPeakThreadCount@8 10001fec f   VMManagementImpl.obj
 0001:00000fff       _Java_sun_management_VMManagementImpl_getDaemonThreadCount@8 10001fff f   VMManagementImpl.obj
 0001:00001012       _Java_sun_management_VMManagementImpl_getTotalCompileTime@8 10002012 f   VMManagementImpl.obj
 0001:00001025       _Java_sun_management_VMManagementImpl_getStartupTime@8 10002025 f   VMManagementImpl.obj
 0001:00001038       _Java_sun_management_VMManagementImpl_isThreadContentionMonitoringEnabled@8 10002038 f   VMManagementImpl.obj
 0001:00001049       _Java_sun_management_VMManagementImpl_isThreadCpuTimeEnabled@8 10002049 f   VMManagementImpl.obj
 0001:0000105a       _Java_sun_management_VMManagementImpl_getProcessId@8 1000205a f   VMManagementImpl.obj
 0001:00001070       _Java_sun_management_VMManagementImpl_getAvailableProcessors@8 10002070 f   VMManagementImpl.obj
 0001:00001078       _Java_sun_management_VMManagementImpl_getSafepointCount@8 10002078 f   VMManagementImpl.obj
 0001:0000108b       _Java_sun_management_VMManagementImpl_getTotalSafepointTime@8 1000208b f   VMManagementImpl.obj
 0001:0000109e       _Java_sun_management_VMManagementImpl_getSafepointSyncTime@8 1000209e f   VMManagementImpl.obj
 0001:000010b1       _Java_sun_management_VMManagementImpl_getTotalApplicationNonStoppedTime@8 100020b1 f   VMManagementImpl.obj
 0001:000010c4       _Java_sun_management_VMManagementImpl_getLoadedClassSize@8 100020c4 f   VMManagementImpl.obj
 0001:000010d7       _Java_sun_management_VMManagementImpl_getUnloadedClassSize@8 100020d7 f   VMManagementImpl.obj
 0001:000010ea       _Java_sun_management_VMManagementImpl_getClassLoadingTime@8 100020ea f   VMManagementImpl.obj
 0001:000010fd       _Java_sun_management_VMManagementImpl_getMethodDataSize@8 100020fd f   VMManagementImpl.obj
 0001:00001110       _Java_sun_management_VMManagementImpl_getInitializedClassCount@8 10002110 f   VMManagementImpl.obj
 0001:00001123       _Java_sun_management_VMManagementImpl_getClassInitializationTime@8 10002123 f   VMManagementImpl.obj
 0001:00001136       _Java_sun_management_VMManagementImpl_getClassVerificationTime@8 10002136 f   VMManagementImpl.obj
 0001:00001149       _JNI_OnLoad@8              10002149 f   management.obj
 0001:000011a4       _throw_internal_error      100021a4 f   management.obj
 0001:000011d8       _Java_com_sun_management_OperatingSystem_initialize@8 100021d8 f   OperatingSystem_md.obj
 0001:00001234       _Java_com_sun_management_OperatingSystem_getCommittedVirtualMemorySize0@8 10002234 f   OperatingSystem_md.obj
 0001:000012b2       _Java_com_sun_management_OperatingSystem_getTotalSwapSpaceSize@8 100022b2 f   OperatingSystem_md.obj
 0001:000012cb       _Java_com_sun_management_OperatingSystem_getFreeSwapSpaceSize@8 100022cb f   OperatingSystem_md.obj
 0001:000012e4       _Java_com_sun_management_OperatingSystem_getProcessCpuTime@8 100022e4 f   OperatingSystem_md.obj
 0001:0000134e       _Java_com_sun_management_OperatingSystem_getFreePhysicalMemorySize@8 1000234e f   OperatingSystem_md.obj
 0001:00001367       _Java_com_sun_management_OperatingSystem_getTotalPhysicalMemorySize@8 10002367 f   OperatingSystem_md.obj
 0001:00001380       _JNU_ThrowIOExceptionWithLastError@8 10002380 f   java:java.dll
 0001:00001386       _JNU_ThrowIOException@8    10002386 f   java:java.dll
 0001:0000138c       _JNU_ThrowOutOfMemoryError@8 1000238c f   java:java.dll
 0001:00001392       _JNU_ThrowInternalError@8  10002392 f   java:java.dll
 0001:00001398       _JNU_ReleaseStringPlatformChars@12 10002398 f   java:java.dll
 0001:0000139e       _JNU_GetStringPlatformChars@12 1000239e f   java:java.dll
 0001:000013a4       _JNU_GetStaticFieldByName@20 100023a4 f   java:java.dll
 0001:000013aa       _JNU_NewObjectByName       100023aa f   java:java.dll
 0001:000013b0       _JNU_ThrowIllegalArgumentException@8 100023b0 f   java:java.dll
 0001:000013b6       _JNU_ThrowNullPointerException@8 100023b6 f   java:java.dll
 0001:000013bc       _JVM_GetAllThreads@8       100023bc f   jvm:jvm.dll
 0001:000013c2       _JVM_ActiveProcessorCount@0 100023c2 f   jvm:jvm.dll
 0001:000013c8       _JVM_GetManagement@4       100023c8 f   jvm:jvm.dll
 0001:000013ce       _memset                    100023ce f   MSVCRT:MSVCR71.dll
 0001:000013e0       __allmul                   100023e0 f   MSVCRT:llmul.obj
 0001:00001414       __CRT_INIT@12              10002414 f   MSVCRT:crtdll.obj
 0001:000014d2       __DllMainCRTStartup@12     100024d2 f   MSVCRT:crtdll.obj
 0001:000015b6       __initterm                 100025b6 f   MSVCRT:MSVCR71.dll
 0001:000015bc       __onexit                   100025bc f   MSVCRT:atonexit.obj
 0001:000015e2       _atexit                    100025e2 f   MSVCRT:atonexit.obj
 0001:000015f4       __RTC_Initialize           100025f4 f   MSVCRT:initsect.obj
 0001:00001638       __RTC_Terminate            10002638 f   MSVCRT:initsect.obj
 0001:0000167c       ___CppXcptFilter           1000267c f   MSVCRT:MSVCR71.dll
 0001:00001682       _DllMain@12                10002682 f   MSVCRT:dllmain.obj
 0001:000016a4       __SEH_prolog               100026a4 f   MSVCRT:sehprolg.obj
 0001:000016df       __SEH_epilog               100026df f   MSVCRT:sehprolg.obj
 0001:000016f0       __except_handler3          100026f0 f   MSVCRT:MSVCR71.dll
 0001:000016f6       ___dllonexit               100026f6 f   MSVCRT:MSVCR71.dll
 0002:00000000       __imp__EqualSid@8          10003000     advapi32:ADVAPI32.dll
 0002:00000004       \177ADVAPI32_NULL_THUNK_DATA 10003004     advapi32:ADVAPI32.dll
 0002:00000008       __imp__DisableThreadLibraryCalls@4 10003008     kernel32:KERNEL32.dll
 0002:0000000c       __imp__GetProcessTimes@20  1000300c     kernel32:KERNEL32.dll
 0002:00000010       __imp__GlobalMemoryStatus@4 10003010     kernel32:KERNEL32.dll
 0002:00000014       __imp__FreeLibrary@4       10003014     kernel32:KERNEL32.dll
 0002:00000018       __imp__GetVersionExA@4     10003018     kernel32:KERNEL32.dll
 0002:0000001c       __imp__LoadLibraryA@4      1000301c     kernel32:KERNEL32.dll
 0002:00000020       __imp__GetProcAddress@8    10003020     kernel32:KERNEL32.dll
 0002:00000024       __imp__GetLastError@0      10003024     kernel32:KERNEL32.dll
 0002:00000028       __imp__GetVolumeInformationA@32 10003028     kernel32:KERNEL32.dll
 0002:0000002c       __imp__GetCurrentProcess@0 1000302c     kernel32:KERNEL32.dll
 0002:00000030       \177KERNEL32_NULL_THUNK_DATA 10003030     kernel32:KERNEL32.dll
 0002:00000034       __imp___onexit             10003034     MSVCRT:MSVCR71.dll
 0002:00000038       __imp__sprintf             10003038     MSVCRT:MSVCR71.dll
 0002:0000003c       __imp____dllonexit         1000303c     MSVCRT:MSVCR71.dll
 0002:00000040       __imp__free                10003040     MSVCRT:MSVCR71.dll
 0002:00000044       __imp__strchr              10003044     MSVCRT:MSVCR71.dll
 0002:00000048       __imp__malloc              10003048     MSVCRT:MSVCR71.dll
 0002:0000004c       __imp__memset              1000304c     MSVCRT:MSVCR71.dll
 0002:00000050       __imp___strdup             10003050     MSVCRT:MSVCR71.dll
 0002:00000050       __imp__strdup              10003050     MSVCRT:MSVCR71.dll
 0002:00000054       __imp___errno              10003054     MSVCRT:MSVCR71.dll
 0002:00000058       __imp___initterm           10003058     MSVCRT:MSVCR71.dll
 0002:0000005c       __imp___adjust_fdiv        1000305c     MSVCRT:MSVCR71.dll
 0002:00000060       __imp____CppXcptFilter     10003060     MSVCRT:MSVCR71.dll
 0002:00000064       __imp___except_handler3    10003064     MSVCRT:MSVCR71.dll
 0002:00000068       \177MSVCR71_NULL_THUNK_DATA 10003068     MSVCRT:MSVCR71.dll
 0002:0000006c       __imp__JNU_NewObjectByName 1000306c     java:java.dll
 0002:00000070       __imp__JNU_ThrowIOException@8 10003070     java:java.dll
 0002:00000074       __imp__JNU_ThrowOutOfMemoryError@8 10003074     java:java.dll
 0002:00000078       __imp__JNU_ThrowInternalError@8 10003078     java:java.dll
 0002:0000007c       __imp__JNU_ThrowNullPointerException@8 1000307c     java:java.dll
 0002:00000080       __imp__JNU_ThrowIllegalArgumentException@8 10003080     java:java.dll
 0002:00000084       __imp__JNU_ThrowIOExceptionWithLastError@8 10003084     java:java.dll
 0002:00000088       __imp__JNU_GetStaticFieldByName@20 10003088     java:java.dll
 0002:0000008c       __imp__JNU_GetStringPlatformChars@12 1000308c     java:java.dll
 0002:00000090       __imp__JNU_ReleaseStringPlatformChars@12 10003090     java:java.dll
 0002:00000094       \177java_NULL_THUNK_DATA   10003094     java:java.dll
 0002:00000098       __imp__JVM_ActiveProcessorCount@0 10003098     jvm:jvm.dll
 0002:0000009c       __imp__JVM_GetManagement@4 1000309c     jvm:jvm.dll
 0002:000000a0       __imp__JVM_GetAllThreads@8 100030a0     jvm:jvm.dll
 0002:000000a4       \177jvm_NULL_THUNK_DATA    100030a4     jvm:jvm.dll
 0002:000000cc       ??_C@_0CA@CGFDCJE@Absolute?5filename?5not?5specified?$AA@ 100030cc     FileSystemImpl.obj
 0002:000000ec       ??_C@_0BM@JPGKFFDK@GetVolumeInformation?5failed?$AA@ 100030ec     FileSystemImpl.obj
 0002:00000108       ??_C@_0O@PNKFDMOJ@Malformed?5UNC?$AA@ 10003108     FileSystemImpl.obj
 0002:00000118       ??_C@_0BH@EKMPGKNN@GetFileSecurity?5failed?$AA@ 10003118     FileSystemImpl.obj
 0002:00000130       ??_C@_0CC@PLIGLKOL@GetSecurityDescriptorOwner?5faile@ 10003130     FileSystemImpl.obj
 0002:00000154       ??_C@_0CM@JFCPAEMB@Security?5descriptor?5does?5not?5con@ 10003154     FileSystemImpl.obj
 0002:00000180       ??_C@_0CB@EKBMIJAO@GetSecurityDescriptorDacl?5failed@ 10003180     FileSystemImpl.obj
 0002:000001a4       ??_C@_0O@HNKFIIOB@GetAce?5failed?$AA@ 100031a4     FileSystemImpl.obj
 0002:000001b4       ??_C@_0BJ@OEDGCHLN@GetAclInformation?5failed?$AA@ 100031b4     FileSystemImpl.obj
 0002:000001d0       ??_C@_0CM@GBIJGNOE@Unable?5to?5get?5address?5of?5securit@ 100031d0     FileSystemImpl.obj
 0002:000001fc       ??_C@_08FDBMHLGI@EqualSid?$AA@ 100031fc     FileSystemImpl.obj
 0002:00000208       ??_C@_06MGOHGGFD@GetAce?$AA@ 10003208     FileSystemImpl.obj
 0002:00000210       ??_C@_0BC@JNNADOPA@GetAclInformation?$AA@ 10003210     FileSystemImpl.obj
 0002:00000224       ??_C@_0BK@IDBLHDPI@GetSecurityDescriptorDacl?$AA@ 10003224     FileSystemImpl.obj
 0002:00000240       ??_C@_0BL@NGDAALJK@GetSecurityDescriptorOwner?$AA@ 10003240     FileSystemImpl.obj
 0002:0000025c       ??_C@_0BB@JIAOINHD@GetFileSecurityA?$AA@ 1000325c     FileSystemImpl.obj
 0002:00000270       ??_C@_0BM@NELLIENI@Unable?5to?5load?5ADVAPI32?4DLL?$AA@ 10003270     FileSystemImpl.obj
 0002:0000028c       ??_C@_0N@JJPEKNFO@ADVAPI32?4DLL?$AA@ 1000328c     FileSystemImpl.obj
 0002:0000029c       ??_C@_0CD@CEAHIHPC@com?1sun?1management?1VMOption$Orig@ 1000329c     Flag.obj
 0002:000002c0       ??_C@_0CF@MADHDJEK@Lcom?1sun?1management?1VMOption$Ori@ 100032c0     Flag.obj
 0002:000002e8       ??_C@_05NNNMIPMB@OTHER?$AA@ 100032e8     Flag.obj
 0002:000002f0       ??_C@_09ILMJHCBE@ERGONOMIC?$AA@ 100032f0     Flag.obj
 0002:000002fc       ??_C@_0M@CEBLKBIO@CONFIG_FILE?$AA@ 100032fc     Flag.obj
 0002:00000308       ??_C@_0M@FDANMCLI@ENVIRON_VAR?$AA@ 10003308     Flag.obj
 0002:00000314       ??_C@_0L@HNPILAMG@MANAGEMENT?$AA@ 10003314     Flag.obj
 0002:00000320       ??_C@_0M@BODHNBPF@VM_CREATION?$AA@ 10003320     Flag.obj
 0002:0000032c       ??_C@_07MGCPDNLD@DEFAULT?$AA@ 1000332c     Flag.obj
 0002:00000334       ??_C@_0CJ@FEKHENIJ@Number?5of?5Flag?5objects?5created?5u@ 10003334     Flag.obj
 0002:00000360       ??_C@_0BE@DONNLBPM@sun?1management?1Flag?$AA@ 10003360     Flag.obj
 0002:00000378       ??_C@_0EO@OCMOFBBM@?$CILjava?1lang?1String?$DLLjava?1lang?1Ob@ 10003378     Flag.obj
 0002:000003c8       ??_C@_0BC@DDPBLLCP@java?1lang?1Boolean?$AA@ 100033c8     Flag.obj
 0002:000003dc       ??_C@_04LHKBAEFM@?$CIZ?$CJV?$AA@ 100033dc     Flag.obj
 0002:000003e4       ??_C@_0P@MLLHBNNC@java?1lang?1Long?$AA@ 100033e4     Flag.obj
 0002:000003f4       ??_C@_04OHLIFDMD@?$CIJ?$CJV?$AA@ 100033f4     Flag.obj
 0002:000003fc       ??_C@_04JKLABMEJ@?$CIC?$CJV?$AA@ 100033fc     GcInfoBuilder.obj
 0002:00000404       ??_C@_0BE@GKIHCGPM@java?1lang?1Character?$AA@ 10003404     GcInfoBuilder.obj
 0002:00000418       ??_C@_0BA@HJEPPKHG@java?1lang?1Float?$AA@ 10003418     GcInfoBuilder.obj
 0002:00000428       ??_C@_04HGHCEPA@?$CID?$CJV?$AA@ 10003428     GcInfoBuilder.obj
 0002:00000430       ??_C@_0BB@JKEOLFJD@java?1lang?1Double?$AA@ 10003430     GcInfoBuilder.obj
 0002:00000444       ??_C@_04MKKJELNG@?$CIS?$CJV?$AA@ 10003444     GcInfoBuilder.obj
 0002:0000044c       ??_C@_0BA@MBLENCLH@java?1lang?1Short?$AA@ 1000344c     GcInfoBuilder.obj
 0002:0000045c       ??_C@_04PFANPMCN@?$CII?$CJV?$AA@ 1000345c     GcInfoBuilder.obj
 0002:00000464       ??_C@_0BC@OHJKABOO@java?1lang?1Integer?$AA@ 10003464     GcInfoBuilder.obj
 0002:00000478       ??_C@_04CCAMHLCM@?$CIB?$CJV?$AA@ 10003478     GcInfoBuilder.obj
 0002:00000480       ??_C@_0P@CCHCOPNE@java?1lang?1Byte?$AA@ 10003480     GcInfoBuilder.obj
 0002:00000490       ??_C@_0BO@EOMDLAMD@Invalid?5GarbageCollectorMBean?$AA@ 10003490     GcInfoBuilder.obj
 0002:000004b0       ??_C@_0BK@KGMIKEPP@Unexpected?5num_attributes?$AA@ 100034b0     GcInfoBuilder.obj
 0002:000004cc       ??_C@_0BH@KCPAAINP@Invalid?5num_attributes?$AA@ 100034cc     GcInfoBuilder.obj
 0002:000004e4       ??_C@_0BL@CHBGEDL@Unsupported?5attribute?5type?$AA@ 100034e4     GcInfoBuilder.obj
 0002:00000500       ??_C@_0BK@LAMMNKDJ@com?1sun?1management?1GcInfo?$AA@ 10003500     GcInfoBuilder.obj
 0002:00000520       ??_C@_0HO@LPKEKFAJ@?$CILsun?1management?1GcInfoBuilder?$DLJ@ 10003520     GcInfoBuilder.obj
 0002:000005a0       ??_C@_0BJ@KKOPABNE@Memory?5Manager?5not?5found?$AA@ 100035a0     MemoryManagerImpl.obj
 0002:000005bc       ??_C@_0BG@EJKNNBCK@Memory?5Pool?5not?5found?$AA@ 100035bc     MemoryPoolImpl.obj
 0002:000005d4       ??_C@_05KBEOJPB@?$CFd?4?$CFd?$AA@ 100035d4     VMManagementImpl.obj
 0002:000005dc       ??_C@_01POHCFINO@Z?$AA@    100035dc     VMManagementImpl.obj
 0002:000005e0       ??_C@_0BJ@NIOHCHFH@synchronizerUsageSupport?$AA@ 100035e0     VMManagementImpl.obj
 0002:000005fc       ??_C@_0BK@EJFDBCBP@objectMonitorUsageSupport?$AA@ 100035fc     VMManagementImpl.obj
 0002:00000618       ??_C@_0BF@CHEGPANE@bootClassPathSupport?$AA@ 10003618     VMManagementImpl.obj
 0002:00000630       ??_C@_0BK@DMCEOMBH@otherThreadCpuTimeSupport?$AA@ 10003630     VMManagementImpl.obj
 0002:0000064c       ??_C@_0BM@GCPPCNJD@currentThreadCpuTimeSupport?$AA@ 1000364c     VMManagementImpl.obj
 0002:00000668       ??_C@_0CC@GDPMBOEP@threadContentionMonitoringSuppor@ 10003668     VMManagementImpl.obj
 0002:0000068c       ??_C@_0BK@DJAAMHIC@compTimeMonitoringSupport?$AA@ 1000368c     VMManagementImpl.obj
 0002:000006a8       ??_C@_0BP@KJIDAONK@Unsupported?5Management?5version?$AA@ 100036a8     management.obj
 0002:000006c8       ??_C@_0BF@CABGMAAE@errno?3?5?$CFd?5error?3?5?$CFs?6?$AA@ 100036c8     management.obj
 0002:000006e0       ??_C@_0BF@DFNHNMPC@Unsupported?5Platform?$AA@ 100036e0     OperatingSystem_md.obj
 0002:000006f8       ??_C@_0BF@NDAFMACL@GetProcessMemoryInfo?$AA@ 100036f8     OperatingSystem_md.obj
 0002:00000710       ??_C@_09EPMADGLA@PSAPI?4DLL?$AA@ 10003710     OperatingSystem_md.obj
 0002:00000750       __load_config_used         10003750     MSVCRT:loadcfg.obj
 0002:00000820       ___safe_se_handler_table   10003820     <linker-defined>
 0002:00000824       ___rtc_iaa                 10003824     MSVCRT:initsect.obj
 0002:00000828       ___rtc_izz                 10003828     MSVCRT:initsect.obj
 0002:0000082c       ___rtc_taa                 1000382c     MSVCRT:initsect.obj
 0002:00000830       ___rtc_tzz                 10003830     MSVCRT:initsect.obj
 0002:00000834       __IMPORT_DESCRIPTOR_java   10003834     java:java.dll
 0002:00000848       __IMPORT_DESCRIPTOR_jvm    10003848     jvm:jvm.dll
 0002:0000085c       __IMPORT_DESCRIPTOR_ADVAPI32 1000385c     advapi32:ADVAPI32.dll
 0002:00000870       __IMPORT_DESCRIPTOR_MSVCR71 10003870     MSVCRT:MSVCR71.dll
 0002:00000884       __IMPORT_DESCRIPTOR_KERNEL32 10003884     kernel32:KERNEL32.dll
 0002:00000898       __NULL_IMPORT_DESCRIPTOR   10003898     java:java.dll
 0003:00000000       ___xc_a                    10006000     MSVCRT:cinitexe.obj
 0003:00000004       ___xc_z                    10006004     MSVCRT:cinitexe.obj
 0003:00000008       ___xi_a                    10006008     MSVCRT:cinitexe.obj
 0003:0000000c       ___xi_z                    1000600c     MSVCRT:cinitexe.obj
 0003:00000050       ___security_cookie         10006050     MSVCRT:seccook.obj
 0003:0000008c       _jmm_interface             1000608c     management.obj
 0003:00000090       _jvm                       10006090     management.obj
 0003:00000094       _jmm_version               10006094     management.obj
 0003:000000b0       __adjust_fdiv              100060b0     <common>
 0003:000000b4       ___onexitend               100060b4     <common>
 0003:000000b8       ___onexitbegin             100060b8     <common>
 0003:000000bc       __pRawDllMain              100060bc     <common>

 entry point at        0001:000014d2

 Static symbols

 0001:00000015       _isSecuritySupported       10001015 f   FileSystemImpl.obj
 0001:000000dd       _getFileSecurityDescriptor 100010dd f   FileSystemImpl.obj
 0001:00000163       _getFileDACL               10001163 f   FileSystemImpl.obj
 0001:000001ad       _isAccessUserOnly          100011ad f   FileSystemImpl.obj
 0001:0000043a       _find_origin_constant      1000143a f   Flag.obj
 0001:00000e72       _setStaticBooleanField     10001e72 f   VMManagementImpl.obj
