 awt

 Timestamp is 4cfaddc1 (Sat Dec 04 16:33:05 2010)

 Preferred load address is 10000000

 Start         Length     Name                   Class
 0001:00000000 0011d504H .text                   CODE
 0001:0011d510 0000214aH .text$x                 CODE
 0001:0011f660 000006dcH .text$yc                CODE
 0001:0011fd40 0000010fH .text$yd                CODE
 0002:00000000 000006f0H .idata$5                DATA
 0002:000006f0 00040fb0H .rdata                  DATA
 0002:000416a0 00000066H .rdata$debug            DATA
 0002:00041708 00000044H .rdata$r                DATA
 0002:00041750 000008d4H .rdata$sxdata           DATA
 0002:00042024 00000004H .rtc$IAA                DATA
 0002:00042028 00000004H .rtc$IZZ                DATA
 0002:0004202c 00000004H .rtc$TAA                DATA
 0002:00042030 00000004H .rtc$TZZ                DATA
 0002:00042034 0000bd70H .xdata$x                DATA
 0002:0004dda4 000000dcH .idata$2                DATA
 0002:0004de80 00000014H .idata$3                DATA
 0002:0004de94 000006f0H .idata$4                DATA
 0002:0004e584 00001cd6H .idata$6                DATA
 0002:00050260 0000b372H .edata                  DATA
 0003:00000000 00000004H .CRT$XCA                DATA
 0003:00000004 00000004H .CRT$XCL                DATA
 0003:00000008 000000a0H .CRT$XCU                DATA
 0003:000000a8 00000004H .CRT$XCZ                DATA
 0003:000000ac 00000004H .CRT$XIA                DATA
 0003:000000b0 00000004H .CRT$XIZ                DATA
 0003:000000c0 0000f8acH .data                   DATA
 0003:0000f96c 00000004H .data$_advapi32_RegCreateKeyExW DATA
 0003:0000f970 00000004H .data$_advapi32_RegDeleteKeyW DATA
 0003:0000f974 00000004H .data$_advapi32_RegEnumKeyExW DATA
 0003:0000f978 00000004H .data$_advapi32_RegOpenKeyExW DATA
 0003:0000f97c 00000004H .data$_advapi32_RegQueryValueExW DATA
 0003:0000f980 00000004H .data$_advapi32_RegSetValueExW DATA
 0003:0000f984 00000004H .data$_gdi32_CreateDCW  DATA
 0003:0000f988 00000004H .data$_gdi32_CreateEnhMetaFileW DATA
 0003:0000f98c 00000004H .data$_gdi32_CreateFontIndirectW DATA
 0003:0000f990 00000004H .data$_gdi32_CreateICW  DATA
 0003:0000f994 00000004H .data$_gdi32_CreateMetaFileW DATA
 0003:0000f998 00000004H .data$_gdi32_EnumFontFamiliesExW DATA
 0003:0000f99c 00000004H .data$_gdi32_ExtTextOutW DATA
 0003:0000f9a0 00000004H .data$_gdi32_GetCharWidthW DATA
 0003:0000f9a4 00000004H .data$_gdi32_GetObjectW DATA
 0003:0000f9a8 00000004H .data$_gdi32_GetTextExtentPoint32W DATA
 0003:0000f9ac 00000004H .data$_gdi32_GetTextExtentPointW DATA
 0003:0000f9b0 00000004H .data$_gdi32_GetTextFaceW DATA
 0003:0000f9b4 00000004H .data$_gdi32_GetTextMetricsW DATA
 0003:0000f9b8 00000004H .data$_gdi32_ResetDCW   DATA
 0003:0000f9bc 00000004H .data$_gdi32_StartDocW  DATA
 0003:0000f9c0 00000004H .data$_gdi32_TextOutW   DATA
 0003:0000f9c4 00000004H .data$_kernel32_CreateEventW DATA
 0003:0000f9c8 00000004H .data$_kernel32_CreateFileW DATA
 0003:0000f9cc 00000004H .data$_kernel32_CreateMutexW DATA
 0003:0000f9d0 00000004H .data$_kernel32_ExpandEnvironmentStringsW DATA
 0003:0000f9d4 00000004H .data$_kernel32_FormatMessageW DATA
 0003:0000f9d8 00000004H .data$_kernel32_GetCurrentDirectoryW DATA
 0003:0000f9dc 00000004H .data$_kernel32_GetLocaleInfoW DATA
 0003:0000f9e0 00000004H .data$_kernel32_GetModuleFileNameW DATA
 0003:0000f9e4 00000004H .data$_kernel32_GetModuleHandleW DATA
 0003:0000f9e8 00000004H .data$_kernel32_GetProcAddress DATA
 0003:0000f9ec 00000004H .data$_kernel32_GetProfileStringW DATA
 0003:0000f9f0 00000004H .data$_kernel32_GetVersionExW DATA
 0003:0000f9f4 00000004H .data$_kernel32_GetWindowsDirectoryW DATA
 0003:0000f9f8 00000004H .data$_kernel32_IsBadStringPtrW DATA
 0003:0000f9fc 00000004H .data$_kernel32_LCMapStringW DATA
 0003:0000fa00 00000004H .data$_kernel32_LoadLibraryW DATA
 0003:0000fa04 00000004H .data$_kernel32_MultiByteToWideChar DATA
 0003:0000fa08 00000004H .data$_kernel32_SetCurrentDirectoryW DATA
 0003:0000fa0c 00000004H .data$_kernel32_WideCharToMultiByte DATA
 0003:0000fa10 00000004H .data$_kernel32_lstrcmpW DATA
 0003:0000fa14 00000004H .data$_kernel32_lstrcpyW DATA
 0003:0000fa18 00000004H .data$_kernel32_lstrcpynW DATA
 0003:0000fa1c 00000004H .data$_kernel32_lstrlenW DATA
 0003:0000fa20 00000004H .data$_shell32_ShellExecuteW DATA
 0003:0000fa24 00000004H .data$_shell32_Shell_NotifyIconW DATA
 0003:0000fa28 00000004H .data$_user32_AppendMenuW DATA
 0003:0000fa2c 00000004H .data$_user32_CallWindowProcW DATA
 0003:0000fa30 00000004H .data$_user32_ChangeDisplaySettingsW DATA
 0003:0000fa34 00000004H .data$_user32_CreateWindowExW DATA
 0003:0000fa38 00000004H .data$_user32_DefWindowProcW DATA
 0003:0000fa3c 00000004H .data$_user32_DispatchMessageW DATA
 0003:0000fa40 00000004H .data$_user32_EnableWindow DATA
 0003:0000fa44 00000004H .data$_user32_EnumClipboardFormats DATA
 0003:0000fa48 00000004H .data$_user32_EnumDisplaySettingsW DATA
 0003:0000fa4c 00000004H .data$_user32_FindWindowW DATA
 0003:0000fa50 00000004H .data$_user32_GetClassInfoExW DATA
 0003:0000fa54 00000004H .data$_user32_GetClassInfoW DATA
 0003:0000fa58 00000004H .data$_user32_GetClassLongW DATA
 0003:0000fa5c 00000004H .data$_user32_GetClipboardData DATA
 0003:0000fa60 00000004H .data$_user32_GetClipboardFormatNameW DATA
 0003:0000fa64 00000004H .data$_user32_GetMenuItemInfoW DATA
 0003:0000fa68 00000004H .data$_user32_GetPropW  DATA
 0003:0000fa6c 00000004H .data$_user32_GetWindowLongW DATA
 0003:0000fa70 00000004H .data$_user32_GetWindowTextLengthW DATA
 0003:0000fa74 00000004H .data$_user32_GetWindowTextW DATA
 0003:0000fa78 00000004H .data$_user32_InsertMenuItemW DATA
 0003:0000fa7c 00000004H .data$_user32_IsClipboardFormatAvailable DATA
 0003:0000fa80 00000004H .data$_user32_LoadBitmapW DATA
 0003:0000fa84 00000004H .data$_user32_LoadCursorFromFileW DATA
 0003:0000fa88 00000004H .data$_user32_LoadCursorW DATA
 0003:0000fa8c 00000004H .data$_user32_LoadIconW DATA
 0003:0000fa90 00000004H .data$_user32_LoadImageW DATA
 0003:0000fa94 00000004H .data$_user32_LoadKeyboardLayoutW DATA
 0003:0000fa98 00000004H .data$_user32_MapVirtualKeyExW DATA
 0003:0000fa9c 00000004H .data$_user32_MapVirtualKeyW DATA
 0003:0000faa0 00000004H .data$_user32_MessageBoxW DATA
 0003:0000faa4 00000004H .data$_user32_PeekMessageW DATA
 0003:0000faa8 00000004H .data$_user32_PostMessageW DATA
 0003:0000faac 00000004H .data$_user32_RegisterClassExW DATA
 0003:0000fab0 00000004H .data$_user32_RegisterClassW DATA
 0003:0000fab4 00000004H .data$_user32_RegisterClipboardFormatW DATA
 0003:0000fab8 00000004H .data$_user32_RegisterWindowMessageW DATA
 0003:0000fabc 00000004H .data$_user32_RemovePropW DATA
 0003:0000fac0 00000004H .data$_user32_SendMessageW DATA
 0003:0000fac4 00000004H .data$_user32_SetClassLongW DATA
 0003:0000fac8 00000004H .data$_user32_SetMenuItemInfoW DATA
 0003:0000facc 00000004H .data$_user32_SetPropW  DATA
 0003:0000fad0 00000004H .data$_user32_SetWindowLongW DATA
 0003:0000fad4 00000004H .data$_user32_SetWindowTextW DATA
 0003:0000fad8 00000004H .data$_user32_SetWindowsHookExW DATA
 0003:0000fadc 00000004H .data$_user32_SystemParametersInfoW DATA
 0003:0000fae0 00000004H .data$_user32_UnregisterClassW DATA
 0003:0000fae4 00000004H .data$_user32_VkKeyScanW DATA
 0003:0000fae8 00000004H .data$_user32_wsprintfW DATA
 0003:0000faec 00000004H .data$_winspool_DeviceCapabilitiesW DATA
 0003:0000faf0 00000004H .data$_winspool_DocumentPropertiesW DATA
 0003:0000faf4 00000004H .data$_winspool_EnumPrintersW DATA
 0003:0000faf8 00000004H .data$_winspool_GetPrinterW DATA
 0003:0000fafc 00000004H .data$_winspool_OpenPrinterW DATA
 0003:0000fb00 00000004H .data$_winspool_StartDocPrinterW DATA
 0003:0000fb20 000315b8H .bss                    DATA
 0004:00000000 00000758H .rsrc$01                DATA
 0004:00000760 00014788H .rsrc$02                DATA

  Address         Publics by Value              Rva+Base     Lib:Object

 0000:00000000       __except_list              00000000     <absolute>
 0000:00000235       ___safe_se_handler_count   00000235     <absolute>
 0000:00009876       __fltused                  00009876     <absolute>
 0000:00009876       __ldused                   00009876     <absolute>
 0001:00000000       _Java_sun_java2d_loops_GraphicsPrimitiveMgr_initIDs@52 10001000 f   GraphicsPrimitiveMgr.obj
 0001:00000420       _GrPrim_RefineBounds       10001420 f   GraphicsPrimitiveMgr.obj
 0001:000005b0       _Java_sun_java2d_loops_GraphicsPrimitiveMgr_registerNativeLoops@8 100015b0 f   GraphicsPrimitiveMgr.obj
 0001:00000980       _RegisterPrimitives        10001980 f   GraphicsPrimitiveMgr.obj
 0001:00000b80       _GetNativePrim@8           10001b80 f   GraphicsPrimitiveMgr.obj
 0001:00000bc0       _GrPrim_Sg2dGetCompInfo@16 10001bc0 f   GraphicsPrimitiveMgr.obj
 0001:00000c10       _GrPrim_CompGetXorColor@8  10001c10 f   GraphicsPrimitiveMgr.obj
 0001:00000c70       _GrPrim_Sg2dGetClip@12     10001c70 f   GraphicsPrimitiveMgr.obj
 0001:00000cb0       _GrPrim_Sg2dGetPixel@8     10001cb0 f   GraphicsPrimitiveMgr.obj
 0001:00000cd0       _GrPrim_Sg2dGetEaRGB@8     10001cd0 f   GraphicsPrimitiveMgr.obj
 0001:00000cf0       _GrPrim_Sg2dGetLCDTextContrast@8 10001cf0 f   GraphicsPrimitiveMgr.obj
 0001:00000d10       _GrPrim_CompGetXorInfo@12  10001d10 f   GraphicsPrimitiveMgr.obj
 0001:00000d60       _GrPrim_CompGetAlphaInfo@12 10001d60 f   GraphicsPrimitiveMgr.obj
 0001:00000db0       _Transform_GetInfo@12      10001db0 f   GraphicsPrimitiveMgr.obj
 0001:00000e70       _Transform_transform@12    10001e70 f   GraphicsPrimitiveMgr.obj
 0001:00000ed0       _Java_sun_java2d_loops_Blit_Blit@48 10001ed0 f   Blit.obj
 0001:000012d0       _Java_sun_java2d_loops_BlitBg_BlitBg@52 100022d0 f   BlitBg.obj
 0001:00001710       _Java_sun_java2d_loops_ScaledBlit_Scale@72 10002710 f   ScaledBlit.obj
 0001:00002490       _Java_sun_java2d_loops_FillRect_FillRect@32 10003490 f   FillRect.obj
 0001:00002670       _Java_sun_java2d_loops_FillSpans_FillSpans@32 10003670 f   FillSpans.obj
 0001:00002870       _Java_sun_java2d_loops_FillParallelogram_FillParallelogram@64 10003870 f   FillParallelogram.obj
 0001:000032d0       _Java_sun_java2d_loops_DrawParallelogram_DrawParallelogram@80 100042d0 f   DrawParallelogram.obj
 0001:000052f0       _LineUtils_SetupBresenham  100062f0 f   DrawLine.obj
 0001:000064a0       _Java_sun_java2d_loops_DrawLine_DrawLine@32 100074a0 f   DrawLine.obj
 0001:000069d0       _Java_sun_java2d_loops_DrawRect_DrawRect@32 100079d0 f   DrawRect.obj
 0001:00006d90       _Java_sun_java2d_loops_DrawPolygons_DrawPolygons@44 10007d90 f   DrawPolygons.obj
 0001:00007990       _Java_sun_java2d_loops_DrawPath_DrawPath@28 10008990 f   DrawPath.obj
 0001:000080e0       _Java_sun_java2d_loops_FillPath_FillPath@28 100090e0 f   FillPath.obj
 0001:00008590       _ProcessFixedLine          10009590 f   ProcessPath.obj
 0001:00008ef0       _ProcessPath               10009ef0 f   ProcessPath.obj
 0001:0000b990       _FillPolygon               1000c990 f   ProcessPath.obj
 0001:0000c330       _StoreFixedLine            1000d330 f   ProcessPath.obj
 0001:0000caa0       _doFillPath                1000daa0 f   ProcessPath.obj
 0001:0000cbf0       _doDrawPath                1000dbf0 f   ProcessPath.obj
 0001:0000cc90       _Java_sun_java2d_loops_MaskBlit_MaskBlit@60 1000dc90 f   MaskBlit.obj
 0001:0000d100       _Java_sun_java2d_loops_MaskFill_MaskFill@48 1000e100 f   MaskFill.obj
 0001:0000d380       _Java_sun_java2d_loops_MaskFill_FillAAPgram@68 1000e380 f   MaskFill.obj
 0001:0000f9e0       _Java_sun_java2d_loops_MaskFill_DrawAAPgram@84 100109e0 f   MaskFill.obj
 0001:00012ba0       _Java_sun_java2d_loops_TransformHelper_Transform@80 10013ba0 f   TransformHelper.obj
 0001:00014400       _initAlphaTables           10015400 f   AlphaMath.obj
 0001:00014540       _RegisterAnyByte           10015540 f   AnyByte.obj
 0001:00014560       _AnyByteIsomorphicCopy     10015560 f   AnyByte.obj
 0001:000145c0       _AnyByteIsomorphicScaleCopy 100155c0 f   AnyByte.obj
 0001:00014670       _AnyByteIsomorphicXorCopy  10015670 f   AnyByte.obj
 0001:00014720       _AnyByteSetRect            10015720 f   AnyByte.obj
 0001:00014790       _AnyByteSetSpans           10015790 f   AnyByte.obj
 0001:00014840       _AnyByteSetParallelogram   10015840 f   AnyByte.obj
 0001:00014910       _AnyByteSetLine            10015910 f   AnyByte.obj
 0001:00014a60       _AnyByteXorRect            10015a60 f   AnyByte.obj
 0001:00014b00       _AnyByteXorSpans           10015b00 f   AnyByte.obj
 0001:00014bd0       _AnyByteXorLine            10015bd0 f   AnyByte.obj
 0001:00014d50       _AnyByteDrawGlyphList      10015d50 f   AnyByte.obj
 0001:00014ee0       _AnyByteDrawGlyphListXor   10015ee0 f   AnyByte.obj
 0001:000150a0       _RegisterByteBinary1Bit    100160a0 f   ByteBinary1Bit.obj
 0001:000150c0       _PixelForByteBinary        100160c0 f   ByteBinary1Bit.obj
 0001:00015120       _ByteBinary1BitSetRect     10016120 f   ByteBinary1Bit.obj
 0001:00015230       _ByteBinary1BitSetSpans    10016230 f   ByteBinary1Bit.obj
 0001:00015370       _ByteBinary1BitSetLine     10016370 f   ByteBinary1Bit.obj
 0001:000155a0       _ByteBinary1BitXorRect     100165a0 f   ByteBinary1Bit.obj
 0001:000156b0       _ByteBinary1BitXorSpans    100166b0 f   ByteBinary1Bit.obj
 0001:00015800       _ByteBinary1BitXorLine     10016800 f   ByteBinary1Bit.obj
 0001:00015a20       _ByteBinary1BitDrawGlyphList 10016a20 f   ByteBinary1Bit.obj
 0001:00015c50       _ByteBinary1BitDrawGlyphListAA 10016c50 f   ByteBinary1Bit.obj
 0001:00016000       _ByteBinary1BitDrawGlyphListXor 10017000 f   ByteBinary1Bit.obj
 0001:00016240       _ByteBinary1BitToByteBinary1BitConvert 10017240 f   ByteBinary1Bit.obj
 0001:00016480       _ByteBinary1BitToIntArgbConvert 10017480 f   ByteBinary1Bit.obj
 0001:000165c0       _IntArgbToByteBinary1BitConvert 100175c0 f   ByteBinary1Bit.obj
 0001:00016770       _IntArgbToByteBinary1BitXorBlit 10017770 f   ByteBinary1Bit.obj
 0001:00016940       _ByteBinary1BitToIntArgbAlphaMaskBlit 10017940 f   ByteBinary1Bit.obj
 0001:00016f00       _IntArgbToByteBinary1BitAlphaMaskBlit 10017f00 f   ByteBinary1Bit.obj
 0001:00017510       _ByteBinary1BitAlphaMaskFill 10018510 f   ByteBinary1Bit.obj
 0001:00017a60       _RegisterByteBinary2Bit    10018a60 f   ByteBinary2Bit.obj
 0001:00017a80       _ByteBinary2BitSetRect     10018a80 f   ByteBinary2Bit.obj
 0001:00017ba0       _ByteBinary2BitSetSpans    10018ba0 f   ByteBinary2Bit.obj
 0001:00017cf0       _ByteBinary2BitSetLine     10018cf0 f   ByteBinary2Bit.obj
 0001:00017f30       _ByteBinary2BitXorRect     10018f30 f   ByteBinary2Bit.obj
 0001:00018050       _ByteBinary2BitXorSpans    10019050 f   ByteBinary2Bit.obj
 0001:000181a0       _ByteBinary2BitXorLine     100191a0 f   ByteBinary2Bit.obj
 0001:000183d0       _ByteBinary2BitDrawGlyphList 100193d0 f   ByteBinary2Bit.obj
 0001:00018610       _ByteBinary2BitDrawGlyphListAA 10019610 f   ByteBinary2Bit.obj
 0001:000189d0       _ByteBinary2BitDrawGlyphListXor 100199d0 f   ByteBinary2Bit.obj
 0001:00018c10       _ByteBinary2BitToByteBinary2BitConvert 10019c10 f   ByteBinary2Bit.obj
 0001:00018e60       _ByteBinary2BitToIntArgbConvert 10019e60 f   ByteBinary2Bit.obj
 0001:00018fa0       _IntArgbToByteBinary2BitConvert 10019fa0 f   ByteBinary2Bit.obj
 0001:00019160       _IntArgbToByteBinary2BitXorBlit 1001a160 f   ByteBinary2Bit.obj
 0001:00019330       _ByteBinary2BitToIntArgbAlphaMaskBlit 1001a330 f   ByteBinary2Bit.obj
 0001:000198f0       _IntArgbToByteBinary2BitAlphaMaskBlit 1001a8f0 f   ByteBinary2Bit.obj
 0001:00019f10       _ByteBinary2BitAlphaMaskFill 1001af10 f   ByteBinary2Bit.obj
 0001:0001a460       _RegisterByteBinary4Bit    1001b460 f   ByteBinary4Bit.obj
 0001:0001a480       _ByteBinary4BitSetRect     1001b480 f   ByteBinary4Bit.obj
 0001:0001a5a0       _ByteBinary4BitSetSpans    1001b5a0 f   ByteBinary4Bit.obj
 0001:0001a6f0       _ByteBinary4BitSetLine     1001b6f0 f   ByteBinary4Bit.obj
 0001:0001a930       _ByteBinary4BitXorRect     1001b930 f   ByteBinary4Bit.obj
 0001:0001aa50       _ByteBinary4BitXorSpans    1001ba50 f   ByteBinary4Bit.obj
 0001:0001aba0       _ByteBinary4BitXorLine     1001bba0 f   ByteBinary4Bit.obj
 0001:0001add0       _ByteBinary4BitDrawGlyphList 1001bdd0 f   ByteBinary4Bit.obj
 0001:0001b010       _ByteBinary4BitDrawGlyphListAA 1001c010 f   ByteBinary4Bit.obj
 0001:0001b3d0       _ByteBinary4BitDrawGlyphListXor 1001c3d0 f   ByteBinary4Bit.obj
 0001:0001b610       _ByteBinary4BitToByteBinary4BitConvert 1001c610 f   ByteBinary4Bit.obj
 0001:0001b860       _ByteBinary4BitToIntArgbConvert 1001c860 f   ByteBinary4Bit.obj
 0001:0001b9b0       _IntArgbToByteBinary4BitConvert 1001c9b0 f   ByteBinary4Bit.obj
 0001:0001bb70       _IntArgbToByteBinary4BitXorBlit 1001cb70 f   ByteBinary4Bit.obj
 0001:0001bd40       _ByteBinary4BitToIntArgbAlphaMaskBlit 1001cd40 f   ByteBinary4Bit.obj
 0001:0001c300       _IntArgbToByteBinary4BitAlphaMaskBlit 1001d300 f   ByteBinary4Bit.obj
 0001:0001c920       _ByteBinary4BitAlphaMaskFill 1001d920 f   ByteBinary4Bit.obj
 0001:0001ce70       _RegisterByteIndexed       1001de70 f   ByteIndexed.obj
 0001:0001ce90       _PixelForByteIndexed       1001de90 f   ByteIndexed.obj
 0001:0001cef0       _checkSameLut              1001def0 f   ByteIndexed.obj
 0001:0001cf60       _IntArgbToByteIndexedConvert 1001df60 f   ByteIndexed.obj
 0001:0001d170       _ThreeByteBgrToByteIndexedConvert 1001e170 f   ByteIndexed.obj
 0001:0001d370       _ByteGrayToByteIndexedConvert 1001e370 f   ByteIndexed.obj
 0001:0001d550       _Index12GrayToByteIndexedConvert 1001e550 f   ByteIndexed.obj
 0001:0001d750       _ByteIndexedToByteIndexedConvert 1001e750 f   ByteIndexed.obj
 0001:0001d9e0       _IntArgbToByteIndexedScaleConvert 1001e9e0 f   ByteIndexed.obj
 0001:0001dc00       _ThreeByteBgrToByteIndexedScaleConvert 1001ec00 f   ByteIndexed.obj
 0001:0001de20       _ByteGrayToByteIndexedScaleConvert 1001ee20 f   ByteIndexed.obj
 0001:0001e020       _Index12GrayToByteIndexedScaleConvert 1001f020 f   ByteIndexed.obj
 0001:0001e230       _ByteIndexedToByteIndexedScaleConvert 1001f230 f   ByteIndexed.obj
 0001:0001e5b0       _ByteIndexedBmToByteIndexedXparOver 1001f5b0 f   ByteIndexed.obj
 0001:0001e7d0       _ByteIndexedBmToByteIndexedScaleXparOver 1001f7d0 f   ByteIndexed.obj
 0001:0001ea10       _IntArgbBmToByteIndexedScaleXparOver 1001fa10 f   ByteIndexed.obj
 0001:0001ec50       _ByteIndexedBmToByteIndexedXparBgCopy 1001fc50 f   ByteIndexed.obj
 0001:0001ee80       _IntArgbBmToByteIndexedXparOver 1001fe80 f   ByteIndexed.obj
 0001:0001f0b0       _IntArgbBmToByteIndexedXparBgCopy 100200b0 f   ByteIndexed.obj
 0001:0001f2e0       _IntArgbToByteIndexedXorBlit 100202e0 f   ByteIndexed.obj
 0001:0001f480       _ByteIndexedAlphaMaskFill  10020480 f   ByteIndexed.obj
 0001:0001fa40       _IntArgbToByteIndexedAlphaMaskBlit 10020a40 f   ByteIndexed.obj
 0001:000200c0       _IntArgbPreToByteIndexedAlphaMaskBlit 100210c0 f   ByteIndexed.obj
 0001:00020740       _IntRgbToByteIndexedAlphaMaskBlit 10021740 f   ByteIndexed.obj
 0001:00020dc0       _ByteIndexedDrawGlyphListAA 10021dc0 f   ByteIndexed.obj
 0001:00021200       _ByteIndexedNrstNbrTransformHelper 10022200 f   ByteIndexed.obj
 0001:00021390       _ByteIndexedBilinearTransformHelper 10022390 f   ByteIndexed.obj
 0001:00021820       _ByteIndexedBicubicTransformHelper 10022820 f   ByteIndexed.obj
 0001:00022ab0       _ByteIndexedBmNrstNbrTransformHelper 10023ab0 f   ByteIndexed.obj
 0001:00022ba0       _ByteIndexedBmBilinearTransformHelper 10023ba0 f   ByteIndexed.obj
 0001:00022da0       _ByteIndexedBmBicubicTransformHelper 10023da0 f   ByteIndexed.obj
 0001:000231f0       _RegisterByteGray          100241f0 f   ByteGray.obj
 0001:00023210       _PixelForByteGray          10024210 f   ByteGray.obj
 0001:00023280       _ByteGrayToIntArgbConvert  10024280 f   ByteGray.obj
 0001:00023340       _IntArgbToByteGrayConvert  10024340 f   ByteGray.obj
 0001:00023440       _ThreeByteBgrToByteGrayConvert 10024440 f   ByteGray.obj
 0001:00023520       _UshortGrayToByteGrayConvert 10024520 f   ByteGray.obj
 0001:000235c0       _ByteIndexedToByteGrayConvert 100245c0 f   ByteGray.obj
 0001:00023840       _Index8GrayToByteGrayConvert 10024840 f   ByteGray.obj
 0001:000238f0       _Index12GrayToByteGrayConvert 100248f0 f   ByteGray.obj
 0001:000239b0       _ByteGrayToIntArgbScaleConvert 100249b0 f   ByteGray.obj
 0001:00023a90       _IntArgbToByteGrayScaleConvert 10024a90 f   ByteGray.obj
 0001:00023ba0       _ThreeByteBgrToByteGrayScaleConvert 10024ba0 f   ByteGray.obj
 0001:00023cb0       _UshortGrayToByteGrayScaleConvert 10024cb0 f   ByteGray.obj
 0001:00023d70       _Index8GrayToByteGrayScaleConvert 10024d70 f   ByteGray.obj
 0001:00023e40       _Index12GrayToByteGrayScaleConvert 10024e40 f   ByteGray.obj
 0001:00023f10       _ByteIndexedToByteGrayScaleConvert 10024f10 f   ByteGray.obj
 0001:000241b0       _ByteIndexedBmToByteGrayXparOver 100251b0 f   ByteGray.obj
 0001:00024420       _ByteIndexedBmToByteGrayScaleXparOver 10025420 f   ByteGray.obj
 0001:000246a0       _IntArgbBmToByteGrayScaleXparOver 100256a0 f   ByteGray.obj
 0001:000247c0       _ByteIndexedBmToByteGrayXparBgCopy 100257c0 f   ByteGray.obj
 0001:00024a20       _IntArgbBmToByteGrayXparOver 10025a20 f   ByteGray.obj
 0001:00024b30       _IntArgbBmToByteGrayXparBgCopy 10025b30 f   ByteGray.obj
 0001:00024c50       _IntArgbToByteGrayXorBlit  10025c50 f   ByteGray.obj
 0001:00024d90       _ByteGraySrcMaskFill       10025d90 f   ByteGray.obj
 0001:00024ff0       _ByteGraySrcOverMaskFill   10025ff0 f   ByteGray.obj
 0001:000252d0       _ByteGrayAlphaMaskFill     100262d0 f   ByteGray.obj
 0001:00025630       _IntArgbToByteGraySrcOverMaskBlit 10026630 f   ByteGray.obj
 0001:00025a40       _IntArgbToByteGrayAlphaMaskBlit 10026a40 f   ByteGray.obj
 0001:00025e70       _IntArgbPreToByteGraySrcOverMaskBlit 10026e70 f   ByteGray.obj
 0001:00026290       _IntArgbPreToByteGrayAlphaMaskBlit 10027290 f   ByteGray.obj
 0001:000266c0       _IntRgbToByteGrayAlphaMaskBlit 100276c0 f   ByteGray.obj
 0001:00026af0       _ByteGrayDrawGlyphListAA   10027af0 f   ByteGray.obj
 0001:00026d60       _ByteGrayNrstNbrTransformHelper 10027d60 f   ByteGray.obj
 0001:00026e50       _ByteGrayBilinearTransformHelper 10027e50 f   ByteGray.obj
 0001:00027060       _ByteGrayBicubicTransformHelper 10028060 f   ByteGray.obj
 0001:00027500       _RegisterIndex8Gray        10028500 f   Index8Gray.obj
 0001:00027520       _PixelForIndex8Gray        10028520 f   Index8Gray.obj
 0001:000275a0       _IntArgbToIndex8GrayConvert 100285a0 f   Index8Gray.obj
 0001:000276c0       _ThreeByteBgrToIndex8GrayConvert 100286c0 f   Index8Gray.obj
 0001:000277c0       _ByteGrayToIndex8GrayConvert 100287c0 f   Index8Gray.obj
 0001:00027870       _Index12GrayToIndex8GrayConvert 10028870 f   Index8Gray.obj
 0001:00027930       _ByteIndexedToIndex8GrayConvert 10028930 f   Index8Gray.obj
 0001:00027c00       _Index8GrayToIndex8GrayConvert 10028c00 f   Index8Gray.obj
 0001:00027d30       _Index8GrayToIndex8GrayScaleConvert 10028d30 f   Index8Gray.obj
 0001:00027ef0       _IntArgbToIndex8GrayScaleConvert 10028ef0 f   Index8Gray.obj
 0001:00028020       _ThreeByteBgrToIndex8GrayScaleConvert 10029020 f   Index8Gray.obj
 0001:00028150       _UshortGrayToIndex8GrayScaleConvert 10029150 f   Index8Gray.obj
 0001:00028220       _ByteIndexedToIndex8GrayScaleConvert 10029220 f   Index8Gray.obj
 0001:00028510       _ByteGrayToIndex8GrayScaleConvert 10029510 f   Index8Gray.obj
 0001:000285e0       _Index12GrayToIndex8GrayScaleConvert 100295e0 f   Index8Gray.obj
 0001:000286c0       _ByteIndexedBmToIndex8GrayXparOver 100296c0 f   Index8Gray.obj
 0001:00028960       _ByteIndexedBmToIndex8GrayXparBgCopy 10029960 f   Index8Gray.obj
 0001:00028bf0       _IntArgbToIndex8GrayXorBlit 10029bf0 f   Index8Gray.obj
 0001:00028d40       _Index8GrayAlphaMaskFill   10029d40 f   Index8Gray.obj
 0001:000290c0       _IntArgbToIndex8GrayAlphaMaskBlit 1002a0c0 f   Index8Gray.obj
 0001:00029510       _IntArgbPreToIndex8GrayAlphaMaskBlit 1002a510 f   Index8Gray.obj
 0001:00029960       _IntRgbToIndex8GrayAlphaMaskBlit 1002a960 f   Index8Gray.obj
 0001:00029db0       _Index8GraySrcOverMaskFill 1002adb0 f   Index8Gray.obj
 0001:0002a0c0       _IntArgbToIndex8GraySrcOverMaskBlit 1002b0c0 f   Index8Gray.obj
 0001:0002a500       _IntArgbPreToIndex8GraySrcOverMaskBlit 1002b500 f   Index8Gray.obj
 0001:0002a950       _Index8GrayDrawGlyphListAA 1002b950 f   Index8Gray.obj
 0001:0002abe0       _Index8GrayNrstNbrTransformHelper 1002bbe0 f   Index8Gray.obj
 0001:0002acc0       _Index8GrayBilinearTransformHelper 1002bcc0 f   Index8Gray.obj
 0001:0002ae80       _Index8GrayBicubicTransformHelper 1002be80 f   Index8Gray.obj
 0001:0002b1c0       _RegisterIndex12Gray       1002c1c0 f   Index12Gray.obj
 0001:0002b1e0       _PixelForIndex12Gray       1002c1e0 f   Index12Gray.obj
 0001:0002b260       _IntArgbToIndex12GrayConvert 1002c260 f   Index12Gray.obj
 0001:0002b390       _ThreeByteBgrToIndex12GrayConvert 1002c390 f   Index12Gray.obj
 0001:0002b4a0       _ByteGrayToIndex12GrayConvert 1002c4a0 f   Index12Gray.obj
 0001:0002b550       _Index8GrayToIndex12GrayConvert 1002c550 f   Index12Gray.obj
 0001:0002b610       _ByteIndexedToIndex12GrayConvert 1002c610 f   Index12Gray.obj
 0001:0002b740       _Index12GrayToIndex12GrayConvert 1002c740 f   Index12Gray.obj
 0001:0002b880       _Index12GrayToIndex12GrayScaleConvert 1002c880 f   Index12Gray.obj
 0001:0002ba40       _Index12GrayToIntArgbScaleConvert 1002ca40 f   Index12Gray.obj
 0001:0002bb10       _IntArgbToIndex12GrayScaleConvert 1002cb10 f   Index12Gray.obj
 0001:0002bc50       _ThreeByteBgrToIndex12GrayScaleConvert 1002cc50 f   Index12Gray.obj
 0001:0002bd80       _UshortGrayToIndex12GrayScaleConvert 1002cd80 f   Index12Gray.obj
 0001:0002be50       _ByteIndexedToIndex12GrayScaleConvert 1002ce50 f   Index12Gray.obj
 0001:0002c150       _ByteGrayToIndex12GrayScaleConvert 1002d150 f   Index12Gray.obj
 0001:0002c220       _Index8GrayToIndex12GrayScaleConvert 1002d220 f   Index12Gray.obj
 0001:0002c520       _ByteIndexedBmToIndex12GrayXparOver 1002d520 f   Index12Gray.obj
 0001:0002c7c0       _ByteIndexedBmToIndex12GrayXparBgCopy 1002d7c0 f   Index12Gray.obj
 0001:0002ca60       _IntArgbToIndex12GrayXorBlit 1002da60 f   Index12Gray.obj
 0001:0002cbc0       _Index12GrayAlphaMaskFill  1002dbc0 f   Index12Gray.obj
 0001:0002cf50       _IntArgbToIndex12GrayAlphaMaskBlit 1002df50 f   Index12Gray.obj
 0001:0002d3b0       _IntArgbPreToIndex12GrayAlphaMaskBlit 1002e3b0 f   Index12Gray.obj
 0001:0002d810       _IntRgbToIndex12GrayAlphaMaskBlit 1002e810 f   Index12Gray.obj
 0001:0002dc60       _Index12GraySrcOverMaskFill 1002ec60 f   Index12Gray.obj
 0001:0002df80       _IntArgbToIndex12GraySrcOverMaskBlit 1002ef80 f   Index12Gray.obj
 0001:0002e3d0       _IntArgbPreToIndex12GraySrcOverMaskBlit 1002f3d0 f   Index12Gray.obj
 0001:0002e830       _Index12GrayDrawGlyphListAA 1002f830 f   Index12Gray.obj
 0001:0002ead0       _Index12GrayNrstNbrTransformHelper 1002fad0 f   Index12Gray.obj
 0001:0002ebb0       _Index12GrayBilinearTransformHelper 1002fbb0 f   Index12Gray.obj
 0001:0002ed90       _Index12GrayBicubicTransformHelper 1002fd90 f   Index12Gray.obj
 0001:0002f130       _RegisterAnyShort          10030130 f   AnyShort.obj
 0001:0002f150       _AnyShortIsomorphicCopy    10030150 f   AnyShort.obj
 0001:0002f1b0       _AnyShortIsomorphicScaleCopy 100301b0 f   AnyShort.obj
 0001:0002f260       _AnyShortIsomorphicXorCopy 10030260 f   AnyShort.obj
 0001:0002f310       _AnyShortSetRect           10030310 f   AnyShort.obj
 0001:0002f390       _AnyShortSetSpans          10030390 f   AnyShort.obj
 0001:0002f440       _AnyShortSetParallelogram  10030440 f   AnyShort.obj
 0001:0002f510       _AnyShortSetLine           10030510 f   AnyShort.obj
 0001:0002f660       _AnyShortXorRect           10030660 f   AnyShort.obj
 0001:0002f700       _AnyShortXorSpans          10030700 f   AnyShort.obj
 0001:0002f7e0       _AnyShortXorLine           100307e0 f   AnyShort.obj
 0001:0002f970       _AnyShortDrawGlyphList     10030970 f   AnyShort.obj
 0001:0002fb10       _AnyShortDrawGlyphListXor  10030b10 f   AnyShort.obj
 0001:0002fcd0       _RegisterUshort555Rgb      10030cd0 f   Ushort555Rgb.obj
 0001:0002fcf0       _PixelForUshort555Rgb      10030cf0 f   Ushort555Rgb.obj
 0001:0002fd20       _Ushort555RgbToIntArgbConvert 10030d20 f   Ushort555Rgb.obj
 0001:0002fe40       _IntArgbToUshort555RgbConvert 10030e40 f   Ushort555Rgb.obj
 0001:0002ff10       _ThreeByteBgrToUshort555RgbConvert 10030f10 f   Ushort555Rgb.obj
 0001:0002fff0       _ByteGrayToUshort555RgbConvert 10030ff0 f   Ushort555Rgb.obj
 0001:000300c0       _ByteIndexedToUshort555RgbConvert 100310c0 f   Ushort555Rgb.obj
 0001:000302a0       _Ushort555RgbToIntArgbScaleConvert 100312a0 f   Ushort555Rgb.obj
 0001:000303d0       _IntArgbToUshort555RgbScaleConvert 100313d0 f   Ushort555Rgb.obj
 0001:000304b0       _ThreeByteBgrToUshort555RgbScaleConvert 100314b0 f   Ushort555Rgb.obj
 0001:000305b0       _ByteGrayToUshort555RgbScaleConvert 100315b0 f   Ushort555Rgb.obj
 0001:00030690       _ByteIndexedToUshort555RgbScaleConvert 10031690 f   Ushort555Rgb.obj
 0001:00030880       _ByteIndexedBmToUshort555RgbXparOver 10031880 f   Ushort555Rgb.obj
 0001:00030aa0       _ByteIndexedBmToUshort555RgbScaleXparOver 10031aa0 f   Ushort555Rgb.obj
 0001:00030cd0       _IntArgbBmToUshort555RgbScaleXparOver 10031cd0 f   Ushort555Rgb.obj
 0001:00030dc0       _ByteIndexedBmToUshort555RgbXparBgCopy 10031dc0 f   Ushort555Rgb.obj
 0001:00030fd0       _IntArgbBmToUshort555RgbXparOver 10031fd0 f   Ushort555Rgb.obj
 0001:000310b0       _IntArgbBmToUshort555RgbXparBgCopy 100320b0 f   Ushort555Rgb.obj
 0001:000311a0       _IntArgbToUshort555RgbXorBlit 100321a0 f   Ushort555Rgb.obj
 0001:000312a0       _Ushort555RgbSrcMaskFill   100322a0 f   Ushort555Rgb.obj
 0001:00031620       _Ushort555RgbSrcOverMaskFill 10032620 f   Ushort555Rgb.obj
 0001:00031b00       _Ushort555RgbAlphaMaskFill 10032b00 f   Ushort555Rgb.obj
 0001:00031f90       _IntArgbToUshort555RgbSrcOverMaskBlit 10032f90 f   Ushort555Rgb.obj
 0001:00032580       _IntArgbToUshort555RgbAlphaMaskBlit 10033580 f   Ushort555Rgb.obj
 0001:00032ab0       _IntArgbPreToUshort555RgbSrcOverMaskBlit 10033ab0 f   Ushort555Rgb.obj
 0001:000330c0       _IntArgbPreToUshort555RgbAlphaMaskBlit 100340c0 f   Ushort555Rgb.obj
 0001:000335f0       _IntRgbToUshort555RgbAlphaMaskBlit 100345f0 f   Ushort555Rgb.obj
 0001:00033b20       _Ushort555RgbDrawGlyphListAA 10034b20 f   Ushort555Rgb.obj
 0001:00033e30       _Ushort555RgbDrawGlyphListLCD 10034e30 f   Ushort555Rgb.obj
 0001:000342a0       _RegisterUshort565Rgb      100352a0 f   Ushort565Rgb.obj
 0001:000342c0       _PixelForUshort565Rgb      100352c0 f   Ushort565Rgb.obj
 0001:000342f0       _Ushort565RgbToIntArgbConvert 100352f0 f   Ushort565Rgb.obj
 0001:00034410       _IntArgbToUshort565RgbConvert 10035410 f   Ushort565Rgb.obj
 0001:000344e0       _ThreeByteBgrToUshort565RgbConvert 100354e0 f   Ushort565Rgb.obj
 0001:000345c0       _ByteGrayToUshort565RgbConvert 100355c0 f   Ushort565Rgb.obj
 0001:00034690       _ByteIndexedToUshort565RgbConvert 10035690 f   Ushort565Rgb.obj
 0001:00034870       _Ushort565RgbToIntArgbScaleConvert 10035870 f   Ushort565Rgb.obj
 0001:000349a0       _IntArgbToUshort565RgbScaleConvert 100359a0 f   Ushort565Rgb.obj
 0001:00034a80       _ThreeByteBgrToUshort565RgbScaleConvert 10035a80 f   Ushort565Rgb.obj
 0001:00034b80       _ByteGrayToUshort565RgbScaleConvert 10035b80 f   Ushort565Rgb.obj
 0001:00034c60       _ByteIndexedToUshort565RgbScaleConvert 10035c60 f   Ushort565Rgb.obj
 0001:00034e50       _ByteIndexedBmToUshort565RgbXparOver 10035e50 f   Ushort565Rgb.obj
 0001:00035070       _ByteIndexedBmToUshort565RgbScaleXparOver 10036070 f   Ushort565Rgb.obj
 0001:000352a0       _IntArgbBmToUshort565RgbScaleXparOver 100362a0 f   Ushort565Rgb.obj
 0001:00035390       _ByteIndexedBmToUshort565RgbXparBgCopy 10036390 f   Ushort565Rgb.obj
 0001:000355a0       _IntArgbBmToUshort565RgbXparOver 100365a0 f   Ushort565Rgb.obj
 0001:00035680       _IntArgbBmToUshort565RgbXparBgCopy 10036680 f   Ushort565Rgb.obj
 0001:00035770       _IntArgbToUshort565RgbXorBlit 10036770 f   Ushort565Rgb.obj
 0001:00035870       _Ushort565RgbSrcMaskFill   10036870 f   Ushort565Rgb.obj
 0001:00035bf0       _Ushort565RgbSrcOverMaskFill 10036bf0 f   Ushort565Rgb.obj
 0001:000360d0       _Ushort565RgbAlphaMaskFill 100370d0 f   Ushort565Rgb.obj
 0001:00036560       _IntArgbToUshort565RgbSrcOverMaskBlit 10037560 f   Ushort565Rgb.obj
 0001:00036b50       _IntArgbPreToUshort565RgbSrcOverMaskBlit 10037b50 f   Ushort565Rgb.obj
 0001:00037160       _Ushort4444ArgbToUshort565RgbSrcOverMaskBlit 10038160 f   Ushort565Rgb.obj
 0001:00037850       _IntArgbToUshort565RgbAlphaMaskBlit 10038850 f   Ushort565Rgb.obj
 0001:00037d80       _IntArgbPreToUshort565RgbAlphaMaskBlit 10038d80 f   Ushort565Rgb.obj
 0001:000382b0       _IntRgbToUshort565RgbAlphaMaskBlit 100392b0 f   Ushort565Rgb.obj
 0001:000387e0       _Ushort565RgbDrawGlyphListAA 100397e0 f   Ushort565Rgb.obj
 0001:00038af0       _Ushort565RgbDrawGlyphListLCD 10039af0 f   Ushort565Rgb.obj
 0001:00038f60       _RegisterUshort4444Argb    10039f60 f   Ushort4444Argb.obj
 0001:00038f80       _PixelForUshort4444Argb    10039f80 f   Ushort4444Argb.obj
 0001:00038fc0       _IntArgbToUshort4444ArgbSrcOverMaskBlit 10039fc0 f   Ushort4444Argb.obj
 0001:00039690       _RegisterUshort555Rgbx     1003a690 f   Ushort555Rgbx.obj
 0001:000396b0       _PixelForUshort555Rgbx     1003a6b0 f   Ushort555Rgbx.obj
 0001:000396e0       _Ushort555RgbxToIntArgbConvert 1003a6e0 f   Ushort555Rgbx.obj
 0001:00039800       _IntArgbToUshort555RgbxConvert 1003a800 f   Ushort555Rgbx.obj
 0001:000398d0       _ThreeByteBgrToUshort555RgbxConvert 1003a8d0 f   Ushort555Rgbx.obj
 0001:000399b0       _ByteGrayToUshort555RgbxConvert 1003a9b0 f   Ushort555Rgbx.obj
 0001:00039a80       _ByteIndexedToUshort555RgbxConvert 1003aa80 f   Ushort555Rgbx.obj
 0001:00039c60       _Ushort555RgbxToIntArgbScaleConvert 1003ac60 f   Ushort555Rgbx.obj
 0001:00039d90       _IntArgbToUshort555RgbxScaleConvert 1003ad90 f   Ushort555Rgbx.obj
 0001:00039e70       _ThreeByteBgrToUshort555RgbxScaleConvert 1003ae70 f   Ushort555Rgbx.obj
 0001:00039f70       _ByteGrayToUshort555RgbxScaleConvert 1003af70 f   Ushort555Rgbx.obj
 0001:0003a050       _ByteIndexedToUshort555RgbxScaleConvert 1003b050 f   Ushort555Rgbx.obj
 0001:0003a240       _ByteIndexedBmToUshort555RgbxXparOver 1003b240 f   Ushort555Rgbx.obj
 0001:0003a460       _ByteIndexedBmToUshort555RgbxScaleXparOver 1003b460 f   Ushort555Rgbx.obj
 0001:0003a690       _IntArgbBmToUshort555RgbxScaleXparOver 1003b690 f   Ushort555Rgbx.obj
 0001:0003a780       _ByteIndexedBmToUshort555RgbxXparBgCopy 1003b780 f   Ushort555Rgbx.obj
 0001:0003a990       _IntArgbToUshort555RgbxXorBlit 1003b990 f   Ushort555Rgbx.obj
 0001:0003aa90       _Ushort555RgbxDrawGlyphListAA 1003ba90 f   Ushort555Rgbx.obj
 0001:0003ada0       _Ushort555RgbxDrawGlyphListLCD 1003bda0 f   Ushort555Rgbx.obj
 0001:0003b210       _RegisterUshortGray        1003c210 f   UshortGray.obj
 0001:0003b230       _PixelForUshortGray        1003c230 f   UshortGray.obj
 0001:0003b2a0       _UshortGrayToIntArgbConvert 1003c2a0 f   UshortGray.obj
 0001:0003b360       _IntArgbToUshortGrayConvert 1003c360 f   UshortGray.obj
 0001:0003b470       _ThreeByteBgrToUshortGrayConvert 1003c470 f   UshortGray.obj
 0001:0003b560       _ByteGrayToUshortGrayConvert 1003c560 f   UshortGray.obj
 0001:0003b610       _ByteIndexedToUshortGrayConvert 1003c610 f   UshortGray.obj
 0001:0003b8a0       _UshortGrayToIntArgbScaleConvert 1003c8a0 f   UshortGray.obj
 0001:0003b980       _IntArgbToUshortGrayScaleConvert 1003c980 f   UshortGray.obj
 0001:0003baa0       _ThreeByteBgrToUshortGrayScaleConvert 1003caa0 f   UshortGray.obj
 0001:0003bbb0       _ByteGrayToUshortGrayScaleConvert 1003cbb0 f   UshortGray.obj
 0001:0003bc70       _ByteIndexedToUshortGrayScaleConvert 1003cc70 f   UshortGray.obj
 0001:0003bf20       _ByteIndexedBmToUshortGrayXparOver 1003cf20 f   UshortGray.obj
 0001:0003c190       _ByteIndexedBmToUshortGrayScaleXparOver 1003d190 f   UshortGray.obj
 0001:0003c420       _IntArgbBmToUshortGrayScaleXparOver 1003d420 f   UshortGray.obj
 0001:0003c550       _ByteIndexedBmToUshortGrayXparBgCopy 1003d550 f   UshortGray.obj
 0001:0003c7b0       _IntArgbToUshortGrayXorBlit 1003d7b0 f   UshortGray.obj
 0001:0003c8f0       _UshortGraySrcMaskFill     1003d8f0 f   UshortGray.obj
 0001:0003cb60       _UshortGraySrcOverMaskFill 1003db60 f   UshortGray.obj
 0001:0003ce50       _UshortGrayAlphaMaskFill   1003de50 f   UshortGray.obj
 0001:0003d210       _IntArgbToUshortGraySrcOverMaskBlit 1003e210 f   UshortGray.obj
 0001:0003d630       _IntArgbToUshortGrayAlphaMaskBlit 1003e630 f   UshortGray.obj
 0001:0003dac0       _IntArgbPreToUshortGraySrcOverMaskBlit 1003eac0 f   UshortGray.obj
 0001:0003def0       _IntArgbPreToUshortGrayAlphaMaskBlit 1003eef0 f   UshortGray.obj
 0001:0003e380       _IntRgbToUshortGrayAlphaMaskBlit 1003f380 f   UshortGray.obj
 0001:0003e800       _UshortGrayDrawGlyphListAA 1003f800 f   UshortGray.obj
 0001:0003ea80       _RegisterUshortIndexed     1003fa80 f   UshortIndexed.obj
 0001:0003eaa0       _PixelForUshortIndexed     1003faa0 f   UshortIndexed.obj
 0001:0003eac0       _IntArgbToUshortIndexedConvert 1003fac0 f   UshortIndexed.obj
 0001:0003ecd0       _ThreeByteBgrToUshortIndexedConvert 1003fcd0 f   UshortIndexed.obj
 0001:0003eed0       _ByteGrayToUshortIndexedConvert 1003fed0 f   UshortIndexed.obj
 0001:0003f0c0       _Index12GrayToUshortIndexedConvert 100400c0 f   UshortIndexed.obj
 0001:0003f2c0       _UshortIndexedToIntArgbConvert 100402c0 f   UshortIndexed.obj
 0001:0003f370       _UshortIndexedToIntArgbScaleConvert 10040370 f   UshortIndexed.obj
 0001:0003f440       _UshortIndexedToUshortIndexedConvert 10040440 f   UshortIndexed.obj
 0001:0003f6e0       _IntArgbToUshortIndexedScaleConvert 100406e0 f   UshortIndexed.obj
 0001:0003f910       _ThreeByteBgrToUshortIndexedScaleConvert 10040910 f   UshortIndexed.obj
 0001:0003fb30       _ByteGrayToUshortIndexedScaleConvert 10040b30 f   UshortIndexed.obj
 0001:0003fd30       _Index12GrayToUshortIndexedScaleConvert 10040d30 f   UshortIndexed.obj
 0001:0003ff50       _UshortIndexedToUshortIndexedScaleConvert 10040f50 f   UshortIndexed.obj
 0001:000402e0       _ByteIndexedBmToUshortIndexedXparOver 100412e0 f   UshortIndexed.obj
 0001:00040510       _ByteIndexedBmToUshortIndexedScaleXparOver 10041510 f   UshortIndexed.obj
 0001:00040750       _IntArgbBmToUshortIndexedScaleXparOver 10041750 f   UshortIndexed.obj
 0001:00040990       _ByteIndexedBmToUshortIndexedXparBgCopy 10041990 f   UshortIndexed.obj
 0001:00040bd0       _IntArgbBmToUshortIndexedXparOver 10041bd0 f   UshortIndexed.obj
 0001:00040e00       _IntArgbBmToUshortIndexedXparBgCopy 10041e00 f   UshortIndexed.obj
 0001:00041040       _IntArgbToUshortIndexedXorBlit 10042040 f   UshortIndexed.obj
 0001:000411f0       _UshortIndexedAlphaMaskFill 100421f0 f   UshortIndexed.obj
 0001:000417c0       _IntArgbToUshortIndexedAlphaMaskBlit 100427c0 f   UshortIndexed.obj
 0001:00041e50       _IntArgbPreToUshortIndexedAlphaMaskBlit 10042e50 f   UshortIndexed.obj
 0001:000424e0       _IntRgbToUshortIndexedAlphaMaskBlit 100434e0 f   UshortIndexed.obj
 0001:00042b70       _UshortIndexedDrawGlyphListAA 10043b70 f   UshortIndexed.obj
 0001:00042fc0       _RegisterAny3Byte          10043fc0 f   Any3Byte.obj
 0001:00042fe0       _Any3ByteIsomorphicCopy    10043fe0 f   Any3Byte.obj
 0001:00043040       _Any3ByteIsomorphicScaleCopy 10044040 f   Any3Byte.obj
 0001:00043120       _Any3ByteIsomorphicXorCopy 10044120 f   Any3Byte.obj
 0001:00043230       _Any3ByteSetRect           10044230 f   Any3Byte.obj
 0001:000432f0       _Any3ByteSetSpans          100442f0 f   Any3Byte.obj
 0001:000433e0       _Any3ByteSetParallelogram  100443e0 f   Any3Byte.obj
 0001:000434f0       _Any3ByteSetLine           100444f0 f   Any3Byte.obj
 0001:00043690       _Any3ByteXorRect           10044690 f   Any3Byte.obj
 0001:00043800       _Any3ByteXorSpans          10044800 f   Any3Byte.obj
 0001:000439b0       _Any3ByteXorLine           100449b0 f   Any3Byte.obj
 0001:00043c30       _Any3ByteDrawGlyphList     10044c30 f   Any3Byte.obj
 0001:00043e10       _Any3ByteDrawGlyphListXor  10044e10 f   Any3Byte.obj
 0001:000440a0       _RegisterThreeByteBgr      100450a0 f   ThreeByteBgr.obj
 0001:000440c0       _ThreeByteBgrToIntArgbConvert 100450c0 f   ThreeByteBgr.obj
 0001:00044180       _IntArgbToThreeByteBgrConvert 10045180 f   ThreeByteBgr.obj
 0001:00044240       _ByteGrayToThreeByteBgrConvert 10045240 f   ThreeByteBgr.obj
 0001:00044300       _ByteIndexedToThreeByteBgrConvert 10045300 f   ThreeByteBgr.obj
 0001:000443d0       _ThreeByteBgrToIntArgbScaleConvert 100453d0 f   ThreeByteBgr.obj
 0001:000444c0       _IntArgbToThreeByteBgrScaleConvert 100454c0 f   ThreeByteBgr.obj
 0001:000445a0       _ByteGrayToThreeByteBgrScaleConvert 100455a0 f   ThreeByteBgr.obj
 0001:00044680       _ByteIndexedToThreeByteBgrScaleConvert 10045680 f   ThreeByteBgr.obj
 0001:00044770       _ByteIndexedBmToThreeByteBgrXparOver 10045770 f   ThreeByteBgr.obj
 0001:00044840       _ByteIndexedBmToThreeByteBgrScaleXparOver 10045840 f   ThreeByteBgr.obj
 0001:00044930       _IntArgbBmToThreeByteBgrScaleXparOver 10045930 f   ThreeByteBgr.obj
 0001:00044a20       _ByteIndexedBmToThreeByteBgrXparBgCopy 10045a20 f   ThreeByteBgr.obj
 0001:00044b40       _IntArgbBmToThreeByteBgrXparOver 10045b40 f   ThreeByteBgr.obj
 0001:00044c10       _IntArgbBmToThreeByteBgrXparBgCopy 10045c10 f   ThreeByteBgr.obj
 0001:00044d20       _IntArgbToThreeByteBgrXorBlit 10045d20 f   ThreeByteBgr.obj
 0001:00044ea0       _ThreeByteBgrSrcMaskFill   10045ea0 f   ThreeByteBgr.obj
 0001:00045200       _ThreeByteBgrSrcOverMaskFill 10046200 f   ThreeByteBgr.obj
 0001:00045650       _ThreeByteBgrAlphaMaskFill 10046650 f   ThreeByteBgr.obj
 0001:00045aa0       _IntArgbToThreeByteBgrSrcOverMaskBlit 10046aa0 f   ThreeByteBgr.obj
 0001:00046000       _IntArgbToThreeByteBgrAlphaMaskBlit 10047000 f   ThreeByteBgr.obj
 0001:000464f0       _IntArgbPreToThreeByteBgrSrcOverMaskBlit 100474f0 f   ThreeByteBgr.obj
 0001:00046a70       _IntArgbPreToThreeByteBgrAlphaMaskBlit 10047a70 f   ThreeByteBgr.obj
 0001:00046f60       _IntRgbToThreeByteBgrAlphaMaskBlit 10047f60 f   ThreeByteBgr.obj
 0001:00047450       _ThreeByteBgrDrawGlyphListAA 10048450 f   ThreeByteBgr.obj
 0001:00047780       _ThreeByteBgrDrawGlyphListLCD 10048780 f   ThreeByteBgr.obj
 0001:00047c30       _ThreeByteBgrNrstNbrTransformHelper 10048c30 f   ThreeByteBgr.obj
 0001:00047d50       _ThreeByteBgrBilinearTransformHelper 10048d50 f   ThreeByteBgr.obj
 0001:00047fb0       _ThreeByteBgrBicubicTransformHelper 10048fb0 f   ThreeByteBgr.obj
 0001:000485c0       _RegisterAnyInt            100495c0 f   AnyInt.obj
 0001:000485e0       _AnyIntIsomorphicCopy      100495e0 f   AnyInt.obj
 0001:00048640       _AnyIntIsomorphicXorCopy   10049640 f   AnyInt.obj
 0001:000486f0       _AnyIntIsomorphicScaleCopy 100496f0 f   AnyInt.obj
 0001:000487a0       _AnyIntSetRect             100497a0 f   AnyInt.obj
 0001:00048820       _AnyIntSetSpans            10049820 f   AnyInt.obj
 0001:000488d0       _AnyIntSetParallelogram    100498d0 f   AnyInt.obj
 0001:000489a0       _AnyIntSetLine             100499a0 f   AnyInt.obj
 0001:00048af0       _AnyIntXorRect             10049af0 f   AnyInt.obj
 0001:00048b90       _AnyIntXorSpans            10049b90 f   AnyInt.obj
 0001:00048c60       _AnyIntXorLine             10049c60 f   AnyInt.obj
 0001:00048de0       _AnyIntDrawGlyphList       10049de0 f   AnyInt.obj
 0001:00048f80       _AnyIntDrawGlyphListXor    10049f80 f   AnyInt.obj
 0001:00049140       _RegisterIntArgb           1004a140 f   IntArgb.obj
 0001:00049160       _ByteIndexedToIntArgbConvert 1004a160 f   IntArgb.obj
 0001:00049210       _Index12GrayToIntArgbConvert 1004a210 f   IntArgb.obj
 0001:000492c0       _ByteIndexedToIntArgbScaleConvert 1004a2c0 f   IntArgb.obj
 0001:00049390       _ByteIndexedBmToIntArgbXparOver 1004a390 f   IntArgb.obj
 0001:00049450       _ByteIndexedBmToIntArgbScaleXparOver 1004a450 f   IntArgb.obj
 0001:00049520       _IntArgbBmToIntArgbScaleXparOver 1004a520 f   IntArgb.obj
 0001:000495f0       _ByteIndexedBmToIntArgbXparBgCopy 1004a5f0 f   IntArgb.obj
 0001:000496b0       _IntArgbToIntArgbXorBlit   1004a6b0 f   IntArgb.obj
 0001:00049780       _IntArgbSrcMaskFill        1004a780 f   IntArgb.obj
 0001:00049ab0       _IntArgbSrcOverMaskFill    1004aab0 f   IntArgb.obj
 0001:00049f50       _IntArgbAlphaMaskFill      1004af50 f   IntArgb.obj
 0001:0004a3b0       _IntArgbToIntArgbSrcOverMaskBlit 1004b3b0 f   IntArgb.obj
 0001:0004a970       _IntArgbToIntArgbAlphaMaskBlit 1004b970 f   IntArgb.obj
 0001:0004ae70       _IntArgbPreToIntArgbSrcOverMaskBlit 1004be70 f   IntArgb.obj
 0001:0004b440       _IntArgbPreToIntArgbAlphaMaskBlit 1004c440 f   IntArgb.obj
 0001:0004b940       _IntRgbToIntArgbAlphaMaskBlit 1004c940 f   IntArgb.obj
 0001:0004be40       _IntArgbDrawGlyphListAA    1004ce40 f   IntArgb.obj
 0001:0004c1b0       _IntArgbDrawGlyphListLCD   1004d1b0 f   IntArgb.obj
 0001:0004c690       _IntArgbNrstNbrTransformHelper 1004d690 f   IntArgb.obj
 0001:0004c810       _IntArgbBilinearTransformHelper 1004d810 f   IntArgb.obj
 0001:0004cc70       _IntArgbBicubicTransformHelper 1004dc70 f   IntArgb.obj
 0001:0004de70       _RegisterIntArgbPre        1004ee70 f   IntArgbPre.obj
 0001:0004de90       _PixelForIntArgbPre        1004ee90 f   IntArgbPre.obj
 0001:0004df40       _IntArgbPreToIntArgbConvert 1004ef40 f   IntArgbPre.obj
 0001:0004e0a0       _IntArgbToIntArgbPreConvert 1004f0a0 f   IntArgbPre.obj
 0001:0004e200       _IntRgbToIntArgbPreConvert 1004f200 f   IntArgbPre.obj
 0001:0004e360       _ThreeByteBgrToIntArgbPreConvert 1004f360 f   IntArgbPre.obj
 0001:0004e4e0       _ByteGrayToIntArgbPreConvert 1004f4e0 f   IntArgbPre.obj
 0001:0004e650       _ByteIndexedToIntArgbPreConvert 1004f650 f   IntArgbPre.obj
 0001:0004e7c0       _IntArgbPreToIntArgbScaleConvert 1004f7c0 f   IntArgbPre.obj
 0001:0004e930       _IntArgbToIntArgbPreScaleConvert 1004f930 f   IntArgbPre.obj
 0001:0004eaa0       _IntRgbToIntArgbPreScaleConvert 1004faa0 f   IntArgbPre.obj
 0001:0004ec10       _ThreeByteBgrToIntArgbPreScaleConvert 1004fc10 f   IntArgbPre.obj
 0001:0004edb0       _ByteGrayToIntArgbPreScaleConvert 1004fdb0 f   IntArgbPre.obj
 0001:0004ef40       _ByteIndexedToIntArgbPreScaleConvert 1004ff40 f   IntArgbPre.obj
 0001:0004f0c0       _ByteIndexedBmToIntArgbPreXparOver 100500c0 f   IntArgbPre.obj
 0001:0004f230       _ByteIndexedBmToIntArgbPreScaleXparOver 10050230 f   IntArgbPre.obj
 0001:0004f3c0       _ByteIndexedBmToIntArgbPreXparBgCopy 100503c0 f   IntArgbPre.obj
 0001:0004f540       _IntArgbToIntArgbPreXorBlit 10050540 f   IntArgbPre.obj
 0001:0004f6d0       _IntArgbPreSrcMaskFill     100506d0 f   IntArgbPre.obj
 0001:0004f9f0       _IntArgbPreSrcOverMaskFill 100509f0 f   IntArgbPre.obj
 0001:0004fe60       _IntArgbPreAlphaMaskFill   10050e60 f   IntArgbPre.obj
 0001:000502b0       _IntArgbToIntArgbPreSrcOverMaskBlit 100512b0 f   IntArgbPre.obj
 0001:00050840       _IntArgbToIntArgbPreAlphaMaskBlit 10051840 f   IntArgbPre.obj
 0001:00050d30       _IntArgbPreToIntArgbPreSrcOverMaskBlit 10051d30 f   IntArgbPre.obj
 0001:000512d0       _IntArgbPreToIntArgbPreAlphaMaskBlit 100522d0 f   IntArgbPre.obj
 0001:000517c0       _IntRgbToIntArgbPreAlphaMaskBlit 100527c0 f   IntArgbPre.obj
 0001:00051cb0       _IntArgbPreDrawGlyphListAA 10052cb0 f   IntArgbPre.obj
 0001:00052050       _IntArgbPreDrawGlyphListLCD 10053050 f   IntArgbPre.obj
 0001:00052570       _IntArgbPreNrstNbrTransformHelper 10053570 f   IntArgbPre.obj
 0001:00052640       _IntArgbPreBilinearTransformHelper 10053640 f   IntArgbPre.obj
 0001:000527e0       _IntArgbPreBicubicTransformHelper 100537e0 f   IntArgbPre.obj
 0001:00052ab0       _RegisterIntArgbBm         10053ab0 f   IntArgbBm.obj
 0001:00052ad0       _PixelForIntArgbBm         10053ad0 f   IntArgbBm.obj
 0001:00052af0       _IntArgbBmToIntArgbConvert 10053af0 f   IntArgbBm.obj
 0001:00052ba0       _IntArgbToIntArgbBmConvert 10053ba0 f   IntArgbBm.obj
 0001:00052c50       _ByteIndexedToIntArgbBmConvert 10053c50 f   IntArgbBm.obj
 0001:00052d10       _IntArgbToIntArgbBmScaleConvert 10053d10 f   IntArgbBm.obj
 0001:00052dd0       _ByteIndexedToIntArgbBmScaleConvert 10053dd0 f   IntArgbBm.obj
 0001:00052ea0       _ByteIndexedBmToIntArgbBmXparOver 10053ea0 f   IntArgbBm.obj
 0001:00053090       _ByteIndexedBmToIntArgbBmScaleXparOver 10054090 f   IntArgbBm.obj
 0001:000532a0       _ByteIndexedBmToIntArgbBmXparBgCopy 100542a0 f   IntArgbBm.obj
 0001:00053490       _IntArgbToIntArgbBmXorBlit 10054490 f   IntArgbBm.obj
 0001:00053570       _IntArgbBmAlphaMaskFill    10054570 f   IntArgbBm.obj
 0001:000539e0       _IntArgbToIntArgbBmAlphaMaskBlit 100549e0 f   IntArgbBm.obj
 0001:00053ef0       _IntArgbPreToIntArgbBmAlphaMaskBlit 10054ef0 f   IntArgbBm.obj
 0001:00054400       _IntArgbBmDrawGlyphListAA  10055400 f   IntArgbBm.obj
 0001:00054780       _IntArgbBmDrawGlyphListLCD 10055780 f   IntArgbBm.obj
 0001:00054c70       _IntArgbBmNrstNbrTransformHelper 10055c70 f   IntArgbBm.obj
 0001:00054d60       _IntArgbBmBilinearTransformHelper 10055d60 f   IntArgbBm.obj
 0001:00054f80       _IntArgbBmBicubicTransformHelper 10055f80 f   IntArgbBm.obj
 0001:00055470       _RegisterIntRgb            10056470 f   IntRgb.obj
 0001:00055490       _IntRgbToIntArgbConvert    10056490 f   IntRgb.obj
 0001:00055540       _ThreeByteBgrToIntRgbConvert 10056540 f   IntRgb.obj
 0001:00055600       _ByteGrayToIntRgbConvert   10056600 f   IntRgb.obj
 0001:000556c0       _IntArgbBmToIntRgbXparOver 100566c0 f   IntRgb.obj
 0001:00055770       _IntArgbBmToIntRgbXparBgCopy 10056770 f   IntRgb.obj
 0001:00055830       _IntRgbToIntArgbScaleConvert 10056830 f   IntRgb.obj
 0001:000558f0       _ThreeByteBgrToIntRgbScaleConvert 100568f0 f   IntRgb.obj
 0001:000559e0       _ByteGrayToIntRgbScaleConvert 100569e0 f   IntRgb.obj
 0001:00055ab0       _IntArgbToIntRgbXorBlit    10056ab0 f   IntRgb.obj
 0001:00055b80       _IntRgbSrcMaskFill         10056b80 f   IntRgb.obj
 0001:00055e90       _IntRgbSrcOverMaskFill     10056e90 f   IntRgb.obj
 0001:000562f0       _IntRgbAlphaMaskFill       100572f0 f   IntRgb.obj
 0001:00056750       _IntArgbToIntRgbSrcOverMaskBlit 10057750 f   IntRgb.obj
 0001:00056cd0       _IntArgbToIntRgbAlphaMaskBlit 10057cd0 f   IntRgb.obj
 0001:000571d0       _IntArgbPreToIntRgbSrcOverMaskBlit 100581d0 f   IntRgb.obj
 0001:00057760       _IntArgbPreToIntRgbAlphaMaskBlit 10058760 f   IntRgb.obj
 0001:00057c50       _IntRgbToIntRgbAlphaMaskBlit 10058c50 f   IntRgb.obj
 0001:00058150       _IntRgbDrawGlyphListAA     10059150 f   IntRgb.obj
 0001:00058420       _IntRgbDrawGlyphListLCD    10059420 f   IntRgb.obj
 0001:00058850       _IntRgbNrstNbrTransformHelper 10059850 f   IntRgb.obj
 0001:00058920       _IntRgbBilinearTransformHelper 10059920 f   IntRgb.obj
 0001:00058ad0       _IntRgbBicubicTransformHelper 10059ad0 f   IntRgb.obj
 0001:00058e00       _RegisterIntBgr            10059e00 f   IntBgr.obj
 0001:00058e20       _PixelForIntBgr            10059e20 f   IntBgr.obj
 0001:00058e50       _IntBgrToIntArgbConvert    10059e50 f   IntBgr.obj
 0001:00058f20       _IntArgbToIntBgrConvert    10059f20 f   IntBgr.obj
 0001:00058fe0       _ThreeByteBgrToIntBgrConvert 10059fe0 f   IntBgr.obj
 0001:000590b0       _ByteIndexedToIntBgrConvert 1005a0b0 f   IntBgr.obj
 0001:00059280       _IntBgrToIntArgbScaleConvert 1005a280 f   IntBgr.obj
 0001:00059370       _IntArgbToIntBgrScaleConvert 1005a370 f   IntBgr.obj
 0001:00059450       _ThreeByteBgrToIntBgrScaleConvert 1005a450 f   IntBgr.obj
 0001:00059540       _ByteIndexedToIntBgrScaleConvert 1005a540 f   IntBgr.obj
 0001:00059730       _ByteIndexedBmToIntBgrXparOver 1005a730 f   IntBgr.obj
 0001:00059950       _IntArgbBmToIntBgrXparOver 1005a950 f   IntBgr.obj
 0001:00059a20       _IntArgbBmToIntBgrScaleXparOver 1005aa20 f   IntBgr.obj
 0001:00059b10       _ByteIndexedBmToIntBgrScaleXparOver 1005ab10 f   IntBgr.obj
 0001:00059d40       _ByteIndexedBmToIntBgrXparBgCopy 1005ad40 f   IntBgr.obj
 0001:00059f40       _IntArgbBmToIntBgrXparBgCopy 1005af40 f   IntBgr.obj
 0001:0005a020       _IntArgbToIntBgrXorBlit    1005b020 f   IntBgr.obj
 0001:0005a110       _IntBgrSrcMaskFill         1005b110 f   IntBgr.obj
 0001:0005a440       _IntBgrSrcOverMaskFill     1005b440 f   IntBgr.obj
 0001:0005a8a0       _IntBgrAlphaMaskFill       1005b8a0 f   IntBgr.obj
 0001:0005ad00       _IntArgbToIntBgrSrcOverMaskBlit 1005bd00 f   IntBgr.obj
 0001:0005b280       _IntArgbToIntBgrAlphaMaskBlit 1005c280 f   IntBgr.obj
 0001:0005b780       _IntArgbPreToIntBgrSrcOverMaskBlit 1005c780 f   IntBgr.obj
 0001:0005bd10       _IntArgbPreToIntBgrAlphaMaskBlit 1005cd10 f   IntBgr.obj
 0001:0005c200       _IntRgbToIntBgrAlphaMaskBlit 1005d200 f   IntBgr.obj
 0001:0005c700       _IntBgrToIntBgrAlphaMaskBlit 1005d700 f   IntBgr.obj
 0001:0005cc00       _IntBgrDrawGlyphListAA     1005dc00 f   IntBgr.obj
 0001:0005ced0       _IntBgrDrawGlyphListLCD    1005ded0 f   IntBgr.obj
 0001:0005d300       _IntBgrNrstNbrTransformHelper 1005e300 f   IntBgr.obj
 0001:0005d400       _IntBgrBilinearTransformHelper 1005e400 f   IntBgr.obj
 0001:0005d650       _IntBgrBicubicTransformHelper 1005e650 f   IntBgr.obj
 0001:0005dbd0       _RegisterIntRgbx           1005ebd0 f   IntRgbx.obj
 0001:0005dbf0       _PixelForIntRgbx           1005ebf0 f   IntRgbx.obj
 0001:0005dc00       _IntRgbxToIntArgbConvert   1005ec00 f   IntRgbx.obj
 0001:0005dcb0       _IntArgbToIntRgbxConvert   1005ecb0 f   IntRgbx.obj
 0001:0005dd60       _ThreeByteBgrToIntRgbxConvert 1005ed60 f   IntRgbx.obj
 0001:0005de20       _ByteGrayToIntRgbxConvert  1005ee20 f   IntRgbx.obj
 0001:0005dee0       _ByteIndexedToIntRgbxConvert 1005eee0 f   IntRgbx.obj
 0001:0005df90       _IntRgbxToIntArgbScaleConvert 1005ef90 f   IntRgbx.obj
 0001:0005e050       _IntArgbToIntRgbxScaleConvert 1005f050 f   IntRgbx.obj
 0001:0005e110       _ThreeByteBgrToIntRgbxScaleConvert 1005f110 f   IntRgbx.obj
 0001:0005e200       _ByteGrayToIntRgbxScaleConvert 1005f200 f   IntRgbx.obj
 0001:0005e2d0       _ByteIndexedToIntRgbxScaleConvert 1005f2d0 f   IntRgbx.obj
 0001:0005e3a0       _ByteIndexedBmToIntRgbxXparOver 1005f3a0 f   IntRgbx.obj
 0001:0005e460       _ByteIndexedBmToIntRgbxScaleXparOver 1005f460 f   IntRgbx.obj
 0001:0005e530       _IntArgbBmToIntRgbxScaleXparOver 1005f530 f   IntRgbx.obj
 0001:0005e600       _ByteIndexedBmToIntRgbxXparBgCopy 1005f600 f   IntRgbx.obj
 0001:0005e6d0       _IntArgbToIntRgbxXorBlit   1005f6d0 f   IntRgbx.obj
 0001:0005e7b0       _IntRgbxSrcMaskFill        1005f7b0 f   IntRgbx.obj
 0001:0005ead0       _IntRgbxSrcOverMaskFill    1005fad0 f   IntRgbx.obj
 0001:0005ef40       _IntRgbxAlphaMaskFill      1005ff40 f   IntRgbx.obj
 0001:0005f3a0       _IntArgbToIntRgbxSrcOverMaskBlit 100603a0 f   IntRgbx.obj
 0001:0005f930       _IntArgbToIntRgbxAlphaMaskBlit 10060930 f   IntRgbx.obj
 0001:0005fe30       _IntArgbPreToIntRgbxSrcOverMaskBlit 10060e30 f   IntRgbx.obj
 0001:000603d0       _IntArgbPreToIntRgbxAlphaMaskBlit 100613d0 f   IntRgbx.obj
 0001:000608d0       _IntRgbToIntRgbxAlphaMaskBlit 100618d0 f   IntRgbx.obj
 0001:00060dd0       _IntRgbxDrawGlyphListAA    10061dd0 f   IntRgbx.obj
 0001:000610b0       _IntRgbxDrawGlyphListLCD   100620b0 f   IntRgbx.obj
 0001:000614e0       _IntRgbxNrstNbrTransformHelper 100624e0 f   IntRgbx.obj
 0001:000615b0       _IntRgbxBilinearTransformHelper 100625b0 f   IntRgbx.obj
 0001:00061770       _IntRgbxBicubicTransformHelper 10062770 f   IntRgbx.obj
 0001:00061ad0       _RegisterAny4Byte          10062ad0 f   Any4Byte.obj
 0001:00061af0       _Any4ByteIsomorphicCopy    10062af0 f   Any4Byte.obj
 0001:00061b50       _Any4ByteIsomorphicScaleCopy 10062b50 f   Any4Byte.obj
 0001:00061c40       _Any4ByteIsomorphicXorCopy 10062c40 f   Any4Byte.obj
 0001:00061d80       _Any4ByteSetRect           10062d80 f   Any4Byte.obj
 0001:00061e50       _Any4ByteSetSpans          10062e50 f   Any4Byte.obj
 0001:00061f50       _Any4ByteSetParallelogram  10062f50 f   Any4Byte.obj
 0001:00062070       _Any4ByteSetLine           10063070 f   Any4Byte.obj
 0001:00062220       _Any4ByteXorRect           10063220 f   Any4Byte.obj
 0001:000623c0       _Any4ByteXorSpans          100633c0 f   Any4Byte.obj
 0001:000625a0       _Any4ByteXorLine           100635a0 f   Any4Byte.obj
 0001:00062880       _Any4ByteDrawGlyphList     10063880 f   Any4Byte.obj
 0001:00062a70       _Any4ByteDrawGlyphListXor  10063a70 f   Any4Byte.obj
 0001:00062d30       _RegisterFourByteAbgr      10063d30 f   FourByteAbgr.obj
 0001:00062d50       _PixelForFourByteAbgr      10063d50 f   FourByteAbgr.obj
 0001:00062d70       _FourByteAbgrToIntArgbConvert 10063d70 f   FourByteAbgr.obj
 0001:00062e40       _IntArgbToFourByteAbgrConvert 10063e40 f   FourByteAbgr.obj
 0001:00062f50       _IntRgbToFourByteAbgrConvert 10063f50 f   FourByteAbgr.obj
 0001:00063050       _ThreeByteBgrToFourByteAbgrConvert 10064050 f   FourByteAbgr.obj
 0001:00063130       _ByteGrayToFourByteAbgrConvert 10064130 f   FourByteAbgr.obj
 0001:00063200       _ByteIndexedToFourByteAbgrConvert 10064200 f   FourByteAbgr.obj
 0001:000632e0       _FourByteAbgrToIntArgbScaleConvert 100642e0 f   FourByteAbgr.obj
 0001:000633d0       _IntArgbToFourByteAbgrScaleConvert 100643d0 f   FourByteAbgr.obj
 0001:000634f0       _IntRgbToFourByteAbgrScaleConvert 100644f0 f   FourByteAbgr.obj
 0001:00063600       _ThreeByteBgrToFourByteAbgrScaleConvert 10064600 f   FourByteAbgr.obj
 0001:00063710       _ByteGrayToFourByteAbgrScaleConvert 10064710 f   FourByteAbgr.obj
 0001:000637f0       _ByteIndexedToFourByteAbgrScaleConvert 100647f0 f   FourByteAbgr.obj
 0001:000638e0       _ByteIndexedBmToFourByteAbgrXparOver 100648e0 f   FourByteAbgr.obj
 0001:000639c0       _ByteIndexedBmToFourByteAbgrScaleXparOver 100649c0 f   FourByteAbgr.obj
 0001:00063ac0       _IntArgbBmToFourByteAbgrScaleXparOver 10064ac0 f   FourByteAbgr.obj
 0001:00063bb0       _ByteIndexedBmToFourByteAbgrXparBgCopy 10064bb0 f   FourByteAbgr.obj
 0001:00063cf0       _IntArgbToFourByteAbgrXorBlit 10064cf0 f   FourByteAbgr.obj
 0001:00063ec0       _FourByteAbgrSrcMaskFill   10064ec0 f   FourByteAbgr.obj
 0001:00064240       _FourByteAbgrSrcOverMaskFill 10065240 f   FourByteAbgr.obj
 0001:000646d0       _FourByteAbgrAlphaMaskFill 100656d0 f   FourByteAbgr.obj
 0001:00064b20       _IntArgbToFourByteAbgrSrcOverMaskBlit 10065b20 f   FourByteAbgr.obj
 0001:000650c0       _IntArgbToFourByteAbgrAlphaMaskBlit 100660c0 f   FourByteAbgr.obj
 0001:000655b0       _IntArgbPreToFourByteAbgrSrcOverMaskBlit 100665b0 f   FourByteAbgr.obj
 0001:00065b70       _IntArgbPreToFourByteAbgrAlphaMaskBlit 10066b70 f   FourByteAbgr.obj
 0001:00066060       _IntRgbToFourByteAbgrAlphaMaskBlit 10067060 f   FourByteAbgr.obj
 0001:00066560       _FourByteAbgrDrawGlyphListAA 10067560 f   FourByteAbgr.obj
 0001:00066920       _FourByteAbgrDrawGlyphListLCD 10067920 f   FourByteAbgr.obj
 0001:00066e90       _FourByteAbgrNrstNbrTransformHelper 10067e90 f   FourByteAbgr.obj
 0001:00067020       _FourByteAbgrBilinearTransformHelper 10068020 f   FourByteAbgr.obj
 0001:00067450       _FourByteAbgrBicubicTransformHelper 10068450 f   FourByteAbgr.obj
 0001:00068480       _RegisterFourByteAbgrPre   10069480 f   FourByteAbgrPre.obj
 0001:000684a0       _PixelForFourByteAbgrPre   100694a0 f   FourByteAbgrPre.obj
 0001:00068560       _FourByteAbgrPreToIntArgbConvert 10069560 f   FourByteAbgrPre.obj
 0001:000686b0       _IntArgbToFourByteAbgrPreConvert 100696b0 f   FourByteAbgrPre.obj
 0001:00068820       _IntRgbToFourByteAbgrPreConvert 10069820 f   FourByteAbgrPre.obj
 0001:00068920       _ThreeByteBgrToFourByteAbgrPreConvert 10069920 f   FourByteAbgrPre.obj
 0001:00068a00       _ByteGrayToFourByteAbgrPreConvert 10069a00 f   FourByteAbgrPre.obj
 0001:00068ad0       _ByteIndexedToFourByteAbgrPreConvert 10069ad0 f   FourByteAbgrPre.obj
 0001:00068c50       _FourByteAbgrPreToIntArgbScaleConvert 10069c50 f   FourByteAbgrPre.obj
 0001:00068dd0       _IntArgbToFourByteAbgrPreScaleConvert 10069dd0 f   FourByteAbgrPre.obj
 0001:00068f50       _IntRgbToFourByteAbgrPreScaleConvert 10069f50 f   FourByteAbgrPre.obj
 0001:00069060       _ThreeByteBgrToFourByteAbgrPreScaleConvert 1006a060 f   FourByteAbgrPre.obj
 0001:00069170       _ByteGrayToFourByteAbgrPreScaleConvert 1006a170 f   FourByteAbgrPre.obj
 0001:00069250       _ByteIndexedToFourByteAbgrPreScaleConvert 1006a250 f   FourByteAbgrPre.obj
 0001:000693e0       _ByteIndexedBmToFourByteAbgrPreXparOver 1006a3e0 f   FourByteAbgrPre.obj
 0001:00069570       _ByteIndexedBmToFourByteAbgrPreScaleXparOver 1006a570 f   FourByteAbgrPre.obj
 0001:00069710       _IntArgbBmToFourByteAbgrPreScaleXparOver 1006a710 f   FourByteAbgrPre.obj
 0001:00069800       _ByteIndexedBmToFourByteAbgrPreXparBgCopy 1006a800 f   FourByteAbgrPre.obj
 0001:000699e0       _IntArgbToFourByteAbgrPreXorBlit 1006a9e0 f   FourByteAbgrPre.obj
 0001:00069c60       _FourByteAbgrPreSrcMaskFill 1006ac60 f   FourByteAbgrPre.obj
 0001:00069f90       _FourByteAbgrPreSrcOverMaskFill 1006af90 f   FourByteAbgrPre.obj
 0001:0006a3f0       _FourByteAbgrPreAlphaMaskFill 1006b3f0 f   FourByteAbgrPre.obj
 0001:0006a840       _IntArgbToFourByteAbgrPreSrcOverMaskBlit 1006b840 f   FourByteAbgrPre.obj
 0001:0006adb0       _IntArgbToFourByteAbgrPreAlphaMaskBlit 1006bdb0 f   FourByteAbgrPre.obj
 0001:0006b290       _IntArgbPreToFourByteAbgrPreSrcOverMaskBlit 1006c290 f   FourByteAbgrPre.obj
 0001:0006b810       _IntArgbPreToFourByteAbgrPreAlphaMaskBlit 1006c810 f   FourByteAbgrPre.obj
 0001:0006bcf0       _IntRgbToFourByteAbgrPreAlphaMaskBlit 1006ccf0 f   FourByteAbgrPre.obj
 0001:0006c1d0       _FourByteAbgrPreDrawGlyphListAA 1006d1d0 f   FourByteAbgrPre.obj
 0001:0006c5d0       _FourByteAbgrPreDrawGlyphListLCD 1006d5d0 f   FourByteAbgrPre.obj
 0001:0006cb70       _FourByteAbgrPreNrstNbrTransformHelper 1006db70 f   FourByteAbgrPre.obj
 0001:0006cc90       _FourByteAbgrPreBilinearTransformHelper 1006dc90 f   FourByteAbgrPre.obj
 0001:0006cf00       _FourByteAbgrPreBicubicTransformHelper 1006df00 f   FourByteAbgrPre.obj
 0001:0006d550       _Java_sun_java2d_pipe_BufferedMaskBlit_enqueueTile@76 1006e550 f   BufferedMaskBlit.obj
 0001:0006e030       _Java_sun_java2d_pipe_BufferedRenderPipe_fillSpans@48 1006f030 f   BufferedRenderPipe.obj
 0001:0006e270       _Java_sun_java2d_pipe_RenderBuffer_copyFromArray@36 1006f270 f   RenderBuffer.obj
 0001:0006e370       _Java_sun_java2d_pipe_ShapeSpanIterator_initIDs@8 1006f370 f   ShapeSpanIterator.obj
 0001:0006e3a0       _Java_sun_java2d_pipe_ShapeSpanIterator_setNormalize@12 1006f3a0 f   ShapeSpanIterator.obj
 0001:0006e470       _Java_sun_java2d_pipe_ShapeSpanIterator_setOutputAreaXYXY@24 1006f470 f   ShapeSpanIterator.obj
 0001:0006e540       _Java_sun_java2d_pipe_ShapeSpanIterator_setRule@12 1006f540 f   ShapeSpanIterator.obj
 0001:0006e580       _Java_sun_java2d_pipe_ShapeSpanIterator_addSegment@16 1006f580 f   ShapeSpanIterator.obj
 0001:0006f010       _Java_sun_java2d_pipe_ShapeSpanIterator_getPathBox@12 10070010 f   ShapeSpanIterator.obj
 0001:0006f070       _Java_sun_java2d_pipe_ShapeSpanIterator_intersectClipBox@24 10070070 f   ShapeSpanIterator.obj
 0001:0006f0c0       _Java_sun_java2d_pipe_ShapeSpanIterator_nextSpan@12 100700c0 f   ShapeSpanIterator.obj
 0001:0006f130       _Java_sun_java2d_pipe_ShapeSpanIterator_skipDownTo@12 10070130 f   ShapeSpanIterator.obj
 0001:0006f170       _Java_sun_java2d_pipe_ShapeSpanIterator_getNativeIterator@8 10070170 f   ShapeSpanIterator.obj
 0001:0006f180       _Java_sun_java2d_pipe_ShapeSpanIterator_dispose@8 10070180 f   ShapeSpanIterator.obj
 0001:0006f210       _Java_sun_java2d_pipe_ShapeSpanIterator_beginSubpath@16 10070210 f   ShapeSpanIterator.obj
 0001:0006f430       _Java_sun_java2d_pipe_ShapeSpanIterator_appendPoly@28 10070430 f   ShapeSpanIterator.obj
 0001:0006f9a0       _Java_sun_java2d_pipe_ShapeSpanIterator_appendLine@16 100709a0 f   ShapeSpanIterator.obj
 0001:0006fb60       _Java_sun_java2d_pipe_ShapeSpanIterator_appendQuadratic@24 10070b60 f   ShapeSpanIterator.obj
 0001:0006fe00       _Java_sun_java2d_pipe_ShapeSpanIterator_appendCubic@32 10070e00 f   ShapeSpanIterator.obj
 0001:00070140       _Java_sun_java2d_pipe_ShapeSpanIterator_endPath@8 10071140 f   ShapeSpanIterator.obj
 0001:00070210       _Java_sun_java2d_pipe_ShapeSpanIterator_getCPathConsumer@8 10071210 f   ShapeSpanIterator.obj
 0001:00071f50       _Java_sun_java2d_pipe_SpanClipRenderer_initIDs@16 10072f50 f   SpanClipRenderer.obj
 0001:00072040       _Java_sun_java2d_pipe_SpanClipRenderer_fillTile@28 10073040 f   SpanClipRenderer.obj
 0001:00072200       _Java_sun_java2d_pipe_SpanClipRenderer_eraseTile@28 10073200 f   SpanClipRenderer.obj
 0001:000727c0       _Java_sun_java2d_SurfaceData_initIDs@8 100737c0 f   SurfaceData.obj
 0001:000729c0       _Java_sun_java2d_SurfaceData_setDirtyNative@16 100739c0 f   SurfaceData.obj
 0001:000729f0       _Java_sun_java2d_SurfaceData_isOpaqueGray@12 100739f0 f   SurfaceData.obj
 0001:00072a20       _SurfaceData_MarkDirty     10073a20 f   SurfaceData.obj
 0001:00072ac0       _SurfaceData_SetValid      10073ac0 f   SurfaceData.obj
 0001:00072b20       _SurfaceData_GetOps@8      10073b20 f   SurfaceData.obj
 0001:00072c20       _SurfaceData_GetOpsNoSetup@8 10073c20 f   SurfaceData.obj
 0001:00072c40       _SurfaceData_SetOps@12     10073c40 f   SurfaceData.obj
 0001:00072cb0       _SurfaceData_ThrowInvalidPipeException@8 10073cb0 f   SurfaceData.obj
 0001:00072cd0       _SurfaceData_IntersectBounds@8 10073cd0 f   SurfaceData.obj
 0001:00072d50       _SurfaceData_IntersectBoundsXYXY@20 10073d50 f   SurfaceData.obj
 0001:00072dc0       _SurfaceData_IntersectBoundsXYWH@20 10073dc0 f   SurfaceData.obj
 0001:00072e80       _SurfaceData_IntersectBlitBounds@16 10073e80 f   SurfaceData.obj
 0001:00072f90       _SurfaceData_InitOps       10073f90 f   SurfaceData.obj
 0001:00072ff0       _SurfaceData_DisposeOps    10073ff0 f   SurfaceData.obj
 0001:00073050       _Java_sun_java2d_pipe_Region_initIDs@8 10074050 f   Region.obj
 0001:00073190       _Region_GetInfo@12         10074190 f   Region.obj
 0001:000732b0       _Region_GetBounds@12       100742b0 f   Region.obj
 0001:00073370       _Region_StartIteration@8   10074370 f   Region.obj
 0001:000733d0       _Region_CountIterationRects@4 100743d0 f   Region.obj
 0001:00073510       _Region_NextIteration@8    10074510 f   Region.obj
 0001:00073730       _Region_EndIteration@8     10074730 f   Region.obj
 0001:00073760       _RegionToYXBandedRectangles@32 10074760 f   Region.obj
 0001:000738c0       _DBN_GetPixelPointer       100748c0 f   DataBufferNative.obj
 0001:000739b0       _Java_sun_awt_image_DataBufferNative_getElem@20 100749b0 f   DataBufferNative.obj
 0001:00073ad0       _Java_sun_awt_image_DataBufferNative_setElem@24 10074ad0 f   DataBufferNative.obj
 0001:00073bd0       _Java_sun_awt_image_BufImgSurfaceData_initIDs@8 10074bd0 f   BufImgSurfaceData.obj
 0001:00073cd0       _Java_sun_awt_image_BufImgSurfaceData_freeNativeICMData@12 10074cd0 f   BufImgSurfaceData.obj
 0001:00073d30       _Java_sun_awt_image_BufImgSurfaceData_initRaster@40 10074d30 f   BufImgSurfaceData.obj
 0001:00074320       _Java_sun_java2d_Disposer_initIDs@8 10075320 f   Disposer.obj
 0001:00074380       _Disposer_AddRecord@20     10075380 f   Disposer.obj
 0001:000743e0       _Java_sun_java2d_DefaultDisposerRecord_invokeNativeDispose@24 100753e0 f   Disposer.obj
 0001:00074420       _J2dTraceImpl              10075420 f   Trace.obj
 0001:00074550       _J2dTraceInit@0            10075550 f   Trace.obj
 0001:00074620       _make_uns_ordered_dither_array 10075620 f   img_globals.obj
 0001:00074790       _make_sgn_ordered_dither_array 10075790 f   img_globals.obj
 0001:00074910       _sun_awt_image_GifImageDecoder_parseImage 10075910 f   gifdecoder.obj
 0001:00074920       _sun_awt_image_GifImageDecoder_initIDs 10075920 f   gifdecoder.obj
 0001:00074930       _Java_sun_awt_image_GifImageDecoder_initIDs@8 10075930 f   gifdecoder.obj
 0001:000749f0       _Java_sun_awt_image_GifImageDecoder_parseImage@44 100759f0 f   gifdecoder.obj
 0001:00075720       _awt_parseImage            10076720 f   awt_parseImage.obj
 0001:000758f0       _awt_parseRaster           100768f0 f   awt_parseImage.obj
 0001:000761f0       _awt_parseColorModel       100771f0 f   awt_parseImage.obj
 0001:000767d0       _awt_freeParsedRaster      100777d0 f   awt_parseImage.obj
 0001:00076810       _awt_freeParsedImage       10077810 f   awt_parseImage.obj
 0001:00076f60       _awt_getPixelByte          10077f60 f   awt_parseImage.obj
 0001:000772b0       _awt_setPixelByte          100782b0 f   awt_parseImage.obj
 0001:00077600       _awt_getPixelShort         10078600 f   awt_parseImage.obj
 0001:00077950       _awt_setPixelShort         10078950 f   awt_parseImage.obj
 0001:00077ca0       _Java_sun_awt_image_ImageRepresentation_initIDs@8 10078ca0 f   awt_ImageRep.obj
 0001:00077cf0       _Java_sun_awt_image_ImageRepresentation_setICMpixels@44 10078cf0 f   awt_ImageRep.obj
 0001:00078030       _Java_sun_awt_image_ImageRepresentation_setDiffICM@60 10079030 f   awt_ImageRep.obj
 0001:000786c0       _Java_sun_awt_image_ImagingLib_convolveBI@24 100796c0 f   awt_ImagingLib.obj
 0001:00079010       _Java_sun_awt_image_ImagingLib_convolveRaster@24 1007a010 f   awt_ImagingLib.obj
 0001:00079940       _Java_sun_awt_image_ImagingLib_transformBI@24 1007a940 f   awt_ImagingLib.obj
 0001:00079f40       _Java_sun_awt_image_ImagingLib_transformRaster@24 1007af40 f   awt_ImagingLib.obj
 0001:0007a4f0       _Java_sun_awt_image_ImagingLib_lookupByteBI@20 1007b4f0 f   awt_ImagingLib.obj
 0001:0007ac20       _Java_sun_awt_image_ImagingLib_lookupByteRaster@20 1007bc20 f   awt_ImagingLib.obj
 0001:0007b470       _Java_sun_awt_image_ImagingLib_init@8 1007c470 f   awt_ImagingLib.obj
 0001:00080840       _initInverseGrayLut        10081840 f   dither.obj
 0001:000809e0       _freeICMColorData          100819e0 f   dither.obj
 0001:00080a30       _initCubemap               10081a30 f   dither.obj
 0001:000811b0       _initDitherTables          100821b0 f   dither.obj
 0001:00081220       _make_dither_arrays        10082220 f   dither.obj
 0001:000813c0       _Java_java_awt_image_BufferedImage_initIDs@8 100823c0 f   imageInitIDs.obj
 0001:000814b0       _Java_java_awt_image_Raster_initIDs@8 100824b0 f   imageInitIDs.obj
 0001:000816d0       _Java_sun_awt_image_ByteComponentRaster_initIDs@8 100826d0 f   imageInitIDs.obj
 0001:000817e0       _Java_sun_awt_image_BytePackedRaster_initIDs@8 100827e0 f   imageInitIDs.obj
 0001:000818d0       _Java_sun_awt_image_ShortComponentRaster_initIDs@8 100828d0 f   imageInitIDs.obj
 0001:000819f0       _Java_sun_awt_image_IntegerComponentRaster_initIDs@8 100829f0 f   imageInitIDs.obj
 0001:00081b40       _Java_java_awt_image_SinglePixelPackedSampleModel_initIDs@8 10082b40 f   imageInitIDs.obj
 0001:00081c10       _Java_java_awt_image_ColorModel_initIDs@8 10082c10 f   imageInitIDs.obj
 0001:00081e00       _Java_java_awt_image_IndexColorModel_initIDs@8 10082e00 f   imageInitIDs.obj
 0001:00081ea0       _Java_java_awt_image_SampleModel_initIDs@8 10082ea0 f   imageInitIDs.obj
 0001:00081f70       _Java_java_awt_image_ComponentSampleModel_initIDs@8 10082f70 f   imageInitIDs.obj
 0001:00082010       _Java_java_awt_image_Kernel_initIDs@8 10083010 f   imageInitIDs.obj
 0001:000820b0       _Java_java_awt_image_DataBufferInt_initIDs@8 100830b0 f   imageInitIDs.obj
 0001:000820f0       _DAssert_Impl              100830f0 f   debug_assert.obj
 0001:00082170       _DAssert_SetCallback       10083170 f   debug_assert.obj
 0001:00082180       _DMem_Initialize           10083180 f   debug_mem.obj
 0001:00082200       _DMem_Shutdown             10083200 f   debug_mem.obj
 0001:00082220       _DMem_AllocateBlock        10083220 f   debug_mem.obj
 0001:00082440       _DMem_FreeBlock            10083440 f   debug_mem.obj
 0001:00082770       _DMem_ReportLeaks          10083770 f   debug_mem.obj
 0001:00082910       _DMem_SetAllocCallback     10083910 f   debug_mem.obj
 0001:00082940       _DMem_SetFreeCallback      10083940 f   debug_mem.obj
 0001:00082970       _DMem_SetCheckPtrCallback  10083970 f   debug_mem.obj
 0001:000829a0       _DMem_DisableMutex         100839a0 f   debug_mem.obj
 0001:000829b0       _DTrace_Initialize         100839b0 f   debug_trace.obj
 0001:000829c0       _DTrace_Shutdown           100839c0 f   debug_trace.obj
 0001:000829e0       _DTrace_DisableMutex       100839e0 f   debug_trace.obj
 0001:000829f0       _DTrace_EnableAll          100839f0 f   debug_trace.obj
 0001:00082a20       _DTrace_EnableFile         10083a20 f   debug_trace.obj
 0001:00082cb0       _DTrace_EnableLine         10083cb0 f   debug_trace.obj
 0001:00082d40       _DTrace_VPrintImpl         10083d40 f   debug_trace.obj
 0001:00082df0       _DTrace_PrintImpl          10083df0 f   debug_trace.obj
 0001:00082e20       _DTrace_VPrint             10083e20 f   debug_trace.obj
 0001:00082e60       _DTrace_VPrintln           10083e60 f   debug_trace.obj
 0001:00082e90       _DTrace_PrintFunction      10083e90 f   debug_trace.obj
 0001:00083030       _DTrace_SetOutputCallback  10084030 f   debug_trace.obj
 0001:000830c0       _Java_sun_awt_DebugHelperImpl_printImpl@12 100840c0 f   debug_trace.obj
 0001:00083140       _Java_sun_awt_DebugHelperImpl_printlnImpl@12 10084140 f   debug_trace.obj
 0001:000831d0       _Java_sun_awt_DebugHelperImpl_setCTracingOn__Z@12 100841d0 f   debug_trace.obj
 0001:000831f0       _Java_sun_awt_DebugHelperImpl_setCTracingOn__ZLjava_lang_String_2@16 100841f0 f   debug_trace.obj
 0001:00083240       _Java_sun_awt_DebugHelperImpl_setCTracingOn__ZLjava_lang_String_2I@20 10084240 f   debug_trace.obj
 0001:000832a0       _DMutex_Create             100842a0 f   debug_util.obj
 0001:000832d0       _DMutex_Destroy            100842d0 f   debug_util.obj
 0001:000832f0       _DMutex_Enter              100842f0 f   debug_util.obj
 0001:00083310       _DMutex_Exit               10084310 f   debug_util.obj
 0001:00083330       _OGLBlitLoops_IsoBlit      10084330 f   OGLBlitLoops.obj
 0001:00083fd0       _OGLBlitLoops_Blit         10084fd0 f   OGLBlitLoops.obj
 0001:00084770       _OGLBlitLoops_SurfaceToSwBlit 10085770 f   OGLBlitLoops.obj
 0001:00084b20       _OGLBlitLoops_CopyArea     10085b20 f   OGLBlitLoops.obj
 0001:00084cc0       _OGLBufImgOps_EnableConvolveOp 10085cc0 f   OGLBufImgOps.obj
 0001:00085160       _OGLBufImgOps_DisableConvolveOp 10086160 f   OGLBufImgOps.obj
 0001:000851a0       _OGLBufImgOps_EnableRescaleOp 100861a0 f   OGLBufImgOps.obj
 0001:000854b0       _OGLBufImgOps_DisableRescaleOp 100864b0 f   OGLBufImgOps.obj
 0001:000854f0       _OGLBufImgOps_EnableLookupOp 100864f0 f   OGLBufImgOps.obj
 0001:00085920       _OGLBufImgOps_DisableLookupOp 10086920 f   OGLBufImgOps.obj
 0001:00085990       _OGLContext_SetSurfaces    10086990 f   OGLContext.obj
 0001:00085c90       _OGLContext_ResetClip      10086c90 f   OGLContext.obj
 0001:00085cf0       _OGLContext_SetRectClip    10086cf0 f   OGLContext.obj
 0001:00085de0       _OGLContext_BeginShapeClip 10086de0 f   OGLContext.obj
 0001:00085ea0       _OGLContext_EndShapeClip   10086ea0 f   OGLContext.obj
 0001:00085f30       _OGLContext_SetExtraAlpha  10086f30 f   OGLContext.obj
 0001:00085f90       _OGLContext_ResetComposite 10086f90 f   OGLContext.obj
 0001:00086020       _OGLContext_SetAlphaComposite 10087020 f   OGLContext.obj
 0001:00086120       _OGLContext_SetXorComposite 10087120 f   OGLContext.obj
 0001:000861d0       _OGLContext_ResetTransform 100871d0 f   OGLContext.obj
 0001:00086230       _OGLContext_SetTransform   10087230 f   OGLContext.obj
 0001:000863b0       _OGLContext_CreateBlitTexture 100873b0 f   OGLContext.obj
 0001:00086530       _OGLContext_InitBlitTileTexture 10087530 f   OGLContext.obj
 0001:00086570       _OGLContext_DestroyContextResources 10087570 f   OGLContext.obj
 0001:000865c0       _OGLContext_IsExtensionAvailable 100875c0 f   OGLContext.obj
 0001:000866b0       _OGLContext_GetExtensionInfo 100876b0 f   OGLContext.obj
 0001:00086bf0       _OGLContext_IsVersionSupported 10087bf0 f   OGLContext.obj
 0001:00086c60       _OGLContext_CreateFragmentProgram 10087c60 f   OGLContext.obj
 0001:00086df0       _Java_sun_java2d_opengl_OGLContext_getOGLIdString@8 10087df0 f   OGLContext.obj
 0001:00086f10       _OGLFuncs_OpenLibrary      10087f10 f   OGLFuncs.obj
 0001:00086f60       _OGLFuncs_CloseLibrary     10087f60 f   OGLFuncs.obj
 0001:00086fc0       _OGLFuncs_InitPlatformFuncs 10087fc0 f   OGLFuncs.obj
 0001:00087190       _OGLFuncs_InitBaseFuncs    10088190 f   OGLFuncs.obj
 0001:00088300       _OGLFuncs_InitExtFuncs     10089300 f   OGLFuncs.obj
 0001:00088710       _OGLMaskBlit_MaskBlit      10089710 f   OGLMaskBlit.obj
 0001:00088920       _OGLMaskFill_MaskFill      10089920 f   OGLMaskFill.obj
 0001:00088ab0       _Java_sun_java2d_opengl_OGLMaskFill_maskFill@40 10089ab0 f   OGLMaskFill.obj
 0001:00088b60       _OGLPaints_ResetPaint      10089b60 f   OGLPaints.obj
 0001:00088d30       _OGLPaints_SetColor        10089d30 f   OGLPaints.obj
 0001:00088e80       _OGLPaints_SetGradientPaint 10089e80 f   OGLPaints.obj
 0001:000890c0       _OGLPaints_SetTexturePaint 1008a0c0 f   OGLPaints.obj
 0001:00089300       _OGLPaints_SetLinearGradientPaint 1008a300 f   OGLPaints.obj
 0001:000899a0       _OGLPaints_SetRadialGradientPaint 1008a9a0 f   OGLPaints.obj
 0001:00089c00       _Java_sun_java2d_opengl_OGLRenderQueue_flushBuffer@20 1008ac00 f   OGLRenderQueue.obj
 0001:0008ba10       _OGLRenderQueue_GetCurrentContext 1008ca10 f   OGLRenderQueue.obj
 0001:0008ba20       _OGLRenderQueue_GetCurrentDestination 1008ca20 f   OGLRenderQueue.obj
 0001:0008ba30       _OGLRenderQueue_CheckPreviousOp 1008ca30 f   OGLRenderQueue.obj
 0001:0008bb80       _OGLRenderer_DrawLine      1008cb80 f   OGLRenderer.obj
 0001:0008bd50       _OGLRenderer_DrawRect      1008cd50 f   OGLRenderer.obj
 0001:0008bee0       _OGLRenderer_DrawPoly      1008cee0 f   OGLRenderer.obj
 0001:0008c0d0       _Java_sun_java2d_opengl_OGLRenderer_drawPoly@32 1008d0d0 f   OGLRenderer.obj
 0001:0008c1b0       _OGLRenderer_DrawScanlines 1008d1b0 f   OGLRenderer.obj
 0001:0008c2a0       _OGLRenderer_FillRect      1008d2a0 f   OGLRenderer.obj
 0001:0008c340       _OGLRenderer_FillSpans     1008d340 f   OGLRenderer.obj
 0001:0008c450       _OGLRenderer_FillParallelogram 1008d450 f   OGLRenderer.obj
 0001:0008c530       _OGLRenderer_DrawParallelogram 1008d530 f   OGLRenderer.obj
 0001:0008c8b0       _OGLRenderer_FillAAParallelogram 1008d8b0 f   OGLRenderer.obj
 0001:0008cc80       _OGLRenderer_FillAAParallelogramInnerOuter 1008dc80 f   OGLRenderer.obj
 0001:0008d190       _OGLRenderer_DrawAAParallelogram 1008e190 f   OGLRenderer.obj
 0001:0008d390       _OGLRenderer_EnableAAParallelogramProgram 1008e390 f   OGLRenderer.obj
 0001:0008d3f0       _OGLRenderer_DisableAAParallelogramProgram 1008e3f0 f   OGLRenderer.obj
 0001:0008d410       _OGLSD_NextPowerOfTwo      1008e410 f   OGLSurfaceData.obj
 0001:0008d450       _Java_sun_java2d_opengl_OGLSurfaceData_initTexture@36 1008e450 f   OGLSurfaceData.obj
 0001:0008d870       _OGLSD_InitFBObject        1008e870 f   OGLSurfaceData.obj
 0001:0008da60       _Java_sun_java2d_opengl_OGLSurfaceData_initFBObject@36 1008ea60 f   OGLSurfaceData.obj
 0001:0008db90       _Java_sun_java2d_opengl_OGLSurfaceData_initFlipBackbuffer@16 1008eb90 f   OGLSurfaceData.obj
 0001:0008dc60       _Java_sun_java2d_opengl_OGLSurfaceData_getTextureTarget@16 1008ec60 f   OGLSurfaceData.obj
 0001:0008dcb0       _Java_sun_java2d_opengl_OGLSurfaceData_getTextureID@16 1008ecb0 f   OGLSurfaceData.obj
 0001:0008dd00       _OGLSD_SetNativeDimensions 1008ed00 f   OGLSurfaceData.obj
 0001:0008dd80       _OGLSD_Flush               1008ed80 f   OGLSurfaceData.obj
 0001:0008de60       _OGLSD_Dispose             1008ee60 f   OGLSurfaceData.obj
 0001:0008deb0       _OGLSD_Lock                1008eeb0 f   OGLSurfaceData.obj
 0001:0008ded0       _OGLSD_GetRasInfo          1008eed0 f   OGLSurfaceData.obj
 0001:0008def0       _OGLSD_Unlock              1008eef0 f   OGLSurfaceData.obj
 0001:0008df10       _OGLTR_EnableGlyphVertexCache 1008ef10 f   OGLTextRenderer.obj
 0001:0008e0f0       _OGLTR_DisableGlyphVertexCache 1008f0f0 f   OGLTextRenderer.obj
 0001:0008e160       _OGLTR_DrawGlyphList       1008f160 f   OGLTextRenderer.obj
 0001:0008f830       _Java_sun_java2d_opengl_OGLTextRenderer_drawGlyphList@44 10090830 f   OGLTextRenderer.obj
 0001:0008f960       _OGLVertexCache_InitVertexCache 10090960 f   OGLVertexCache.obj
 0001:0008fa10       _OGLVertexCache_FlushVertexCache 10090a10 f   OGLVertexCache.obj
 0001:0008fa50       _OGLVertexCache_RestoreColorState 10090a50 f   OGLVertexCache.obj
 0001:0008fa80       _OGLVertexCache_EnableMaskCache 10090a80 f   OGLVertexCache.obj
 0001:0008fbb0       _OGLVertexCache_DisableMaskCache 10090bb0 f   OGLVertexCache.obj
 0001:0008fc20       _OGLVertexCache_AddMaskQuad 10090c20 f   OGLVertexCache.obj
 0001:0008ff50       _OGLVertexCache_AddGlyphQuad 10090f50 f   OGLVertexCache.obj
 0001:00090160       _Java_sun_java2d_opengl_WGLGraphicsConfig_initWGL@8 10091160 f   WGLGraphicsConfig.obj
 0001:000901b0       _OGLGC_DestroyOGLGraphicsConfig 100911b0 f   WGLGraphicsConfig.obj
 0001:000902d0       _WGLGC_CreateScratchWindow 100912d0 f   WGLGraphicsConfig.obj
 0001:00090390       _Java_sun_java2d_opengl_WGLGraphicsConfig_getWGLConfigInfo@16 10091390 f   WGLGraphicsConfig.obj
 0001:00090f10       _Java_sun_java2d_opengl_WGLGraphicsConfig_getDefaultPixFmt@12 10091f10 f   WGLGraphicsConfig.obj
 0001:00090f30       _Java_sun_java2d_opengl_WGLGraphicsConfig_getOGLCapabilities@16 10091f30 f   WGLGraphicsConfig.obj
 0001:00090f70       _Java_sun_java2d_opengl_WGLSurfaceData_initOps@28 10091f70 f   WGLSurfaceData.obj
 0001:000910a0       _OGLSD_DestroyOGLSurface   100920a0 f   WGLSurfaceData.obj
 0001:00091120       _OGLSD_GetNativeConfigInfo 10092120 f   WGLSurfaceData.obj
 0001:00091180       _OGLSD_SetScratchSurface   10092180 f   WGLSurfaceData.obj
 0001:00091270       _OGLSD_MakeOGLContextCurrent 10092270 f   WGLSurfaceData.obj
 0001:00091440       _OGLSD_InitOGLWindow       10092440 f   WGLSurfaceData.obj
 0001:000915d0       _Java_sun_java2d_opengl_WGLSurfaceData_initPbuffer@36 100925d0 f   WGLSurfaceData.obj
 0001:000918c0       _OGLSD_SwapBuffers         100928c0 f   WGLSurfaceData.obj
 0001:00091980       _Java_sun_java2d_opengl_WGLSurfaceData_updateWindowAccelImpl@28 10092980 f   WGLSurfaceData.obj
 0001:00091b90       _AccelGlyphCache_Init      10092b90 f   AccelGlyphCache.obj
 0001:00091c20       _AccelGlyphCache_AddGlyph  10092c20 f   AccelGlyphCache.obj
 0001:00091ee0       _AccelGlyphCache_Invalidate 10092ee0 f   AccelGlyphCache.obj
 0001:00091f50       _AccelGlyphCache_Free      10092f50 f   AccelGlyphCache.obj
 0001:00091fe0       _AccelGlyphCache_AddCellInfo 10092fe0 f   AccelGlyphCache.obj
 0001:00092030       _AccelGlyphCache_RemoveCellInfo 10093030 f   AccelGlyphCache.obj
 0001:000920e0       _AccelGlyphCache_RemoveAllCellInfos 100930e0 f   AccelGlyphCache.obj
 0001:00092150       _AccelGlyphCache_GetCellInfoForCache 10093150 f   AccelGlyphCache.obj
 0001:000921e0       _Java_sun_awt_image_RemoteOffScreenImage_initIDs@8 100931e0 f   RemoteOffScreenImage.obj
 0001:00092230       _Java_sun_awt_image_RemoteOffScreenImage_setRasterNative@12 10093230 f   RemoteOffScreenImage.obj
 0001:00092260       _BitmapToYXBandedRectangles 10093260 f   rect.obj
 0001:00092470       _MapAccelFunction          10093470 f   MapAccelFunc.obj
 0001:00092480       ??0AwtCmdIDList@@QAE@XZ    10093480 f   CmdIDList.obj
 0001:00092500       ??1AwtCmdIDList@@QAE@XZ    10093500 f   CmdIDList.obj
 0001:00092530       ?BuildFreeList@AwtCmdIDList@@AAEXI@Z 10093530 f   CmdIDList.obj
 0001:000925b0       ?Add@AwtCmdIDList@@QAEIPAVAwtObject@@@Z 100935b0 f   CmdIDList.obj
 0001:00092700       ?Lookup@AwtCmdIDList@@QAEPAVAwtObject@@I@Z 10093700 f   CmdIDList.obj
 0001:000927b0       ?Remove@AwtCmdIDList@@QAEXI@Z 100937b0 f   CmdIDList.obj
 0001:00092840       ??0CriticalSection@@QAE@XZ 10093840 f i CmdIDList.obj
 0001:00092880       ??1CriticalSection@@QAE@XZ 10093880 f i CmdIDList.obj
 0001:000928b0       ?Enter@CriticalSection@@UAEXXZ 100938b0 f i CmdIDList.obj
 0001:00092920       ?TryEnter@CriticalSection@@UAEHXZ 10093920 f i CmdIDList.obj
 0001:00092980       ?Leave@CriticalSection@@UAEXXZ 10093980 f i CmdIDList.obj
 0001:000929d0       ??0Lock@CriticalSection@@QAE@ABV1@@Z 100939d0 f i CmdIDList.obj
 0001:00092a00       ??1Lock@CriticalSection@@QAE@XZ 10093a00 f i CmdIDList.obj
 0001:00092a20       ??0Hashtable@@QAE@PBDP6AXPAX@ZHM@Z 10093a20 f   Hashtable.obj
 0001:00092b10       ??1Hashtable@@UAE@XZ       10093b10 f   Hashtable.obj
 0001:00092bc0       ?contains@Hashtable@@QAEHPAX@Z 10093bc0 f   Hashtable.obj
 0001:00092ca0       ?containsKey@Hashtable@@QAEHPAX@Z 10093ca0 f   Hashtable.obj
 0001:00092d60       ?get@Hashtable@@QAEPAXPAX@Z 10093d60 f   Hashtable.obj
 0001:00092e30       ?rehash@Hashtable@@IAEXXZ  10093e30 f   Hashtable.obj
 0001:00092f10       ?put@Hashtable@@UAEPAXPAX0@Z 10093f10 f   Hashtable.obj
 0001:000930e0       ?remove@Hashtable@@QAEPAXPAX@Z 100940e0 f   Hashtable.obj
 0001:00093200       ?clear@Hashtable@@QAEXXZ   10094200 f   Hashtable.obj
 0001:000932e0       ??0HashtableEnumerator@@QAE@QAPAUHashtableEntry@@HH@Z 100942e0 f   Hashtable.obj
 0001:00093320       ?hasMoreElements@HashtableEnumerator@@QAEHXZ 10094320 f   Hashtable.obj
 0001:00093380       ?nextElement@HashtableEnumerator@@QAEPAXXZ 10094380 f   Hashtable.obj
 0001:00093430       ??_EHashtable@@UAEPAXI@Z   10094430 f i Hashtable.obj
 0001:00093430       ??_GHashtable@@UAEPAXI@Z   10094430 f i Hashtable.obj
 0001:00093460       ?put@GDIHashtable@@UAEPAXPAX0@Z 10094460 f   GDIHashtable.obj
 0001:00093490       ?release@GDIHashtable@@QAEXPAX@Z 10094490 f   GDIHashtable.obj
 0001:000934f0       ?flush@GDIHashtable@@QAEXXZ 100944f0 f   GDIHashtable.obj
 0001:00093620       ?flushAll@List@GDIHashtable@@QAEXXZ 10094620 f   GDIHashtable.obj
 0001:000936a0       ?add@List@GDIHashtable@@QAEXPAV2@@Z 100946a0 f   GDIHashtable.obj
 0001:00093730       ?remove@List@GDIHashtable@@QAEXPAV2@@Z 10094730 f   GDIHashtable.obj
 0001:00093800       ?clear@List@GDIHashtable@@AAEXXZ 10094800 f   GDIHashtable.obj
 0001:00093890       ??0BatchDestructionManager@GDIHashtable@@QAE@III@Z 10094890 f   GDIHashtable.obj
 0001:00093920       ?update@BatchDestructionManager@GDIHashtable@@QAEXXZ 10094920 f   GDIHashtable.obj
 0001:00093a00       ?decrementCounter@BatchDestructionManager@GDIHashtable@@QAEXXZ 10094a00 f i GDIHashtable.obj
 0001:00093a20       ??0List@GDIHashtable@@QAE@XZ 10094a20 f i GDIHashtable.obj
 0001:00093a50       ??1List@GDIHashtable@@QAE@XZ 10094a50 f i GDIHashtable.obj
 0001:00093aa0       ?flushAll@BatchDestructionManager@GDIHashtable@@QAEXXZ 10094aa0 f i GDIHashtable.obj
 0001:00093ac0       ??1BatchDestructionManager@GDIHashtable@@QAE@XZ 10094ac0 f i GDIHashtable.obj
 0001:00093b10       ??1D3DVertexCacher@@QAE@XZ 10094b10 f i Devices.obj
 0001:00093b30       ?GetColor@D3DVertexCacher@@QAEJXZ 10094b30 f i Devices.obj
 0001:00093b50       ?SetColor@D3DVertexCacher@@QAEXJ@Z 10094b50 f i Devices.obj
 0001:00093b70       ?GetFreeVertices@D3DVertexCacher@@QAEIXZ 10094b70 f i Devices.obj
 0001:00093b90       ??4D3DVertexCacher@@QAEAAV0@ABV0@@Z 10094b90 f i Devices.obj
 0001:00093bc0       ?GetResourceManager@D3DContext@@QAEPAVD3DResourceManager@@XZ 10094bc0 f i Devices.obj
 0001:00093be0       ?GetMaskCache@D3DContext@@QAEPAVD3DMaskCache@@XZ 10094be0 f i Devices.obj
 0001:00093c00       ?GetDeviceCaps@D3DContext@@QAEPAU_D3DCAPS9@@XZ 10094c00 f i Devices.obj
 0001:00093c20       ?GetContextCaps@D3DContext@@QAEHXZ 10094c20 f i Devices.obj
 0001:00093c40       ?GetPresentationParams@D3DContext@@QAEPAU_D3DPRESENT_PARAMETERS_@@XZ 10094c40 f i Devices.obj
 0001:00093c60       ?Get3DDevice@D3DContext@@QAEPAUIDirect3DDevice9@@XZ 10094c60 f i Devices.obj
 0001:00093c80       ?Get3DObject@D3DContext@@QAEPAUIDirect3D9@@XZ 10094c80 f i Devices.obj
 0001:00093ca0       ?IsPow2TexturesOnly@D3DContext@@QAEHXZ 10094ca0 f i Devices.obj
 0001:00093cc0       ?IsSquareTexturesOnly@D3DContext@@QAEHXZ 10094cc0 f i Devices.obj
 0001:00093ce0       ?IsHWRasterizer@D3DContext@@QAEHXZ 10094ce0 f i Devices.obj
 0001:00093d00       ?IsDynamicTextureSupported@D3DContext@@QAEHXZ 10094d00 f i Devices.obj
 0001:00093d20       ?IsImmediateIntervalSupported@D3DContext@@QAEHXZ 10094d20 f i Devices.obj
 0001:00093d40       ?IsPixelShader20Supported@D3DContext@@QAEHXZ 10094d40 f i Devices.obj
 0001:00093d60       ?IsGradientInstructionExtensionSupported@D3DContext@@QAEHXZ 10094d60 f i Devices.obj
 0001:00093d80       ?IsPixelShader30Supported@D3DContext@@QAEHXZ 10094d80 f i Devices.obj
 0001:00093da0       ?IsMultiTexturingSupported@D3DContext@@QAEHXZ 10094da0 f i Devices.obj
 0001:00093dc0       ?IsIdentityTx@D3DContext@@QAEHXZ 10094dc0 f i Devices.obj
 0001:00093de0       ??0D3DContext@@QAE@ABV0@@Z 10094de0 f i Devices.obj
 0001:00094040       ??4D3DContext@@QAEAAV0@ABV0@@Z 10095040 f i Devices.obj
 0001:000942d0       ??_ED3DContext@@UAEPAXI@Z  100952d0 f i Devices.obj
 0001:00094340       ??4D3DPipelineManager@@QAEAAV0@ABV0@@Z 10095340 f i Devices.obj
 0001:00094370       ??0Devices@@AAE@H@Z        10095370 f   Devices.obj
 0001:000943c0       ?UpdateInstance@Devices@@SAHPAUJNIEnv_@@@Z 100953c0 f   Devices.obj
 0001:00094660       ?AddReference@Devices@@AAEXXZ 10095660 f   Devices.obj
 0001:000946c0       ?GetInstance@Devices@@CAPAV1@XZ 100956c0 f   Devices.obj
 0001:00094750       ?GetDeviceReference@Devices@@QAEPAVAwtWin32GraphicsDevice@@HH@Z 10095750 f   Devices.obj
 0001:000947a0       ?GetDevice@Devices@@QAEPAVAwtWin32GraphicsDevice@@HH@Z 100957a0 f   Devices.obj
 0001:00094820       ?GetRawArray@Devices@@QAEPAPAVAwtWin32GraphicsDevice@@XZ 10095820 f   Devices.obj
 0001:00094850       ?Release@Devices@@QAEHXZ   10095850 f   Devices.obj
 0001:000949e0       ??_GAwtWin32GraphicsDevice@@QAEPAXI@Z 100959e0 f i Devices.obj
 0001:00094a10       ??0AwtObjectList@@QAE@XZ   10095a10 f   ObjectList.obj
 0001:00094a40       ?Add@AwtObjectList@@QAEXPAVAwtObject@@@Z 10095a40 f   ObjectList.obj
 0001:00094b10       ?Remove@AwtObjectList@@QAEXPAVAwtObject@@@Z 10095b10 f   ObjectList.obj
 0001:00094bf0       ?LookUp@AwtObjectList@@QAEPAVAwtObject@@PAV2@@Z 10095bf0 f   ObjectList.obj
 0001:00094c90       ?Cleanup@AwtObjectList@@SAXXZ 10095c90 f   ObjectList.obj
 0001:00094db0       ??0AwtObjectListItem@@QAE@PAVAwtObject@@@Z 10095db0 f i ObjectList.obj
 0001:00094de0       ?MainThread@AwtToolkit@@SAKXZ 10095de0 f i ObjectList.obj
 0001:00094df0       ?GetInstance@AwtToolkit@@SAAAV1@XZ 10095df0 f i ObjectList.obj
 0001:00094e00       ?PostMessageW@AwtToolkit@@QAEHIIJ@Z 10095e00 f i ObjectList.obj
 0001:00094e30       ?GetSyncCS@AwtToolkit@@QAEAAVCriticalSection@@XZ 10095e30 f i ObjectList.obj
 0001:00094e50       _Java_sun_java2d_windows_GDIBlitLoops_nativeBlit@60 10095e50 f   GDIBlitLoops.obj
 0001:00095330       _Java_sun_java2d_windows_GDIRenderer_doDrawLine@40 10096330 f   GDIRenderer.obj
 0001:000954c0       _Java_sun_java2d_windows_GDIRenderer_doDrawRect@40 100964c0 f   GDIRenderer.obj
 0001:00095640       _Java_sun_java2d_windows_GDIRenderer_doDrawRoundRect@48 10096640 f   GDIRenderer.obj
 0001:00095770       _Java_sun_java2d_windows_GDIRenderer_doDrawOval@40 10096770 f   GDIRenderer.obj
 0001:00095880       _Java_sun_java2d_windows_GDIRenderer_doDrawArc@48 10096880 f   GDIRenderer.obj
 0001:00095ad0       _Java_sun_java2d_windows_GDIRenderer_doDrawPoly@48 10096ad0 f   GDIRenderer.obj
 0001:00095ec0       _Java_sun_java2d_windows_GDIRenderer_doFillRect@40 10096ec0 f   GDIRenderer.obj
 0001:00095f90       _Java_sun_java2d_windows_GDIRenderer_doFillRoundRect@48 10096f90 f   GDIRenderer.obj
 0001:000960c0       _Java_sun_java2d_windows_GDIRenderer_doFillOval@40 100970c0 f   GDIRenderer.obj
 0001:00096290       _Java_sun_java2d_windows_GDIRenderer_doFillArc@48 10097290 f   GDIRenderer.obj
 0001:00096480       _Java_sun_java2d_windows_GDIRenderer_doFillPoly@44 10097480 f   GDIRenderer.obj
 0001:00096660       _Java_sun_java2d_windows_GDIRenderer_doShape@40 10097660 f   GDIRenderer.obj
 0001:00096e60       ?RectInMonitorRect@@YAHPAUtagRECT@@0@Z 10097e60 f   GDIRenderer.obj
 0001:00096eb0       _Java_sun_java2d_windows_GDIRenderer_devCopyArea@36 10097eb0 f   GDIRenderer.obj
 0001:00097060       ?GetArrayLength@JNIEnv_@@QAEJPAV_jarray@@@Z 10098060 f i GDIRenderer.obj
 0001:00097080       ?GetPrimitiveArrayCritical@JNIEnv_@@QAEPAXPAV_jarray@@PAE@Z 10098080 f i GDIRenderer.obj
 0001:000970b0       ?ReleasePrimitiveArrayCritical@JNIEnv_@@QAEXPAV_jarray@@PAXJ@Z 100980b0 f i GDIRenderer.obj
 0001:000970e0       ?GetObjectField@JNIEnv_@@QAEPAV_jobject@@PAV2@PAU_jfieldID@@@Z 100980e0 f i GDIRenderer.obj
 0001:00097110       ?GetIntField@JNIEnv_@@QAEJPAV_jobject@@PAU_jfieldID@@@Z 10098110 f i GDIRenderer.obj
 0001:00097140       ?floor@@YAMM@Z             10098140 f i GDIRenderer.obj
 0001:00097160       _floorf                    10098160 f i GDIRenderer.obj
 0001:00097180       _SetupThreadGraphicsInfo   10098180 f   GDIWindowSurfaceData.obj
 0001:00097400       _DisposeThreadGraphicsInfo 10098400 f   GDIWindowSurfaceData.obj
 0001:000974b0       _JNI_GetCurrentThread      100984b0 f   GDIWindowSurfaceData.obj
 0001:000974d0       _GetThreadGraphicsInfo     100984d0 f   GDIWindowSurfaceData.obj
 0001:000974f0       _initThreadInfoIndex       100984f0 f   GDIWindowSurfaceData.obj
 0001:00097510       _SurfaceDepthsCompatible   10098510 f   GDIWindowSurfaceData.obj
 0001:000975a0       _Java_sun_java2d_windows_GDIWindowSurfaceData_initIDs@12 100985a0 f   GDIWindowSurfaceData.obj
 0001:00097690       _Java_sun_java2d_windows_GDIWindowSurfaceData_initOps@32 10098690 f   GDIWindowSurfaceData.obj
 0001:00097940       _GDIWindowSurfaceData_GetOps@8 10098940 f   GDIWindowSurfaceData.obj
 0001:00097960       _GDIWindowSurfaceData_GetOpsNoSetup@8 10098960 f   GDIWindowSurfaceData.obj
 0001:00097980       _GDIWindowSurfaceData_GetComp@8 10098980 f   GDIWindowSurfaceData.obj
 0001:00097a90       _GDIWindowSurfaceData_GetWindow@8 10098a90 f   GDIWindowSurfaceData.obj
 0001:00098440       ?CheckGrayColor@@YAKPAU_GDIWinSDOps@@H@Z 10099440 f   GDIWindowSurfaceData.obj
 0001:00098570       _GDIWinSD_InitDC@32        10099570 f   GDIWindowSurfaceData.obj
 0001:00098c60       _Java_sun_java2d_windows_GDIWindowSurfaceData_invalidateSD@8 10099c60 f   GDIWindowSurfaceData.obj
 0001:00098cb0       ?DeleteWeakGlobalRef@JNIEnv_@@QAEXPAV_jobject@@@Z 10099cb0 f i GDIWindowSurfaceData.obj
 0001:00098cd0       ?Release@AwtGDIObject@@QAEXXZ 10099cd0 f i GDIWindowSurfaceData.obj
 0001:00098cf0       ?CallStaticObjectMethod@JNIEnv_@@QAAPAV_jobject@@PAV_jclass@@PAU_jmethodID@@ZZ 10099cf0 f i GDIWindowSurfaceData.obj
 0001:00098d30       ?FindClass@JNIEnv_@@QAEPAV_jclass@@PBD@Z 10099d30 f i GDIWindowSurfaceData.obj
 0001:00098d50       ?NewGlobalRef@JNIEnv_@@QAEPAV_jobject@@PAV2@@Z 10099d50 f i GDIWindowSurfaceData.obj
 0001:00098d70       ?GetStaticMethodID@JNIEnv_@@QAEPAU_jmethodID@@PAV_jclass@@PBD1@Z 10099d70 f i GDIWindowSurfaceData.obj
 0001:00098da0       ?NewWeakGlobalRef@JNIEnv_@@QAEPAV_jobject@@PAV2@@Z 10099da0 f i GDIWindowSurfaceData.obj
 0001:00098dc0       ??0InstanceAccess@Devices@@QAE@XZ 10099dc0 f i GDIWindowSurfaceData.obj
 0001:00098de0       ??1InstanceAccess@Devices@@QAE@XZ 10099de0 f i GDIWindowSurfaceData.obj
 0001:00098e00       ??BJavaStringBuffer@@QAEJXZ 10099e00 f i awt_Choice.obj
 0001:00098e00       ??BJavaStringBuffer@@QAEPAGXZ 10099e00 f i awt_Checkbox.obj
 0001:00098e00       ??CInstanceAccess@Devices@@QAEPAV1@XZ 10099e00 f i GDIWindowSurfaceData.obj
 0001:00098e10       ?GetBitDepth@AwtWin32GraphicsDevice@@QAEHXZ 10099e10 f i GDIWindowSurfaceData.obj
 0001:00098e30       ?NewLocalRef@JNIEnv_@@QAEPAV_jobject@@PAV2@@Z 10099e30 f i GDIWindowSurfaceData.obj
 0001:00098e50       ?GetLongField@JNIEnv_@@QAE_JPAV_jobject@@PAU_jfieldID@@@Z 10099e50 f i GDIWindowSurfaceData.obj
 0001:00098e80       ?VerifyActive@AwtToolkit@@QAEXXZ 10099e80 f i GDIWindowSurfaceData.obj
 0001:00098ec0       _GetThreadDC               10099ec0 f i GDIWindowSurfaceData.obj
 0001:00098ef0       ?GetGrayness@AwtWin32GraphicsDevice@@QAEHXZ 10099ef0 f i GDIWindowSurfaceData.obj
 0001:00098f10       ?IsSameObject@JNIEnv_@@QAEEPAV_jobject@@0@Z 10099f10 f i GDIWindowSurfaceData.obj
 0001:00098f40       ?IsInstanceOf@JNIEnv_@@QAEEPAV_jobject@@PAV_jclass@@@Z 10099f40 f i GDIWindowSurfaceData.obj
 0001:00098f70       ??_GCriticalSection@@QAEPAXI@Z 10099f70 f i GDIWindowSurfaceData.obj
 0001:00098fa0       ?SetIDs@@YAXPAUJNIEnv_@@PAV_jclass@@@Z 10099fa0 f   WindowsFlags.obj
 0001:00098ff0       ?GetStaticBoolean@@YAHPAUJNIEnv_@@PAV_jclass@@PBD@Z 10099ff0 f   WindowsFlags.obj
 0001:00099030       ?GetStaticObject@@YAPAV_jobject@@PAUJNIEnv_@@PAV_jclass@@PBD2@Z 1009a030 f   WindowsFlags.obj
 0001:00099060       ?GetFlagValues@@YAXPAUJNIEnv_@@PAV_jclass@@@Z 1009a060 f   WindowsFlags.obj
 0001:00099370       ?SetD3DEnabledFlag@@YAXPAUJNIEnv_@@HH@Z 1009a370 f   WindowsFlags.obj
 0001:000993e0       ?IsD3DEnabled@@YAHXZ       1009a3e0 f   WindowsFlags.obj
 0001:000993f0       ?IsD3DForced@@YAHXZ        1009a3f0 f   WindowsFlags.obj
 0001:00099400       _Java_sun_java2d_windows_WindowsFlags_initNativeFlags@8 1009a400 f   WindowsFlags.obj
 0001:00099430       ?GetStaticFieldID@JNIEnv_@@QAEPAU_jfieldID@@PAV_jclass@@PBD1@Z 1009a430 f i WindowsFlags.obj
 0001:00099460       ?GetStaticBooleanField@JNIEnv_@@QAEEPAV_jclass@@PAU_jfieldID@@@Z 1009a460 f i WindowsFlags.obj
 0001:00099490       ?GetStaticObjectField@JNIEnv_@@QAEPAV_jobject@@PAV_jclass@@PAU_jfieldID@@@Z 1009a490 f i WindowsFlags.obj
 0001:000994c0       ?SetStaticBooleanField@JNIEnv_@@QAEXPAV_jclass@@PAU_jfieldID@@E@Z 1009a4c0 f i WindowsFlags.obj
 0001:000994f0       _Java_sun_print_Win32PrintServiceLookup_getDefaultPrinterName@8 1009a4f0 f   WPrinterJob.obj
 0001:00099770       _Java_sun_print_Win32PrintServiceLookup_getAllPrinterNames@8 1009a770 f   WPrinterJob.obj
 0001:00099ad0       _Java_sun_print_Win32PrintServiceLookup_notifyFirstPrinterChange@12 1009aad0 f   WPrinterJob.obj
 0001:00099b70       _Java_sun_print_Win32PrintServiceLookup_notifyClosePrinterChange@16 1009ab70 f   WPrinterJob.obj
 0001:00099b80       _Java_sun_print_Win32PrintServiceLookup_notifyPrinterChange@16 1009ab80 f   WPrinterJob.obj
 0001:00099bc0       _Java_sun_print_Win32PrintService_getMediaPrintableArea@16 1009abc0 f   WPrinterJob.obj
 0001:00099f40       _Java_sun_print_Win32PrintService_getAllMediaIDs@16 1009af40 f   WPrinterJob.obj
 0001:0009a230       _Java_sun_print_Win32PrintService_getAllMediaTrays@16 1009b230 f   WPrinterJob.obj
 0001:0009a520       _Java_sun_print_Win32PrintService_getAllMediaSizes@16 1009b520 f   WPrinterJob.obj
 0001:0009a820       _getAllDCNames             1009b820 f   WPrinterJob.obj
 0001:0009ab70       _Java_sun_print_Win32PrintService_getAllMediaNames@16 1009bb70 f   WPrinterJob.obj
 0001:0009aba0       _Java_sun_print_Win32PrintService_getAllMediaTrayNames@16 1009bba0 f   WPrinterJob.obj
 0001:0009abd0       _Java_sun_print_Win32PrintService_getCopiesSupported@16 1009bbd0 f   WPrinterJob.obj
 0001:0009ad00       _Java_sun_print_Win32PrintService_getAllResolutions@16 1009bd00 f   WPrinterJob.obj
 0001:0009b010       _Java_sun_print_Win32PrintService_getPrinterPort@12 1009c010 f   WPrinterJob.obj
 0001:0009b160       _Java_sun_print_Win32PrintService_getCapabilities@16 1009c160 f   WPrinterJob.obj
 0001:0009b450       _Java_sun_print_Win32PrintService_getDefaultSettings@12 1009c450 f   WPrinterJob.obj
 0001:0009b700       _Java_sun_print_Win32PrintService_getJobStatus@16 1009c700 f   WPrinterJob.obj
 0001:0009b880       _Java_sun_print_Win32PrintJob_startPrintRawData@16 1009c880 f   WPrinterJob.obj
 0001:0009ba40       _Java_sun_print_Win32PrintJob_printRawData@16 1009ca40 f   WPrinterJob.obj
 0001:0009bb90       _Java_sun_print_Win32PrintJob_endPrintRawData@8 1009cb90 f   WPrinterJob.obj
 0001:0009bbf0       ?NewString@JNIEnv_@@QAEPAV_jstring@@PBGJ@Z 1009cbf0 f i WPrinterJob.obj
 0001:0009bc20       ?DeleteLocalRef@JNIEnv_@@QAEXPAV_jobject@@@Z 1009cc20 f i WPrinterJob.obj
 0001:0009bc40       ?NewObjectArray@JNIEnv_@@QAEPAV_jobjectArray@@JPAV_jclass@@PAV_jobject@@@Z 1009cc40 f i WPrinterJob.obj
 0001:0009bc70       ?SetObjectArrayElement@JNIEnv_@@QAEXPAV_jobjectArray@@JPAV_jobject@@@Z 1009cc70 f i WPrinterJob.obj
 0001:0009bca0       ?GetStringChars@JNIEnv_@@QAEPBGPAV_jstring@@PAE@Z 1009cca0 f i WPrinterJob.obj
 0001:0009bcd0       ?ReleaseStringChars@JNIEnv_@@QAEXPAV_jstring@@PBG@Z 1009ccd0 f i WPrinterJob.obj
 0001:0009bd00       ?NewFloatArray@JNIEnv_@@QAEPAV_jfloatArray@@J@Z 1009cd00 f i WPrinterJob.obj
 0001:0009bd20       ?GetFloatArrayElements@JNIEnv_@@QAEPAMPAV_jfloatArray@@PAE@Z 1009cd20 f i WPrinterJob.obj
 0001:0009bd50       ?ReleaseFloatArrayElements@JNIEnv_@@QAEXPAV_jfloatArray@@PAMJ@Z 1009cd50 f i WPrinterJob.obj
 0001:0009bd80       ?NewIntArray@JNIEnv_@@QAEPAV_jintArray@@J@Z 1009cd80 f i WPrinterJob.obj
 0001:0009bda0       ?GetIntArrayElements@JNIEnv_@@QAEPAJPAV_jintArray@@PAE@Z 1009cda0 f i WPrinterJob.obj
 0001:0009bdd0       ?ReleaseIntArrayElements@JNIEnv_@@QAEXPAV_jintArray@@PAJJ@Z 1009cdd0 f i WPrinterJob.obj
 0001:0009be00       ?SetLongField@JNIEnv_@@QAEXPAV_jobject@@PAU_jfieldID@@_J@Z 1009ce00 f i WPrinterJob.obj
 0001:0009be30       ?GetObjectClass@JNIEnv_@@QAEPAV_jclass@@PAV_jobject@@@Z 1009ce30 f i WPrinterJob.obj
 0001:0009be50       ?GetFieldID@JNIEnv_@@QAEPAU_jfieldID@@PAV_jclass@@PBD1@Z 1009ce50 f i WPrinterJob.obj
 0001:0009be80       ??0RegistryKey@@QAE@PAGK@Z 1009ce80 f   RegistryKey.obj
 0001:0009bef0       ??1RegistryKey@@QAE@XZ     1009cef0 f   RegistryKey.obj
 0001:0009bf10       ?EnumerateSubKeys@RegistryKey@@QAEKKPAGPAK@Z 1009cf10 f   RegistryKey.obj
 0001:0009bf60       ?GetIntValue@RegistryKey@@QAEHPAG@Z 1009cf60 f   RegistryKey.obj
 0001:0009bfb0       ?GetIntValue@RegistryKey@@SAHPAG0@Z 1009cfb0 f   RegistryKey.obj
 0001:0009c010       ?SetIntValue@RegistryKey@@QAEHPAGHH@Z 1009d010 f   RegistryKey.obj
 0001:0009c0d0       ?SetIntValue@RegistryKey@@SAHPAG0HH@Z 1009d0d0 f   RegistryKey.obj
 0001:0009c140       ?DeleteKey@RegistryKey@@SAXPAG@Z 1009d140 f   RegistryKey.obj
 0001:0009c2a0       ?PrintValue@RegistryKey@@SAXPAG00@Z 1009d2a0 f   RegistryKey.obj
 0001:0009c370       ?PrintRegistryError@RegistryKey@@CAXJPAD@Z 1009d370 f   RegistryKey.obj
 0001:0009c3e0       ?saveMSG@AwtAWTEvent@@SAXPAUJNIEnv_@@PAUtagMSG@@PAV_jobject@@@Z 1009d3e0 f   awt_AWTEvent.obj
 0001:0009c480       _Java_java_awt_AWTEvent_initIDs@8 1009d480 f   awt_AWTEvent.obj
 0001:0009c5a0       _Java_java_awt_AWTEvent_nativeSetSource@12 1009d5a0 f   awt_AWTEvent.obj
 0001:0009c720       ?EnsureLocalCapacity@JNIEnv_@@QAEJJ@Z 1009d720 f i awt_AWTEvent.obj
 0001:0009c740       ?SetObjectField@JNIEnv_@@QAEXPAV_jobject@@PAU_jfieldID@@0@Z 1009d740 f i awt_AWTEvent.obj
 0001:0009c770       ?NewByteArray@JNIEnv_@@QAEPAV_jbyteArray@@J@Z 1009d770 f i awt_AWTEvent.obj
 0001:0009c790       ?SetByteArrayRegion@JNIEnv_@@QAEXPAV_jbyteArray@@JJPBC@Z 1009d790 f i awt_AWTEvent.obj
 0001:0009c7c0       ?GetBooleanField@JNIEnv_@@QAEEPAV_jobject@@PAU_jfieldID@@@Z 1009d7c0 f i awt_AWTEvent.obj
 0001:0009c7f0       ?CreateTransparencyMaskFromARGB@BitmapUtil@@SAPAUHBITMAP__@@HHPAH@Z 1009d7f0 f   awt_BitmapUtil.obj
 0001:0009c960       ?CreateV4BitmapFromARGB@BitmapUtil@@SAPAUHBITMAP__@@HHPAH@Z 1009d960 f   awt_BitmapUtil.obj
 0001:0009cb90       ?CreateBitmapFromARGBPre@BitmapUtil@@SAPAUHBITMAP__@@HHHPAH@Z 1009db90 f   awt_BitmapUtil.obj
 0001:0009cc80       _BitmapUtil_CreateBitmapFromARGBPre 1009dc80 f   awt_BitmapUtil.obj
 0001:0009cca0       ?BitmapToRgn@BitmapUtil@@SAPAUHRGN__@@PAUHBITMAP__@@@Z 1009dca0 f   awt_BitmapUtil.obj
 0001:0009ce70       ?BlendCopy@BitmapUtil@@SAPAUHBITMAP__@@PAU2@KE@Z 1009de70 f   awt_BitmapUtil.obj
 0001:0009d1e0       ?CreateARGBBitmap@BitmapUtil@@SAPAUHBITMAP__@@HHPAPAX@Z 1009e1e0 f   awt_BitmapUtil.obj
 0001:0009d240       ??0AwtBrush@@AAE@K@Z       1009e240 f   awt_Brush.obj
 0001:0009d300       ?Get@AwtBrush@@SAPAV1@K@Z  1009e300 f   awt_Brush.obj
 0001:0009d3f0       ?ReleaseInCache@AwtBrush@@MAEXXZ 1009e3f0 f   awt_Brush.obj
 0001:0009d470       ?DeleteAwtBrush@AwtBrush@@SAXPAX@Z 1009e470 f   awt_Brush.obj
 0001:0009d4b0       ?flushAll@GDIHashtable@@SAXXZ 1009e4b0 f i awt_Brush.obj
 0001:0009d4c0       ?SetColor@AwtGDIObject@@QAEXK@Z 1009e4c0 f i awt_Brush.obj
 0001:0009d4e0       ?SetPaintState@D3DContext@@QAEXJ@Z 1009e4e0 f i Devices.obj
 0001:0009d4e0       ?SetHandle@AwtGDIObject@@QAEXPAX@Z 1009e4e0 f i awt_Brush.obj
 0001:0009d4e0       ?EnableCallbacks@AwtObject@@QAEXH@Z 1009e4e0 f i awt_Component.obj
 0001:0009d500       ??0AwtGDIObject@@IAE@XZ    1009e500 f i awt_Brush.obj
 0001:0009d530       ??1AwtGDIObject@@MAE@XZ    1009e530 f i awt_Brush.obj
 0001:0009d560       ??_EAwtGDIObject@@MAEPAXI@Z 1009e560 f i awt_Brush.obj
 0001:0009d560       ??_GAwtGDIObject@@MAEPAXI@Z 1009e560 f i awt_Brush.obj
 0001:0009d590       ??_GAwtBrush@@EAEPAXI@Z    1009e590 f i awt_Brush.obj
 0001:0009d590       ??_EAwtBrush@@EAEPAXI@Z    1009e590 f i awt_Brush.obj
 0001:0009d5c0       ??1AwtBrush@@EAE@XZ        1009e5c0 f i awt_Brush.obj
 0001:0009d5e0       ?getManagerLock@GDIHashtable@@QAEAAVCriticalSection@@XZ 1009e5e0 f i awt_Brush.obj
 0001:0009d600       ?getLock@BatchDestructionManager@GDIHashtable@@QAEAAVCriticalSection@@XZ 1009e600 f i awt_Brush.obj
 0001:0009d620       ?IncrRefCount@AwtGDIObject@@QAEHXZ 1009e620 f i awt_Brush.obj
 0001:0009d640       ?GetColor@AwtGDIObject@@QAEKXZ 1009e640 f i awt_Brush.obj
 0001:0009d640       ?GetD3DObject@D3DPipelineManager@@QAEPAUIDirect3D9@@XZ 1009e640 f i Devices.obj
 0001:0009d660       ?DecrRefCount@AwtGDIObject@@QAEHXZ 1009e660 f i awt_Brush.obj
 0001:0009d680       ??0GDIHashtable@@QAE@PBDP6AXPAX@ZHM@Z 1009e680 f i awt_Brush.obj
 0001:0009d6f0       ?add@BatchDestructionManager@GDIHashtable@@QAEXPAV2@@Z 1009e6f0 f i awt_Brush.obj
 0001:0009d710       ??_EGDIHashtable@@UAEPAXI@Z 1009e710 f i awt_Brush.obj
 0001:0009d710       ??_GGDIHashtable@@UAEPAXI@Z 1009e710 f i awt_Brush.obj
 0001:0009d740       ??1GDIHashtable@@UAE@XZ    1009e740 f i awt_Brush.obj
 0001:0009d7a0       ?remove@BatchDestructionManager@GDIHashtable@@QAEXPAV2@@Z 1009e7a0 f i awt_Brush.obj
 0001:0009d7c0       ??0AwtButton@@QAE@XZ       1009e7c0 f   awt_Button.obj
 0001:0009d7f0       ?GetClassNameW@AwtButton@@UAEPBGXZ 1009e7f0 f   awt_Button.obj
 0001:0009d800       ?Create@AwtButton@@SAPAV1@PAV_jobject@@0@Z 1009e800 f   awt_Button.obj
 0001:0009dbc0       ?ActMouseMessage@AwtButton@@UAEHPAUtagMSG@@@Z 1009ebc0 f   awt_Button.obj
 0001:0009dc30       ?WmMouseDown@AwtButton@@UAE?AW4MsgRouting@@IHHH@Z 1009ec30 f   awt_Button.obj
 0001:0009dc70       ?WmMouseUp@AwtButton@@UAE?AW4MsgRouting@@IHHH@Z 1009ec70 f   awt_Button.obj
 0001:0009dd30       ?NotifyListeners@AwtButton@@AAEXXZ 1009ed30 f   awt_Button.obj
 0001:0009dd60       ?WmKeyUp@AwtButton@@UAE?AW4MsgRouting@@IIIH@Z 1009ed60 f   awt_Button.obj
 0001:0009dd90       ?OwnerDrawItem@AwtButton@@UAE?AW4MsgRouting@@IAAUtagDRAWITEMSTRUCT@@@Z 1009ed90 f   awt_Button.obj
 0001:0009e040       ?WmPaint@AwtButton@@UAE?AW4MsgRouting@@PAUHDC__@@@Z 1009f040 f   awt_Button.obj
 0001:0009e060       ?HandleEvent@AwtButton@@UAE?AW4MsgRouting@@PAUtagMSG@@H@Z 1009f060 f   awt_Button.obj
 0001:0009e0c0       ?_SetLabel@AwtButton@@SAXPAX@Z 1009f0c0 f   awt_Button.obj
 0001:0009e220       _Java_sun_awt_windows_WButtonPeer_initIDs@8 1009f220 f   awt_Button.obj
 0001:0009e2e0       _Java_sun_awt_windows_WButtonPeer_setLabel@12 1009f2e0 f   awt_Button.obj
 0001:0009e440       _Java_sun_awt_windows_WButtonPeer_create@12 1009f440 f   awt_Button.obj
 0001:0009e560       ?DoCommand@AwtObject@@UAEXXZ 1009f560 f i awt_Button.obj
 0001:0009e590       ?GetInsets@AwtComponent@@UAEXPAUtagRECT@@@Z 1009f590 f i awt_Button.obj
 0001:0009e5d0       ?GetStyle@AwtComponent@@UAEJXZ 1009f5d0 f i awt_Button.obj
 0001:0009e610       ?SetStyle@AwtComponent@@UAEXJ@Z 1009f610 f i awt_Button.obj
 0001:0009e690       ?GetStyleEx@AwtComponent@@UAEJXZ 1009f690 f i awt_Button.obj
 0001:0009e6d0       ?SetStyleEx@AwtComponent@@UAEXJ@Z 1009f6d0 f i awt_Button.obj
 0001:0009e750       ?PreferredItemSize@AwtComponent@@UAEPAV_jobject@@PAUJNIEnv_@@@Z 1009f750 f i awt_Button.obj
 0001:0009e780       ?WmEraseBkgnd@AwtComponent@@UAE?AW4MsgRouting@@PAUHDC__@@AAH@Z 1009f780 f i awt_Button.obj
 0001:0009e7a0       ?WmTimer@AwtComponent@@UAE?AW4MsgRouting@@I@Z 1009f7a0 f i awt_Button.obj
 0001:0009e7c0       ?WmContextMenu@AwtComponent@@UAE?AW4MsgRouting@@PAUHWND__@@II@Z 1009f7c0 f i awt_Button.obj
 0001:0009e7c0       ?WmActivate@AwtComponent@@UAE?AW4MsgRouting@@IHPAUHWND__@@@Z 1009f7c0 f i awt_Button.obj
 0001:0009e7e0       ?CreateControlID@AwtComponent@@QAEIXZ 1009f7e0 f i awt_Button.obj
 0001:0009e810       ?GetRTLReadingOrder@AwtComponent@@SAHXZ 1009f810 f i awt_Button.obj
 0001:0009e820       ?IsFocusingMessage@AwtComponent@@QAEHI@Z 1009f820 f i awt_Button.obj
 0001:0009e860       ?SendMessageW@AwtComponent@@QAEJIIJ@Z 1009f860 f i awt_Button.obj
 0001:0009e8b0       ?GetModalBlocker@AwtWindow@@SAPAUHWND__@@PAU2@@Z 1009f8b0 f i awt_Button.obj
 0001:0009e8d0       ?CallObjectMethod@JNIEnv_@@QAAPAV_jobject@@PAV2@PAU_jmethodID@@ZZ 1009f8d0 f i awt_Button.obj
 0001:0009e910       ?GetPeer@AwtObject@@QAEPAV_jobject@@PAUJNIEnv_@@@Z 1009f910 f i awt_Button.obj
 0001:0009e930       ?getMFStringSize@AwtFont@@SA?AUtagSIZE@@PAUHDC__@@PAV_jobject@@PAV_jstring@@I@Z 1009f930 f i awt_Button.obj
 0001:0009e970       ?isEnabled@AwtComponent@@QAEHXZ 1009f970 f i awt_Button.obj
 0001:0009ea20       ?CallBooleanMethod@JNIEnv_@@QAAEPAV_jobject@@PAU_jmethodID@@ZZ 1009fa20 f i awt_Button.obj
 0001:0009ea60       ?DeleteGlobalRef@JNIEnv_@@QAEXPAV_jobject@@@Z 1009fa60 f i awt_Button.obj
 0001:0009ea80       ?SetText@AwtTextComponent@@QAEXPBG@Z 1009fa80 f i awt_TextComponent.obj
 0001:0009ea80       ?SetText@AwtComponent@@QAEXPBG@Z 1009fa80 f i awt_Button.obj
 0001:0009eaa0       ??0AwtCanvas@@QAE@XZ       1009faa0 f   awt_Canvas.obj
 0001:0009eae0       ??1AwtCanvas@@UAE@XZ       1009fae0 f   awt_Canvas.obj
 0001:0009eb00       ?GetClassNameW@AwtCanvas@@UAEPBGXZ 1009fb00 f   awt_Canvas.obj
 0001:0009eb10       ?Create@AwtCanvas@@SAPAV1@PAV_jobject@@0@Z 1009fb10 f   awt_Canvas.obj
 0001:0009efb0       ?WmEraseBkgnd@AwtCanvas@@UAE?AW4MsgRouting@@PAUHDC__@@AAH@Z 1009ffb0 f   awt_Canvas.obj
 0001:0009f020       ?WmPaint@AwtCanvas@@UAE?AW4MsgRouting@@PAUHDC__@@@Z 100a0020 f   awt_Canvas.obj
 0001:0009f040       ?HandleEvent@AwtCanvas@@UAE?AW4MsgRouting@@PAUtagMSG@@H@Z 100a0040 f   awt_Canvas.obj
 0001:0009f0c0       ?_SetEraseBackground@AwtCanvas@@SAXPAX@Z 100a00c0 f   awt_Canvas.obj
 0001:0009f1a0       _Java_sun_awt_windows_WCanvasPeer_create@12 100a01a0 f   awt_Canvas.obj
 0001:0009f2c0       _Java_sun_awt_windows_WCanvasPeer_setNativeBackgroundErase@16 100a02c0 f   awt_Canvas.obj
 0001:0009f390       ??_GAwtCanvas@@UAEPAXI@Z   100a0390 f i awt_Canvas.obj
 0001:0009f390       ??_EAwtCanvas@@UAEPAXI@Z   100a0390 f i awt_Canvas.obj
 0001:0009f3c0       ?ThrowNew@JNIEnv_@@QAEJPAV_jclass@@PBD@Z 100a03c0 f i awt_Canvas.obj
 0001:0009f3f0       ?ExceptionClear@JNIEnv_@@QAEXXZ 100a03f0 f i awt_Canvas.obj
 0001:0009f410       ??0AwtCheckbox@@QAE@XZ     100a0410 f   awt_Checkbox.obj
 0001:0009f440       ?GetClassNameW@AwtCheckbox@@UAEPBGXZ 100a0440 f   awt_Checkbox.obj
 0001:0009f450       ?Create@AwtCheckbox@@SAPAV1@PAV_jobject@@0@Z 100a0450 f   awt_Checkbox.obj
 0001:0009f7b0       ?ActMouseMessage@AwtCheckbox@@UAEHPAUtagMSG@@@Z 100a07b0 f   awt_Checkbox.obj
 0001:0009f810       ?WmMouseUp@AwtCheckbox@@UAE?AW4MsgRouting@@IHHH@Z 100a0810 f   awt_Checkbox.obj
 0001:0009f8d0       ?WmMouseDown@AwtCheckbox@@UAE?AW4MsgRouting@@IHHH@Z 100a08d0 f   awt_Checkbox.obj
 0001:0009f910       ?WmNotify@AwtCheckbox@@UAE?AW4MsgRouting@@I@Z 100a0910 f   awt_Checkbox.obj
 0001:0009f960       ?GetState@AwtCheckbox@@QAEHXZ 100a0960 f   awt_Checkbox.obj
 0001:0009f9e0       ?GetCheckSize@AwtCheckbox@@SAHXZ 100a09e0 f   awt_Checkbox.obj
 0001:0009f9f0       ?OwnerDrawItem@AwtCheckbox@@UAE?AW4MsgRouting@@IAAUtagDRAWITEMSTRUCT@@@Z 100a09f0 f   awt_Checkbox.obj
 0001:0009fe30       ?WmPaint@AwtCheckbox@@UAE?AW4MsgRouting@@PAUHDC__@@@Z 100a0e30 f   awt_Checkbox.obj
 0001:0009fe50       ?HandleEvent@AwtCheckbox@@UAE?AW4MsgRouting@@PAUtagMSG@@H@Z 100a0e50 f   awt_Checkbox.obj
 0001:0009fec0       ?_SetLabel@AwtCheckbox@@SAXPAX@Z 100a0ec0 f   awt_Checkbox.obj
 0001:000a0030       ?_SetCheckboxGroup@AwtCheckbox@@SAXPAX@Z 100a1030 f   awt_Checkbox.obj
 0001:000a0190       ?_SetState@AwtCheckbox@@SAXPAX@Z 100a1190 f   awt_Checkbox.obj
 0001:000a03f0       ?VerifyState@AwtCheckbox@@UAEXXZ 100a13f0 f   awt_Checkbox.obj
 0001:000a05e0       _Java_java_awt_Checkbox_initIDs@8 100a15e0 f   awt_Checkbox.obj
 0001:000a0710       _Java_sun_awt_windows_WCheckboxPeer_getCheckMarkSize@8 100a1710 f   awt_Checkbox.obj
 0001:000a0720       _Java_sun_awt_windows_WCheckboxPeer_setState@12 100a1720 f   awt_Checkbox.obj
 0001:000a07e0       _Java_sun_awt_windows_WCheckboxPeer_setCheckboxGroup@12 100a17e0 f   awt_Checkbox.obj
 0001:000a08b0       _Java_sun_awt_windows_WCheckboxPeer_setLabel@12 100a18b0 f   awt_Checkbox.obj
 0001:000a0990       _Java_sun_awt_windows_WCheckboxPeer_create@12 100a1990 f   awt_Checkbox.obj
 0001:000a0ae0       ?GetRTL@AwtComponent@@SAHXZ 100a1ae0 f i awt_Checkbox.obj
 0001:000a0af0       ?GetTarget@AwtObject@@QAEPAV_jobject@@PAUJNIEnv_@@@Z 100a1af0 f i awt_Checkbox.obj
 0001:000a0b30       ??1JavaStringBuffer@@QAE@XZ 100a1b30 f i awt_Checkbox.obj
 0001:000a0b60       ??0AwtChoice@@QAE@XZ       100a1b60 f   awt_Choice.obj
 0001:000a0b90       ?GetClassNameW@AwtChoice@@UAEPBGXZ 100a1b90 f   awt_Choice.obj
 0001:000a0ba0       ?Create@AwtChoice@@SAPAV1@PAV_jobject@@0@Z 100a1ba0 f   awt_Choice.obj
 0001:000a0fa0       ?ActMouseMessage@AwtChoice@@UAEHPAUtagMSG@@@Z 100a1fa0 f   awt_Choice.obj
 0001:000a1000       ?GetDropDownHeight@AwtChoice@@QAEHXZ 100a2000 f   awt_Choice.obj
 0001:000a1070       ?GetFieldHeight@AwtChoice@@AAEHXZ 100a2070 f   awt_Choice.obj
 0001:000a10e0       ?GetTotalHeight@AwtChoice@@AAEHXZ 100a20e0 f   awt_Choice.obj
 0001:000a1120       ?ResetDropDownHeight@AwtChoice@@QAEXXZ 100a2120 f   awt_Choice.obj
 0001:000a1170       ?SetDragCapture@AwtChoice@@UAEXI@Z 100a2170 f   awt_Choice.obj
 0001:000a11e0       ?ReleaseDragCapture@AwtChoice@@UAEXI@Z 100a21e0 f   awt_Choice.obj
 0001:000a1230       ?Reshape@AwtChoice@@UAEXHHHH@Z 100a2230 f   awt_Choice.obj
 0001:000a13d0       ?PreferredItemSize@AwtChoice@@UAEPAV_jobject@@PAUJNIEnv_@@@Z 100a23d0 f   awt_Choice.obj
 0001:000a1470       ?SetFont@AwtChoice@@UAEXPAVAwtFont@@@Z 100a2470 f   awt_Choice.obj
 0001:000a16a0       ?WmNotify@AwtChoice@@UAE?AW4MsgRouting@@I@Z 100a26a0 f   awt_Choice.obj
 0001:000a1750       ?OwnerDrawItem@AwtChoice@@UAE?AW4MsgRouting@@IAAUtagDRAWITEMSTRUCT@@@Z 100a2750 f   awt_Choice.obj
 0001:000a1780       ?OwnerMeasureItem@AwtChoice@@UAE?AW4MsgRouting@@IAAUtagMEASUREITEMSTRUCT@@@Z 100a2780 f   awt_Choice.obj
 0001:000a17b0       ?WmKillFocus@AwtChoice@@UAE?AW4MsgRouting@@PAUHWND__@@@Z 100a27b0 f   awt_Choice.obj
 0001:000a1810       ?WmMouseUp@AwtChoice@@UAE?AW4MsgRouting@@IHHH@Z 100a2810 f   awt_Choice.obj
 0001:000a1850       ?HandleEvent@AwtChoice@@UAE?AW4MsgRouting@@PAUtagMSG@@H@Z 100a2850 f   awt_Choice.obj
 0001:000a18c0       ?InheritsNativeMouseWheelBehavior@AwtChoice@@UAEHXZ 100a28c0 f   awt_Choice.obj
 0001:000a18d0       ?_Reshape@AwtChoice@@SAXPAX@Z 100a28d0 f   awt_Choice.obj
 0001:000a19f0       ?_Select@AwtChoice@@SAXPAX@Z 100a29f0 f   awt_Choice.obj
 0001:000a1ae0       ?_AddItems@AwtChoice@@SAXPAX@Z 100a2ae0 f   awt_Choice.obj
 0001:000a1d10       ?_Remove@AwtChoice@@SAXPAX@Z 100a2d10 f   awt_Choice.obj
 0001:000a1e10       ?_RemoveAll@AwtChoice@@SAXPAX@Z 100a2e10 f   awt_Choice.obj
 0001:000a1ef0       _Java_sun_awt_windows_WChoicePeer_select@12 100a2ef0 f   awt_Choice.obj
 0001:000a1fb0       _Java_sun_awt_windows_WChoicePeer_remove@12 100a2fb0 f   awt_Choice.obj
 0001:000a2070       _Java_sun_awt_windows_WChoicePeer_removeAll@8 100a3070 f   awt_Choice.obj
 0001:000a2100       _Java_sun_awt_windows_WChoicePeer_addItems@16 100a3100 f   awt_Choice.obj
 0001:000a21e0       _Java_sun_awt_windows_WChoicePeer_reshape@24 100a31e0 f   awt_Choice.obj
 0001:000a22c0       _Java_sun_awt_windows_WChoicePeer_create@12 100a32c0 f   awt_Choice.obj
 0001:000a23e0       ?VerifyState@AwtChoice@@UAEXXZ 100a33e0 f   awt_Choice.obj
 0001:000a2590       ??_GAwtChoice@@UAEPAXI@Z   100a3590 f i awt_Choice.obj
 0001:000a2590       ??_EAwtLabel@@UAEPAXI@Z    100a3590 f i awt_Label.obj
 0001:000a2590       ??_GAwtLabel@@UAEPAXI@Z    100a3590 f i awt_Label.obj
 0001:000a2590       ??_GAwtButton@@UAEPAXI@Z   100a3590 f i awt_Button.obj
 0001:000a2590       ??_GAwtTextComponent@@UAEPAXI@Z 100a3590 f i awt_TextComponent.obj
 0001:000a2590       ??_GAwtCheckbox@@UAEPAXI@Z 100a3590 f i awt_Checkbox.obj
 0001:000a2590       ??_EAwtChoice@@UAEPAXI@Z   100a3590 f i awt_Choice.obj
 0001:000a2590       ??_EAwtCheckbox@@UAEPAXI@Z 100a3590 f i awt_Checkbox.obj
 0001:000a2590       ??_EAwtButton@@UAEPAXI@Z   100a3590 f i awt_Button.obj
 0001:000a2590       ??_EAwtTextComponent@@UAEPAXI@Z 100a3590 f i awt_TextComponent.obj
 0001:000a25c0       ?SetIntField@JNIEnv_@@QAEXPAV_jobject@@PAU_jfieldID@@J@Z 100a35c0 f i awt_Choice.obj
 0001:000a25f0       ?PushChild@AwtComponent@@QAEXIPAV1@@Z 100a35f0 f i awt_Choice.obj
 0001:000a2690       ?GetHFont@AwtFont@@QAEPAUHFONT__@@XZ 100a3690 f i awt_Choice.obj
 0001:000a26d0       ?IsChoiceOpened@AwtChoice@@QAEHXZ 100a36d0 f i awt_Choice.obj
 0001:000a26f0       ?GetObjectArrayElement@JNIEnv_@@QAEPAV_jobject@@PAV_jobjectArray@@J@Z 100a36f0 f i awt_Choice.obj
 0001:000a2720       ?PushLocalFrame@JNIEnv_@@QAEJJ@Z 100a3720 f i awt_Choice.obj
 0001:000a2740       ?PopLocalFrame@JNIEnv_@@QAEPAV_jobject@@PAV2@@Z 100a3740 f i awt_Choice.obj
 0001:000a2760       ?LostOwnership@AwtClipboard@@SAXPAUJNIEnv_@@@Z 100a3760 f   awt_Clipboard.obj
 0001:000a27b0       ?WmChangeCbChain@AwtClipboard@@SAXIJ@Z 100a37b0 f   awt_Clipboard.obj
 0001:000a27f0       ?WmDrawClipboard@AwtClipboard@@SAXPAUJNIEnv_@@IJ@Z 100a37f0 f   awt_Clipboard.obj
 0001:000a2870       ?RegisterClipboardViewer@AwtClipboard@@SAXPAUJNIEnv_@@PAV_jobject@@@Z 100a3870 f   awt_Clipboard.obj
 0001:000a2910       ?UnregisterClipboardViewer@AwtClipboard@@SAXPAUJNIEnv_@@@Z 100a3910 f   awt_Clipboard.obj
 0001:000a29c0       _awt_clipboard_uninitialize 100a39c0 f   awt_Clipboard.obj
 0001:000a29f0       _Java_sun_awt_windows_WClipboard_init@8 100a39f0 f   awt_Clipboard.obj
 0001:000a2a90       _Java_sun_awt_windows_WClipboard_openClipboard@12 100a3a90 f   awt_Clipboard.obj
 0001:000a2ba0       _Java_sun_awt_windows_WClipboard_closeClipboard@8 100a3ba0 f   awt_Clipboard.obj
 0001:000a2c40       _Java_sun_awt_windows_WClipboard_registerClipboardViewer@8 100a3c40 f   awt_Clipboard.obj
 0001:000a2cb0       _Java_sun_awt_windows_WClipboard_publishClipboardData@20 100a3cb0 f   awt_Clipboard.obj
 0001:000a3070       _Java_sun_awt_windows_WClipboard_getClipboardFormats@8 100a4070 f   awt_Clipboard.obj
 0001:000a31e0       _Java_sun_awt_windows_WClipboard_getClipboardData@16 100a41e0 f   awt_Clipboard.obj
 0001:000a3790       ?CallVoidMethod@JNIEnv_@@QAAXPAV_jobject@@PAU_jmethodID@@ZZ 100a4790 f i awt_Clipboard.obj
 0001:000a37c0       ?GetMethodID@JNIEnv_@@QAEPAU_jmethodID@@PAV_jclass@@PBD1@Z 100a47c0 f i awt_Clipboard.obj
 0001:000a37f0       ?GetOwnership@AwtClipboard@@SAXXZ 100a47f0 f i awt_Clipboard.obj
 0001:000a3830       ?GetByteArrayRegion@JNIEnv_@@QAEXPAV_jbyteArray@@JJPAC@Z 100a4830 f i awt_Clipboard.obj
 0001:000a3860       ?NewLongArray@JNIEnv_@@QAEPAV_jlongArray@@J@Z 100a4860 f i awt_Clipboard.obj
 0001:000a3880       ?GetLongArrayElements@JNIEnv_@@QAEPA_JPAV_jlongArray@@PAE@Z 100a4880 f i awt_Clipboard.obj
 0001:000a38b0       ?ReleaseLongArrayElements@JNIEnv_@@QAEXPAV_jlongArray@@PA_JJ@Z 100a48b0 f i awt_Clipboard.obj
 0001:000a38e0       ?ExceptionDescribe@JNIEnv_@@QAEXXZ 100a48e0 f i awt_Clipboard.obj
 0001:000a3900       _Java_java_awt_Color_initIDs@8 100a4900 f   awt_Color.obj
 0001:000a39a0       _Java_sun_awt_windows_WColor_getDefaultColor@12 100a49a0 f   awt_Color.obj
 0001:000a3b50       ??0AwtComponent@@QAE@XZ    100a4b50 f   awt_Component.obj
 0001:000a3cb0       ??1AwtComponent@@UAE@XZ    100a4cb0 f   awt_Component.obj
 0001:000a3e60       ?SetComponentInHWND@AwtComponent@@AAEXXZ 100a4e60 f   awt_Component.obj
 0001:000a3eb0       ?GetComponent@AwtComponent@@SAPAV1@PAUHWND__@@@Z 100a4eb0 f   awt_Component.obj
 0001:000a3f80       ?GetComponentImpl@AwtComponent@@KAPAV1@PAUHWND__@@@Z 100a4f80 f   awt_Component.obj
 0001:000a4000       ?WndProc@AwtComponent@@SGJPAUHWND__@@IIJ@Z 100a5000 f   awt_Component.obj
 0001:000a40f0       ?IsFocusable@AwtComponent@@QAEHXZ 100a50f0 f   awt_Component.obj
 0001:000a4180       ?FillClassInfo@AwtComponent@@UAEXPAUtagWNDCLASSEXW@@@Z 100a5180 f   awt_Component.obj
 0001:000a4230       ?RegisterClassW@AwtComponent@@UAEXXZ 100a5230 f   awt_Component.obj
 0001:000a42a0       ?UnregisterClassW@AwtComponent@@UAEXXZ 100a52a0 f   awt_Component.obj
 0001:000a42d0       ?InitPeerGraphicsConfig@AwtComponent@@QAEXPAUJNIEnv_@@PAV_jobject@@@Z 100a52d0 f   awt_Component.obj
 0001:000a4390       ?CreateHWnd@AwtComponent@@UAEXPAUJNIEnv_@@PBGKKHHHHPAUHWND__@@PAUHMENU__@@KKPAV_jobject@@@Z 100a5390 f   awt_Component.obj
 0001:000a4680       ?DestroyHWnd@AwtComponent@@UAEXXZ 100a5680 f   awt_Component.obj
 0001:000a46c0       ?GetHWnd@AwtComponent@@SAPAUHWND__@@PAUJNIEnv_@@PAV_jobject@@@Z 100a56c0 f   awt_Component.obj
 0001:000a4720       ?UpdateBackground@AwtComponent@@QAEXPAUJNIEnv_@@PAV_jobject@@@Z 100a5720 f   awt_Component.obj
 0001:000a47c0       ?SubclassHWND@AwtComponent@@UAEXXZ 100a57c0 f   awt_Component.obj
 0001:000a4810       ?UnsubclassHWND@AwtComponent@@UAEXXZ 100a5810 f   awt_Component.obj
 0001:000a4860       ?GetTopLevelParentForWindow@AwtComponent@@SAPAUHWND__@@PAU2@@Z 100a5860 f   awt_Component.obj
 0001:000a48e0       ?FindHeavyweightUnderCursor@AwtComponent@@SAPAV_jobject@@H@Z 100a58e0 f   awt_Component.obj
 0001:000a4af0       ?SetColor@AwtComponent@@UAEXK@Z 100a5af0 f   awt_Component.obj
 0001:000a4c20       ?SetBackgroundColor@AwtComponent@@UAEXK@Z 100a5c20 f   awt_Component.obj
 0001:000a4d60       ?GetForegroundPen@AwtComponent@@QAEPAUHPEN__@@XZ 100a5d60 f   awt_Component.obj
 0001:000a4da0       ?GetBackgroundColor@AwtComponent@@QAEKXZ 100a5da0 f   awt_Component.obj
 0001:000a4df0       ?GetBackgroundBrush@AwtComponent@@QAEPAUHBRUSH__@@XZ 100a5df0 f   awt_Component.obj
 0001:000a4e90       ?SetFont@AwtComponent@@UAEXPAVAwtFont@@@Z 100a5e90 f   awt_Component.obj
 0001:000a4f20       ?GetParent@AwtComponent@@QAEPAV1@XZ 100a5f20 f   awt_Component.obj
 0001:000a4f60       ?GetContainer@AwtComponent@@QAEPAVAwtWindow@@XZ 100a5f60 f   awt_Component.obj
 0001:000a4fa0       ?Show@AwtComponent@@UAEXXZ 100a5fa0 f   awt_Component.obj
 0001:000a4fd0       ?Hide@AwtComponent@@UAEXXZ 100a5fd0 f   awt_Component.obj
 0001:000a5000       ?SetWindowPos@AwtComponent@@SAHPAUHWND__@@0HHHHI@Z 100a6000 f   awt_Component.obj
 0001:000a50c0       ?Reshape@AwtComponent@@UAEXHHHH@Z 100a60c0 f   awt_Component.obj
 0001:000a52c0       ?SetScrollValues@AwtComponent@@QAEXIHHH@Z 100a62c0 f   awt_Component.obj
 0001:000a5370       ?SetInputMethod@AwtComponent@@QAEXPAV_jobject@@H@Z 100a6370 f   awt_Component.obj
 0001:000a5400       ?PreProcessMsg@AwtComponent@@UAE?AW4MsgRouting@@AAUtagMSG@@@Z 100a6400 f   awt_Component.obj
 0001:000a5410       ?WindowProc@AwtComponent@@UAEJIIJ@Z 100a6410 f   awt_Component.obj
 0001:000a7380       ?DefWindowProcW@AwtComponent@@UAEJIIJ@Z 100a8380 f   awt_Component.obj
 0001:000a73c0       ?WmDestroy@AwtComponent@@UAE?AW4MsgRouting@@XZ 100a83c0 f   awt_Component.obj
 0001:000a7420       ?WmGetMinMaxInfo@AwtComponent@@UAE?AW4MsgRouting@@PAUtagMINMAXINFO@@@Z 100a8420 f   awt_Component.obj
 0001:000a7440       ?WmMove@AwtComponent@@UAE?AW4MsgRouting@@HH@Z 100a8440 f   awt_Component.obj
 0001:000a7470       ?WmSize@AwtComponent@@UAE?AW4MsgRouting@@IHH@Z 100a8470 f   awt_Component.obj
 0001:000a74a0       ?WmSizing@AwtComponent@@UAE?AW4MsgRouting@@XZ 100a84a0 f   awt_Component.obj
 0001:000a75f0       ?WmSysCommand@AwtComponent@@UAE?AW4MsgRouting@@IHH@Z 100a85f0 f   awt_Component.obj
 0001:000a7610       ?WmExitSizeMove@AwtComponent@@UAE?AW4MsgRouting@@XZ 100a8610 f   awt_Component.obj
 0001:000a7620       ?WmEnterMenuLoop@AwtComponent@@UAE?AW4MsgRouting@@H@Z 100a8620 f   awt_Component.obj
 0001:000a7640       ?WmExitMenuLoop@AwtComponent@@UAE?AW4MsgRouting@@H@Z 100a8640 f   awt_Component.obj
 0001:000a7660       ?WmShowWindow@AwtComponent@@UAE?AW4MsgRouting@@HI@Z 100a8660 f   awt_Component.obj
 0001:000a76f0       ?WmSetFocus@AwtComponent@@UAE?AW4MsgRouting@@PAUHWND__@@@Z 100a86f0 f   awt_Component.obj
 0001:000a77f0       ?WmKillFocus@AwtComponent@@UAE?AW4MsgRouting@@PAUHWND__@@@Z 100a87f0 f   awt_Component.obj
 0001:000a78e0       ?WmComponentSetFocus@AwtComponent@@QAEEPAUWmComponentSetFocusData@@@Z 100a88e0 f   awt_Component.obj
 0001:000a7a60       ?AwtSetFocus@AwtComponent@@QAEHXZ 100a8a60 f   awt_Component.obj
 0001:000a7b80       ?WmCtlColor@AwtComponent@@UAE?AW4MsgRouting@@PAUHDC__@@PAUHWND__@@IAAPAUHBRUSH__@@@Z 100a8b80 f   awt_Component.obj
 0001:000a7bf0       ?WmHScroll@AwtComponent@@UAE?AW4MsgRouting@@IIPAUHWND__@@@Z 100a8bf0 f   awt_Component.obj
 0001:000a7c50       ?WmVScroll@AwtComponent@@UAE?AW4MsgRouting@@IIPAUHWND__@@@Z 100a8c50 f   awt_Component.obj
 0001:000a7cb0       ?getMessageTimeUTC@TimeHelper@@YA_JXZ 100a8cb0 f   awt_Component.obj
 0001:000a7d00       ?windowsToUTC@TimeHelper@@YA_JK@Z 100a8d00 f   awt_Component.obj
 0001:000a7d40       ?WmPaint@AwtComponent@@UAE?AW4MsgRouting@@PAUHDC__@@@Z 100a8d40 f   awt_Component.obj
 0001:000a7dc0       ?PaintUpdateRgn@AwtComponent@@QAEXPBUtagRECT@@@Z 100a8dc0 f   awt_Component.obj
 0001:000a8070       ?WmMouseEnter@AwtComponent@@UAE?AW4MsgRouting@@IHH@Z 100a9070 f   awt_Component.obj
 0001:000a80d0       ?CreateMessage@AwtComponent@@SAPAUtagMSG@@IIJHH@Z 100a90d0 f   awt_Component.obj
 0001:000a8120       ?GetDrawState@AwtComponent@@SAJPAUHWND__@@@Z 100a9120 f   awt_Component.obj
 0001:000a8140       ?SetDrawState@AwtComponent@@SAXPAUHWND__@@J@Z 100a9140 f   awt_Component.obj
 0001:000a8160       ?InitMessage@AwtComponent@@SAXPAUtagMSG@@IIJHH@Z 100a9160 f   awt_Component.obj
 0001:000a81a0       ?WmNcMouseDown@AwtComponent@@UAE?AW4MsgRouting@@IHHH@Z 100a91a0 f   awt_Component.obj
 0001:000a81c0       ?WmNcMouseUp@AwtComponent@@UAE?AW4MsgRouting@@HHH@Z 100a91c0 f   awt_Component.obj
 0001:000a81e0       ?WmWindowPosChanging@AwtComponent@@UAE?AW4MsgRouting@@J@Z 100a91e0 f   awt_Component.obj
 0001:000a8200       ?WmWindowPosChanged@AwtComponent@@UAE?AW4MsgRouting@@J@Z 100a9200 f   awt_Component.obj
 0001:000a8220       ?GetClickCount@AwtComponent@@KAHXZ 100a9220 f   awt_Component.obj
 0001:000a8230       ?WmMouseDown@AwtComponent@@UAE?AW4MsgRouting@@IHHH@Z 100a9230 f   awt_Component.obj
 0001:000a8440       ?WmMouseUp@AwtComponent@@UAE?AW4MsgRouting@@IHHH@Z 100a9440 f   awt_Component.obj
 0001:000a8560       ?WmMouseMove@AwtComponent@@UAE?AW4MsgRouting@@IHH@Z 100a9560 f   awt_Component.obj
 0001:000a86a0       ?WmMouseExit@AwtComponent@@UAE?AW4MsgRouting@@IHH@Z 100a96a0 f   awt_Component.obj
 0001:000a86f0       ?WmMouseWheel@AwtComponent@@UAE?AW4MsgRouting@@IHHH@Z 100a96f0 f   awt_Component.obj
 0001:000a8a10       ?GetKeyLocation@AwtComponent@@CAJII@Z 100a9a10 f   awt_Component.obj
 0001:000a8b00       ?GetShiftKeyLocation@AwtComponent@@CAJII@Z 100a9b00 f   awt_Component.obj
 0001:000a8f50       ?GetJavaModifiers@AwtComponent@@SAJXZ 100a9f50 f   awt_Component.obj
 0001:000a9030       ?GetButton@AwtComponent@@SAJH@Z 100aa030 f   awt_Component.obj
 0001:000a9070       ?InitDynamicKeyMapTable@AwtComponent@@SAXXZ 100aa070 f   awt_Component.obj
 0001:000a90a0       ?BuildDynamicKeyMapTable@AwtComponent@@SAXXZ 100aa0a0 f   awt_Component.obj
 0001:000a9440       ?JavaKeyToWindowsKey@AwtComponent@@SAXIPAI0I@Z 100aa440 f   awt_Component.obj
 0001:000a9650       ?WindowsKeyToJavaKey@AwtComponent@@SAIII@Z 100aa650 f   awt_Component.obj
 0001:000a9740       ?IsNavigationKey@AwtComponent@@CAHI@Z 100aa740 f   awt_Component.obj
 0001:000a9770       ?IsNumPadKey@AwtComponent@@CAHIH@Z 100aa770 f   awt_Component.obj
 0001:000a9890       ?BuildPrimaryDynamicTable@AwtComponent@@CAXXZ 100aa890 f   awt_Component.obj
 0001:000a9da0       ?WindowsKeyToJavaChar@AwtComponent@@QAEIIIW4TransOps@1@@Z 100aada0 f   awt_Component.obj
 0001:000aa120       ?WmKeyDown@AwtComponent@@UAE?AW4MsgRouting@@IIIH@Z 100ab120 f   awt_Component.obj
 0001:000aa240       ?WmKeyUp@AwtComponent@@UAE?AW4MsgRouting@@IIIH@Z 100ab240 f   awt_Component.obj
 0001:000aa330       ?WmInputLangChange@AwtComponent@@UAE?AW4MsgRouting@@IPAUHKL__@@@Z 100ab330 f   awt_Component.obj
 0001:000aa380       ?LangToCodePage@AwtComponent@@SAIG@Z 100ab380 f   awt_Component.obj
 0001:000aa3c0       ?WmIMEChar@AwtComponent@@UAE?AW4MsgRouting@@IIIH@Z 100ab3c0 f   awt_Component.obj
 0001:000aa450       ?WmChar@AwtComponent@@UAE?AW4MsgRouting@@IIIH@Z 100ab450 f   awt_Component.obj
 0001:000aa600       ?WmForwardChar@AwtComponent@@UAE?AW4MsgRouting@@GJH@Z 100ab600 f   awt_Component.obj
 0001:000aa770       ?WmPaste@AwtComponent@@UAE?AW4MsgRouting@@XZ 100ab770 f   awt_Component.obj
 0001:000aa780       ?SetCompositionWindow@AwtComponent@@UAEXAAUtagRECT@@@Z 100ab780 f   awt_Component.obj
 0001:000aa7e0       ?OpenCandidateWindow@AwtComponent@@UAEXHH@Z 100ab7e0 f   awt_Component.obj
 0001:000aa890       ?SetCandidateWindow@AwtComponent@@UAEXHHH@Z 100ab890 f   awt_Component.obj
 0001:000aa8d0       ?WmImeSetContext@AwtComponent@@UAE?AW4MsgRouting@@HPAJ@Z 100ab8d0 f   awt_Component.obj
 0001:000aa930       ?WmImeNotify@AwtComponent@@UAE?AW4MsgRouting@@IJ@Z 100ab930 f   awt_Component.obj
 0001:000aa970       ?WmImeStartComposition@AwtComponent@@UAE?AW4MsgRouting@@XZ 100ab970 f   awt_Component.obj
 0001:000aa9c0       ?WmImeEndComposition@AwtComponent@@UAE?AW4MsgRouting@@XZ 100ab9c0 f   awt_Component.obj
 0001:000aaa10       ?WmImeComposition@AwtComponent@@UAE?AW4MsgRouting@@GJ@Z 100aba10 f   awt_Component.obj
 0001:000aad30       ?SendInputMethodEvent@AwtComponent@@QAEXJPAV_jstring@@HPAHPAPAV2@H1PAEHHH@Z 100abd30 f   awt_Component.obj
 0001:000ab100       ?InquireCandidatePosition@AwtComponent@@QAEXXZ 100ac100 f   awt_Component.obj
 0001:000ab240       ?ImmGetContext@AwtComponent@@QAEPAUHIMC__@@XZ 100ac240 f   awt_Component.obj
 0001:000ab280       ?ImmAssociateContext@AwtComponent@@QAEPAUHIMC__@@PAU2@@Z 100ac280 f   awt_Component.obj
 0001:000ab2f0       ?GetProxyFocusOwner@AwtComponent@@QAEPAUHWND__@@XZ 100ac2f0 f   awt_Component.obj
 0001:000ab330       ?CallProxyDefWindowProc@AwtComponent@@QAEXIIJAAJAAW4MsgRouting@@@Z 100ac330 f   awt_Component.obj
 0001:000ab390       ?WmCommand@AwtComponent@@UAE?AW4MsgRouting@@IPAUHWND__@@I@Z 100ac390 f   awt_Component.obj
 0001:000ab430       ?WmNotify@AwtComponent@@UAE?AW4MsgRouting@@I@Z 100ac430 f   awt_Component.obj
 0001:000ab450       ?WmCompareItem@AwtComponent@@UAE?AW4MsgRouting@@IAAUtagCOMPAREITEMSTRUCT@@AAJ@Z 100ac450 f   awt_Component.obj
 0001:000ab4b0       ?WmDeleteItem@AwtComponent@@UAE?AW4MsgRouting@@IAAUtagDELETEITEMSTRUCT@@@Z 100ac4b0 f   awt_Component.obj
 0001:000ab530       ?WmDrawItem@AwtComponent@@UAE?AW4MsgRouting@@IAAUtagDRAWITEMSTRUCT@@@Z 100ac530 f   awt_Component.obj
 0001:000ab5a0       ?WmMeasureItem@AwtComponent@@UAE?AW4MsgRouting@@IAAUtagMEASUREITEMSTRUCT@@@Z 100ac5a0 f   awt_Component.obj
 0001:000ab640       ?OwnerDrawItem@AwtComponent@@UAE?AW4MsgRouting@@IAAUtagDRAWITEMSTRUCT@@@Z 100ac640 f   awt_Component.obj
 0001:000ab690       ?OwnerMeasureItem@AwtComponent@@UAE?AW4MsgRouting@@IAAUtagMEASUREITEMSTRUCT@@@Z 100ac690 f   awt_Component.obj
 0001:000ab710       ?DrawWindowText@AwtComponent@@SAXPAUHDC__@@PAV_jobject@@PAV_jstring@@HH@Z 100ac710 f   awt_Component.obj
 0001:000ab790       ?DrawGrayText@AwtComponent@@SAXPAUHDC__@@PAV_jobject@@PAV_jstring@@HH@Z 100ac790 f   awt_Component.obj
 0001:000ab800       ?GetItemString@AwtComponent@@QAEPAV_jstring@@PAUJNIEnv_@@PAV_jobject@@J@Z 100ac800 f   awt_Component.obj
 0001:000ab870       ?MeasureListItem@AwtComponent@@QAEXPAUJNIEnv_@@AAUtagMEASUREITEMSTRUCT@@@Z 100ac870 f   awt_Component.obj
 0001:000ab900       ?DrawListItem@AwtComponent@@QAEXPAUJNIEnv_@@AAUtagDRAWITEMSTRUCT@@@Z 100ac900 f   awt_Component.obj
 0001:000abbf0       ?GetFontHeight@AwtComponent@@QAEJPAUJNIEnv_@@@Z 100acbf0 f   awt_Component.obj
 0001:000abd50       ?WmPrint@AwtComponent@@UAE?AW4MsgRouting@@PAUHDC__@@J@Z 100acd50 f   awt_Component.obj
 0001:000ac070       ?WmPrintClient@AwtComponent@@UAE?AW4MsgRouting@@PAUHDC__@@J@Z 100ad070 f   awt_Component.obj
 0001:000ac090       ?WmNcCalcSize@AwtComponent@@UAE?AW4MsgRouting@@HPAUtagNCCALCSIZE_PARAMS@@AAJ@Z 100ad090 f   awt_Component.obj
 0001:000ac0b0       ?WmNcPaint@AwtComponent@@UAE?AW4MsgRouting@@PAUHRGN__@@@Z 100ad0b0 f   awt_Component.obj
 0001:000ac0d0       ?WmNcHitTest@AwtComponent@@UAE?AW4MsgRouting@@IIAAJ@Z 100ad0d0 f   awt_Component.obj
 0001:000ac0f0       ?WmQueryNewPalette@AwtComponent@@UAE?AW4MsgRouting@@AAJ@Z 100ad0f0 f   awt_Component.obj
 0001:000ac1a0       ?WmPaletteIsChanging@AwtComponent@@UAE?AW4MsgRouting@@PAUHWND__@@@Z 100ad1a0 f   awt_Component.obj
 0001:000ac1e0       ?WmPaletteChanged@AwtComponent@@UAE?AW4MsgRouting@@PAUHWND__@@@Z 100ad1e0 f   awt_Component.obj
 0001:000ac2b0       ?WmStyleChanged@AwtComponent@@UAE?AW4MsgRouting@@HPAUtagSTYLESTRUCT@@@Z 100ad2b0 f   awt_Component.obj
 0001:000ac2f0       ?WmSettingChange@AwtComponent@@UAE?AW4MsgRouting@@IPBG@Z 100ad2f0 f   awt_Component.obj
 0001:000ac370       ?GetDCFromComponent@AwtComponent@@QAEPAUHDC__@@XZ 100ad370 f   awt_Component.obj
 0001:000ac410       ?FillBackground@AwtComponent@@MAEXPAUHDC__@@AAUtagSIZE@@@Z 100ad410 f   awt_Component.obj
 0001:000ac470       ?FillAlpha@AwtComponent@@MAEXPAXAAUtagSIZE@@E@Z 100ad470 f   awt_Component.obj
 0001:000ac4e0       ?CreatePrintedPixels@AwtComponent@@QAEPAV_jintArray@@AAUtagSIZE@@0H@Z 100ad4e0 f   awt_Component.obj
 0001:000ac730       ?GetNativeFocusOwner@AwtComponent@@SAPAXXZ 100ad730 f   awt_Component.obj
 0001:000ac780       ?GetNativeFocusedWindow@AwtComponent@@SAPAXXZ 100ad780 f   awt_Component.obj
 0001:000ac7d0       ?ClearGlobalFocusOwner@AwtComponent@@SAXXZ 100ad7d0 f   awt_Component.obj
 0001:000ac7f0       ?SearchChild@AwtComponent@@AAEPAV1@I@Z 100ad7f0 f   awt_Component.obj
 0001:000ac840       ?RemoveChild@AwtComponent@@AAEXI@Z 100ad840 f   awt_Component.obj
 0001:000ac900       ?SendKeyEvent@AwtComponent@@QAEXJ_JJJJJ0PAUtagMSG@@@Z 100ad900 f   awt_Component.obj
 0001:000acc30       ?SendKeyEventToFocusOwner@AwtComponent@@QAEXJ_JJJJJ0PAUtagMSG@@@Z 100adc30 f   awt_Component.obj
 0001:000acd00       ?SetDragCapture@AwtComponent@@MAEXI@Z 100add00 f   awt_Component.obj
 0001:000acd30       ?ReleaseDragCapture@AwtComponent@@MAEXI@Z 100add30 f   awt_Component.obj
 0001:000acd70       ?SendMouseEvent@AwtComponent@@QAEXJ_JJJJJEJPAUtagMSG@@@Z 100add70 f   awt_Component.obj
 0001:000acfd0       ?SendMouseWheelEvent@AwtComponent@@QAEXJ_JJJJJEJJJPAUtagMSG@@@Z 100adfd0 f   awt_Component.obj
 0001:000ad240       ?SendFocusEvent@AwtComponent@@QAEXJPAUHWND__@@@Z 100ae240 f   awt_Component.obj
 0001:000ad5a0       ?HeavyweightButtonDown@AwtComponent@@IAEX_J@Z 100ae5a0 f   awt_Component.obj
 0001:000ad610       ?HandleEvent@AwtComponent@@UAE?AW4MsgRouting@@PAUtagMSG@@H@Z 100ae610 f   awt_Component.obj
 0001:000ad660       ?PostHandleEventMessage@AwtComponent@@UAEHPAUtagMSG@@H@Z 100ae660 f   awt_Component.obj
 0001:000ad700       ?SynthesizeKeyMessage@AwtComponent@@QAEXPAUJNIEnv_@@PAV_jobject@@@Z 100ae700 f   awt_Component.obj
 0001:000ad830       ?SynthesizeMouseMessage@AwtComponent@@QAEXPAUJNIEnv_@@PAV_jobject@@@Z 100ae830 f   awt_Component.obj
 0001:000adc40       ?InheritsNativeMouseWheelBehavior@AwtComponent@@UAEHXZ 100aec40 f   awt_Component.obj
 0001:000adc50       ?Invalidate@AwtComponent@@UAEXPAUtagRECT@@@Z 100aec50 f   awt_Component.obj
 0001:000adc80       ?BeginValidate@AwtComponent@@UAEXXZ 100aec80 f   awt_Component.obj
 0001:000add00       ?EndValidate@AwtComponent@@UAEXXZ 100aed00 f   awt_Component.obj
 0001:000add90       ?LinkObjects@AwtComponent@@QAEXPAUJNIEnv_@@PAV_jobject@@@Z 100aed90 f   awt_Component.obj
 0001:000ade00       ?UnlinkObjects@AwtComponent@@QAEXXZ 100aee00 f   awt_Component.obj
 0001:000ade90       ?Enable@AwtComponent@@UAEXH@Z 100aee90 f   awt_Component.obj
 0001:000adf60       ?Wheel95Init@AwtComponent@@SAXXZ 100aef60 f   awt_Component.obj
 0001:000ae070       ?Wheel95GetScrLines@AwtComponent@@SAIXZ 100af070 f   awt_Component.obj
 0001:000ae1a0       ?CreateDropTarget@AwtComponent@@UAEPAVAwtDropTarget@@PAUJNIEnv_@@@Z 100af1a0 f   awt_Component.obj
 0001:000ae280       ?DestroyDropTarget@AwtComponent@@UAEXXZ 100af280 f   awt_Component.obj
 0001:000ae330       ?ActMouseMessage@AwtComponent@@UAEHPAUtagMSG@@@Z 100af330 f   awt_Component.obj
 0001:000ae360       ?_Show@AwtComponent@@SAXPAX@Z 100af360 f   awt_Component.obj
 0001:000ae420       ?_Hide@AwtComponent@@SAXPAX@Z 100af420 f   awt_Component.obj
 0001:000ae4e0       ?_Enable@AwtComponent@@SAXPAX@Z 100af4e0 f   awt_Component.obj
 0001:000ae5a0       ?_Disable@AwtComponent@@SAXPAX@Z 100af5a0 f   awt_Component.obj
 0001:000ae660       ?_GetLocationOnScreen@AwtComponent@@SAPAV_jobject@@PAX@Z 100af660 f   awt_Component.obj
 0001:000ae790       ?_Reshape@AwtComponent@@SAXPAX@Z 100af790 f   awt_Component.obj
 0001:000ae8d0       ?_ReshapeNoCheck@AwtComponent@@SAXPAX@Z 100af8d0 f   awt_Component.obj
 0001:000aea10       ?_NativeHandleEvent@AwtComponent@@SAXPAX@Z 100afa10 f   awt_Component.obj
 0001:000af0b0       ?_SetForeground@AwtComponent@@SAXPAX@Z 100b00b0 f   awt_Component.obj
 0001:000af1e0       ?_SetBackground@AwtComponent@@SAXPAX@Z 100b01e0 f   awt_Component.obj
 0001:000af310       ?_SetFont@AwtComponent@@SAXPAX@Z 100b0310 f   awt_Component.obj
 0001:000af470       ?_RequestFocus@AwtComponent@@SAEPAX@Z 100b0470 f   awt_Component.obj
 0001:000af600       ?_Start@AwtComponent@@SAXPAX@Z 100b0600 f   awt_Component.obj
 0001:000af730       ?_BeginValidate@AwtComponent@@SAXPAX@Z 100b0730 f   awt_Component.obj
 0001:000af7d0       ?_EndValidate@AwtComponent@@SAXPAX@Z 100b07d0 f   awt_Component.obj
 0001:000af870       ?_UpdateWindow@AwtComponent@@SAXPAX@Z 100b0870 f   awt_Component.obj
 0001:000af960       ?_AddNativeDropTarget@AwtComponent@@SA_JPAX@Z 100b0960 f   awt_Component.obj
 0001:000afa40       ?_RemoveNativeDropTarget@AwtComponent@@SAXPAX@Z 100b0a40 f   awt_Component.obj
 0001:000afb00       ?_CreatePrintedPixels@AwtComponent@@SAPAV_jintArray@@PAX@Z 100b0b00 f   awt_Component.obj
 0001:000afc10       ?_IsObscured@AwtComponent@@SAEPAX@Z 100b0c10 f   awt_Component.obj
 0001:000afd70       ?_NativeHandlesWheelScrolling@AwtComponent@@SAEPAX@Z 100b0d70 f   awt_Component.obj
 0001:000afe40       ?SetParent@AwtComponent@@SAXPAX@Z 100b0e40 f   awt_Component.obj
 0001:000afef0       ?_SetRectangularShape@AwtComponent@@SAXPAX@Z 100b0ef0 f   awt_Component.obj
 0001:000b0130       ?PostUngrabEvent@AwtComponent@@QAEXXZ 100b1130 f   awt_Component.obj
 0001:000b01d0       ?SetFocusedWindow@AwtComponent@@SAXPAUHWND__@@@Z 100b11d0 f   awt_Component.obj
 0001:000b0200       _AwtComponent_GetHWnd      100b1200 f   awt_Component.obj
 0001:000b0220       _AwtComponent_GetInsets    100b1220 f   awt_Component.obj
 0001:000b03e0       _Java_java_awt_Component_initIDs@8 100b13e0 f   awt_Component.obj
 0001:000b09a0       _Java_sun_awt_windows_WComponentPeer_pShow@8 100b19a0 f   awt_Component.obj
 0001:000b0a30       _Java_sun_awt_windows_WComponentPeer_hide@8 100b1a30 f   awt_Component.obj
 0001:000b0ac0       _Java_sun_awt_windows_WComponentPeer_enable@8 100b1ac0 f   awt_Component.obj
 0001:000b0b50       _Java_sun_awt_windows_WComponentPeer_disable@8 100b1b50 f   awt_Component.obj
 0001:000b0be0       _Java_sun_awt_windows_WComponentPeer_getLocationOnScreen@8 100b1be0 f   awt_Component.obj
 0001:000b0cc0       _Java_sun_awt_windows_WComponentPeer_reshape@24 100b1cc0 f   awt_Component.obj
 0001:000b0da0       _Java_sun_awt_windows_WComponentPeer_reshapeNoCheck@24 100b1da0 f   awt_Component.obj
 0001:000b0e80       _Java_sun_awt_windows_WComponentPeer_nativeHandleEvent@12 100b1e80 f   awt_Component.obj
 0001:000b0f60       _Java_sun_awt_windows_WComponentPeer__1dispose@8 100b1f60 f   awt_Component.obj
 0001:000b0ff0       _Java_sun_awt_windows_WComponentPeer__1setForeground@12 100b1ff0 f   awt_Component.obj
 0001:000b10c0       _Java_sun_awt_windows_WComponentPeer__1setBackground@12 100b20c0 f   awt_Component.obj
 0001:000b1190       _Java_sun_awt_windows_WComponentPeer__1setFont@12 100b2190 f   awt_Component.obj
 0001:000b1270       _Java_sun_awt_windows_WComponentPeer__1requestFocus@32 100b2270 f   awt_Component.obj
 0001:000b1390       _Java_sun_awt_windows_WComponentPeer_start@8 100b2390 f   awt_Component.obj
 0001:000b1420       _Java_sun_awt_windows_WComponentPeer_beginValidate@8 100b2420 f   awt_Component.obj
 0001:000b14b0       _Java_sun_awt_windows_WComponentPeer_endValidate@8 100b24b0 f   awt_Component.obj
 0001:000b1540       _Java_sun_awt_windows_WComponentPeer_updateWindow@8 100b2540 f   awt_Component.obj
 0001:000b15d0       _Java_sun_awt_windows_WComponentPeer_addNativeDropTarget@8 100b25d0 f   awt_Component.obj
 0001:000b1690       _Java_sun_awt_windows_WComponentPeer_removeNativeDropTarget@8 100b2690 f   awt_Component.obj
 0001:000b1720       _Java_sun_awt_windows_WComponentPeer_getTargetGC@8 100b2720 f   awt_Component.obj
 0001:000b17f0       _Java_sun_awt_windows_WComponentPeer_createPrintedPixels@28 100b27f0 f   awt_Component.obj
 0001:000b1920       _Java_sun_awt_windows_WComponentPeer_nativeHandlesWheelScrolling@8 100b2920 f   awt_Component.obj
 0001:000b19c0       _Java_sun_awt_windows_WComponentPeer_isObscured@8 100b29c0 f   awt_Component.obj
 0001:000b1a60       _Java_sun_awt_windows_WComponentPeer_wheelInit@8 100b2a60 f   awt_Component.obj
 0001:000b1b00       _Java_sun_awt_windows_WComponentPeer_processSynchronousLightweightTransfer@32 100b2b00 f   awt_Component.obj
 0001:000b1bb0       _Java_sun_awt_windows_WComponentPeer_pSetParent@12 100b2bb0 f   awt_Component.obj
 0001:000b1ca0       _Java_sun_awt_windows_WComponentPeer_setRectangularShape@28 100b2ca0 f   awt_Component.obj
 0001:000b1db0       ?VerifyState@AwtComponent@@UAEXXZ 100b2db0 f   awt_Component.obj
 0001:000b22d0       ?AddDC@DCList@@QAEXPAUHDC__@@PAUHWND__@@@Z 100b32d0 f   awt_Component.obj
 0001:000b2320       ?AddDCItem@DCList@@QAEXPAVDCItem@@@Z 100b3320 f   awt_Component.obj
 0001:000b2360       ?RemoveDC@DCList@@QAEPAVDCItem@@PAUHDC__@@@Z 100b3360 f   awt_Component.obj
 0001:000b23e0       ?RemoveAllDCs@DCList@@QAEPAVDCItem@@PAUHWND__@@@Z 100b33e0 f   awt_Component.obj
 0001:000b2470       ?RealizePalettes@DCList@@QAEXH@Z 100b3470 f   awt_Component.obj
 0001:000b24d0       ?MoveDCToPassiveList@@YAXPAUHDC__@@@Z 100b34d0 f   awt_Component.obj
 0001:000b2500       ?ReleaseDCList@@YAXPAUHWND__@@AAVDCList@@@Z 100b3500 f   awt_Component.obj
 0001:000b25b0       ??_EAwtComponent@@UAEPAXI@Z 100b35b0 f i awt_Component.obj
 0001:000b25b0       ??_GAwtComponent@@UAEPAXI@Z 100b35b0 f i awt_Component.obj
 0001:000b25e0       ?GetFocusedWindow@AwtComponent@@SAPAUHWND__@@XZ 100b35e0 f i awt_Component.obj
 0001:000b25f0       ??_GChildListItem@AwtComponent@@QAEPAXI@Z 100b35f0 f i awt_Component.obj
 0001:000b2620       ??1ChildListItem@AwtComponent@@QAE@XZ 100b3620 f i awt_Component.obj
 0001:000b2670       ?GetInstance@ComCtl32Util@@SAAAV1@XZ 100b3670 f i awt_Component.obj
 0001:000b2680       ?GetModuleHandleW@AwtToolkit@@QAEPAUHINSTANCE__@@XZ 100b3680 f i awt_Component.obj
 0001:000b26a0       ?NewStringUTF@JNIEnv_@@QAEPAV_jstring@@PBD@Z 100b36a0 f i awt_Component.obj
 0001:000b26c0       ?SetDrawState@AwtComponent@@QAEXJ@Z 100b36c0 f i awt_Component.obj
 0001:000b26e0       ?IsTopLevelHWnd@AwtComponent@@SAHPAUHWND__@@@Z 100b36e0 f i awt_Component.obj
 0001:000b2730       ?SubtractInsetPoint@AwtWindow@@QAEXAAH0@Z 100b3730 f i awt_Component.obj
 0001:000b2770       ??0JNILocalFrame@@QAE@PAUJNIEnv_@@H@Z 100b3770 f i awt_Component.obj
 0001:000b27d0       ??1JNILocalFrame@@QAE@XZ   100b37d0 f i awt_Component.obj
 0001:000b27f0       ?UpdateThemesStatus@AwtToolkit@@QAEXXZ 100b37f0 f i awt_Component.obj
 0001:000b2870       ?GetKeyboardLayout@AwtComponent@@SAPAUHKL__@@XZ 100b3870 f i awt_Component.obj
 0001:000b2880       ?Wheel95GetMsg@AwtComponent@@SAIXZ 100b3880 f i awt_Component.obj
 0001:000b2890       ?GetDrawState@AwtComponent@@QAEJXZ 100b3890 f i awt_Component.obj
 0001:000b28b0       ?IsRetainingHierarchyZOrder@AwtWindow@@QAEHXZ 100b38b0 f i awt_Component.obj
 0001:000b28d0       ?IsExactlyWindow@AwtWindow@@QAEHXZ 100b38d0 f i awt_Component.obj
 0001:000b2900       ?GetGrabbedWindow@AwtWindow@@SAPAV1@XZ 100b3900 f i awt_Component.obj
 0001:000b2910       ?SendMessageW@AwtToolkit@@QAEJIIJ@Z 100b3910 f i awt_Component.obj
 0001:000b2950       ?CallStaticIntMethod@JNIEnv_@@QAAJPAV_jclass@@PAU_jmethodID@@ZZ 100b3950 f i awt_Component.obj
 0001:000b2990       ?CallStaticVoidMethod@JNIEnv_@@QAAXPAV_jclass@@PAU_jmethodID@@ZZ 100b3990 f i awt_Component.obj
 0001:000b29c0       ?GetOwningFrameOrDialog@AwtWindow@@QAEPAVAwtFrame@@XZ 100b39c0 f i awt_Component.obj
 0001:000b29e0       ?GetProxyFocusOwner@AwtFrame@@QAEPAUHWND__@@XZ 100b39e0 f i awt_Component.obj
 0001:000b2a30       ?SetLastProxiedFocusOwner@AwtFrame@@QAEXPAUHWND__@@@Z 100b3a30 f i awt_Component.obj
 0001:000b2a50       ?GetColor@AwtComponent@@QAEKXZ 100b3a50 f i awt_Component.obj
 0001:000b2a70       ?GetCodePage@AwtComponent@@SAIXZ 100b3a70 f i awt_Component.obj
 0001:000b2a80       ??_GAwtInputTextInfor@@QAEPAXI@Z 100b3a80 f i awt_Component.obj
 0001:000b2ab0       ?SetIntArrayRegion@JNIEnv_@@QAEXPAV_jintArray@@JJPBJ@Z 100b3ab0 f i awt_Component.obj
 0001:000b2ae0       ?GetHFontNum@AwtFont@@QAEHXZ 100b3ae0 f i awt_Font.obj
 0001:000b2ae0       ?GetID@AwtMenuItem@@QAEIXZ 100b3ae0 f i awt_Component.obj
 0001:000b2b00       ?drawMFString@AwtFont@@SAXPAUHDC__@@PAV_jobject@@PAV_jstring@@JJI@Z 100b3b00 f i awt_Component.obj
 0001:000b2b40       ?CallIntMethod@JNIEnv_@@QAAJPAV_jobject@@PAU_jmethodID@@ZZ 100b3b40 f i awt_Component.obj
 0001:000b2b80       ?HasDisplayChanged@AwtToolkit@@QAEHXZ 100b3b80 f i awt_Component.obj
 0001:000b2ba0       ?ResetDisplayChanged@AwtToolkit@@QAEXXZ 100b3ba0 f i awt_Component.obj
 0001:000b2bc0       ?GetTargetAsGlobalRef@AwtObject@@QAEPAV_jobject@@PAUJNIEnv_@@@Z 100b3bc0 f i awt_Component.obj
 0001:000b2c10       ?NewObject@JNIEnv_@@QAAPAV_jobject@@PAV_jclass@@PAU_jmethodID@@ZZ 100b3c10 f i awt_Component.obj
 0001:000b2c50       ?GetLock@AwtObject@@QAEAAVCriticalSection@@XZ 100b3c50 f i awt_Component.obj
 0001:000b2c70       ?isRecursivelyEnabled@AwtComponent@@QAEHXZ 100b3c70 f i awt_Component.obj
 0001:000b2cc0       ?GetCharField@JNIEnv_@@QAEGPAV_jobject@@PAU_jfieldID@@@Z 100b3cc0 f i awt_Component.obj
 0001:000b2cf0       ?JavaKeyToWindowsKey@AwtComponent@@SAXIPAI0@Z 100b3cf0 f i awt_Component.obj
 0001:000b2d10       ?SetBooleanField@JNIEnv_@@QAEXPAV_jobject@@PAU_jfieldID@@E@Z 100b3d10 f i awt_Component.obj
 0001:000b2d40       ?HwndMSWheel@@YAPAUHWND__@@PAI00PAH1@Z 100b3d40 f i awt_Component.obj
 0001:000b2df0       ?IsMainThread@AwtToolkit@@SAHXZ 100b3df0 f i awt_Component.obj
 0001:000b2e10       ?InvokeFunction@AwtToolkit@@QAEXP6AXPAX@Z0@Z 100b3e10 f i awt_Component.obj
 0001:000b2e30       ?InvokeFunction@AwtToolkit@@QAEPAXP6APAXPAX@Z0@Z 100b3e30 f i awt_Component.obj
 0001:000b2e60       ?CallStaticBooleanMethod@JNIEnv_@@QAAEPAV_jclass@@PAU_jmethodID@@ZZ 100b3e60 f i awt_Component.obj
 0001:000b2ea0       ?GetStringLength@JNIEnv_@@QAEJPAV_jstring@@@Z 100b3ea0 f i awt_Component.obj
 0001:000b2ec0       ??0DCList@@QAE@XZ          100b3ec0 f i awt_Component.obj
 0001:000b2ef0       ?GetInputLanguage@AwtComponent@@SAGXZ 100b3ef0 f i awt_Component.obj
 0001:000b2f00       ??1DCList@@QAE@XZ          100b3f00 f i awt_Component.obj
 0001:000b2f00       ??1AwtObjectList@@QAE@XZ   100b3f00 f i ObjectList.obj
 0001:000b2f20       _Java_java_awt_Container_initIDs@8 100b3f20 f   awt_Container.obj
 0001:000b3000       ??0AwtCursor@@QAE@PAUJNIEnv_@@PAUHICON__@@PAV_jobject@@@Z 100b4000 f   awt_Cursor.obj
 0001:000b30d0       ??0AwtCursor@@QAE@PAUJNIEnv_@@PAUHICON__@@PAV_jobject@@HHHHHPAHPAE@Z 100b40d0 f   awt_Cursor.obj
 0001:000b31b0       ??1AwtCursor@@UAE@XZ       100b41b0 f   awt_Cursor.obj
 0001:000b32b0       ?CreateSystemCursor@AwtCursor@@SAPAV1@PAV_jobject@@@Z 100b42b0 f   awt_Cursor.obj
 0001:000b34a0       ?GetCursor@AwtCursor@@SAPAUHICON__@@PAUJNIEnv_@@PAVAwtComponent@@@Z 100b44a0 f   awt_Cursor.obj
 0001:000b3580       ?UpdateCursor@AwtCursor@@SAXPAVAwtComponent@@@Z 100b4580 f   awt_Cursor.obj
 0001:000b3730       ?DirtyAllCustomCursors@AwtCursor@@SAXXZ 100b4730 f   awt_Cursor.obj
 0001:000b3770       ?Rebuild@AwtCursor@@AAEXXZ 100b4770 f   awt_Cursor.obj
 0001:000b3880       ?IsWin95Cursor@AwtCursor@@CAHXZ 100b4880 f   awt_Cursor.obj
 0001:000b3910       ?_Dispose@AwtCursor@@SAXPAX@Z 100b4910 f   awt_Cursor.obj
 0001:000b39a0       _Java_java_awt_Cursor_initIDs@8 100b49a0 f   awt_Cursor.obj
 0001:000b3b50       _Java_java_awt_Cursor_finalizeImpl@16 100b4b50 f   awt_Cursor.obj
 0001:000b3bd0       _Java_sun_awt_windows_WCustomCursor_createCursorIndirect@36 100b4bd0 f   awt_Cursor.obj
 0001:000b3ed0       _Java_sun_awt_windows_WCustomCursor_getCursorWidth@8 100b4ed0 f   awt_Cursor.obj
 0001:000b3f80       _Java_sun_awt_windows_WCustomCursor_getCursorHeight@8 100b4f80 f   awt_Cursor.obj
 0001:000b4030       _Java_sun_awt_windows_WGlobalCursorManager_getCursorPos@12 100b5030 f   awt_Cursor.obj
 0001:000b40d0       _Java_sun_awt_windows_WGlobalCursorManager_setCursor@20 100b50d0 f   awt_Cursor.obj
 0001:000b42e0       _Java_sun_awt_windows_WGlobalCursorManager_findHeavyweightUnderCursor@12 100b52e0 f   awt_Cursor.obj
 0001:000b43b0       _Java_sun_awt_windows_WGlobalCursorManager_findComponentAt@20 100b53b0 f   awt_Cursor.obj
 0001:000b4470       _Java_sun_awt_windows_WGlobalCursorManager_getLocationOnScreen@12 100b5470 f   awt_Cursor.obj
 0001:000b4520       ??_EAwtCursor@@UAEPAXI@Z   100b5520 f i awt_Cursor.obj
 0001:000b4520       ??_GAwtCursor@@UAEPAXI@Z   100b5520 f i awt_Cursor.obj
 0001:000b4550       ?setPData@AwtCursor@@SAXPAV_jobject@@_J@Z 100b5550 f i awt_Cursor.obj
 0001:000b4590       ?GetHCursor@AwtCursor@@QAEPAUHICON__@@XZ 100b5590 f i awt_Cursor.obj
 0001:000b45c0       ?isMenuLoopActive@AwtComponent@@SAHXZ 100b55c0 f i awt_Cursor.obj
 0001:000b45d0       ?getCursorCache@AwtComponent@@QAEPAUHICON__@@XZ 100b55d0 f i awt_Cursor.obj
 0001:000b45f0       ?NotifyCustomCursor@AwtToolkit@@QAEXXZ 100b55f0 f i awt_Cursor.obj
 0001:000b4610       ?NotifySystemCursor@AwtToolkit@@QAEXXZ 100b5610 f i awt_Cursor.obj
 0001:000b4630       ?IsCustomCursor@AwtCursor@@QAEHXZ 100b5630 f i awt_Cursor.obj
 0001:000b4650       ?setCursorCache@AwtComponent@@QAEXPAUHICON__@@@Z 100b5650 f i awt_Cursor.obj
 0001:000b4670       ?GetDataTransferer@AwtDataTransferer@@SAPAV_jobject@@PAUJNIEnv_@@@Z 100b5670 f   awt_DataTransferer.obj
 0001:000b47c0       ?ConvertData@AwtDataTransferer@@SAPAV_jbyteArray@@PAUJNIEnv_@@PAV_jobject@@1_J1@Z 100b57c0 f   awt_DataTransferer.obj
 0001:000b48e0       ?ConcatData@AwtDataTransferer@@SAPAV_jobject@@PAUJNIEnv_@@PAV2@1@Z 100b58e0 f   awt_DataTransferer.obj
 0001:000b49f0       ?GetPaletteBytes@AwtDataTransferer@@SAPAV_jbyteArray@@PAXKH@Z 100b59f0 f   awt_DataTransferer.obj
 0001:000b4bc0       ?LCIDToTextEncoding@AwtDataTransferer@@SAPAV_jbyteArray@@PAUJNIEnv_@@K@Z 100b5bc0 f   awt_DataTransferer.obj
 0001:000b4c40       ?SecondaryMessageLoop@AwtDataTransferer@@SAXXZ 100b5c40 f   awt_DataTransferer.obj
 0001:000b4d20       ??0OleStrongLock@@QAE@PAUJNIEnv_@@PAUIUnknown@@AAJ@Z 100b5d20 f   awt_DataTransferer.obj
 0001:000b4e20       ??1OleStrongLock@@QAE@XZ   100b5e20 f   awt_DataTransferer.obj
 0001:000b4e70       _Java_sun_awt_windows_WDataTransferer_dragQueryFile@12 100b5e70 f   awt_DataTransferer.obj
 0001:000b5140       _Java_sun_awt_windows_WDataTransferer_platformImageBytesToImageData@20 100b6140 f   awt_DataTransferer.obj
 0001:000b5e20       _Java_sun_awt_windows_WDataTransferer_imageDataToPlatformImageBytes@28 100b6e20 f   awt_DataTransferer.obj
 0001:000b66a0       _Java_sun_awt_windows_WDataTransferer_registerClipboardFormat@12 100b76a0 f   awt_DataTransferer.obj
 0001:000b6770       _Java_sun_awt_windows_WDataTransferer_getClipboardFormatName@16 100b7770 f   awt_DataTransferer.obj
 0001:000b6890       _Java_sun_awt_windows_WToolkitThreadBlockedHandler_startSecondaryEventLoop@8 100b7890 f   awt_DataTransferer.obj
 0001:000b6900       ??2@YAPAXIPBDH@Z           100b7900 f   awt_Debug.obj
 0001:000b6950       ??3@YAXPAXPBDH@Z           100b7950 f   awt_Debug.obj
 0001:000b6980       ??3@YAXPAX@Z               100b7980 f   awt_Debug.obj
 0001:000b69a0       ?DumpClipRectangle@@YAXPBDHH0PAD@Z 100b79a0 f   awt_Debug.obj
 0001:000b6a40       ?DumpUpdateRectangle@@YAXPBDHH0PAD@Z 100b7a40 f   awt_Debug.obj
 0001:000b6c20       ??0AwtDebugSupport@@QAE@XZ 100b7c20 f   awt_Debug.obj
 0001:000b6c50       ??1AwtDebugSupport@@QAE@XZ 100b7c50 f   awt_Debug.obj
 0001:000b6c80       ?AssertCallback@AwtDebugSupport@@SAXPBD0H@Z 100b7c80 f   awt_Debug.obj
 0001:000b6da0       ?GenerateLeaksReport@AwtDebugSupport@@SAXXZ 100b7da0 f   awt_Debug.obj
 0001:000b6db0       _Java_java_awt_Dimension_initIDs@8 100b7db0 f   awt_Dimension.obj
 0001:000b6e90       _Java_sun_awt_windows_WDesktopPeer_ShellExecute@16 100b7e90 f   awt_Desktop.obj
 0001:000b6f50       ??0AwtDesktopProperties@@QAE@PAV_jobject@@@Z 100b7f50 f   awt_DesktopProperties.obj
 0001:000b6fa0       ??1AwtDesktopProperties@@QAE@XZ 100b7fa0 f   awt_DesktopProperties.obj
 0001:000b6fc0       ?GetWindowsParameters@AwtDesktopProperties@@QAEXXZ 100b7fc0 f   awt_DesktopProperties.obj
 0001:000b70d0       ?GetSystemProperties@AwtDesktopProperties@@AAEXXZ 100b80d0 f   awt_DesktopProperties.obj
 0001:000b7190       ?IsXPStyle@AwtDesktopProperties@@SAHXZ 100b8190 f   awt_DesktopProperties.obj
 0001:000b7340       ?GetXPStyleProperties@AwtDesktopProperties@@AAEXXZ 100b8340 f   awt_DesktopProperties.obj
 0001:000b7440       ?GetNonClientParameters@AwtDesktopProperties@@AAEXXZ 100b8440 f   awt_DesktopProperties.obj
 0001:000b7620       ?GetIconParameters@AwtDesktopProperties@@AAEXXZ 100b8620 f   awt_DesktopProperties.obj
 0001:000b76b0       ?GetLCDSubPixelOrder@@YAHXZ 100b86b0 f   awt_DesktopProperties.obj
 0001:000b7730       ?CheckFontSmoothingSettings@@YAXPAUHWND__@@@Z 100b8730 f   awt_DesktopProperties.obj
 0001:000b7a00       ?GetColorParameters@AwtDesktopProperties@@AAEXXZ 100b8a00 f   awt_DesktopProperties.obj
 0001:000b7da0       ?GetOtherParameters@AwtDesktopProperties@@AAEXXZ 100b8da0 f   awt_DesktopProperties.obj
 0001:000b83c0       ?GetSoundEvents@AwtDesktopProperties@@AAEXXZ 100b93c0 f   awt_DesktopProperties.obj
 0001:000b84e0       ?GetBooleanParameter@AwtDesktopProperties@@CAHI@Z 100b94e0 f   awt_DesktopProperties.obj
 0001:000b8520       ?GetIntegerParameter@AwtDesktopProperties@@CAII@Z 100b9520 f   awt_DesktopProperties.obj
 0001:000b8540       ?SetStringProperty@AwtDesktopProperties@@AAEXPBGPAG@Z 100b9540 f   awt_DesktopProperties.obj
 0001:000b85d0       ?SetIntegerProperty@AwtDesktopProperties@@AAEXPBGH@Z 100b95d0 f   awt_DesktopProperties.obj
 0001:000b8640       ?SetBooleanProperty@AwtDesktopProperties@@AAEXPBGH@Z 100b9640 f   awt_DesktopProperties.obj
 0001:000b86c0       ?SetColorProperty@AwtDesktopProperties@@AAEXPBGK@Z 100b96c0 f   awt_DesktopProperties.obj
 0001:000b8750       ?SetFontProperty@AwtDesktopProperties@@AAEXPAUHDC__@@HPBG@Z 100b9750 f   awt_DesktopProperties.obj
 0001:000b8a50       ?SetFontProperty@AwtDesktopProperties@@AAEXPBGABUtagLOGFONTW@@@Z 100b9a50 f   awt_DesktopProperties.obj
 0001:000b8b80       ?SetSoundProperty@AwtDesktopProperties@@AAEXPBG0@Z 100b9b80 f   awt_DesktopProperties.obj
 0001:000b8c30       ?PlayWindowsSound@AwtDesktopProperties@@QAEXPBG@Z 100b9c30 f   awt_DesktopProperties.obj
 0001:000b8c60       _Java_sun_awt_windows_WDesktopProperties_initIDs@8 100b9c60 f   awt_DesktopProperties.obj
 0001:000b8e90       _Java_sun_awt_windows_WDesktopProperties_init@8 100b9e90 f   awt_DesktopProperties.obj
 0001:000b8f80       _Java_sun_awt_windows_WDesktopProperties_getWindowsParameters@8 100b9f80 f   awt_DesktopProperties.obj
 0001:000b9060       _Java_sun_awt_windows_WDesktopProperties_playWindowsSound@12 100ba060 f   awt_DesktopProperties.obj
 0001:000b9110       ?GetEnv@AwtDesktopProperties@@AAEPAUJNIEnv_@@XZ 100ba110 f i awt_DesktopProperties.obj
 0001:000b9130       ?GetLastProxiedFocusOwner@AwtFrame@@QAEPAUHWND__@@XZ 100ba130 f i awt_Component.obj
 0001:000b9130       ?GetPeer@AwtToolkit@@QAEPAV_jobject@@XZ 100ba130 f i awt_DesktopProperties.obj
 0001:000b9150       ??0AwtDialog@@QAE@XZ       100ba150 f   awt_Dialog.obj
 0001:000b9180       ??1AwtDialog@@UAE@XZ       100ba180 f   awt_Dialog.obj
 0001:000b91e0       ?GetClassNameW@AwtDialog@@UAEPBGXZ 100ba1e0 f   awt_Dialog.obj
 0001:000b91f0       ?FillClassInfo@AwtDialog@@UAEXPAUtagWNDCLASSEXW@@@Z 100ba1f0 f   awt_Dialog.obj
 0001:000b9220       ?Create@AwtDialog@@SAPAV1@PAV_jobject@@0@Z 100ba220 f   awt_Dialog.obj
 0001:000b9700       ?WmNcMouseDown@AwtDialog@@UAE?AW4MsgRouting@@IHHH@Z 100ba700 f   awt_Dialog.obj
 0001:000b9770       ?ModalFilterProc@AwtDialog@@SGJHIJ@Z 100ba770 f   awt_Dialog.obj
 0001:000b9800       ?MouseHookProc@AwtDialog@@SGJHIJ@Z 100ba800 f   awt_Dialog.obj
 0001:000b98e0       ?PopupAllDialogs@AwtDialog@@CAXPAUHWND__@@H0H@Z 100ba8e0 f   awt_Dialog.obj
 0001:000b9940       ?PopupOneDialog@AwtDialog@@CAXPAUHWND__@@0H0H@Z 100ba940 f   awt_Dialog.obj
 0001:000b9a10       ?AnimateModalBlocker@AwtDialog@@SAXPAUHWND__@@@Z 100baa10 f   awt_Dialog.obj
 0001:000b9a30       ?MouseHookProc_NonTT@AwtDialog@@SGJHIJ@Z 100baa30 f   awt_Dialog.obj
 0001:000b9b30       ?Show@AwtDialog@@UAEXXZ    100bab30 f   awt_Dialog.obj
 0001:000b9bc0       ?DoUpdateIcon@AwtDialog@@UAEXXZ 100babc0 f   awt_Dialog.obj
 0001:000b9c70       ?GetEffectiveIcon@AwtDialog@@UAEPAUHICON__@@H@Z 100bac70 f   awt_Dialog.obj
 0001:000b9d60       ?CheckInstallModalHook@AwtDialog@@SAXXZ 100bad60 f   awt_Dialog.obj
 0001:000b9db0       ?CheckUninstallModalHook@AwtDialog@@SAXXZ 100badb0 f   awt_Dialog.obj
 0001:000b9df0       ?ModalPerformActivation@AwtDialog@@CAXPAUHWND__@@@Z 100badf0 f   awt_Dialog.obj
 0001:000b9e80       ?ModalActivateNextWindow@AwtDialog@@SAXPAUHWND__@@PAV_jobject@@1@Z 100bae80 f   awt_Dialog.obj
 0001:000b9fa0       ?WmShowModal@AwtDialog@@UAE?AW4MsgRouting@@XZ 100bafa0 f   awt_Dialog.obj
 0001:000ba020       ?WmEndModal@AwtDialog@@UAE?AW4MsgRouting@@XZ 100bb020 f   awt_Dialog.obj
 0001:000ba130       ?SetResizable@AwtDialog@@UAEXH@Z 100bb130 f   awt_Dialog.obj
 0001:000ba1d0       ?UpdateSystemMenu@AwtDialog@@AAEXXZ 100bb1d0 f   awt_Dialog.obj
 0001:000ba360       ?WmStyleChanged@AwtDialog@@UAE?AW4MsgRouting@@HPAUtagSTYLESTRUCT@@@Z 100bb360 f   awt_Dialog.obj
 0001:000ba390       ?WmSize@AwtDialog@@UAE?AW4MsgRouting@@IHH@Z 100bb390 f   awt_Dialog.obj
 0001:000ba3c0       ?WindowProc@AwtDialog@@UAEJIIJ@Z 100bb3c0 f   awt_Dialog.obj
 0001:000ba440       ?_ShowModal@AwtDialog@@SAXPAX@Z 100bb440 f   awt_Dialog.obj
 0001:000ba500       ?_EndModal@AwtDialog@@SAXPAX@Z 100bb500 f   awt_Dialog.obj
 0001:000ba5c0       ?_SetIMMOption@AwtDialog@@SAXPAX@Z 100bb5c0 f   awt_Dialog.obj
 0001:000ba760       _Java_java_awt_Dialog_initIDs@8 100bb760 f   awt_Dialog.obj
 0001:000ba850       _Java_sun_awt_windows_WDialogPeer_create@12 100bb850 f   awt_Dialog.obj
 0001:000ba900       _Java_sun_awt_windows_WDialogPeer_showModal@8 100bb900 f   awt_Dialog.obj
 0001:000ba990       _Java_sun_awt_windows_WDialogPeer_endModal@8 100bb990 f   awt_Dialog.obj
 0001:000baa20       _Java_sun_awt_windows_WDialogPeer_pSetIMMOption@12 100bba20 f   awt_Dialog.obj
 0001:000baaf0       ?GetInsets@AwtWindow@@UAEXPAUtagRECT@@@Z 100bbaf0 f i awt_Dialog.obj
 0001:000bab30       ?IsEmbeddedFrame@AwtFrame@@UAEHXZ 100bbb30 f i awt_Dialog.obj
 0001:000bab50       ?IsUndecorated@AwtFrame@@UAEHXZ 100bbb50 f i awt_Dialog.obj
 0001:000bab70       ??_GAwtDialog@@UAEPAXI@Z   100bbb70 f i awt_Dialog.obj
 0001:000bab70       ??_EAwtDialog@@UAEPAXI@Z   100bbb70 f i awt_Dialog.obj
 0001:000baba0       ?GetHIcon@AwtWindow@@QAEPAUHICON__@@XZ 100bbba0 f i awt_Dialog.obj
 0001:000babc0       ?GetHIconSm@AwtWindow@@QAEPAUHICON__@@XZ 100bbbc0 f i awt_Dialog.obj
 0001:000babe0       ?IsIconInherited@AwtWindow@@QAEHXZ 100bbbe0 f i awt_Dialog.obj
 0001:000bac00       ?ModalCanBeActivated@AwtDialog@@CAHPAUHWND__@@@Z 100bbc00 f i awt_Dialog.obj
 0001:000bac60       ?Init@JAWTDrawingSurfaceInfo@@QAEJPAVJAWTDrawingSurface@@@Z 100bbc60 f   awt_DrawingSurface.obj
 0001:000baed0       ?Init@JAWTOffscreenDrawingSurfaceInfo@@QAEJPAVJAWTOffscreenDrawingSurface@@@Z 100bbed0 f   awt_DrawingSurface.obj
 0001:000baf50       ??0JAWTDrawingSurface@@QAE@PAUJNIEnv_@@PAV_jobject@@@Z 100bbf50 f   awt_DrawingSurface.obj
 0001:000bb030       ??1JAWTDrawingSurface@@UAE@XZ 100bc030 f   awt_DrawingSurface.obj
 0001:000bb0b0       ?GetDSI@JAWTDrawingSurface@@SGPAUjawt_DrawingSurfaceInfo@@PAUjawt_DrawingSurface@@@Z 100bc0b0 f   awt_DrawingSurface.obj
 0001:000bb1a0       ?FreeDSI@JAWTDrawingSurface@@SGXPAUjawt_DrawingSurfaceInfo@@@Z 100bc1a0 f   awt_DrawingSurface.obj
 0001:000bb250       ?LockSurface@JAWTDrawingSurface@@SGJPAUjawt_DrawingSurface@@@Z 100bc250 f   awt_DrawingSurface.obj
 0001:000bb380       ?UnlockSurface@JAWTDrawingSurface@@SGXPAUjawt_DrawingSurface@@@Z 100bc380 f   awt_DrawingSurface.obj
 0001:000bb440       ??0JAWTOffscreenDrawingSurface@@QAE@PAUJNIEnv_@@PAV_jobject@@@Z 100bc440 f   awt_DrawingSurface.obj
 0001:000bb520       ??1JAWTOffscreenDrawingSurface@@UAE@XZ 100bc520 f   awt_DrawingSurface.obj
 0001:000bb580       ?GetDSI@JAWTOffscreenDrawingSurface@@SGPAUjawt_DrawingSurfaceInfo@@PAUjawt_DrawingSurface@@@Z 100bc580 f   awt_DrawingSurface.obj
 0001:000bb670       ?FreeDSI@JAWTOffscreenDrawingSurface@@SGXPAUjawt_DrawingSurfaceInfo@@@Z 100bc670 f   awt_DrawingSurface.obj
 0001:000bb680       ?LockSurface@JAWTOffscreenDrawingSurface@@SGJPAUjawt_DrawingSurface@@@Z 100bc680 f   awt_DrawingSurface.obj
 0001:000bb690       ?UnlockSurface@JAWTOffscreenDrawingSurface@@SGXPAUjawt_DrawingSurface@@@Z 100bc690 f   awt_DrawingSurface.obj
 0001:000bb6a0       _DSGetDrawingSurface@8     100bc6a0 f   awt_DrawingSurface.obj
 0001:000bb7e0       _DSFreeDrawingSurface@4    100bc7e0 f   awt_DrawingSurface.obj
 0001:000bb8d0       _DSLockAWT@4               100bc8d0 f   awt_DrawingSurface.obj
 0001:000bb8e0       _DSUnlockAWT@4             100bc8e0 f   awt_DrawingSurface.obj
 0001:000bb8f0       ??_EJAWTDrawingSurface@@UAEPAXI@Z 100bc8f0 f i awt_DrawingSurface.obj
 0001:000bb8f0       ??_GJAWTDrawingSurface@@UAEPAXI@Z 100bc8f0 f i awt_DrawingSurface.obj
 0001:000bb920       ??0JAWTDrawingSurface@@QAE@XZ 100bc920 f i awt_DrawingSurface.obj
 0001:000bb940       ??_GJAWTOffscreenDrawingSurface@@UAEPAXI@Z 100bc940 f i awt_DrawingSurface.obj
 0001:000bb940       ??_EJAWTOffscreenDrawingSurface@@UAEPAXI@Z 100bc940 f i awt_DrawingSurface.obj
 0001:000bb970       ?Initialize@AwtFileDialog@@SAXPAUJNIEnv_@@PAV_jstring@@@Z 100bc970 f   awt_FileDialog.obj
 0001:000bba50       ?FileDialogWndProc@@YGJPAUHWND__@@IIJ@Z 100bca50 f   awt_FileDialog.obj
 0001:000bbb00       ?Show@AwtFileDialog@@SAXPAX@Z 100bcb00 f   awt_FileDialog.obj
 0001:000bc690       ?GetOpenFileNameW@AwtFileDialog@@SAHPAUtagAWTOFN@@@Z 100bd690 f   awt_FileDialog.obj
 0001:000bc6b0       ?GetSaveFileNameW@AwtFileDialog@@SAHPAUtagAWTOFN@@@Z 100bd6b0 f   awt_FileDialog.obj
 0001:000bc6d0       ?InheritsNativeMouseWheelBehavior@AwtFileDialog@@UAEHXZ 100bd6d0 f   awt_FileDialog.obj
 0001:000bc6e0       ?_DisposeOrHide@AwtFileDialog@@SAXPAX@Z 100bd6e0 f   awt_FileDialog.obj
 0001:000bc750       ?_ToFront@AwtFileDialog@@SAXPAX@Z 100bd750 f   awt_FileDialog.obj
 0001:000bc7c0       ?_ToBack@AwtFileDialog@@SAXPAX@Z 100bd7c0 f   awt_FileDialog.obj
 0001:000bc830       _Java_sun_awt_windows_WFileDialogPeer_initIDs@8 100bd830 f   awt_FileDialog.obj
 0001:000bcb10       _Java_sun_awt_windows_WFileDialogPeer_setFilterString@12 100bdb10 f   awt_FileDialog.obj
 0001:000bcb80       _Java_sun_awt_windows_WFileDialogPeer__1show@8 100bdb80 f   awt_FileDialog.obj
 0001:000bcc20       _Java_sun_awt_windows_WFileDialogPeer__1dispose@8 100bdc20 f   awt_FileDialog.obj
 0001:000bccb0       _Java_sun_awt_windows_WFileDialogPeer__1hide@8 100bdcb0 f   awt_FileDialog.obj
 0001:000bcd40       _Java_sun_awt_windows_WFileDialogPeer_toFront@8 100bdd40 f   awt_FileDialog.obj
 0001:000bcdd0       _Java_sun_awt_windows_WFileDialogPeer_toBack@8 100bddd0 f   awt_FileDialog.obj
 0001:000bce60       ?GetOpenFileNameWrapper@AwtCommDialog@@CAHPAUtagOFNW@@@Z 100bde60 f i awt_FileDialog.obj
 0001:000bce70       ?GetSaveFileNameWrapper@AwtCommDialog@@CAHPAUtagOFNW@@@Z 100bde70 f i awt_FileDialog.obj
 0001:000bce80       _Java_java_awt_Event_initIDs@8 100bde80 f   awt_Event.obj
 0001:000bcfa0       ?IsMultiFont@@YAEPAUJNIEnv_@@PAV_jobject@@@Z 100bdfa0 f   awt_Font.obj
 0001:000bd030       ?GetTextComponentFontName@@YAPAV_jstring@@PAUJNIEnv_@@PAV_jobject@@@Z 100be030 f   awt_Font.obj
 0001:000bd0c0       ??0AwtFont@@QAE@HPAUJNIEnv_@@PAV_jobject@@@Z 100be0c0 f   awt_Font.obj
 0001:000bd1b0       ??1AwtFont@@UAE@XZ         100be1b0 f   awt_Font.obj
 0001:000bd2f0       ?GetFont@AwtFont@@SAPAV1@PAUJNIEnv_@@PAV_jobject@@JM@Z 100be2f0 f   awt_Font.obj
 0001:000bd360       ?Create@AwtFont@@SAPAV1@PAUJNIEnv_@@PAV_jobject@@JM@Z 100be360 f   awt_Font.obj
 0001:000bdbc0       ?FindFamilyName@@YGHPAUtagENUMLOGFONTEXW@@PAUtagNEWTEXTMETRICEXW@@HJ@Z 100bebc0 f   awt_Font.obj
 0001:000bdc00       ?CreateHFont@AwtFont@@SAPAUHFONT__@@PAGHHHM@Z 100bec00 f   awt_Font.obj
 0001:000be150       ?Cleanup@AwtFont@@SAXXZ    100bf150 f   awt_Font.obj
 0001:000be160       ?SetupAscent@AwtFont@@SAXPAV1@@Z 100bf160 f   awt_Font.obj
 0001:000be220       ?LoadMetrics@AwtFont@@SAXPAUJNIEnv_@@PAV_jobject@@@Z 100bf220 f   awt_Font.obj
 0001:000be6a0       ?TextSize@AwtFont@@SA?AUtagSIZE@@PAV1@HH@Z 100bf6a0 f   awt_Font.obj
 0001:000be7b0       ?getFontDescriptorNumber@AwtFont@@SAHPAUJNIEnv_@@PAV_jobject@@1@Z 100bf7b0 f   awt_Font.obj
 0001:000be8a0       ?DrawStringSize_sub@AwtFont@@SA?AUtagSIZE@@PAV_jstring@@PAUHDC__@@PAV_jobject@@JJHI@Z 100bf8a0 f   awt_Font.obj
 0001:000bf020       ?_Dispose@AwtFont@@SAXPAX@Z 100c0020 f   awt_Font.obj
 0001:000bf0c0       _Java_sun_awt_windows_WFontMetrics_stringWidth@12 100c00c0 f   awt_Font.obj
 0001:000bf1e0       _Java_sun_awt_windows_WFontMetrics_charsWidth@20 100c01e0 f   awt_Font.obj
 0001:000bf330       _Java_sun_awt_windows_WFontMetrics_bytesWidth@20 100c0330 f   awt_Font.obj
 0001:000bf510       _Java_sun_awt_windows_WFontMetrics_init@8 100c0510 f   awt_Font.obj
 0001:000bf5e0       _Java_sun_awt_windows_WFontMetrics_initIDs@8 100c05e0 f   awt_Font.obj
 0001:000bf890       _Java_java_awt_Font_initIDs@8 100c0890 f   awt_Font.obj
 0001:000bfa80       _Java_java_awt_Font_pDispose@8 100c0a80 f   awt_Font.obj
 0001:000bfb10       _Java_java_awt_FontMetrics_initIDs@8 100c0b10 f   awt_Font.obj
 0001:000bfc00       _Java_sun_awt_FontDescriptor_initIDs@8 100c0c00 f   awt_Font.obj
 0001:000bfcf0       _Java_sun_awt_PlatformFont_initIDs@8 100c0cf0 f   awt_Font.obj
 0001:000bfe20       _Java_sun_awt_windows_WFontPeer_initIDs@8 100c0e20 f   awt_Font.obj
 0001:000bfec0       ?Add@AwtFontCache@@QAEXPAGPAUHFONT__@@@Z 100c0ec0 f   awt_Font.obj
 0001:000bff50       ?Lookup@AwtFontCache@@QAEPAUHFONT__@@PAG@Z 100c0f50 f   awt_Font.obj
 0001:000bffb0       ?Search@AwtFontCache@@QAEHPAUHFONT__@@@Z 100c0fb0 f   awt_Font.obj
 0001:000bfff0       ?Remove@AwtFontCache@@QAEXPAUHFONT__@@@Z 100c0ff0 f   awt_Font.obj
 0001:000c0090       ?Clear@AwtFontCache@@QAEXXZ 100c1090 f   awt_Font.obj
 0001:000c00f0       ?IncRefCount@AwtFontCache@@QAEXPAUHFONT__@@@Z 100c10f0 f   awt_Font.obj
 0001:000c0140       ?IncRefCount@AwtFontCache@@QAEJPAVItem@1@@Z 100c1140 f   awt_Font.obj
 0001:000c0170       ?DecRefCount@AwtFontCache@@QAEJPAVItem@1@@Z 100c1170 f   awt_Font.obj
 0001:000c01a0       ??0Item@AwtFontCache@@QAE@PBGPAUHFONT__@@PAV01@@Z 100c11a0 f   awt_Font.obj
 0001:000c01e0       ??1Item@AwtFontCache@@QAE@XZ 100c11e0 f   awt_Font.obj
 0001:000c0230       ??0CSegTableComponent@@QAE@XZ 100c1230 f   awt_Font.obj
 0001:000c0260       ??1CSegTableComponent@@UAE@XZ 100c1260 f   awt_Font.obj
 0001:000c02a0       ?Create@CSegTableComponent@@UAEXPAG@Z 100c12a0 f   awt_Font.obj
 0001:000c0310       ??0CSegTable@@QAE@XZ       100c1310 f   awt_Font.obj
 0001:000c0360       ??1CSegTable@@UAE@XZ       100c1360 f   awt_Font.obj
 0001:000c03f0       ?MakeTable@CSegTable@@IAEXXZ 100c13f0 f   awt_Font.obj
 0001:000c0750       ?In@CSegTable@@UAEHG@Z     100c1750 f   awt_Font.obj
 0001:000c0870       ??0CStdSegTable@@QAE@XZ    100c1870 f   awt_Font.obj
 0001:000c08a0       ??1CStdSegTable@@UAE@XZ    100c18a0 f   awt_Font.obj
 0001:000c08e0       ?Create@CStdSegTable@@UAEXPAG@Z 100c18e0 f   awt_Font.obj
 0001:000c0a30       ??0CEUDCSegTable@@QAE@XZ   100c1a30 f   awt_Font.obj
 0001:000c0a70       ??1CEUDCSegTable@@UAE@XZ   100c1a70 f   awt_Font.obj
 0001:000c0ad0       ?Create@CEUDCSegTable@@UAEXPAG@Z 100c1ad0 f   awt_Font.obj
 0001:000c0d60       ??0CSegTableManagerComponent@@QAE@XZ 100c1d60 f   awt_Font.obj
 0001:000c0db0       ??1CSegTableManagerComponent@@QAE@XZ 100c1db0 f   awt_Font.obj
 0001:000c0e50       ?MakeBiggerTable@CSegTableManagerComponent@@IAEXXZ 100c1e50 f   awt_Font.obj
 0001:000c0ef0       ?GetTable@CSegTableManager@@QAEPAVCSegTable@@PAGH@Z 100c1ef0 f   awt_Font.obj
 0001:000c10d0       ??0CCombinedSegTable@@QAE@XZ 100c20d0 f   awt_Font.obj
 0001:000c1110       ?GetCodePageSubkey@CCombinedSegTable@@AAEPADXZ 100c2110 f   awt_Font.obj
 0001:000c11c0       ?GetEUDCFileName@CCombinedSegTable@@AAEXPAGH@Z 100c21c0 f   awt_Font.obj
 0001:000c14a0       ?Create@CCombinedSegTable@@UAEXPAG@Z 100c24a0 f   awt_Font.obj
 0001:000c1560       ?In@CCombinedSegTable@@UAEHG@Z 100c2560 f   awt_Font.obj
 0001:000c15e0       ?GetTable@CCombinedSegTableManager@@QAEPAVCCombinedSegTable@@PAG@Z 100c25e0 f   awt_Font.obj
 0001:000c1740       _Java_sun_awt_windows_WDefaultFontCharset_initIDs@8 100c2740 f   awt_Font.obj
 0001:000c17e0       _Java_sun_awt_windows_WDefaultFontCharset_canConvert@12 100c27e0 f   awt_Font.obj
 0001:000c1950       ??_EAwtFont@@UAEPAXI@Z     100c2950 f i awt_Font.obj
 0001:000c1950       ??_GAwtFont@@UAEPAXI@Z     100c2950 f i awt_Font.obj
 0001:000c1980       ?GetComponentFonts@AwtFont@@SAPAV_jobjectArray@@PAUJNIEnv_@@PAV_jobject@@@Z 100c2980 f i awt_Font.obj
 0001:000c19d0       ?fabs@@YAMM@Z              100c29d0 f i awt_Font.obj
 0001:000c19f0       _fabsf                     100c29f0 f i awt_Font.obj
 0001:000c1a10       ?SetHMenu@AwtMenu@@QAEXPAUHMENU__@@@Z 100c2a10 f i awt_Menu.obj
 0001:000c1a10       ?SetAscent@AwtFont@@QAEXH@Z 100c2a10 f i awt_Font.obj
 0001:000c1a30       ?GetHFont@AwtFont@@QAEPAUHFONT__@@H@Z 100c2a30 f i awt_Font.obj
 0001:000c1a70       ?getMFStringWidth@AwtFont@@SAJPAUHDC__@@PAV_jobject@@PAV_jstring@@@Z 100c2a70 f i awt_Font.obj
 0001:000c1aa0       ?GetCharArrayRegion@JNIEnv_@@QAEXPAV_jcharArray@@JJPAG@Z 100c2aa0 f i awt_Font.obj
 0001:000c1ad0       ??_GItem@AwtFontCache@@QAEPAXI@Z 100c2ad0 f i awt_Font.obj
 0001:000c1b00       ?In@CSegTableComponent@@UAEHG@Z 100c2b00 f i awt_Font.obj
 0001:000c1b30       ??_GCSegTableComponent@@UAEPAXI@Z 100c2b30 f i awt_Font.obj
 0001:000c1b30       ??_ECSegTableComponent@@UAEPAXI@Z 100c2b30 f i awt_Font.obj
 0001:000c1b60       ?IsEUDC@CSegTable@@UAEHXZ  100c2b60 f i awt_Font.obj
 0001:000c1b90       ?GetData@CSegTable@@MAEXKPAXK@Z 100c2b90 f i awt_Font.obj
 0001:000c1bc0       ??_GCSegTable@@UAEPAXI@Z   100c2bc0 f i awt_Font.obj
 0001:000c1bc0       ??_ECSegTable@@UAEPAXI@Z   100c2bc0 f i awt_Font.obj
 0001:000c1bf0       ?HasCmap@CSegTable@@QAEHXZ 100c2bf0 f i awt_Font.obj
 0001:000c1c30       ?SwapShort@CSegTable@@KAXAAG@Z 100c2c30 f i awt_Font.obj
 0001:000c1c70       ?SwapULong@CSegTable@@KAXAAK@Z 100c2c70 f i awt_Font.obj
 0001:000c1cf0       ??_ECStdSegTable@@UAEPAXI@Z 100c2cf0 f i awt_Font.obj
 0001:000c1cf0       ??_GCStdSegTable@@UAEPAXI@Z 100c2cf0 f i awt_Font.obj
 0001:000c1d20       ?GetData@CStdSegTable@@MAEXKPAXK@Z 100c2d20 f i awt_Font.obj
 0001:000c1d90       ??_GCEUDCSegTable@@UAEPAXI@Z 100c2d90 f i awt_Font.obj
 0001:000c1d90       ??_ECEUDCSegTable@@UAEPAXI@Z 100c2d90 f i awt_Font.obj
 0001:000c1dc0       ?GetData@CEUDCSegTable@@MAEXKPAXK@Z 100c2dc0 f i awt_Font.obj
 0001:000c1e80       ?GetFontName@CSegTableComponent@@QAEPAGXZ 100c2e80 f i awt_Font.obj
 0001:000c1ec0       ??_GCCombinedSegTable@@UAEPAXI@Z 100c2ec0 f i awt_Font.obj
 0001:000c1ec0       ??_ECCombinedSegTable@@UAEPAXI@Z 100c2ec0 f i awt_Font.obj
 0001:000c1ef0       ??1CCombinedSegTable@@UAE@XZ 100c2ef0 f i awt_Font.obj
 0001:000c1f10       ??0AwtFontCache@@QAE@XZ    100c2f10 f i awt_Font.obj
 0001:000c1f30       ??0CCombinedSegTableManager@@QAE@XZ 100c2f30 f i awt_Font.obj
 0001:000c1f30       ??0CSegTableManager@@QAE@XZ 100c2f30 f i awt_Font.obj
 0001:000c1f50       ??1CSegTableManager@@QAE@XZ 100c2f50 f i awt_Font.obj
 0001:000c1f50       ??1CCombinedSegTableManager@@QAE@XZ 100c2f50 f i awt_Font.obj
 0001:000c1f70       ??0AwtFrame@@QAE@XZ        100c2f70 f   awt_Frame.obj
 0001:000c2060       ??1AwtFrame@@UAE@XZ        100c3060 f   awt_Frame.obj
 0001:000c20c0       ?GetClassNameW@AwtFrame@@UAEPBGXZ 100c30c0 f   awt_Frame.obj
 0001:000c20d0       ?Create@AwtFrame@@SAPAV1@PAV_jobject@@0@Z 100c30d0 f   awt_Frame.obj
 0001:000c27d0       ?ProxyWindowProc@AwtFrame@@CGJPAUHWND__@@IIJ@Z 100c37d0 f   awt_Frame.obj
 0001:000c2a90       ?CreateProxyFocusOwner@AwtFrame@@AAEXXZ 100c3a90 f   awt_Frame.obj
 0001:000c2b50       ?DestroyProxyFocusOwner@AwtFrame@@AAEXXZ 100c3b50 f   awt_Frame.obj
 0001:000c2be0       ?WmShowWindow@AwtFrame@@UAE?AW4MsgRouting@@HI@Z 100c3be0 f   awt_Frame.obj
 0001:000c2ca0       ?WmMouseUp@AwtFrame@@UAE?AW4MsgRouting@@IHHH@Z 100c3ca0 f   awt_Frame.obj
 0001:000c2cf0       ?WmMouseMove@AwtFrame@@UAE?AW4MsgRouting@@IHH@Z 100c3cf0 f   awt_Frame.obj
 0001:000c2f00       ?WmNcMouseDown@AwtFrame@@UAE?AW4MsgRouting@@IHHH@Z 100c3f00 f   awt_Frame.obj
 0001:000c30a0       ?Show@AwtFrame@@UAEXXZ     100c40a0 f   awt_Frame.obj
 0001:000c33e0       ?SendWindowStateEvent@AwtFrame@@QAEXHH@Z 100c43e0 f   awt_Frame.obj
 0001:000c3410       ?ClearMaximizedBounds@AwtFrame@@QAEXXZ 100c4410 f   awt_Frame.obj
 0001:000c3430       ?AdjustCandidateWindowPos@AwtFrame@@QAEXXZ 100c4430 f   awt_Frame.obj
 0001:000c3520       ?SetMaximizedBounds@AwtFrame@@QAEXHHHH@Z 100c4520 f   awt_Frame.obj
 0001:000c3570       ?WmGetMinMaxInfo@AwtFrame@@UAE?AW4MsgRouting@@PAUtagMINMAXINFO@@@Z 100c4570 f   awt_Frame.obj
 0001:000c3620       ?WmSize@AwtFrame@@UAE?AW4MsgRouting@@IHH@Z 100c4620 f   awt_Frame.obj
 0001:000c3950       ?WmActivate@AwtFrame@@UAE?AW4MsgRouting@@IHPAUHWND__@@@Z 100c4950 f   awt_Frame.obj
 0001:000c3b80       ?WmEnterMenuLoop@AwtFrame@@UAE?AW4MsgRouting@@H@Z 100c4b80 f   awt_Frame.obj
 0001:000c3bb0       ?WmExitMenuLoop@AwtFrame@@UAE?AW4MsgRouting@@H@Z 100c4bb0 f   awt_Frame.obj
 0001:000c3be0       ?GetMenuBar@AwtFrame@@QAEPAVAwtMenuBar@@XZ 100c4be0 f   awt_Frame.obj
 0001:000c3c00       ?SetMenuBar@AwtFrame@@QAEXPAVAwtMenuBar@@@Z 100c4c00 f   awt_Frame.obj
 0001:000c3c70       ?WmDrawItem@AwtFrame@@UAE?AW4MsgRouting@@IAAUtagDRAWITEMSTRUCT@@@Z 100c4c70 f   awt_Frame.obj
 0001:000c3cf0       ?WmMeasureItem@AwtFrame@@UAE?AW4MsgRouting@@IAAUtagMEASUREITEMSTRUCT@@@Z 100c4cf0 f   awt_Frame.obj
 0001:000c3df0       ?WmGetIcon@AwtFrame@@UAE?AW4MsgRouting@@IAAJ@Z 100c4df0 f   awt_Frame.obj
 0001:000c3e30       ?DoUpdateIcon@AwtFrame@@UAEXXZ 100c4e30 f   awt_Frame.obj
 0001:000c3e90       ?GetEffectiveIcon@AwtFrame@@UAEPAUHICON__@@H@Z 100c4e90 f   awt_Frame.obj
 0001:000c3f20       ?WmSysCommand@AwtFrame@@UAE?AW4MsgRouting@@IHH@Z 100c4f20 f   awt_Frame.obj
 0001:000c4070       ?WinThreadExecProc@AwtFrame@@UAEJPAVExecuteArgs@AwtObject@@@Z 100c5070 f   awt_Frame.obj
 0001:000c4120       ?ActivateFrameOnMouseDown@AwtFrame@@QAEXXZ 100c5120 f   awt_Frame.obj
 0001:000c4190       ?ActivateEmbeddedFrameOnSetFocus@AwtFrame@@QAEHPAUHWND__@@@Z 100c5190 f   awt_Frame.obj
 0001:000c41c0       ?ActivateEmbeddedFrameHelper@AwtFrame@@QAEHPAUHWND__@@@Z 100c51c0 f   awt_Frame.obj
 0001:000c4250       ?DeactivateEmbeddedFrameOnKillFocus@AwtFrame@@QAEXPAUHWND__@@@Z 100c5250 f   awt_Frame.obj
 0001:000c4290       ?SynthesizeWmActivate@AwtFrame@@QAEXHPAUHWND__@@@Z 100c5290 f   awt_Frame.obj
 0001:000c4310       ?_SynthesizeWmActivate@AwtFrame@@SAXPAX@Z 100c5310 f   awt_Frame.obj
 0001:000c43e0       ?_GetBoundsPrivate@AwtFrame@@SAPAV_jobject@@PAX@Z 100c53e0 f   awt_Frame.obj
 0001:000c4560       ?_SetState@AwtFrame@@SAXPAX@Z 100c5560 f   awt_Frame.obj
 0001:000c48b0       ?_GetState@AwtFrame@@SAJPAX@Z 100c58b0 f   awt_Frame.obj
 0001:000c4a40       ?_SetMaximizedBounds@AwtFrame@@SAXPAX@Z 100c5a40 f   awt_Frame.obj
 0001:000c4b80       ?_ClearMaximizedBounds@AwtFrame@@SAXPAX@Z 100c5b80 f   awt_Frame.obj
 0001:000c4c70       ?_SetMenuBar@AwtFrame@@SAXPAX@Z 100c5c70 f   awt_Frame.obj
 0001:000c4d70       ?_SetIMMOption@AwtFrame@@SAXPAX@Z 100c5d70 f   awt_Frame.obj
 0001:000c4f10       ?_NotifyModalBlocked@AwtFrame@@SAXPAX@Z 100c5f10 f   awt_Frame.obj
 0001:000c5160       _Java_java_awt_Frame_initIDs@8 100c6160 f   awt_Frame.obj
 0001:000c5250       _Java_sun_awt_windows_WFramePeer_setState@12 100c6250 f   awt_Frame.obj
 0001:000c5310       _Java_sun_awt_windows_WFramePeer_getState@8 100c6310 f   awt_Frame.obj
 0001:000c53c0       _Java_sun_awt_windows_WFramePeer_setMaximizedBounds@24 100c63c0 f   awt_Frame.obj
 0001:000c54a0       _Java_sun_awt_windows_WFramePeer_clearMaximizedBounds@8 100c64a0 f   awt_Frame.obj
 0001:000c5530       _Java_sun_awt_windows_WFramePeer_setMenuBar0@12 100c6530 f   awt_Frame.obj
 0001:000c5600       _Java_sun_awt_windows_WFramePeer_createAwtFrame@12 100c6600 f   awt_Frame.obj
 0001:000c56b0       _Java_sun_awt_windows_WFramePeer_getSysMenuHeight@8 100c66b0 f   awt_Frame.obj
 0001:000c5730       _Java_sun_awt_windows_WFramePeer_pSetIMMOption@12 100c6730 f   awt_Frame.obj
 0001:000c5800       _Java_sun_awt_EmbeddedFrame_setPeer@12 100c6800 f   awt_Frame.obj
 0001:000c58b0       _Java_sun_awt_windows_WEmbeddedFrame_initIDs@8 100c68b0 f   awt_Frame.obj
 0001:000c59a0       _Java_sun_awt_windows_WEmbeddedFrame_notifyModalBlockedImpl@20 100c69a0 f   awt_Frame.obj
 0001:000c5a90       _Java_sun_awt_windows_WEmbeddedFramePeer_create@12 100c6a90 f   awt_Frame.obj
 0001:000c5b50       _Java_sun_awt_windows_WEmbeddedFramePeer_getBoundsPrivate@8 100c6b50 f   awt_Frame.obj
 0001:000c5c20       _Java_sun_awt_windows_WEmbeddedFramePeer_synthesizeWmActivate@12 100c6c20 f   awt_Frame.obj
 0001:000c5ce0       ??_EAwtFrame@@UAEPAXI@Z    100c6ce0 f i awt_Frame.obj
 0001:000c5ce0       ??_GAwtFrame@@UAEPAXI@Z    100c6ce0 f i awt_Frame.obj
 0001:000c5d10       ?setIconic@AwtFrame@@QAEXH@Z 100c6d10 f i awt_Frame.obj
 0001:000c5d30       ?GetCandidateType@AwtComponent@@QAEJXZ 100c6d30 f i awt_Frame.obj
 0001:000c5d50       ?GetHMenu@AwtMenu@@QAEPAUHMENU__@@XZ 100c6d50 f i awt_Frame.obj
 0001:000c5d50       ?GetAscent@AwtFont@@QAEHXZ 100c6d50 f i awt_Component.obj
 0001:000c5d70       ?DrawMenuBar@AwtFrame@@QAEXXZ 100c6d70 f i awt_Frame.obj
 0001:000c5db0       ?isIconic@AwtFrame@@QAEHXZ 100c6db0 f i awt_Frame.obj
 0001:000c5dd0       ?isZoomed@AwtFrame@@QAEHXZ 100c6dd0 f i awt_Frame.obj
 0001:000c5df0       ?setZoomed@AwtFrame@@QAEXH@Z 100c6df0 f i awt_Frame.obj
 0001:000c5e10       ?GetMaxGDILimit@AwtGDIObject@@CAHXZ 100c6e10 f   awt_GDIObject.obj
 0001:000c5ed0       ?IncrementIfAvailable@AwtGDIObject@@SAHXZ 100c6ed0 f   awt_GDIObject.obj
 0001:000c5f60       ?Decrement@AwtGDIObject@@SAXXZ 100c6f60 f   awt_GDIObject.obj
 0001:000c5fa0       ?EnsureGDIObjectAvailability@AwtGDIObject@@SAHXZ 100c6fa0 f   awt_GDIObject.obj
 0001:000c6000       ??$SafeCreate@VCriticalSection@@@@YAPAVCriticalSection@@AAPAV0@@Z 100c7000 f i awt_GDIObject.obj
 0001:000c60e0       ___InlineInterlockedCompareExchangePointer 100c70e0 f i awt_GDIObject.obj
 0001:000c6100       ?create_BMP@@YAPAUHBITMAP__@@PAUHWND__@@PAHHHH@Z 100c7100 f   awt_IconCursor.obj
 0001:000c62d0       ?destroy_BMP@@YAXPAUHBITMAP__@@@Z 100c72d0 f   awt_IconCursor.obj
 0001:000c62f0       _Java_java_awt_event_InputEvent_initIDs@8 100c72f0 f   awt_InputEvent.obj
 0001:000c6330       _Java_sun_awt_windows_WInputMethod_createNativeContext@8 100c7330 f   awt_InputMethod.obj
 0001:000c63c0       _Java_sun_awt_windows_WInputMethod_destroyNativeContext@12 100c73c0 f   awt_InputMethod.obj
 0001:000c6440       _Java_sun_awt_windows_WInputMethod_enableNativeIME@20 100c7440 f   awt_InputMethod.obj
 0001:000c6510       _Java_sun_awt_windows_WInputMethod_disableNativeIME@12 100c7510 f   awt_InputMethod.obj
 0001:000c65d0       _Java_sun_awt_windows_WInputMethod_handleNativeIMEEvent@16 100c75d0 f   awt_InputMethod.obj
 0001:000c6870       _Java_sun_awt_windows_WInputMethod_endCompositionNative@16 100c7870 f   awt_InputMethod.obj
 0001:000c6900       _Java_sun_awt_windows_WInputMethod_setConversionStatus@16 100c7900 f   awt_InputMethod.obj
 0001:000c6990       _Java_sun_awt_windows_WInputMethod_getConversionStatus@12 100c7990 f   awt_InputMethod.obj
 0001:000c6a20       _Java_sun_awt_windows_WInputMethod_setOpenStatus@16 100c7a20 f   awt_InputMethod.obj
 0001:000c6aa0       _Java_sun_awt_windows_WInputMethod_getOpenStatus@12 100c7aa0 f   awt_InputMethod.obj
 0001:000c6b30       _Java_sun_awt_windows_WInputMethod_getNativeLocale@8 100c7b30 f   awt_InputMethod.obj
 0001:000c6be0       _Java_sun_awt_windows_WInputMethod_setNativeLocale@16 100c7be0 f   awt_InputMethod.obj
 0001:000c6de0       _Java_sun_awt_windows_WInputMethod_setStatusWindowVisible@16 100c7de0 f   awt_InputMethod.obj
 0001:000c6e70       _Java_sun_awt_windows_WInputMethod_openCandidateWindow@20 100c7e70 f   awt_InputMethod.obj
 0001:000c6f90       _Java_sun_awt_windows_WInputMethodDescriptor_getNativeAvailableLocales@8 100c7f90 f   awt_InputMethod.obj
 0001:000c7230       _Java_sun_awt_windows_WInputMethod_getNativeIMMDescription@8 100c8230 f   awt_InputMethod.obj
 0001:000c7340       _CreateLocaleObject        100c8340 f   awt_InputMethod.obj
 0001:000c7530       _getDefaultKeyboardLayout  100c8530 f   awt_InputMethod.obj
 0001:000c7620       ?GetStringUTFChars@JNIEnv_@@QAEPBDPAV_jstring@@PAE@Z 100c8620 f i awt_InputMethod.obj
 0001:000c7650       ?ReleaseStringUTFChars@JNIEnv_@@QAEXPAV_jstring@@PBD@Z 100c8650 f i awt_InputMethod.obj
 0001:000c7680       ?SetInputMethodWindow@AwtToolkit@@QAEXPAUHWND__@@@Z 100c8680 f i awt_InputMethod.obj
 0001:000c76a0       ??0AwtInputTextInfor@@QAE@XZ 100c86a0 f   awt_InputTextInfor.obj
 0001:000c7740       ?GetContextData@AwtInputTextInfor@@QAEHPAUHIMC__@@J@Z 100c8740 f   awt_InputTextInfor.obj
 0001:000c7b00       ??1AwtInputTextInfor@@QAE@XZ 100c8b00 f   awt_InputTextInfor.obj
 0001:000c7bf0       ?MakeJavaString@AwtInputTextInfor@@CAPAV_jstring@@PAUJNIEnv_@@PAGH@Z 100c8bf0 f   awt_InputTextInfor.obj
 0001:000c7c20       ?GetClauseInfor@AwtInputTextInfor@@QAEHAAPAHAAPAPAV_jstring@@@Z 100c8c20 f   awt_InputTextInfor.obj
 0001:000c8230       ?GetAttributeInfor@AwtInputTextInfor@@QAEHAAPAHAAPAE@Z 100c9230 f   awt_InputTextInfor.obj
 0001:000c8550       ?GetCursorPosition@AwtInputTextInfor@@QBEHXZ 100c9550 f   awt_InputTextInfor.obj
 0001:000c8570       ?GetCommittedTextLength@AwtInputTextInfor@@QBEHXZ 100c9570 f   awt_InputTextInfor.obj
 0001:000c85c0       _Java_java_awt_Insets_initIDs@8 100c95c0 f   awt_Insets.obj
 0001:000c8720       _Java_java_awt_event_KeyEvent_initIDs@8 100c9720 f   awt_KeyEvent.obj
 0001:000c88c0       _Java_java_awt_KeyboardFocusManager_initIDs@8 100c98c0 f   awt_KeyboardFocusManager.obj
 0001:000c8af0       _Java_sun_awt_KeyboardFocusManagerPeerImpl_getNativeFocusOwner@8 100c9af0 f   awt_KeyboardFocusManager.obj
 0001:000c8bd0       _Java_sun_awt_KeyboardFocusManagerPeerImpl_getNativeFocusedWindow@8 100c9bd0 f   awt_KeyboardFocusManager.obj
 0001:000c8c60       _Java_sun_awt_KeyboardFocusManagerPeerImpl_clearNativeGlobalFocusOwner@12 100c9c60 f   awt_KeyboardFocusManager.obj
 0001:000c8ce0       ?InvokeFunction@AwtToolkit@@QAEPAXP6APAXXZ@Z 100c9ce0 f i awt_KeyboardFocusManager.obj
 0001:000c8d00       ??0AwtLabel@@QAE@XZ        100c9d00 f   awt_Label.obj
 0001:000c8d30       ?GetClassNameW@AwtLabel@@UAEPBGXZ 100c9d30 f   awt_Label.obj
 0001:000c8d40       ?Create@AwtLabel@@SAPAV1@PAV_jobject@@0@Z 100c9d40 f   awt_Label.obj
 0001:000c9000       ?DoPaint@AwtLabel@@AAEXPAUHDC__@@AAUtagRECT@@@Z 100ca000 f   awt_Label.obj
 0001:000c92a0       ?LazyPaint@AwtLabel@@QAEXXZ 100ca2a0 f   awt_Label.obj
 0001:000c92e0       ?Enable@AwtLabel@@UAEXH@Z  100ca2e0 f   awt_Label.obj
 0001:000c9370       ?WmEraseBkgnd@AwtLabel@@UAE?AW4MsgRouting@@PAUHDC__@@AAH@Z 100ca370 f   awt_Label.obj
 0001:000c93c0       ?WmPaint@AwtLabel@@UAE?AW4MsgRouting@@PAUHDC__@@@Z 100ca3c0 f   awt_Label.obj
 0001:000c9490       ?WmPrintClient@AwtLabel@@UAE?AW4MsgRouting@@PAUHDC__@@J@Z 100ca490 f   awt_Label.obj
 0001:000c94d0       ?_SetText@AwtLabel@@SAXPAX@Z 100ca4d0 f   awt_Label.obj
 0001:000c9650       ?_SetAlignment@AwtLabel@@SAXPAX@Z 100ca650 f   awt_Label.obj
 0001:000c9760       ?_LazyPaint@AwtLabel@@SAXPAX@Z 100ca760 f   awt_Label.obj
 0001:000c9820       _Java_java_awt_Label_initIDs@8 100ca820 f   awt_Label.obj
 0001:000c9910       _Java_sun_awt_windows_WLabelPeer_setText@12 100ca910 f   awt_Label.obj
 0001:000c99e0       _Java_sun_awt_windows_WLabelPeer_setAlignment@12 100ca9e0 f   awt_Label.obj
 0001:000c9aa0       _Java_sun_awt_windows_WLabelPeer_create@12 100caaa0 f   awt_Label.obj
 0001:000c9bc0       _Java_sun_awt_windows_WLabelPeer_lazyPaint@8 100cabc0 f   awt_Label.obj
 0001:000c9c50       ??1AwtCheckbox@@UAE@XZ     100cac50 f i awt_Checkbox.obj
 0001:000c9c50       ??1AwtChoice@@UAE@XZ       100cac50 f i awt_Choice.obj
 0001:000c9c50       ??1AwtButton@@UAE@XZ       100cac50 f i awt_Button.obj
 0001:000c9c50       ??1AwtTextComponent@@UAE@XZ 100cac50 f i awt_TextArea.obj
 0001:000c9c50       ??1AwtLabel@@UAE@XZ        100cac50 f i awt_Label.obj
 0001:000c9c70       ??0AwtList@@QAE@XZ         100cac70 f   awt_List.obj
 0001:000c9cb0       ??1AwtList@@UAE@XZ         100cacb0 f   awt_List.obj
 0001:000c9cd0       ?GetClassNameW@AwtList@@UAEPBGXZ 100cacd0 f   awt_List.obj
 0001:000c9ce0       ?Create@AwtList@@SAPAV1@PAV_jobject@@0@Z 100cace0 f   awt_List.obj
 0001:000ca070       ?ActMouseMessage@AwtList@@UAEHPAUtagMSG@@@Z 100cb070 f   awt_List.obj
 0001:000ca110       ?SetDragCapture@AwtList@@UAEXI@Z 100cb110 f   awt_List.obj
 0001:000ca140       ?ReleaseDragCapture@AwtList@@UAEXI@Z 100cb140 f   awt_List.obj
 0001:000ca180       ?Reshape@AwtList@@UAEXHHHH@Z 100cb180 f   awt_List.obj
 0001:000ca1b0       ?SetFont@AwtList@@UAEXPAVAwtFont@@@Z 100cb1b0 f   awt_List.obj
 0001:000ca300       ?SetMultiSelect@AwtList@@QAEXH@Z 100cb300 f   awt_List.obj
 0001:000ca680       ?PreferredItemSize@AwtList@@UAEPAV_jobject@@PAUJNIEnv_@@@Z 100cb680 f   awt_List.obj
 0001:000ca720       ?AdjustHorizontalScrollbar@AwtList@@QAEXXZ 100cb720 f   awt_List.obj
 0001:000ca7c0       ?UpdateMaxItemWidth@AwtList@@QAEXXZ 100cb7c0 f   awt_List.obj
 0001:000ca930       ?WmSize@AwtList@@UAE?AW4MsgRouting@@IHH@Z 100cb930 f   awt_List.obj
 0001:000ca960       ?OwnerDrawItem@AwtList@@UAE?AW4MsgRouting@@IAAUtagDRAWITEMSTRUCT@@@Z 100cb960 f   awt_List.obj
 0001:000ca990       ?OwnerMeasureItem@AwtList@@UAE?AW4MsgRouting@@IAAUtagMEASUREITEMSTRUCT@@@Z 100cb990 f   awt_List.obj
 0001:000ca9c0       ?WmNcHitTest@AwtList@@UAE?AW4MsgRouting@@IIAAJ@Z 100cb9c0 f   awt_List.obj
 0001:000caa20       ?WmMouseUp@AwtList@@UAE?AW4MsgRouting@@IHHH@Z 100cba20 f   awt_List.obj
 0001:000caac0       ?WmMouseDown@AwtList@@UAE?AW4MsgRouting@@IHHH@Z 100cbac0 f   awt_List.obj
 0001:000cab70       ?WmCtlColor@AwtList@@UAE?AW4MsgRouting@@PAUHDC__@@PAUHWND__@@IAAPAUHBRUSH__@@@Z 100cbb70 f   awt_List.obj
 0001:000cac00       ?WmSetFocus@AwtList@@UAE?AW4MsgRouting@@PAUHWND__@@@Z 100cbc00 f   awt_List.obj
 0001:000cac70       ?WmKillFocus@AwtList@@UAE?AW4MsgRouting@@PAUHWND__@@@Z 100cbc70 f   awt_List.obj
 0001:000cad10       ?HandleEvent@AwtList@@UAE?AW4MsgRouting@@PAUtagMSG@@H@Z 100cbd10 f   awt_List.obj
 0001:000cad70       ?WmPrint@AwtList@@UAE?AW4MsgRouting@@PAUHDC__@@J@Z 100cbd70 f   awt_List.obj
 0001:000cae90       ?WmNotify@AwtList@@UAE?AW4MsgRouting@@I@Z 100cbe90 f   awt_List.obj
 0001:000caf20       ?WmKeyDown@AwtList@@UAE?AW4MsgRouting@@IIIH@Z 100cbf20 f   awt_List.obj
 0001:000caf60       ?InheritsNativeMouseWheelBehavior@AwtList@@UAEHXZ 100cbf60 f   awt_List.obj
 0001:000caf70       ?_GetMaxWidth@AwtList@@SAJPAX@Z 100cbf70 f   awt_List.obj
 0001:000cb040       ?_UpdateMaxItemWidth@AwtList@@SAXPAX@Z 100cc040 f   awt_List.obj
 0001:000cb100       ?_AddItems@AwtList@@SAXPAX@Z 100cc100 f   awt_List.obj
 0001:000cb330       ?_DelItems@AwtList@@SAXPAX@Z 100cc330 f   awt_List.obj
 0001:000cb470       ?_Select@AwtList@@SAXPAX@Z 100cc470 f   awt_List.obj
 0001:000cb550       ?_Deselect@AwtList@@SAXPAX@Z 100cc550 f   awt_List.obj
 0001:000cb630       ?_MakeVisible@AwtList@@SAXPAX@Z 100cc630 f   awt_List.obj
 0001:000cb720       ?_IsSelected@AwtList@@SAEPAX@Z 100cc720 f   awt_List.obj
 0001:000cb810       ?_SetMultipleSelections@AwtList@@SAXPAX@Z 100cc810 f   awt_List.obj
 0001:000cb900       _Java_sun_awt_windows_WListPeer_getMaxWidth@8 100cc900 f   awt_List.obj
 0001:000cb9b0       _Java_sun_awt_windows_WListPeer_updateMaxItemWidth@8 100cc9b0 f   awt_List.obj
 0001:000cba40       _Java_sun_awt_windows_WListPeer_addItems@20 100cca40 f   awt_List.obj
 0001:000cbb20       _Java_sun_awt_windows_WListPeer_delItems@16 100ccb20 f   awt_List.obj
 0001:000cbbf0       _Java_sun_awt_windows_WListPeer_select@12 100ccbf0 f   awt_List.obj
 0001:000cbcb0       _Java_sun_awt_windows_WListPeer_deselect@12 100cccb0 f   awt_List.obj
 0001:000cbde0       _Java_sun_awt_windows_WListPeer_makeVisible@12 100ccde0 f   awt_List.obj
 0001:000cbea0       _Java_sun_awt_windows_WListPeer_setMultipleSelections@12 100ccea0 f   awt_List.obj
 0001:000cbf60       _Java_sun_awt_windows_WListPeer_create@12 100ccf60 f   awt_List.obj
 0001:000cc080       _Java_sun_awt_windows_WListPeer_isSelected@12 100cd080 f   awt_List.obj
 0001:000cc150       ?GetStyle@AwtList@@UAEJXZ  100cd150 f i awt_List.obj
 0001:000cc190       ?SetStyle@AwtList@@UAEXJ@Z 100cd190 f i awt_List.obj
 0001:000cc210       ?GetStyleEx@AwtList@@UAEJXZ 100cd210 f i awt_List.obj
 0001:000cc250       ?SetStyleEx@AwtList@@UAEXJ@Z 100cd250 f i awt_List.obj
 0001:000cc2d0       ?GetDBCSEditHandle@AwtList@@UAEPAUHWND__@@XZ 100cd2d0 f i awt_List.obj
 0001:000cc2f0       ?GetListHandle@AwtList@@IAEPAUHWND__@@XZ 100cd2f0 f i awt_List.obj
 0001:000cc2f0       ?GetDBCSEditHandle@AwtChoice@@UAEPAUHWND__@@XZ 100cd2f0 f i awt_Choice.obj
 0001:000cc2f0       ?GetDBCSEditHandle@AwtTextComponent@@UAEPAUHWND__@@XZ 100cd2f0 f i awt_TextArea.obj
 0001:000cc310       ??_GAwtList@@UAEPAXI@Z     100cd310 f i awt_List.obj
 0001:000cc310       ??_EAwtList@@UAEPAXI@Z     100cd310 f i awt_List.obj
 0001:000cc340       ?Select@AwtList@@QAEXH@Z   100cd340 f i awt_List.obj
 0001:000cc390       ?Deselect@AwtList@@QAEXH@Z 100cd390 f i awt_List.obj
 0001:000cc3d0       ?IsItemSelected@AwtList@@QAEHI@Z 100cd3d0 f i awt_List.obj
 0001:000cc420       ?SendListMessage@AwtList@@QAEJIIJ@Z 100cd420 f i awt_List.obj
 0001:000cc470       ?GetCount@AwtList@@QAEIXZ  100cd470 f i awt_List.obj
 0001:000cc4b0       ?GetCurrentSelection@AwtList@@QAEIXZ 100cd4b0 f i awt_List.obj
 0001:000cc4e0       ?InsertString@AwtList@@QAEXIPAG@Z 100cd4e0 f i awt_List.obj
 0001:000cc520       ?GetMaxWidth@AwtList@@QAEJXZ 100cd520 f i awt_List.obj
 0001:000cc540       ?InvalidateList@AwtList@@QAEHPBUtagRECT@@H@Z 100cd540 f i awt_List.obj
 0001:000cc590       ?CheckMaxWidth@AwtList@@QAEXJ@Z 100cd590 f i awt_List.obj
 0001:000cc5c0       ??0AwtMenu@@QAE@XZ         100cd5c0 f   awt_Menu.obj
 0001:000cc600       ??1AwtMenu@@UAE@XZ         100cd600 f   awt_Menu.obj
 0001:000cc640       ?GetClassNameW@AwtMenu@@UAEPBGXZ 100cd640 f   awt_Menu.obj
 0001:000cc650       ?Create@AwtMenu@@SAPAV1@PAV_jobject@@PAV1@@Z 100cd650 f   awt_Menu.obj
 0001:000cc800       ?GetMenuBar@AwtMenu@@UAEPAVAwtMenuBar@@XZ 100cd800 f   awt_Menu.obj
 0001:000cc840       ?GetOwnerHWnd@AwtMenu@@UAEPAUHWND__@@XZ 100cd840 f   awt_Menu.obj
 0001:000cc880       ?AddSeparator@AwtMenu@@QAEXXZ 100cd880 f   awt_Menu.obj
 0001:000cc8c0       ?AddItem@AwtMenu@@UAEXPAVAwtMenuItem@@@Z 100cd8c0 f   awt_Menu.obj
 0001:000ccba0       ?DeleteItem@AwtMenu@@UAEXI@Z 100cdba0 f   awt_Menu.obj
 0001:000ccbe0       ?SendDrawItem@AwtMenu@@UAEXPAVAwtMenuItem@@AAUtagDRAWITEMSTRUCT@@@Z 100cdbe0 f   awt_Menu.obj
 0001:000ccc40       ?SendMeasureItem@AwtMenu@@UAEXPAVAwtMenuItem@@PAUHDC__@@AAUtagMEASUREITEMSTRUCT@@@Z 100cdc40 f   awt_Menu.obj
 0001:000ccca0       ?CountItem@AwtMenu@@UAEHPAV_jobject@@@Z 100cdca0 f   awt_Menu.obj
 0001:000ccd10       ?GetItem@AwtMenu@@UAEPAVAwtMenuItem@@PAV_jobject@@J@Z 100cdd10 f   awt_Menu.obj
 0001:000cce30       ?DrawItems@AwtMenu@@QAEXAAUtagDRAWITEMSTRUCT@@@Z 100cde30 f   awt_Menu.obj
 0001:000ccee0       ?DrawItem@AwtMenu@@UAEXAAUtagDRAWITEMSTRUCT@@@Z 100cdee0 f   awt_Menu.obj
 0001:000ccf40       ?MeasureItems@AwtMenu@@QAEXPAUHDC__@@AAUtagMEASUREITEMSTRUCT@@@Z 100cdf40 f   awt_Menu.obj
 0001:000ccff0       ?MeasureItem@AwtMenu@@UAEXPAUHDC__@@AAUtagMEASUREITEMSTRUCT@@@Z 100cdff0 f   awt_Menu.obj
 0001:000cd050       ?IsTopMenu@AwtMenu@@UAEHXZ 100ce050 f   awt_Menu.obj
 0001:000cd080       ?WinThreadExecProc@AwtMenu@@UAEJPAVExecuteArgs@AwtObject@@@Z 100ce080 f   awt_Menu.obj
 0001:000cd0e0       _Java_java_awt_Menu_initIDs@8 100ce0e0 f   awt_Menu.obj
 0001:000cd1d0       _Java_sun_awt_windows_WMenuPeer_addSeparator@8 100ce1d0 f   awt_Menu.obj
 0001:000cd2c0       _Java_sun_awt_windows_WMenuPeer_delItem@12 100ce2c0 f   awt_Menu.obj
 0001:000cd3b0       _Java_sun_awt_windows_WMenuPeer_createMenu@12 100ce3b0 f   awt_Menu.obj
 0001:000cd4d0       _Java_sun_awt_windows_WMenuPeer_createSubMenu@12 100ce4d0 f   awt_Menu.obj
 0001:000cd5f0       ?GetMenuBar@AwtPopupMenu@@UAEPAVAwtMenuBar@@XZ 100ce5f0 f i awt_PopupMenu.obj
 0001:000cd5f0       ?IsDisabledAndPopup@AwtMenuItem@@UAEHXZ 100ce5f0 f i awt_Menu.obj
 0001:000cd5f0       ?IsEmbeddedFrame@AwtComponent@@UAEHXZ 100ce5f0 f i awt_Button.obj
 0001:000cd5f0       ?GetDBCSEditHandle@AwtComponent@@UAEPAUHWND__@@XZ 100ce5f0 f i awt_Button.obj
 0001:000cd5f0       ?GetWrappeeHandle@AwtComponent@@MAEPAUHWND__@@XZ 100ce5f0 f i awt_Button.obj
 0001:000cd5f0       ?IsEmbeddedFrame@AwtWindow@@UAEHXZ 100ce5f0 f i awt_Window.obj
 0001:000cd5f0       ?IsScrollbar@AwtComponent@@UAEHXZ 100ce5f0 f i awt_Button.obj
 0001:000cd5f0       ?IsContainer@AwtComponent@@UAEHXZ 100ce5f0 f i awt_Button.obj
 0001:000cd5f0       ?VerifyComponents@AwtToolkit@@QAEHXZ 100ce5f0 f i awt_Checkbox.obj
 0001:000cd5f0       ?IsTopLevel@AwtComponent@@UAEHXZ 100ce5f0 f i awt_Button.obj
 0001:000cd5f0       ?NeedDblClick@AwtComponent@@UAEHXZ 100ce5f0 f i awt_Button.obj
 0001:000cd5f0       ?IsSimpleWindow@AwtFrame@@UAEHXZ 100ce5f0 f i awt_Dialog.obj
 0001:000cd5f0       ?IsEUDC@CStdSegTable@@UAEHXZ 100ce5f0 f i awt_Font.obj
 0001:000cd600       ??_GAwtMenu@@UAEPAXI@Z     100ce600 f i awt_Menu.obj
 0001:000cd600       ??_EAwtMenu@@UAEPAXI@Z     100ce600 f i awt_Menu.obj
 0001:000cd630       ?setAdapter@D3DAdapterInitializer@D3DInitializer@@QAEXI@Z 100ce630 f i D3DPipelineManager.obj
 0001:000cd630       ?SetMenuContainer@AwtMenuItem@@QAEXPAVAwtMenu@@@Z 100ce630 f i awt_Menu.obj
 0001:000cd650       ?SetID@AwtMenuItem@@QAEXI@Z 100ce650 f i awt_Menu.obj
 0001:000cd670       ?GetRTL@AwtMenuItem@@SAHXZ 100ce670 f i awt_Menu.obj
 0001:000cd680       ?SetParentMenu@AwtMenu@@QAEXPAV1@@Z 100ce680 f i awt_Menu.obj
 0001:000cd6a0       ?GetParent@AwtMenu@@QAEPAV1@XZ 100ce6a0 f i awt_Menu.obj
 0001:000cd6a0       ?IsVisible@AwtComponent@@QAEHXZ 100ce6a0 f i awt_Window.obj
 0001:000cd6c0       ??0AwtMenuBar@@QAE@XZ      100ce6c0 f   awt_MenuBar.obj
 0001:000cd6f0       ??1AwtMenuBar@@UAE@XZ      100ce6f0 f   awt_MenuBar.obj
 0001:000cd720       ?GetClassNameW@AwtMenuBar@@UAEPBGXZ 100ce720 f   awt_MenuBar.obj
 0001:000cd730       ?Create@AwtMenuBar@@SAPAV1@PAV_jobject@@0@Z 100ce730 f   awt_MenuBar.obj
 0001:000cd960       ?GetOwnerHWnd@AwtMenuBar@@UAEPAUHWND__@@XZ 100ce960 f   awt_MenuBar.obj
 0001:000cd990       ?SendDrawItem@AwtMenuBar@@UAEXPAVAwtMenuItem@@AAUtagDRAWITEMSTRUCT@@@Z 100ce990 f   awt_MenuBar.obj
 0001:000cd9b0       ?SendMeasureItem@AwtMenuBar@@UAEXPAVAwtMenuItem@@PAUHDC__@@AAUtagMEASUREITEMSTRUCT@@@Z 100ce9b0 f   awt_MenuBar.obj
 0001:000cd9d0       ?CountItem@AwtMenuBar@@UAEHPAV_jobject@@@Z 100ce9d0 f   awt_MenuBar.obj
 0001:000cda40       ?GetItem@AwtMenuBar@@UAEPAVAwtMenuItem@@PAV_jobject@@J@Z 100cea40 f   awt_MenuBar.obj
 0001:000cdb60       ?DrawItem@AwtMenuBar@@UAEXAAUtagDRAWITEMSTRUCT@@@Z 100ceb60 f   awt_MenuBar.obj
 0001:000cdba0       ?MeasureItem@AwtMenuBar@@UAEXPAUHDC__@@AAUtagMEASUREITEMSTRUCT@@@Z 100ceba0 f   awt_MenuBar.obj
 0001:000cdbe0       ?AddItem@AwtMenuBar@@UAEXPAVAwtMenuItem@@@Z 100cebe0 f   awt_MenuBar.obj
 0001:000cdc40       ?DeleteItem@AwtMenuBar@@UAEXI@Z 100cec40 f   awt_MenuBar.obj
 0001:000cdcb0       ?WinThreadExecProc@AwtMenuBar@@UAEJPAVExecuteArgs@AwtObject@@@Z 100cecb0 f   awt_MenuBar.obj
 0001:000cdd00       ?_AddMenu@AwtMenuBar@@SAXPAX@Z 100ced00 f   awt_MenuBar.obj
 0001:000cde20       _Java_java_awt_MenuBar_initIDs@8 100cee20 f   awt_MenuBar.obj
 0001:000cdf10       _Java_sun_awt_windows_WMenuBarPeer_addMenu@12 100cef10 f   awt_MenuBar.obj
 0001:000cdfe0       _Java_sun_awt_windows_WMenuBarPeer_delMenu@12 100cefe0 f   awt_MenuBar.obj
 0001:000ce0d0       _Java_sun_awt_windows_WMenuBarPeer_create@12 100cf0d0 f   awt_MenuBar.obj
 0001:000ce180       ??_GAwtMenuBar@@UAEPAXI@Z  100cf180 f i awt_MenuBar.obj
 0001:000ce180       ??_EAwtMenuBar@@UAEPAXI@Z  100cf180 f i awt_MenuBar.obj
 0001:000ce1b0       ??0AwtMenuItem@@QAE@XZ     100cf1b0 f   awt_MenuItem.obj
 0001:000ce200       ??1AwtMenuItem@@UAE@XZ     100cf200 f   awt_MenuItem.obj
 0001:000ce2d0       ?GetClassNameW@AwtMenuItem@@UAEPBGXZ 100cf2d0 f   awt_MenuItem.obj
 0001:000ce2e0       ?LangToCodePage@AwtMenuItem@@SAIG@Z 100cf2e0 f   awt_MenuItem.obj
 0001:000ce320       ?CheckMenuCreation@AwtMenuItem@@KAHPAUJNIEnv_@@PAV_jobject@@PAUHMENU__@@@Z 100cf320 f   awt_MenuItem.obj
 0001:000ce430       ?LinkObjects@AwtMenuItem@@QAEXPAUJNIEnv_@@PAV_jobject@@@Z 100cf430 f   awt_MenuItem.obj
 0001:000ce470       ?Create@AwtMenuItem@@SAPAV1@PAV_jobject@@0@Z 100cf470 f   awt_MenuItem.obj
 0001:000ce640       ?WmNotify@AwtMenuItem@@QAE?AW4MsgRouting@@I@Z 100cf640 f   awt_MenuItem.obj
 0001:000ce660       ?GetFont@AwtMenuItem@@QAEPAV_jobject@@PAUJNIEnv_@@@Z 100cf660 f   awt_MenuItem.obj
 0001:000ce6f0       ?GetDefaultFont@AwtMenuItem@@QAEPAV_jobject@@PAUJNIEnv_@@@Z 100cf6f0 f   awt_MenuItem.obj
 0001:000ce790       ?DrawSelf@AwtMenuItem@@QAEXAAUtagDRAWITEMSTRUCT@@@Z 100cf790 f   awt_MenuItem.obj
 0001:000ceeb0       ?AdjustCheckWidth@AwtMenuItem@@SAXAAH@Z 100cfeb0 f   awt_MenuItem.obj
 0001:000ceed0       ?DrawItem@AwtMenuItem@@UAEXAAUtagDRAWITEMSTRUCT@@@Z 100cfed0 f   awt_MenuItem.obj
 0001:000cef70       ?MeasureSelf@AwtMenuItem@@QAEXPAUHDC__@@AAUtagMEASUREITEMSTRUCT@@@Z 100cff70 f   awt_MenuItem.obj
 0001:000cf200       ?MeasureItem@AwtMenuItem@@UAEXPAUHDC__@@AAUtagMEASUREITEMSTRUCT@@@Z 100d0200 f   awt_MenuItem.obj
 0001:000cf250       ?GetFontMetrics@AwtMenuItem@@QAEPAV_jobject@@PAUJNIEnv_@@PAV2@@Z 100d0250 f   awt_MenuItem.obj
 0001:000cf340       ?IsTopMenu@AwtMenuItem@@UAEHXZ 100d0340 f   awt_MenuItem.obj
 0001:000cf350       ?DrawCheck@AwtMenuItem@@QAEXPAUHDC__@@UtagRECT@@@Z 100d0350 f   awt_MenuItem.obj
 0001:000cf4c0       ?DoCommand@AwtMenuItem@@UAEXXZ 100d04c0 f   awt_MenuItem.obj
 0001:000cf5a0       ?SetLabel@AwtMenuItem@@QAEXPBG@Z 100d05a0 f   awt_MenuItem.obj
 0001:000cf6f0       ?Enable@AwtMenuItem@@UAEXH@Z 100d06f0 f   awt_MenuItem.obj
 0001:000cf7d0       ?SetState@AwtMenuItem@@QAEXH@Z 100d07d0 f   awt_MenuItem.obj
 0001:000cf880       ?WinThreadExecProc@AwtMenuItem@@UAEJPAVExecuteArgs@AwtObject@@@Z 100d0880 f   awt_MenuItem.obj
 0001:000cf930       ?_SetLabel@AwtMenuItem@@SAXPAX@Z 100d0930 f   awt_MenuItem.obj
 0001:000cfaf0       _Java_java_awt_MenuComponent_initIDs@8 100d0af0 f   awt_MenuItem.obj
 0001:000cfc00       _Java_java_awt_MenuItem_initIDs@8 100d0c00 f   awt_MenuItem.obj
 0001:000cfcf0       _Java_java_awt_CheckboxMenuItem_initIDs@8 100d0cf0 f   awt_MenuItem.obj
 0001:000cfd90       _Java_sun_awt_windows_WMenuItemPeer_initIDs@8 100d0d90 f   awt_MenuItem.obj
 0001:000cfec0       _Java_sun_awt_windows_WMenuItemPeer__1setLabel@12 100d0ec0 f   awt_MenuItem.obj
 0001:000cffa0       _Java_sun_awt_windows_WMenuItemPeer_create@12 100d0fa0 f   awt_MenuItem.obj
 0001:000d0060       _Java_sun_awt_windows_WMenuItemPeer_enable@12 100d1060 f   awt_MenuItem.obj
 0001:000d0150       _Java_sun_awt_windows_WMenuItemPeer__1dispose@8 100d1150 f   awt_MenuItem.obj
 0001:000d01e0       _Java_sun_awt_windows_WCheckboxMenuItemPeer_setState@12 100d11e0 f   awt_MenuItem.obj
 0001:000d02d0       ??_GAwtMenuItem@@UAEPAXI@Z 100d12d0 f i awt_MenuItem.obj
 0001:000d02d0       ??_EAwtMenuItem@@UAEPAXI@Z 100d12d0 f i awt_MenuItem.obj
 0001:000d0300       ?SetNewID@AwtMenuItem@@QAEXXZ 100d1300 f i awt_MenuItem.obj
 0001:000d0350       ?GetHWnd@AwtComponent@@QAEPAUHWND__@@XZ 100d1350 f i GDIWindowSurfaceData.obj
 0001:000d0350       ?GetMenuContainer@AwtMenuItem@@QAEPAVAwtMenu@@XZ 100d1350 f i awt_MenuItem.obj
 0001:000d0370       ?GetJavaString@AwtMenuItem@@QAEPAV_jstring@@PAUJNIEnv_@@@Z 100d1370 f i awt_MenuItem.obj
 0001:000d03d0       ?GetCodePage@AwtMenuItem@@SAIXZ 100d13d0 f i awt_MenuItem.obj
 0001:000d03e0       ?GetInputLanguage@AwtMenuItem@@SAGXZ 100d13e0 f i awt_MenuItem.obj
 0001:000d03f0       ?__initMultipleMonitorStubs@@YAHXZ 100d13f0 f   awt_MMStub.obj
 0001:000d0650       __getSystemMetrics@4       100d1650 f   awt_MMStub.obj
 0001:000d06e0       __monitorFromRect@8        100d16e0 f   awt_MMStub.obj
 0001:000d0760       __monitorFromWindow@8      100d1760 f   awt_MMStub.obj
 0001:000d07d0       __monitorFromPoint@12      100d17d0 f   awt_MMStub.obj
 0001:000d0840       __getMonitorInfo@8         100d1840 f   awt_MMStub.obj
 0001:000d0930       __enumDisplayMonitors@16   100d1930 f   awt_MMStub.obj
 0001:000d0ab0       __enumDisplayDevices@16    100d1ab0 f   awt_MMStub.obj
 0001:000d0af0       ?clb_fCountMonitors@@YGHPAXPAUHDC__@@PAUtagRECT@@J@Z 100d1af0 f   awt_MMStub.obj
 0001:000d0b10       ?clb_fCollectMonitors@@YGHPAXPAUHDC__@@PAUtagRECT@@J@Z 100d1b10 f   awt_MMStub.obj
 0001:000d0b60       ?__normaRectPos@@YAXPAUtagRECT@@U1@1@Z 100d1b60 f   awt_MMStub.obj
 0001:000d0bb0       ?__createWindow0@@YAPAUHWND__@@PAXPBG1KHHHHPAU1@PAUHMENU__@@00@Z 100d1bb0 f   awt_MMStub.obj
 0001:000d0d40       ?__createWindow1@@YAPAUHWND__@@PAXPBG1KHHHHPAU1@PAUHMENU__@@00@Z 100d1d40 f   awt_MMStub.obj
 0001:000d0f30       __countMonitors@0          100d1f30 f   awt_MMStub.obj
 0001:000d0f60       __collectMonitors@8        100d1f60 f   awt_MMStub.obj
 0001:000d0fd0       __monitorBounds@8          100d1fd0 f   awt_MMStub.obj
 0001:000d1040       __makeDCFromMonitor@4      100d2040 f   awt_MMStub.obj
 0001:000d10b0       __createWindowOM@48        100d20b0 f   awt_MMStub.obj
 0001:000d1150       _Java_java_awt_event_MouseEvent_initIDs@8 100d2150 f   awt_MouseEvent.obj
 0001:000d1270       ??0AwtObject@@QAE@XZ       100d2270 f   awt_Object.obj
 0001:000d12f0       ??1AwtObject@@UAE@XZ       100d22f0 f   awt_Object.obj
 0001:000d1350       ?GetPeerForTarget@AwtObject@@SAPAV_jobject@@PAUJNIEnv_@@PAV2@@Z 100d2350 f   awt_Object.obj
 0001:000d13a0       ?DoCallback@AwtObject@@QAAXPBD0ZZ 100d23a0 f   awt_Object.obj
 0001:000d1530       ?SendEvent@AwtObject@@QAEXPAV_jobject@@@Z 100d2530 f   awt_Object.obj
 0001:000d1710       ?WinThreadExec@AwtObject@@SAJPAV_jobject@@IJJJJ@Z 100d2710 f   awt_Object.obj
 0001:000d17a0       ?WinThreadExecProc@AwtObject@@UAEJPAVExecuteArgs@1@@Z 100d27a0 f   awt_Object.obj
 0001:000d17d0       ?_Dispose@AwtObject@@SAXPAX@Z 100d27d0 f   awt_Object.obj
 0001:000d1800       ?_Dispose@AwtObject@@QAEXXZ 100d2800 f   awt_Object.obj
 0001:000d1860       _Java_sun_awt_windows_WObjectPeer_initIDs@8 100d2860 f   awt_Object.obj
 0001:000d1a20       ??_GAwtObject@@UAEPAXI@Z   100d2a20 f i awt_Object.obj
 0001:000d1a20       ??_EAwtObject@@UAEPAXI@Z   100d2a20 f i awt_Object.obj
 0001:000d1a50       ?Select@AwtPalette@@QAEPAUHPALETTE__@@PAUHDC__@@@Z 100d2a50 f   awt_Palette.obj
 0001:000d1aa0       ?Realize@AwtPalette@@QAEXPAUHDC__@@@Z 100d2aa0 f   awt_Palette.obj
 0001:000d1af0       ?DisableCustomPalette@AwtPalette@@SAXXZ 100d2af0 f   awt_Palette.obj
 0001:000d1b00       ?UseCustomPalette@AwtPalette@@SAHXZ 100d2b00 f   awt_Palette.obj
 0001:000d1b10       ??0AwtPalette@@QAE@PAVAwtWin32GraphicsDevice@@@Z 100d2b10 f   awt_Palette.obj
 0001:000d1b40       ?FetchPaletteEntries@AwtPalette@@SAHPAUHDC__@@PAUtagPALETTEENTRY@@@Z 100d2b40 f   awt_Palette.obj
 0001:000d1d00       ?GetGSType@AwtPalette@@QAEHPAUtagPALETTEENTRY@@@Z 100d2d00 f   awt_Palette.obj
 0001:000d1ed0       ?Update@AwtPalette@@QAEHXZ 100d2ed0 f   awt_Palette.obj
 0001:000d2240       ?UpdateLogical@AwtPalette@@QAEXXZ 100d3240 f   awt_Palette.obj
 0001:000d2400       ?QueryNewPaletteCalled@AwtComponent@@SAHXZ 100d3400 f i awt_Palette.obj
 0001:000d2410       ?Restack@AwtPanel@@SAPAXPAX@Z 100d3410 f   awt_Panel.obj
 0001:000d2680       _Java_sun_awt_windows_WPanelPeer_initIDs@8 100d3680 f   awt_Panel.obj
 0001:000d2720       _Java_sun_awt_windows_WPanelPeer_pRestack@12 100d3720 f   awt_Panel.obj
 0001:000d27d0       ??0AwtPopupMenu@@QAE@XZ    100d37d0 f   awt_PopupMenu.obj
 0001:000d2800       ??1AwtPopupMenu@@UAE@XZ    100d3800 f   awt_PopupMenu.obj
 0001:000d2830       ?GetClassNameW@AwtPopupMenu@@UAEPBGXZ 100d3830 f   awt_PopupMenu.obj
 0001:000d2840       ?Create@AwtPopupMenu@@SAPAV1@PAV_jobject@@PAVAwtComponent@@@Z 100d3840 f   awt_PopupMenu.obj
 0001:000d29e0       ?Show@AwtPopupMenu@@QAEXPAUJNIEnv_@@PAV_jobject@@H@Z 100d39e0 f   awt_PopupMenu.obj
 0001:000d2b90       ?_Show@AwtPopupMenu@@SAXPAX@Z 100d3b90 f   awt_PopupMenu.obj
 0001:000d2d00       ?AddItem@AwtPopupMenu@@UAEXPAVAwtMenuItem@@@Z 100d3d00 f   awt_PopupMenu.obj
 0001:000d2d90       ?Enable@AwtPopupMenu@@UAEXH@Z 100d3d90 f   awt_PopupMenu.obj
 0001:000d2f50       ?IsDisabledAndPopup@AwtPopupMenu@@UAEHXZ 100d3f50 f   awt_PopupMenu.obj
 0001:000d2fd0       _Java_sun_awt_windows_WPopupMenuPeer_createMenu@12 100d3fd0 f   awt_PopupMenu.obj
 0001:000d30f0       _Java_sun_awt_windows_WPopupMenuPeer__1show@12 100d40f0 f   awt_PopupMenu.obj
 0001:000d31c0       ?GetOwnerHWnd@AwtPopupMenu@@UAEPAUHWND__@@XZ 100d41c0 f i awt_PopupMenu.obj
 0001:000d31f0       ??_GAwtPopupMenu@@UAEPAXI@Z 100d41f0 f i awt_PopupMenu.obj
 0001:000d31f0       ??_EAwtPopupMenu@@UAEPAXI@Z 100d41f0 f i awt_PopupMenu.obj
 0001:000d3220       ?SetParent@AwtPopupMenu@@QAEXPAVAwtComponent@@@Z 100d4220 f i awt_PopupMenu.obj
 0001:000d3240       ??0AwtPen@@AAE@K@Z         100d4240 f   awt_Pen.obj
 0001:000d3310       ?Get@AwtPen@@SAPAV1@K@Z    100d4310 f   awt_Pen.obj
 0001:000d3400       ?ReleaseInCache@AwtPen@@MAEXXZ 100d4400 f   awt_Pen.obj
 0001:000d3480       ?DeleteAwtPen@AwtPen@@SAXPAX@Z 100d4480 f   awt_Pen.obj
 0001:000d34c0       ??_EAwtPen@@EAEPAXI@Z      100d44c0 f i awt_Pen.obj
 0001:000d34c0       ??_GAwtPen@@EAEPAXI@Z      100d44c0 f i awt_Pen.obj
 0001:000d34f0       ??1AwtPen@@EAE@XZ          100d44f0 f i awt_Pen.obj
 0001:000d3510       ?IsSupportedLevel@AwtPrintControl@@SAHPAXK@Z 100d4510 f   awt_PrintControl.obj
 0001:000d35e0       ?FindPrinter@AwtPrintControl@@SAHPAV_jstring@@PAEPAKPAPAG3@Z 100d45e0 f   awt_PrintControl.obj
 0001:000d3b30       ?initIDs@AwtPrintControl@@SAXPAUJNIEnv_@@PAV_jclass@@@Z 100d4b30 f   awt_PrintControl.obj
 0001:000d4310       ?PrintDlgHook@@YGHPAUHWND__@@IIJ@Z 100d5310 f   awt_PrintControl.obj
 0001:000d43a0       ?CreateDevModeAndDevNames@AwtPrintControl@@SAHPAUtagPDW@@PAG1@Z 100d53a0 f   awt_PrintControl.obj
 0001:000d4910       ?getNearestMatchingPaper@AwtPrintControl@@SAGPAG0NNPAN1@Z 100d5910 f   awt_PrintControl.obj
 0001:000d4c80       ?InitPrintDialog@AwtPrintControl@@SAHPAUJNIEnv_@@PAV_jobject@@AAUtagPDW@@@Z 100d5c80 f   awt_PrintControl.obj
 0001:000d53d0       ?UpdateAttributes@AwtPrintControl@@SAHPAUJNIEnv_@@PAV_jobject@@AAUtagPDW@@@Z 100d63d0 f   awt_PrintControl.obj
 0001:000d58c0       ?getDevmode@AwtPrintControl@@SAHPAXPAGPAPAU_devicemodeW@@@Z 100d68c0 f   awt_PrintControl.obj
 0001:000d5a80       ?getPrintHDMode@AwtPrintControl@@SAPAXPAUJNIEnv_@@PAV_jobject@@@Z 100d6a80 f i awt_PrintControl.obj
 0001:000d5aa0       ?CallLongMethod@JNIEnv_@@QAA_JPAV_jobject@@PAU_jmethodID@@ZZ 100d6aa0 f i awt_PrintControl.obj
 0001:000d5ae0       ?setPrintHDMode@AwtPrintControl@@SAXPAUJNIEnv_@@PAV_jobject@@PAX@Z 100d6ae0 f i awt_PrintControl.obj
 0001:000d5b10       ?getPrintHDName@AwtPrintControl@@SAPAXPAUJNIEnv_@@PAV_jobject@@@Z 100d6b10 f i awt_PrintControl.obj
 0001:000d5b30       ?setPrintHDName@AwtPrintControl@@SAXPAUJNIEnv_@@PAV_jobject@@PAX@Z 100d6b30 f i awt_PrintControl.obj
 0001:000d5b60       ?getPrintDC@AwtPrintControl@@SAPAUHDC__@@PAUJNIEnv_@@PAV_jobject@@@Z 100d6b60 f i awt_PrintControl.obj
 0001:000d5b80       ?setPrintDC@AwtPrintControl@@SAXPAUJNIEnv_@@PAV_jobject@@PAUHDC__@@@Z 100d6b80 f i awt_PrintControl.obj
 0001:000d5bb0       ?PrintDlgW@AwtPrintDialog@@SAHPAUtagPDW@@@Z 100d6bb0 f   awt_PrintDialog.obj
 0001:000d5bd0       ?PrintDialogWndProc@@YGJPAUHWND__@@IIJ@Z 100d6bd0 f   awt_PrintDialog.obj
 0001:000d5c90       ?_ToFront@AwtPrintDialog@@SAXPAX@Z 100d6c90 f   awt_PrintDialog.obj
 0001:000d5d00       ?_ToBack@AwtPrintDialog@@SAXPAX@Z 100d6d00 f   awt_PrintDialog.obj
 0001:000d5d70       _Java_sun_awt_windows_WPrintDialog_initIDs@8 100d6d70 f   awt_PrintDialog.obj
 0001:000d5e20       _Java_sun_awt_windows_WPrintDialog_setPeer@12 100d6e20 f   awt_PrintDialog.obj
 0001:000d5ea0       _Java_sun_awt_windows_WPrintDialogPeer_initIDs@8 100d6ea0 f   awt_PrintDialog.obj
 0001:000d5f90       _Java_sun_awt_windows_WPrintDialogPeer__1show@8 100d6f90 f   awt_PrintDialog.obj
 0001:000d64c0       _Java_sun_awt_windows_WPrintDialogPeer_toFront@8 100d74c0 f   awt_PrintDialog.obj
 0001:000d6550       _Java_sun_awt_windows_WPrintDialogPeer_toBack@8 100d7550 f   awt_PrintDialog.obj
 0001:000d65e0       ?PrintDlgWrapper@AwtCommDialog@@CAHPAUtagPDW@@@Z 100d75e0 f i awt_PrintDialog.obj
 0001:000d65f0       _Java_sun_awt_windows_WPageDialog_initIDs@8 100d75f0 f   awt_PrintJob.obj
 0001:000d6690       _Java_sun_awt_windows_WPageDialogPeer__1show@8 100d7690 f   awt_PrintJob.obj
 0001:000d6ee0       _Java_sun_awt_windows_WPrinterJob_setNativeCopies@12 100d7ee0 f   awt_PrintJob.obj
 0001:000d6f60       _Java_sun_awt_windows_WPrinterJob_getDefaultPage@12 100d7f60 f   awt_PrintJob.obj
 0001:000d7360       _Java_sun_awt_windows_WPrinterJob_validatePaper@16 100d8360 f   awt_PrintJob.obj
 0001:000d7b50       _Java_sun_awt_windows_WPrinterJob_initPrinter@8 100d8b50 f   awt_PrintJob.obj
 0001:000d7d90       _Java_sun_awt_windows_WPrinterJob__1startDoc@12 100d8d90 f   awt_PrintJob.obj
 0001:000d8440       _Java_sun_awt_windows_WPrinterJob_endDoc@8 100d9440 f   awt_PrintJob.obj
 0001:000d8580       _Java_sun_awt_windows_WPrinterJob_abortDoc@8 100d9580 f   awt_PrintJob.obj
 0001:000d8610       _Java_sun_awt_windows_WPrinterJob_deleteDC@32 100d9610 f   awt_PrintJob.obj
 0001:000d8730       _Java_sun_awt_windows_WPrinterJob_deviceStartPage@20 100d9730 f   awt_PrintJob.obj
 0001:000d8b70       _Java_sun_awt_windows_WPrinterJob_deviceEndPage@20 100d9b70 f   awt_PrintJob.obj
 0001:000d8cb0       _Java_sun_awt_windows_WEmbeddedFrame_isPrinterDC@16 100d9cb0 f   awt_PrintJob.obj
 0001:000d8d20       _Java_sun_awt_windows_WEmbeddedFrame_printBand@56 100d9d20 f   awt_PrintJob.obj
 0001:000d8e90       _Java_sun_awt_windows_WPrinterJob_printBand@28 100d9e90 f   awt_PrintJob.obj
 0001:000d8ee0       _Java_sun_awt_windows_WPrinterJob_beginPath@16 100d9ee0 f   awt_PrintJob.obj
 0001:000d8f50       _Java_sun_awt_windows_WPrinterJob_endPath@16 100d9f50 f   awt_PrintJob.obj
 0001:000d8fc0       _Java_sun_awt_windows_WPrinterJob_fillPath@16 100d9fc0 f   awt_PrintJob.obj
 0001:000d9030       _Java_sun_awt_windows_WPrinterJob_closeFigure@16 100da030 f   awt_PrintJob.obj
 0001:000d90a0       _Java_sun_awt_windows_WPrinterJob_lineTo@24 100da0a0 f   awt_PrintJob.obj
 0001:000d9150       _Java_sun_awt_windows_WPrinterJob_moveTo@24 100da150 f   awt_PrintJob.obj
 0001:000d9200       _Java_sun_awt_windows_WPrinterJob_polyBezierTo@40 100da200 f   awt_PrintJob.obj
 0001:000d9330       _Java_sun_awt_windows_WPrinterJob_setPolyFillMode@20 100da330 f   awt_PrintJob.obj
 0001:000d93a0       _Java_sun_awt_windows_WPrinterJob_selectSolidBrush@28 100da3a0 f   awt_PrintJob.obj
 0001:000d9440       _Java_sun_awt_windows_WPrinterJob_getPenX@16 100da440 f   awt_PrintJob.obj
 0001:000d94c0       _Java_sun_awt_windows_WPrinterJob_getPenY@16 100da4c0 f   awt_PrintJob.obj
 0001:000d9540       _Java_sun_awt_windows_WPrinterJob_selectClipPath@16 100da540 f   awt_PrintJob.obj
 0001:000d95b0       _Java_sun_awt_windows_WPrinterJob_frameRect@32 100da5b0 f   awt_PrintJob.obj
 0001:000d9770       _Java_sun_awt_windows_WPrinterJob_fillRect@44 100da770 f   awt_PrintJob.obj
 0001:000d98a0       _Java_sun_awt_windows_WPrinterJob_selectPen@32 100da8a0 f   awt_PrintJob.obj
 0001:000d9970       _Java_sun_awt_windows_WPrinterJob_selectStylePen@48 100da970 f   awt_PrintJob.obj
 0001:000d9ab0       _Java_sun_awt_windows_WPrinterJob_setLogicalFont@20 100daab0 f   awt_PrintJob.obj
 0001:000d9af0       _Java_sun_awt_windows_WPrinterJob_setFont@40 100daaf0 f   awt_PrintJob.obj
 0001:000da180       _Java_sun_awt_windows_WPrinterJob_setTextColor@28 100db180 f   awt_PrintJob.obj
 0001:000da1b0       _Java_sun_awt_windows_WPrinterJob_textOut@32 100db1b0 f   awt_PrintJob.obj
 0001:000da2b0       _Java_sun_awt_windows_WPrinterJob_drawDIBImage@60 100db2b0 f   awt_PrintJob.obj
 0001:000dafc0       _PageDialogWndProc@16      100dbfc0 f   awt_PrintJob.obj
 0001:000dc490       _setCapabilities           100dd490 f   awt_PrintJob.obj
 0001:000dd000       _Java_sun_awt_windows_WPrinterJob_setNativePrintService@12 100de000 f   awt_PrintJob.obj
 0001:000dd7c0       _Java_sun_awt_windows_WPrinterJob_getNativePrintService@8 100de7c0 f   awt_PrintJob.obj
 0001:000dda50       _Java_sun_awt_windows_WPrinterJob_initIDs@8 100dea50 f   awt_PrintJob.obj
 0001:000ddb60       ?CallDoubleMethod@JNIEnv_@@QAANPAV_jobject@@PAU_jmethodID@@ZZ 100deb60 f i awt_PrintJob.obj
 0001:000ddba0       ?abs@@YAJJ@Z               100deba0 f i awt_PrintJob.obj
 0001:000ddbc0       ?GetStaticIntField@JNIEnv_@@QAEJPAV_jclass@@PAU_jfieldID@@@Z 100debc0 f i awt_PrintJob.obj
 0001:000ddbf0       _Java_java_awt_Rectangle_initIDs@8 100debf0 f   awt_Rectangle.obj
 0001:000ddd50       ??0AwtRobot@@QAE@PAV_jobject@@@Z 100ded50 f   awt_Robot.obj
 0001:000ddde0       ??1AwtRobot@@UAE@XZ        100dede0 f   awt_Robot.obj
 0001:000dde00       ?MouseMove@AwtRobot@@QAEXJJ@Z 100dee00 f   awt_Robot.obj
 0001:000dded0       ?MousePress@AwtRobot@@QAEXJ@Z 100deed0 f   awt_Robot.obj
 0001:000ddf50       ?MouseRelease@AwtRobot@@QAEXJ@Z 100def50 f   awt_Robot.obj
 0001:000ddfd0       ?MouseWheel@AwtRobot@@QAEXJ@Z 100defd0 f   awt_Robot.obj
 0001:000de190       ?GetRGBPixel@AwtRobot@@QAEJJJ@Z 100df190 f   awt_Robot.obj
 0001:000de200       ?GetRGBPixels@AwtRobot@@QAEXJJJJPAV_jintArray@@@Z 100df200 f   awt_Robot.obj
 0001:000de500       ?KeyPress@AwtRobot@@QAEXJ@Z 100df500 f   awt_Robot.obj
 0001:000de520       ?KeyRelease@AwtRobot@@QAEXJ@Z 100df520 f   awt_Robot.obj
 0001:000de540       ?DoKeyEvent@AwtRobot@@AAEXJK@Z 100df540 f   awt_Robot.obj
 0001:000de5b0       ?GetRobot@AwtRobot@@SAPAV1@PAV_jobject@@@Z 100df5b0 f   awt_Robot.obj
 0001:000de610       _Java_sun_awt_windows_WRobotPeer_create@8 100df610 f   awt_Robot.obj
 0001:000de6c0       _Java_sun_awt_windows_WRobotPeer__1dispose@8 100df6c0 f   awt_Robot.obj
 0001:000de750       _Java_sun_awt_windows_WRobotPeer_mouseMoveImpl@16 100df750 f   awt_Robot.obj
 0001:000de7d0       _Java_sun_awt_windows_WRobotPeer_mousePress@12 100df7d0 f   awt_Robot.obj
 0001:000de850       _Java_sun_awt_windows_WRobotPeer_mouseRelease@12 100df850 f   awt_Robot.obj
 0001:000de8d0       _Java_sun_awt_windows_WRobotPeer_mouseWheel@12 100df8d0 f   awt_Robot.obj
 0001:000de950       _Java_sun_awt_windows_WRobotPeer_getRGBPixelImpl@16 100df950 f   awt_Robot.obj
 0001:000de9f0       _Java_sun_awt_windows_WRobotPeer_getRGBPixels@28 100df9f0 f   awt_Robot.obj
 0001:000dea80       _Java_sun_awt_windows_WRobotPeer_keyPress@12 100dfa80 f   awt_Robot.obj
 0001:000deb00       _Java_sun_awt_windows_WRobotPeer_keyRelease@12 100dfb00 f   awt_Robot.obj
 0001:000deb80       ??_EAwtRobot@@UAEPAXI@Z    100dfb80 f i awt_Robot.obj
 0001:000deb80       ??_GAwtRobot@@UAEPAXI@Z    100dfb80 f i awt_Robot.obj
 0001:000debb0       ?WinToJavaPixel@AwtRobot@@CAJGGG@Z 100dfbb0 f i awt_Robot.obj
 0001:000debe0       ?GetDefaultDeviceIndex@AwtWin32GraphicsDevice@@SAHXZ 100dfbe0 f i awt_Robot.obj
 0001:000debf0       ??0AwtScrollbar@@QAE@XZ    100dfbf0 f   awt_Scrollbar.obj
 0001:000decc0       ??1AwtScrollbar@@UAE@XZ    100dfcc0 f   awt_Scrollbar.obj
 0001:000ded00       ?GetClassNameW@AwtScrollbar@@UAEPBGXZ 100dfd00 f   awt_Scrollbar.obj
 0001:000ded10       ?Create@AwtScrollbar@@SAPAV1@PAV_jobject@@0@Z 100dfd10 f   awt_Scrollbar.obj
 0001:000df070       ?MouseFilter@AwtScrollbar@@CGJHIJ@Z 100e0070 f   awt_Scrollbar.obj
 0001:000df150       ?WindowProc@AwtScrollbar@@UAEJIIJ@Z 100e0150 f   awt_Scrollbar.obj
 0001:000df2b0       ?WmNcHitTest@AwtScrollbar@@UAE?AW4MsgRouting@@IIAAJ@Z 100e02b0 f   awt_Scrollbar.obj
 0001:000df310       ?WmMouseDown@AwtScrollbar@@UAE?AW4MsgRouting@@IHHH@Z 100e0310 f   awt_Scrollbar.obj
 0001:000df380       ?HandleEvent@AwtScrollbar@@UAE?AW4MsgRouting@@PAUtagMSG@@H@Z 100e0380 f   awt_Scrollbar.obj
 0001:000df410       ?UpdateFocusIndicator@AwtScrollbar@@AAEXXZ 100e0410 f   awt_Scrollbar.obj
 0001:000df460       ?WmKillFocus@AwtScrollbar@@UAE?AW4MsgRouting@@PAUHWND__@@@Z 100e0460 f   awt_Scrollbar.obj
 0001:000df4a0       ?WmSetFocus@AwtScrollbar@@UAE?AW4MsgRouting@@PAUHWND__@@@Z 100e04a0 f   awt_Scrollbar.obj
 0001:000df4e0       ?WmVScroll@AwtScrollbar@@UAE?AW4MsgRouting@@IIPAUHWND__@@@Z 100e04e0 f   awt_Scrollbar.obj
 0001:000df830       ?WmHScroll@AwtScrollbar@@UAE?AW4MsgRouting@@IIPAUHWND__@@@Z 100e0830 f   awt_Scrollbar.obj
 0001:000df860       ?_SetValues@AwtScrollbar@@SAXPAX@Z 100e0860 f   awt_Scrollbar.obj
 0001:000dfa00       _Java_java_awt_Scrollbar_initIDs@8 100e0a00 f   awt_Scrollbar.obj
 0001:000dfb30       _Java_sun_awt_windows_WScrollbarPeer_setValues@24 100e0b30 f   awt_Scrollbar.obj
 0001:000dfc10       _Java_sun_awt_windows_WScrollbarPeer_setLineIncrement@12 100e0c10 f   awt_Scrollbar.obj
 0001:000dfd00       _Java_sun_awt_windows_WScrollbarPeer_setPageIncrement@12 100e0d00 f   awt_Scrollbar.obj
 0001:000dfdf0       _Java_sun_awt_windows_WScrollbarPeer_create@12 100e0df0 f   awt_Scrollbar.obj
 0001:000dff10       _Java_sun_awt_windows_WScrollbarPeer_getScrollbarSize@12 100e0f10 f   awt_Scrollbar.obj
 0001:000dff30       ??_GAwtScrollbar@@UAEPAXI@Z 100e0f30 f i awt_Scrollbar.obj
 0001:000dff30       ??_EAwtScrollbar@@UAEPAXI@Z 100e0f30 f i awt_Scrollbar.obj
 0001:000dff60       ?DoScrollCallbackCoalesce@AwtScrollbar@@AAEXPBDH@Z 100e0f60 f i awt_Scrollbar.obj
 0001:000e0000       ?SetLineIncrement@AwtScrollbar@@QAEXH@Z 100e1000 f i awt_Scrollbar.obj
 0001:000e0020       ?SetPageIncrement@AwtScrollbar@@QAEXH@Z 100e1020 f i awt_Scrollbar.obj
 0001:000e0040       ??0AwtScrollPane@@QAE@XZ   100e1040 f   awt_ScrollPane.obj
 0001:000e0060       ?GetClassNameW@AwtScrollPane@@UAEPBGXZ 100e1060 f   awt_ScrollPane.obj
 0001:000e0070       ?Create@AwtScrollPane@@SAPAV1@PAV_jobject@@0@Z 100e1070 f   awt_ScrollPane.obj
 0001:000e0400       ?SetInsets@AwtScrollPane@@QAEXPAUJNIEnv_@@@Z 100e1400 f   awt_ScrollPane.obj
 0001:000e0530       ?SetScrollInfo@AwtScrollPane@@AAEXHHHH@Z 100e1530 f   awt_ScrollPane.obj
 0001:000e0630       ?RecalcSizes@AwtScrollPane@@QAEXHHHH@Z 100e1630 f   awt_ScrollPane.obj
 0001:000e08b0       ?Reshape@AwtScrollPane@@UAEXHHHH@Z 100e18b0 f   awt_ScrollPane.obj
 0001:000e08e0       ?Show@AwtScrollPane@@UAEXPAUJNIEnv_@@@Z 100e18e0 f   awt_ScrollPane.obj
 0001:000e0910       ?PostScrollEvent@AwtScrollPane@@AAEXHHH@Z 100e1910 f   awt_ScrollPane.obj
 0001:000e0b10       ?ActMouseMessage@AwtScrollPane@@UAEHPAUtagMSG@@@Z 100e1b10 f   awt_ScrollPane.obj
 0001:000e0b40       ?WmNcHitTest@AwtScrollPane@@UAE?AW4MsgRouting@@IIAAJ@Z 100e1b40 f   awt_ScrollPane.obj
 0001:000e0ba0       ?WmVScroll@AwtScrollPane@@UAE?AW4MsgRouting@@IIPAUHWND__@@@Z 100e1ba0 f   awt_ScrollPane.obj
 0001:000e0c40       ?WmHScroll@AwtScrollPane@@UAE?AW4MsgRouting@@IIPAUHWND__@@@Z 100e1c40 f   awt_ScrollPane.obj
 0001:000e0ce0       ?HandleEvent@AwtScrollPane@@UAE?AW4MsgRouting@@PAUtagMSG@@H@Z 100e1ce0 f   awt_ScrollPane.obj
 0001:000e0d00       ?GetScrollPos@AwtScrollPane@@QAEHH@Z 100e1d00 f   awt_ScrollPane.obj
 0001:000e0d50       ?_GetOffset@AwtScrollPane@@SAJPAX@Z 100e1d50 f   awt_ScrollPane.obj
 0001:000e0ea0       ?_SetInsets@AwtScrollPane@@SAXPAX@Z 100e1ea0 f   awt_ScrollPane.obj
 0001:000e0fb0       ?_SetScrollPos@AwtScrollPane@@SAXPAX@Z 100e1fb0 f   awt_ScrollPane.obj
 0001:000e1130       ?_SetSpans@AwtScrollPane@@SAXPAX@Z 100e2130 f   awt_ScrollPane.obj
 0001:000e1290       ?VerifyState@AwtScrollPane@@UAEXXZ 100e2290 f   awt_ScrollPane.obj
 0001:000e1470       _Java_java_awt_ScrollPane_initIDs@8 100e2470 f   awt_ScrollPane.obj
 0001:000e15a0       _Java_java_awt_ScrollPaneAdjustable_initIDs@8 100e25a0 f   awt_ScrollPane.obj
 0001:000e1690       _Java_sun_awt_windows_WScrollPanePeer_initIDs@8 100e2690 f   awt_ScrollPane.obj
 0001:000e1730       _Java_sun_awt_windows_WScrollPanePeer_create@12 100e2730 f   awt_ScrollPane.obj
 0001:000e18a0       _Java_sun_awt_windows_WScrollPanePeer_getOffset@12 100e28a0 f   awt_ScrollPane.obj
 0001:000e1980       _Java_sun_awt_windows_WScrollPanePeer_setInsets@8 100e2980 f   awt_ScrollPane.obj
 0001:000e1a10       _Java_sun_awt_windows_WScrollPanePeer_setScrollPosition@16 100e2a10 f   awt_ScrollPane.obj
 0001:000e1ae0       _Java_sun_awt_windows_WScrollPanePeer__1getHScrollbarHeight@8 100e2ae0 f   awt_ScrollPane.obj
 0001:000e1ba0       _Java_sun_awt_windows_WScrollPanePeer__1getVScrollbarWidth@8 100e2ba0 f   awt_ScrollPane.obj
 0001:000e1c60       _Java_sun_awt_windows_WScrollPanePeer_setSpans@24 100e2c60 f   awt_ScrollPane.obj
 0001:000e1d40       _Java_sun_awt_windows_WScrollPanePeer_setTypedValue@20 100e2d40 f   awt_ScrollPane.obj
 0001:000e1df0       ??_GAwtScrollPane@@UAEPAXI@Z 100e2df0 f i awt_ScrollPane.obj
 0001:000e1df0       ??_EAwtScrollPane@@UAEPAXI@Z 100e2df0 f i awt_ScrollPane.obj
 0001:000e1e20       ??1AwtScrollPane@@UAE@XZ   100e2e20 f i awt_ScrollPane.obj
 0001:000e1e40       ??0AwtTextArea@@QAE@XZ     100e2e40 f   awt_TextArea.obj
 0001:000e1ea0       ??1AwtTextArea@@UAE@XZ     100e2ea0 f   awt_TextArea.obj
 0001:000e1f00       ?GetClassNameW@AwtTextArea@@UAEPBGXZ 100e2f00 f   awt_TextArea.obj
 0001:000e1f30       ?Create@AwtTextArea@@SAPAV1@PAV_jobject@@0@Z 100e2f30 f   awt_TextArea.obj
 0001:000e2400       ?EditSetSel@AwtTextArea@@IAEXAAU_charrange@@@Z 100e3400 f   awt_TextArea.obj
 0001:000e24b0       ?EditGetSel@AwtTextArea@@IAEXAAU_charrange@@@Z 100e34b0 f   awt_TextArea.obj
 0001:000e24d0       ?EditGetCharFromPos@AwtTextArea@@MAEJAAUtagPOINT@@@Z 100e34d0 f   awt_TextArea.obj
 0001:000e24f0       ?CountNewLines@AwtTextArea@@SAIPAUJNIEnv_@@PAV_jstring@@I@Z 100e34f0 f   awt_TextArea.obj
 0001:000e25c0       ?InheritsNativeMouseWheelBehavior@AwtTextArea@@UAEHXZ 100e35c0 f   awt_TextArea.obj
 0001:000e25d0       ?PreProcessMsg@AwtTextArea@@UAE?AW4MsgRouting@@AAUtagMSG@@@Z 100e35d0 f   awt_TextArea.obj
 0001:000e2660       ?WindowProc@AwtTextArea@@UAEJIIJ@Z 100e3660 f   awt_TextArea.obj
 0001:000e27f0       ?EditProc@AwtTextArea@@SGJPAUHWND__@@IIJ@Z 100e37f0 f   awt_TextArea.obj
 0001:000e2950       ?WmContextMenu@AwtTextArea@@UAE?AW4MsgRouting@@PAUHWND__@@II@Z 100e3950 f   awt_TextArea.obj
 0001:000e2cd0       ?WmNcHitTest@AwtTextArea@@UAE?AW4MsgRouting@@IIAAJ@Z 100e3cd0 f   awt_TextArea.obj
 0001:000e2d30       ?WmNotify@AwtTextArea@@UAE?AW4MsgRouting@@I@Z 100e3d30 f   awt_TextArea.obj
 0001:000e2d90       ?HandleEvent@AwtTextArea@@UAE?AW4MsgRouting@@PAUtagMSG@@H@Z 100e3d90 f   awt_TextArea.obj
 0001:000e3790       ?GetText@AwtTextArea@@UAEHPAGH@Z 100e4790 f   awt_TextArea.obj
 0001:000e3810       ?SetColor@AwtTextArea@@UAEXK@Z 100e4810 f   awt_TextArea.obj
 0001:000e38e0       ?SetBackgroundColor@AwtTextArea@@UAEXK@Z 100e48e0 f   awt_TextArea.obj
 0001:000e3920       ?Enable@AwtTextArea@@UAEXH@Z 100e4920 f   awt_TextArea.obj
 0001:000e3950       ?Reshape@AwtTextArea@@UAEXHHHH@Z 100e4950 f   awt_TextArea.obj
 0001:000e3990       ?getJavaSelPos@AwtTextArea@@UAEJJ@Z 100e4990 f   awt_TextArea.obj
 0001:000e3a90       ?getWin32SelPos@AwtTextArea@@UAEJJ@Z 100e4a90 f   awt_TextArea.obj
 0001:000e3ab0       ?SetSelRange@AwtTextArea@@UAEXJJ@Z 100e4ab0 f   awt_TextArea.obj
 0001:000e3b00       ?_ReplaceText@AwtTextArea@@SAXPAX@Z 100e4b00 f   awt_TextArea.obj
 0001:000e3d00       _Java_java_awt_TextArea_initIDs@8 100e4d00 f   awt_TextArea.obj
 0001:000e3da0       _Java_sun_awt_windows_WTextAreaPeer_create@12 100e4da0 f   awt_TextArea.obj
 0001:000e3ec0       _Java_sun_awt_windows_WTextAreaPeer_replaceText@20 100e4ec0 f   awt_TextArea.obj
 0001:000e3fb0       _Java_sun_awt_windows_WTextAreaPeer_insertText@16 100e4fb0 f   awt_TextArea.obj
 0001:000e3fd0       ??0OleCallback@AwtTextArea@@QAE@XZ 100e4fd0 f   awt_TextArea.obj
 0001:000e4010       ?QueryInterface@OleCallback@AwtTextArea@@UAGJABU_GUID@@PAPAX@Z 100e5010 f   awt_TextArea.obj
 0001:000e40f0       ?AddRef@OleCallback@AwtTextArea@@UAGKXZ 100e50f0 f   awt_TextArea.obj
 0001:000e4110       ?Release@OleCallback@AwtTextArea@@UAGKXZ 100e5110 f   awt_TextArea.obj
 0001:000e4150       ?GetNewStorage@OleCallback@AwtTextArea@@UAGJPAPAUIStorage@@@Z 100e5150 f   awt_TextArea.obj
 0001:000e4160       ?GetInPlaceContext@OleCallback@AwtTextArea@@UAGJPAPAUIOleInPlaceFrame@@PAPAUIOleInPlaceUIWindow@@PAUtagOIFI@@@Z 100e5160 f   awt_TextArea.obj
 0001:000e4170       ?ShowContainerUI@OleCallback@AwtTextArea@@UAGJH@Z 100e5170 f   awt_TextArea.obj
 0001:000e4180       ?QueryInsertObject@OleCallback@AwtTextArea@@UAGJPAU_GUID@@PAUIStorage@@J@Z 100e5180 f   awt_TextArea.obj
 0001:000e4190       ?DeleteObject@OleCallback@AwtTextArea@@UAGJPAUIOleObject@@@Z 100e5190 f   awt_TextArea.obj
 0001:000e41a0       ?QueryAcceptData@OleCallback@AwtTextArea@@UAGJPAUIDataObject@@PAGKHPAX@Z 100e51a0 f   awt_TextArea.obj
 0001:000e4210       ?ContextSensitiveHelp@OleCallback@AwtTextArea@@UAGJH@Z 100e5210 f   awt_TextArea.obj
 0001:000e4220       ?GetClipboardData@OleCallback@AwtTextArea@@UAGJPAU_charrange@@KPAPAUIDataObject@@@Z 100e5220 f   awt_TextArea.obj
 0001:000e4230       ?GetDragDropEffect@OleCallback@AwtTextArea@@UAGJHKPAK@Z 100e5230 f   awt_TextArea.obj
 0001:000e4240       ?GetContextMenu@OleCallback@AwtTextArea@@UAGJGPAUIOleObject@@PAU_charrange@@PAPAUHMENU__@@@Z 100e5240 f   awt_TextArea.obj
 0001:000e4250       ??_GAwtTextArea@@UAEPAXI@Z 100e5250 f i awt_TextArea.obj
 0001:000e4250       ??_EAwtTextArea@@UAEPAXI@Z 100e5250 f i awt_TextArea.obj
 0001:000e4280       ?SendMessageW@AwtTextComponent@@QAEJIIJ@Z 100e5280 f i awt_TextArea.obj
 0001:000e42d0       ?GetOleCallback@AwtTextArea@@KAAAVOleCallback@1@XZ 100e52d0 f i awt_TextArea.obj
 0001:000e42e0       ?GetStringRegion@JNIEnv_@@QAEXPAV_jstring@@JJPAG@Z 100e52e0 f i awt_TextArea.obj
 0001:000e4310       ?SetIgnoreEnChange@AwtTextArea@@QAEXH@Z 100e5310 f i awt_TextArea.obj
 0001:000e4330       ?GetStartSelectionPos@AwtTextComponent@@IAEJXZ 100e5330 f i awt_TextArea.obj
 0001:000e4350       ?GetEndSelectionPos@AwtTextComponent@@IAEJXZ 100e5350 f i awt_TextArea.obj
 0001:000e4370       ?GetLastSelectionPos@AwtTextComponent@@IAEJXZ 100e5370 f i awt_TextArea.obj
 0001:000e4390       ?SetStartSelectionPos@AwtTextComponent@@IAEXJ@Z 100e5390 f i awt_TextArea.obj
 0001:000e43b0       ?SetEndSelectionPos@AwtTextComponent@@IAEXJ@Z 100e53b0 f i awt_TextArea.obj
 0001:000e43d0       ?SetLastSelectionPos@AwtTextComponent@@IAEXJ@Z 100e53d0 f i awt_TextArea.obj
 0001:000e43f0       ?GetTextLength@AwtComponent@@QAEHXZ 100e53f0 f i awt_TextArea.obj
 0001:000e4410       ??0IDataObject@@QAE@XZ     100e5410 f i awt_DnDDS.obj
 0001:000e4410       ??0IEnumFORMATETC@@QAE@XZ  100e5410 f i awt_DnDDS.obj
 0001:000e4410       ??0IRichEditOleCallback@@QAE@XZ 100e5410 f i awt_TextArea.obj
 0001:000e4410       ??0IDropSource@@QAE@XZ     100e5410 f i awt_DnDDS.obj
 0001:000e4410       ??0IDropTarget@@QAE@XZ     100e5410 f i awt_DnDDT.obj
 0001:000e4410       ??0ISequentialStream@@QAE@XZ 100e5410 f i awt_DnDDS.obj
 0001:000e4430       _IsEqualGUID               100e5430 f i awt_TextArea.obj
 0001:000e4450       ??0AwtTextComponent@@QAE@XZ 100e5450 f   awt_TextComponent.obj
 0001:000e44c0       ?GetClassNameW@AwtTextComponent@@UAEPBGXZ 100e54c0 f   awt_TextComponent.obj
 0001:000e44d0       ?ActMouseMessage@AwtTextComponent@@UAEHPAUtagMSG@@@Z 100e54d0 f   awt_TextComponent.obj
 0001:000e44e0       ?SetFont@AwtTextComponent@@UAEXPAVAwtFont@@@Z 100e54e0 f   awt_TextComponent.obj
 0001:000e45c0       ?RemoveCR@AwtTextComponent@@QAEHPAG@Z 100e55c0 f   awt_TextComponent.obj
 0001:000e46a0       ?WmNotify@AwtTextComponent@@UAE?AW4MsgRouting@@I@Z 100e56a0 f   awt_TextComponent.obj
 0001:000e46e0       ?HandleEvent@AwtTextComponent@@UAE?AW4MsgRouting@@PAUtagMSG@@H@Z 100e56e0 f   awt_TextComponent.obj
 0001:000e4770       ?WmPaste@AwtTextComponent@@UAE?AW4MsgRouting@@XZ 100e5770 f   awt_TextComponent.obj
 0001:000e4800       ?SetCompositionWindow@AwtTextComponent@@UAEXAAUtagRECT@@@Z 100e5800 f   awt_TextComponent.obj
 0001:000e48a0       ?getJavaSelPos@AwtTextComponent@@UAEJJ@Z 100e58a0 f   awt_TextComponent.obj
 0001:000e4990       ?getWin32SelPos@AwtTextComponent@@UAEJJ@Z 100e5990 f   awt_TextComponent.obj
 0001:000e4a80       ?CheckLineSeparator@AwtTextComponent@@QAEXPAG@Z 100e5a80 f   awt_TextComponent.obj
 0001:000e4b50       ?SetSelRange@AwtTextComponent@@UAEXJJ@Z 100e5b50 f   awt_TextComponent.obj
 0001:000e4b90       ?_GetText@AwtTextComponent@@SAPAV_jstring@@PAX@Z 100e5b90 f   awt_TextComponent.obj
 0001:000e4d50       ?_SetText@AwtTextComponent@@SAXPAX@Z 100e5d50 f   awt_TextComponent.obj
 0001:000e4ed0       ?_GetSelectionStart@AwtTextComponent@@SAJPAX@Z 100e5ed0 f   awt_TextComponent.obj
 0001:000e4fc0       ?_GetSelectionEnd@AwtTextComponent@@SAJPAX@Z 100e5fc0 f   awt_TextComponent.obj
 0001:000e50b0       ?_Select@AwtTextComponent@@SAXPAX@Z 100e60b0 f   awt_TextComponent.obj
 0001:000e51c0       ?_EnableEditing@AwtTextComponent@@SAXPAX@Z 100e61c0 f   awt_TextComponent.obj
 0001:000e52b0       _Java_sun_awt_windows_WTextComponentPeer_getText@8 100e62b0 f   awt_TextComponent.obj
 0001:000e5390       _Java_sun_awt_windows_WTextComponentPeer_setText@12 100e6390 f   awt_TextComponent.obj
 0001:000e5460       _Java_sun_awt_windows_WTextComponentPeer_getSelectionStart@8 100e6460 f   awt_TextComponent.obj
 0001:000e5500       _Java_sun_awt_windows_WTextComponentPeer_getSelectionEnd@8 100e6500 f   awt_TextComponent.obj
 0001:000e55a0       _Java_sun_awt_windows_WTextComponentPeer_select@16 100e65a0 f   awt_TextComponent.obj
 0001:000e5670       _Java_sun_awt_windows_WTextComponentPeer_enableEditing@12 100e6670 f   awt_TextComponent.obj
 0001:000e5730       _Java_sun_awt_windows_WTextComponentPeer_initIDs@8 100e6730 f   awt_TextComponent.obj
 0001:000e57f0       ?GetText@AwtComponent@@QAEHPAGH@Z 100e67f0 f i awt_Checkbox.obj
 0001:000e57f0       ?GetText@AwtTextComponent@@UAEHPAGH@Z 100e67f0 f i awt_TextComponent.obj
 0001:000e5820       ?GetID@AwtTrayIcon@@QAEHXZ 100e6820 f i awt_TrayIcon.obj
 0001:000e5820       ?IsBackgroundColorSet@AwtComponent@@QAEHXZ 100e6820 f i awt_Component.obj
 0001:000e5820       ?GetInputHFontIndex@AwtFont@@QAEHXZ 100e6820 f i awt_TextComponent.obj
 0001:000e5840       ??0AwtTextField@@QAE@XZ    100e6840 f   awt_TextField.obj
 0001:000e5870       ?Create@AwtTextField@@SAPAV1@PAV_jobject@@0@Z 100e6870 f   awt_TextField.obj
 0001:000e5bf0       ?EditSetSel@AwtTextField@@AAEXAAU_charrange@@@Z 100e6bf0 f   awt_TextField.obj
 0001:000e5c20       ?EditGetCharFromPos@AwtTextField@@MAEJAAUtagPOINT@@@Z 100e6c20 f   awt_TextField.obj
 0001:000e5c60       ?WindowProc@AwtTextField@@UAEJIIJ@Z 100e6c60 f   awt_TextField.obj
 0001:000e5cc0       ?HandleEvent@AwtTextField@@UAE?AW4MsgRouting@@PAUtagMSG@@H@Z 100e6cc0 f   awt_TextField.obj
 0001:000e60c0       ?_SetEchoChar@AwtTextField@@SAXPAX@Z 100e70c0 f   awt_TextField.obj
 0001:000e61e0       ?Reshape@AwtTextField@@MAEXHHHH@Z 100e71e0 f   awt_TextField.obj
 0001:000e6210       ?initialRescroll@AwtTextField@@AAEXXZ 100e7210 f   awt_TextField.obj
 0001:000e62a0       _Java_sun_awt_windows_WTextFieldPeer_create@12 100e72a0 f   awt_TextField.obj
 0001:000e63c0       _Java_sun_awt_windows_WTextFieldPeer_setEchoCharacter@12 100e73c0 f   awt_TextField.obj
 0001:000e6480       ??_GAwtTextField@@UAEPAXI@Z 100e7480 f i awt_TextField.obj
 0001:000e6480       ??_EAwtTextField@@UAEPAXI@Z 100e7480 f i awt_TextField.obj
 0001:000e64b0       ??1AwtTextField@@UAE@XZ    100e74b0 f i awt_TextField.obj
 0001:000e64d0       _JNI_OnLoad@8              100e74d0 f   awt_Toolkit.obj
 0001:000e6550       _AWTIsHeadless@0           100e7550 f   awt_Toolkit.obj
 0001:000e65e0       ?GetMouseKeyState@AwtToolkit@@SAIXZ 100e75e0 f   awt_Toolkit.obj
 0001:000e66d0       ?GetKeyboardState@AwtToolkit@@SAXPAE@Z 100e76d0 f   awt_Toolkit.obj
 0001:000e6770       ?SetBusy@AwtToolkit@@SAXH@Z 100e7770 f   awt_Toolkit.obj
 0001:000e6940       ?activateKeyboardLayout@AwtToolkit@@SAHPAUHKL__@@@Z 100e7940 f   awt_Toolkit.obj
 0001:000e6a00       _DllMain@12                100e7a00 f   awt_Toolkit.obj
 0001:000e6ac0       ??0JavaStringBuffer@@QAE@PAUJNIEnv_@@PAV_jstring@@@Z 100e7ac0 f   awt_Toolkit.obj
 0001:000e6b70       ??0AwtToolkit@@QAE@XZ      100e7b70 f   awt_Toolkit.obj
 0001:000e6d60       ??1AwtToolkit@@QAE@XZ      100e7d60 f   awt_Toolkit.obj
 0001:000e6dd0       ?CreateToolkitWnd@AwtToolkit@@AAEPAUHWND__@@PBG@Z 100e7dd0 f   awt_Toolkit.obj
 0001:000e6e40       ?ToolkitThreadProc@@YAXPAX@Z 100e7e40 f   awt_Toolkit.obj
 0001:000e6f60       _Java_sun_awt_windows_WToolkit_startToolkitThread@12 100e7f60 f   awt_Toolkit.obj
 0001:000e7000       ?Initialize@AwtToolkit@@QAEHH@Z 100e8000 f   awt_Toolkit.obj
 0001:000e7170       ?Dispose@AwtToolkit@@QAEHXZ 100e8170 f   awt_Toolkit.obj
 0001:000e7300       ?SetDynamicLayout@AwtToolkit@@QAEXH@Z 100e8300 f   awt_Toolkit.obj
 0001:000e7320       ?IsDynamicLayoutSet@AwtToolkit@@QAEHXZ 100e8320 f   awt_Toolkit.obj
 0001:000e7330       ?IsDynamicLayoutSupported@AwtToolkit@@QAEHXZ 100e8330 f   awt_Toolkit.obj
 0001:000e7380       ?IsDynamicLayoutActive@AwtToolkit@@QAEHXZ 100e8380 f   awt_Toolkit.obj
 0001:000e73c0       ?PrintWinVersion@AwtToolkit@@SAXXZ 100e83c0 f   awt_Toolkit.obj
 0001:000e7790       ?RegisterClassW@AwtToolkit@@SAGXZ 100e8790 f   awt_Toolkit.obj
 0001:000e7830       ?UnregisterClassW@AwtToolkit@@SAXXZ 100e8830 f   awt_Toolkit.obj
 0001:000e7870       ?CreateComponent@AwtToolkit@@SAXPAX0P6AX00@ZH@Z 100e8870 f   awt_Toolkit.obj
 0001:000e7910       ?DestroyComponent@AwtToolkit@@SAXPAVAwtComponent@@@Z 100e8910 f   awt_Toolkit.obj
 0001:000e7960       ?WndProc@AwtToolkit@@SGJPAUHWND__@@IIJ@Z 100e8960 f   awt_Toolkit.obj
 0001:000e8850       ?GetMessageFilter@AwtToolkit@@SGJHIJ@Z 100e9850 f   awt_Toolkit.obj
 0001:000e8920       ?InstallMouseLowLevelHook@AwtToolkit@@QAEXXZ 100e9920 f   awt_Toolkit.obj
 0001:000e8960       ?UninstallMouseLowLevelHook@AwtToolkit@@QAEXXZ 100e9960 f   awt_Toolkit.obj
 0001:000e8990       ?MouseLowLevelHook@AwtToolkit@@SGJHIJ@Z 100e9990 f   awt_Toolkit.obj
 0001:000e8b50       ?VerifyWindowMoveLockReleased@@YAXXZ 100e9b50 f   awt_Toolkit.obj
 0001:000e8b80       ?MessageLoop@AwtToolkit@@QAEIP6GXXZP6GHAAUtagMSG@@@Z@Z 100e9b80 f   awt_Toolkit.obj
 0001:000e8c90       ?QuitMessageLoop@AwtToolkit@@QAEXH@Z 100e9c90 f   awt_Toolkit.obj
 0001:000e8dc0       ?PumpWaitingMessages@AwtToolkit@@QAEHP6GHAAUtagMSG@@@Z@Z 100e9dc0 f   awt_Toolkit.obj
 0001:000e8e60       ?PrimaryIdleFunc@AwtToolkit@@SGXXZ 100e9e60 f   awt_Toolkit.obj
 0001:000e8e80       ?SecondaryIdleFunc@AwtToolkit@@SGXXZ 100e9e80 f   awt_Toolkit.obj
 0001:000e8e90       ?CommonPeekMessageFunc@AwtToolkit@@SGHAAUtagMSG@@@Z 100e9e90 f   awt_Toolkit.obj
 0001:000e8eb0       ?PreProcessMsg@AwtToolkit@@QAEHAAUtagMSG@@@Z 100e9eb0 f   awt_Toolkit.obj
 0001:000e9020       ?PreProcessMouseMsg@AwtToolkit@@QAEHPAVAwtComponent@@AAUtagMSG@@@Z 100ea020 f   awt_Toolkit.obj
 0001:000e9450       ?PreProcessKeyMsg@AwtToolkit@@QAEHPAVAwtComponent@@AAUtagMSG@@@Z 100ea450 f   awt_Toolkit.obj
 0001:000e9490       ?SyncCall@AwtToolkit@@QAEPAXP6APAXPAX@Z0@Z 100ea490 f   awt_Toolkit.obj
 0001:000e9520       ?SyncCall@AwtToolkit@@QAEXP6AXPAX@Z0@Z 100ea520 f   awt_Toolkit.obj
 0001:000e95b0       ?SyncCall@AwtToolkit@@QAEPAXP6APAXXZ@Z 100ea5b0 f   awt_Toolkit.obj
 0001:000e9630       ?SyncCall@AwtToolkit@@QAEXP6AXXZ@Z 100ea630 f   awt_Toolkit.obj
 0001:000e96b0       ?CreateCmdID@AwtToolkit@@QAEIPAVAwtObject@@@Z 100ea6b0 f   awt_Toolkit.obj
 0001:000e96d0       ?RemoveCmdID@AwtToolkit@@QAEXI@Z 100ea6d0 f   awt_Toolkit.obj
 0001:000e96f0       ?LookupCmdID@AwtToolkit@@QAEPAVAwtObject@@I@Z 100ea6f0 f   awt_Toolkit.obj
 0001:000e9710       ?GetAwtIcon@AwtToolkit@@QAEPAUHICON__@@XZ 100ea710 f   awt_Toolkit.obj
 0001:000e9730       ?GetAwtIconSm@AwtToolkit@@QAEPAUHICON__@@XZ 100ea730 f   awt_Toolkit.obj
 0001:000e97b0       ?GetSecurityWarningIcon@AwtToolkit@@QAEPAUHICON__@@III@Z 100ea7b0 f   awt_Toolkit.obj
 0001:000e98c0       ?SetHeapCheck@AwtToolkit@@QAEXJ@Z 100ea8c0 f   awt_Toolkit.obj
 0001:000e98f0       ?_begin_cursors@AwtToolkit@@AAEXXZ 100ea8f0 f   awt_Toolkit.obj
 0001:000e9910       ?_end_cursors@AwtToolkit@@AAEXXZ 100ea910 f   awt_Toolkit.obj
 0001:000e9930       ?_detect_themes@AwtToolkit@@AAEXXZ 100ea930 f   awt_Toolkit.obj
 0001:000e9a90       ?throw_if_shutdown@@YAXXZ  100eaa90 f   awt_Toolkit.obj
 0001:000e9ab0       ?hang_if_shutdown@@YAXXZ   100eaab0 f   awt_Toolkit.obj
 0001:000e9b40       ?SetEnv@AwtToolkit@@SAXPAUJNIEnv_@@@Z 100eab40 f   awt_Toolkit.obj
 0001:000e9b70       ?GetEnv@AwtToolkit@@SAPAUJNIEnv_@@XZ 100eab70 f   awt_Toolkit.obj
 0001:000e9bb0       ?GetScreenInsets@AwtToolkit@@SAHHPAUtagRECT@@@Z 100eabb0 f   awt_Toolkit.obj
 0001:000e9c80       ?GetWindowRect@AwtToolkit@@SAXPAUHWND__@@PAUtagRECT@@@Z 100eac80 f   awt_Toolkit.obj
 0001:000e9cd0       ?EnsureInited@PreloadAction@AwtToolkit@@QAE_NXZ 100eacd0 f   awt_Toolkit.obj
 0001:000e9d50       ?GetInitThreadID@PreloadAction@AwtToolkit@@QAEKXZ 100ead50 f   awt_Toolkit.obj
 0001:000e9d80       ?Clean@PreloadAction@AwtToolkit@@QAE_NXZ 100ead80 f   awt_Toolkit.obj
 0001:000e9dc0       ?InitWrapper@PreloadAction@AwtToolkit@@CAXPAX@Z 100eadc0 f   awt_Toolkit.obj
 0001:000e9de0       ?Init@PreloadAction@AwtToolkit@@AAEXXZ 100eade0 f   awt_Toolkit.obj
 0001:000e9e60       ?Clean@PreloadAction@AwtToolkit@@AAEX_N@Z 100eae60 f   awt_Toolkit.obj
 0001:000e9ee0       ??0PreloadThread@AwtToolkit@@QAE@XZ 100eaee0 f   awt_Toolkit.obj
 0001:000e9f70       ??1PreloadThread@AwtToolkit@@QAE@XZ 100eaf70 f   awt_Toolkit.obj
 0001:000e9fa0       ?AddAction@PreloadThread@AwtToolkit@@QAE_NPAVPreloadAction@2@@Z 100eafa0 f   awt_Toolkit.obj
 0001:000ea110       ?Terminate@PreloadThread@AwtToolkit@@QAE_N_N@Z 100eb110 f   awt_Toolkit.obj
 0001:000ea1c0       ?InvokeAndTerminate@PreloadThread@AwtToolkit@@QAE_NP6AXPAX@Z0@Z 100eb1c0 f   awt_Toolkit.obj
 0001:000ea270       ?StaticThreadProc@PreloadThread@AwtToolkit@@CGIPAX@Z 100eb270 f   awt_Toolkit.obj
 0001:000ea290       ?ThreadProc@PreloadThread@AwtToolkit@@AAEIXZ 100eb290 f   awt_Toolkit.obj
 0001:000ea400       ?GetNextAction@PreloadThread@AwtToolkit@@AAEPAVPreloadAction@2@XZ 100eb400 f   awt_Toolkit.obj
 0001:000ea490       _preloadStop               100eb490 f   awt_Toolkit.obj
 0001:000ea4b0       _Java_java_awt_Toolkit_initIDs@8 100eb4b0 f   awt_Toolkit.obj
 0001:000ea5f0       _Java_sun_awt_windows_WToolkit_initIDs@8 100eb5f0 f   awt_Toolkit.obj
 0001:000ea8a0       _Java_sun_awt_windows_WToolkit_disableCustomPalette@8 100eb8a0 f   awt_Toolkit.obj
 0001:000ea8b0       _Java_sun_awt_windows_WToolkit_embeddedInit@8 100eb8b0 f   awt_Toolkit.obj
 0001:000ea940       _Java_sun_awt_windows_WToolkit_embeddedDispose@8 100eb940 f   awt_Toolkit.obj
 0001:000ea9e0       _Java_sun_awt_windows_WToolkit_embeddedEventLoopIdleProcessing@8 100eb9e0 f   awt_Toolkit.obj
 0001:000ea9f0       _Java_sun_awt_windows_WToolkit_init@8 100eb9f0 f   awt_Toolkit.obj
 0001:000eaaa0       _Java_sun_awt_windows_WToolkit_eventLoop@8 100ebaa0 f   awt_Toolkit.obj
 0001:000eab70       _Java_sun_awt_windows_WToolkit_shutdown@8 100ebb70 f   awt_Toolkit.obj
 0001:000eac10       _Java_sun_awt_windows_WToolkit_startSecondaryEventLoop@8 100ebc10 f   awt_Toolkit.obj
 0001:000eacc0       _Java_sun_awt_windows_WToolkit_quitSecondaryEventLoop@8 100ebcc0 f   awt_Toolkit.obj
 0001:000ead30       _Java_sun_awt_windows_WToolkit_makeColorModel@8 100ebd30 f   awt_Toolkit.obj
 0001:000eadc0       _Java_sun_awt_windows_WToolkit_getMaximumCursorColors@8 100ebdc0 f   awt_Toolkit.obj
 0001:000eaf00       _Java_sun_awt_windows_WToolkit_getScreenWidth@8 100ebf00 f   awt_Toolkit.obj
 0001:000eaf80       _Java_sun_awt_windows_WToolkit_getScreenHeight@8 100ebf80 f   awt_Toolkit.obj
 0001:000eb000       _Java_sun_awt_windows_WToolkit_getScreenInsets@12 100ec000 f   awt_Toolkit.obj
 0001:000eb0f0       _Java_sun_awt_windows_WToolkit_nativeSync@8 100ec0f0 f   awt_Toolkit.obj
 0001:000eb170       _Java_sun_awt_windows_WToolkit_beep@8 100ec170 f   awt_Toolkit.obj
 0001:000eb1f0       _Java_sun_awt_windows_WToolkit_getLockingKeyStateNative@12 100ec1f0 f   awt_Toolkit.obj
 0001:000eb2d0       _Java_sun_awt_windows_WToolkit_setLockingKeyStateNative@16 100ec2d0 f   awt_Toolkit.obj
 0001:000eb3c0       _Java_sun_awt_windows_WToolkit_loadSystemColors@12 100ec3c0 f   awt_Toolkit.obj
 0001:000eb4e0       _DSGetComponent@8          100ec4e0 f   awt_Toolkit.obj
 0001:000eb5a0       _Java_sun_awt_windows_WToolkit_postDispose@8 100ec5a0 f   awt_Toolkit.obj
 0001:000eb600       _Java_sun_awt_windows_WToolkit_setDynamicLayoutNative@12 100ec600 f   awt_Toolkit.obj
 0001:000eb680       _Java_sun_awt_windows_WToolkit_isDynamicLayoutSupportedNative@8 100ec680 f   awt_Toolkit.obj
 0001:000eb700       _Java_sun_awt_SunToolkit_setLWRequestStatus@16 100ec700 f   awt_Toolkit.obj
 0001:000eb7a0       _Java_sun_awt_windows_WToolkit_printWindowsVersion@8 100ec7a0 f   awt_Toolkit.obj
 0001:000eb810       _Java_sun_awt_windows_WToolkit_syncNativeQueue@8 100ec810 f   awt_Toolkit.obj
 0001:000eb870       _Java_sun_awt_windows_WToolkit_isProtectedMode@8 100ec870 f   awt_Toolkit.obj
 0001:000eb980       ?DesktopColor2RGB@@YAKH@Z  100ec980 f   awt_Toolkit.obj
 0001:000eb9c0       _Java_sun_awt_SunToolkit_closeSplashScreen@8 100ec9c0 f   awt_Toolkit.obj
 0001:000eba00       _Java_sun_awt_windows_WToolkit_isWindowOpacityControlSupported@8 100eca00 f   awt_Toolkit.obj
 0001:000ebab0       _Java_sun_awt_windows_WToolkit_isWindowTranslucencySupported@8 100ecab0 f   awt_Toolkit.obj
 0001:000ebb60       ?SetModuleHandle@AwtToolkit@@QAEXPAUHINSTANCE__@@@Z 100ecb60 f i awt_Toolkit.obj
 0001:000ebb80       ?ExceptionCheck@JNIEnv_@@QAEEXZ 100ecb80 f i awt_Toolkit.obj
 0001:000ebba0       ?DetachCurrentThread@JavaVM_@@QAEJXZ 100ecba0 f i awt_Toolkit.obj
 0001:000ebbc0       ?AttachCurrentThreadAsDaemon@JavaVM_@@QAEJPAPAXPAX@Z 100ecbc0 f i awt_Toolkit.obj
 0001:000ebbf0       ?GetPreloadThread@AwtToolkit@@QAEAAVPreloadThread@1@XZ 100ecbf0 f i awt_Toolkit.obj
 0001:000ebc10       ?GetInstance@D3DInitializer@@SAAAV1@XZ 100ecc10 f i awt_Toolkit.obj
 0001:000ebc20       ??_GAwtCmdIDList@@QAEPAXI@Z 100ecc20 f i awt_Toolkit.obj
 0001:000ebc50       ?IsGettingOwnership@AwtClipboard@@SAHXZ 100ecc50 f i awt_Toolkit.obj
 0001:000ebc60       ?IsLocalDnD@AwtDropTarget@@SAHXZ 100ecc60 f i awt_Toolkit.obj
 0001:000ebc80       ?CalculateWave@AwtToolkit@@SAIII@Z 100ecc80 f i awt_Toolkit.obj
 0001:000ebcc0       ?Wait4Finish@PreloadThread@AwtToolkit@@QAEXXZ 100eccc0 f i awt_Toolkit.obj
 0001:000ebce0       ?GetThreadId@PreloadThread@AwtToolkit@@QAEIXZ 100ecce0 f i awt_Toolkit.obj
 0001:000ebd10       ?IsWrongThread@PreloadThread@AwtToolkit@@QAE_NXZ 100ecd10 f i awt_Toolkit.obj
 0001:000ebd40       ?SetNext@PreloadAction@AwtToolkit@@AAEXPAV12@@Z 100ecd40 f i awt_Toolkit.obj
 0001:000ebd60       ?GetNext@PreloadAction@AwtToolkit@@AAEPAV12@XZ 100ecd60 f i awt_Toolkit.obj
 0001:000ebd80       ?AwakeThread@PreloadThread@AwtToolkit@@AAEXXZ 100ecd80 f i awt_Toolkit.obj
 0001:000ebda0       ?SetPeer@AwtToolkit@@QAEXPAUJNIEnv_@@PAV_jobject@@@Z 100ecda0 f i awt_Toolkit.obj
 0001:000ebe00       ?localPump@AwtToolkit@@QAEHXZ 100ece00 f i awt_Toolkit.obj
 0001:000ebe00       ?GetGlyphCache@D3DGlyphCache@@QAEPAUGlyphCacheInfo@@XZ 100ece00 f i D3DTextRenderer.obj
 0001:000ebe00       ?GetRefCount@AwtGDIObject@@QAEHXZ 100ece00 f i GDIHashtable.obj
 0001:000ebe20       ?J2WHelper1@@YAPAGPAG0HH@Z 100ece20 f   awt_Unicode.obj
 0001:000ebe50       ?JNI_J2WHelper1@@YAPAGPAUJNIEnv_@@PAGPAV_jstring@@@Z 100ece50 f   awt_Unicode.obj
 0001:000ebe90       ?J2WHelper@@YAPAGPAG0H@Z   100ece90 f   awt_Unicode.obj
 0001:000ebeb0       ??0AwtWindow@@QAE@XZ       100eceb0 f   awt_Window.obj
 0001:000ec0e0       ??1AwtWindow@@UAE@XZ       100ed0e0 f   awt_Window.obj
 0001:000ec240       ?Grab@AwtWindow@@UAEXXZ    100ed240 f   awt_Window.obj
 0001:000ec2f0       ?Ungrab@AwtWindow@@UAEXH@Z 100ed2f0 f   awt_Window.obj
 0001:000ec340       ?Ungrab@AwtWindow@@UAEXXZ  100ed340 f   awt_Window.obj
 0001:000ec360       ?_Grab@AwtWindow@@SAXPAX@Z 100ed360 f   awt_Window.obj
 0001:000ec430       ?_Ungrab@AwtWindow@@SAXPAX@Z 100ed430 f   awt_Window.obj
 0001:000ec500       ?WmNcMouseDown@AwtWindow@@UAE?AW4MsgRouting@@IHHH@Z 100ed500 f   awt_Window.obj
 0001:000ec560       ?WmWindowPosChanging@AwtWindow@@UAE?AW4MsgRouting@@J@Z 100ed560 f   awt_Window.obj
 0001:000ec580       ?RepositionSecurityWarning@AwtWindow@@AAEXPAUJNIEnv_@@@Z 100ed580 f   awt_Window.obj
 0001:000ec600       ?WmWindowPosChanged@AwtWindow@@UAE?AW4MsgRouting@@J@Z 100ed600 f   awt_Window.obj
 0001:000ec680       ?GetClassNameW@AwtWindow@@UAEPBGXZ 100ed680 f   awt_Window.obj
 0001:000ec690       ?FillClassInfo@AwtWindow@@UAEXPAUtagWNDCLASSEXW@@@Z 100ed690 f   awt_Window.obj
 0001:000ec6c0       ?IsWarningWindow@AwtWindow@@SA_NPAUHWND__@@@Z 100ed6c0 f   awt_Window.obj
 0001:000ec710       ?CBTFilter@AwtWindow@@CGJHIJ@Z 100ed710 f   awt_Window.obj
 0001:000ec7d0       ?InitSecurityWarningSize@AwtWindow@@AAEXPAUJNIEnv_@@@Z 100ed7d0 f   awt_Window.obj
 0001:000ec860       ?CreateHWnd@AwtWindow@@UAEXPAUJNIEnv_@@PBGKKHHHHPAUHWND__@@PAUHMENU__@@KKPAV_jobject@@@Z 100ed860 f   awt_Window.obj
 0001:000ec970       ?CreateWarningWindow@AwtWindow@@AAEXPAUJNIEnv_@@@Z 100ed970 f   awt_Window.obj
 0001:000ecb90       ?DestroyWarningWindow@AwtWindow@@AAEXXZ 100edb90 f   awt_Window.obj
 0001:000ecc10       ?DestroyHWnd@AwtWindow@@UAEXXZ 100edc10 f   awt_Window.obj
 0001:000ecc30       ?GetWarningWindowClassName@AwtWindow@@CAPBGXZ 100edc30 f   awt_Window.obj
 0001:000ecc40       ?FillWarningWindowClassInfo@AwtWindow@@AAEXPAUtagWNDCLASSW@@@Z 100edc40 f   awt_Window.obj
 0001:000eccd0       ?RegisterWarningWindowClass@AwtWindow@@AAEXXZ 100edcd0 f   awt_Window.obj
 0001:000ecd50       ?UnregisterWarningWindowClass@AwtWindow@@AAEXXZ 100edd50 f   awt_Window.obj
 0001:000ecd80       ?GetSecurityWarningIcon@AwtWindow@@AAEPAUHICON__@@XZ 100edd80 f   awt_Window.obj
 0001:000ecde0       ?CalculateWarningWindowBounds@AwtWindow@@AAEXPAUJNIEnv_@@PAUtagRECT@@@Z 100edde0 f   awt_Window.obj
 0001:000ecf80       ?WarningWindowProc@AwtWindow@@CGJPAUHWND__@@IIJ@Z 100edf80 f   awt_Window.obj
 0001:000ed080       ?PaintWarningWindow@AwtWindow@@CAXPAUHWND__@@@Z 100ee080 f   awt_Window.obj
 0001:000ed0e0       ?PaintWarningWindow@AwtWindow@@CAXPAUHWND__@@PAUHDC__@@@Z 100ee0e0 f   awt_Window.obj
 0001:000ed140       ?RepaintWarningWindow@AwtWindow@@AAEXXZ 100ee140 f   awt_Window.obj
 0001:000ed190       ?SetLayered@AwtWindow@@CAXPAUHWND__@@_N@Z 100ee190 f   awt_Window.obj
 0001:000ed1e0       ?IsLayered@AwtWindow@@CA_NPAUHWND__@@@Z 100ee1e0 f   awt_Window.obj
 0001:000ed210       ?StartSecurityAnimation@AwtWindow@@AAEXW4AnimationKind@1@@Z 100ee210 f   awt_Window.obj
 0001:000ed350       ?StopSecurityAnimation@AwtWindow@@AAEXXZ 100ee350 f   awt_Window.obj
 0001:000ed400       ?WmTimer@AwtWindow@@UAE?AW4MsgRouting@@I@Z 100ee400 f   awt_Window.obj
 0001:000ed4f0       ?UpdateSecurityWarningVisibility@AwtWindow@@QAEXXZ 100ee4f0 f   awt_Window.obj
 0001:000ed5f0       ?FocusTransfered@AwtWindow@@SAXPAUHWND__@@0@Z 100ee5f0 f   awt_Window.obj
 0001:000ed640       ?_RepositionSecurityWarning@AwtWindow@@SAXPAX@Z 100ee640 f   awt_Window.obj
 0001:000ed700       ?Create@AwtWindow@@SAPAV1@PAV_jobject@@0@Z 100ee700 f   awt_Window.obj
 0001:000edab0       ?IsOneOfOwnersOf@AwtWindow@@QAEHPAV1@@Z 100eeab0 f   awt_Window.obj
 0001:000edb00       ?InitOwner@AwtWindow@@AAEXPAV1@@Z 100eeb00 f   awt_Window.obj
 0001:000edb90       ?Reshape@AwtWindow@@UAEXHHHH@Z 100eeb90 f   awt_Window.obj
 0001:000edd10       ?moveToDefaultLocation@AwtWindow@@QAEXXZ 100eed10 f   awt_Window.obj
 0001:000edde0       ?Show@AwtWindow@@UAEXXZ    100eede0 f   awt_Window.obj
 0001:000ee390       ?UpdateInsets@AwtWindow@@QAEHPAV_jobject@@@Z 100ef390 f   awt_Window.obj
 0001:000ee7f0       ?GetTopLevelHWnd@AwtWindow@@QAEPAUHWND__@@XZ 100ef7f0 f   awt_Window.obj
 0001:000ee830       ?SendComponentEvent@AwtWindow@@QAEXJ@Z 100ef830 f   awt_Window.obj
 0001:000ee990       ?SendWindowEvent@AwtWindow@@QAEXJPAUHWND__@@JJ@Z 100ef990 f   awt_Window.obj
 0001:000eec90       ?WmActivate@AwtWindow@@UAE?AW4MsgRouting@@IHPAUHWND__@@@Z 100efc90 f   awt_Window.obj
 0001:000eed80       ?BounceActivation@AwtWindow@@SAXPAX@Z 100efd80 f   awt_Window.obj
 0001:000eedf0       ?WmCreate@AwtWindow@@UAE?AW4MsgRouting@@XZ 100efdf0 f   awt_Window.obj
 0001:000eee00       ?WmClose@AwtWindow@@UAE?AW4MsgRouting@@XZ 100efe00 f   awt_Window.obj
 0001:000eee30       ?WmDestroy@AwtWindow@@UAE?AW4MsgRouting@@XZ 100efe30 f   awt_Window.obj
 0001:000eee60       ?WmShowWindow@AwtWindow@@UAE?AW4MsgRouting@@HI@Z 100efe60 f   awt_Window.obj
 0001:000eef00       ?WmMove@AwtWindow@@UAE?AW4MsgRouting@@HH@Z 100eff00 f   awt_Window.obj
 0001:000ef050       ?WmGetMinMaxInfo@AwtWindow@@UAE?AW4MsgRouting@@PAUtagMINMAXINFO@@@Z 100f0050 f   awt_Window.obj
 0001:000ef0b0       ?WmSize@AwtWindow@@UAE?AW4MsgRouting@@IHH@Z 100f00b0 f   awt_Window.obj
 0001:000ef200       ?WmPaint@AwtWindow@@UAE?AW4MsgRouting@@PAUHDC__@@@Z 100f0200 f   awt_Window.obj
 0001:000ef230       ?WmSysCommand@AwtWindow@@UAE?AW4MsgRouting@@IHH@Z 100f0230 f   awt_Window.obj
 0001:000ef260       ?WmExitSizeMove@AwtWindow@@UAE?AW4MsgRouting@@XZ 100f0260 f   awt_Window.obj
 0001:000ef2a0       ?WmSettingChange@AwtWindow@@UAE?AW4MsgRouting@@IPBG@Z 100f02a0 f   awt_Window.obj
 0001:000ef2f0       ?WmNcCalcSize@AwtWindow@@UAE?AW4MsgRouting@@HPAUtagNCCALCSIZE_PARAMS@@AAJ@Z 100f02f0 f   awt_Window.obj
 0001:000ef380       ?WmNcHitTest@AwtWindow@@UAE?AW4MsgRouting@@IIAAJ@Z 100f0380 f   awt_Window.obj
 0001:000ef3f0       ?WmGetIcon@AwtWindow@@UAE?AW4MsgRouting@@IAAJ@Z 100f03f0 f   awt_Window.obj
 0001:000ef410       ?WindowProc@AwtWindow@@UAEJIIJ@Z 100f0410 f   awt_Window.obj
 0001:000ef480       ?HandleEvent@AwtWindow@@UAE?AW4MsgRouting@@PAUtagMSG@@H@Z 100f0480 f   awt_Window.obj
 0001:000ef4a0       ?WindowResized@AwtWindow@@UAEXXZ 100f04a0 f   awt_Window.obj
 0001:000ef4f0       ?InvalidateChildRect@@YGHPAUHWND__@@J@Z 100f04f0 f   awt_Window.obj
 0001:000ef580       ?Invalidate@AwtWindow@@UAEXPAUtagRECT@@@Z 100f0580 f   awt_Window.obj
 0001:000ef5c0       ?IsResizable@AwtWindow@@QAEHXZ 100f05c0 f   awt_Window.obj
 0001:000ef5e0       ?SetResizable@AwtWindow@@UAEXH@Z 100f05e0 f   awt_Window.obj
 0001:000ef680       ?RecalcNonClient@AwtWindow@@UAEXXZ 100f0680 f   awt_Window.obj
 0001:000ef6b0       ?RedrawNonClient@AwtWindow@@UAEXXZ 100f06b0 f   awt_Window.obj
 0001:000ef6e0       ?GetScreenImOn@AwtWindow@@UAEHXZ 100f06e0 f   awt_Window.obj
 0001:000ef750       ?CheckIfOnNewScreen@AwtWindow@@UAEXXZ 100f0750 f   awt_Window.obj
 0001:000ef830       ?IsFocusableWindow@AwtWindow@@QAEHXZ 100f0830 f   awt_Window.obj
 0001:000ef8c0       ?SetModalBlocker@AwtWindow@@SAXPAUHWND__@@0@Z 100f08c0 f   awt_Window.obj
 0001:000ef970       ?SetAndActivateModalBlocker@AwtWindow@@SAXPAUHWND__@@0@Z 100f0970 f   awt_Window.obj
 0001:000ef9d0       ?GetTopmostModalBlocker@AwtWindow@@SAPAUHWND__@@PAU2@@Z 100f09d0 f   awt_Window.obj
 0001:000efa10       ?FlashWindowEx@AwtWindow@@SAXPAUHWND__@@IKK@Z 100f0a10 f   awt_Window.obj
 0001:000efa50       ?_ToFront@AwtWindow@@SAXPAX@Z 100f0a50 f   awt_Window.obj
 0001:000efb60       ?_ToBack@AwtWindow@@SAXPAX@Z 100f0b60 f   awt_Window.obj
 0001:000efd60       ?_SetAlwaysOnTop@AwtWindow@@SAXPAX@Z 100f0d60 f   awt_Window.obj
 0001:000efe60       ?_SetTitle@AwtWindow@@SAXPAX@Z 100f0e60 f   awt_Window.obj
 0001:000f0000       ?_SetResizable@AwtWindow@@SAXPAX@Z 100f1000 f   awt_Window.obj
 0001:000f0120       ?_UpdateInsets@AwtWindow@@SAXPAX@Z 100f1120 f   awt_Window.obj
 0001:000f0230       ?_ReshapeFrame@AwtWindow@@SAXPAX@Z 100f1230 f   awt_Window.obj
 0001:000f04c0       ?CreateIconFromRaster@@YAPAUHICON__@@PAUJNIEnv_@@PAV_jintArray@@JJ@Z 100f14c0 f   awt_Window.obj
 0001:000f0640       ?SetIconData@AwtWindow@@UAEXPAUJNIEnv_@@PAV_jintArray@@JJ1JJ@Z 100f1640 f   awt_Window.obj
 0001:000f07d0       ?UpdateOwnedIconCallback@AwtWindow@@SGHPAUHWND__@@J@Z 100f17d0 f   awt_Window.obj
 0001:000f0890       ?DoUpdateIcon@AwtWindow@@UAEXXZ 100f1890 f   awt_Window.obj
 0001:000f08a0       ?_SetIconImagesData@AwtWindow@@SAXPAX@Z 100f18a0 f   awt_Window.obj
 0001:000f09d0       ?_SetMinSize@AwtWindow@@SAXPAX@Z 100f19d0 f   awt_Window.obj
 0001:000f0ab0       ?_GetScreenImOn@AwtWindow@@SAJPAX@Z 100f1ab0 f   awt_Window.obj
 0001:000f0b70       ?_SetFocusableWindow@AwtWindow@@SAXPAX@Z 100f1b70 f   awt_Window.obj
 0001:000f0cf0       ?_ModalDisable@AwtWindow@@SAXPAX@Z 100f1cf0 f   awt_Window.obj
 0001:000f0de0       ?_ModalEnable@AwtWindow@@SAXPAX@Z 100f1de0 f   awt_Window.obj
 0001:000f0e90       ?HasValidRect@AwtWindow@@QAEHXZ 100f1e90 f   awt_Window.obj
 0001:000f0f60       ?_SetOpacity@AwtWindow@@SAXPAX@Z 100f1f60 f   awt_Window.obj
 0001:000f1030       ?_SetOpaque@AwtWindow@@SAXPAX@Z 100f2030 f   awt_Window.obj
 0001:000f1100       ?RedrawWindow@AwtWindow@@AAEXXZ 100f2100 f   awt_Window.obj
 0001:000f1190       ?SetTranslucency@AwtWindow@@AAEXEH@Z 100f2190 f   awt_Window.obj
 0001:000f1330       ?_UpdateWindow@AwtWindow@@SAXPAX@Z 100f2330 f   awt_Window.obj
 0001:000f1420       ?UpdateWindowImpl@AwtWindow@@AAEXHHPAUHBITMAP__@@@Z 100f2420 f   awt_Window.obj
 0001:000f1520       ?UpdateWindow@AwtWindow@@QAEXPAUJNIEnv_@@PAV_jintArray@@HHPAUHBITMAP__@@@Z 100f2520 f   awt_Window.obj
 0001:000f1700       _Java_java_awt_Window_initIDs@8 100f2700 f   awt_Window.obj
 0001:000f1830       _Java_sun_awt_windows_WWindowPeer_initIDs@8 100f2830 f   awt_Window.obj
 0001:000f1920       _Java_sun_awt_windows_WWindowPeer__1toFront@8 100f2920 f   awt_Window.obj
 0001:000f19b0       _Java_sun_awt_windows_WWindowPeer_toBack@8 100f29b0 f   awt_Window.obj
 0001:000f1a40       _Java_sun_awt_windows_WWindowPeer_setAlwaysOnTopNative@12 100f2a40 f   awt_Window.obj
 0001:000f1b00       _Java_sun_awt_windows_WWindowPeer__1setTitle@12 100f2b00 f   awt_Window.obj
 0001:000f1bd0       _Java_sun_awt_windows_WWindowPeer__1setResizable@12 100f2bd0 f   awt_Window.obj
 0001:000f1c90       _Java_sun_awt_windows_WWindowPeer_createAwtWindow@12 100f2c90 f   awt_Window.obj
 0001:000f1d40       _Java_sun_awt_windows_WWindowPeer_updateInsets@12 100f2d40 f   awt_Window.obj
 0001:000f1e10       _Java_sun_awt_windows_WWindowPeer_reshapeFrame@24 100f2e10 f   awt_Window.obj
 0001:000f1ef0       _Java_sun_awt_windows_WWindowPeer_getSysMinWidth@8 100f2ef0 f   awt_Window.obj
 0001:000f1f70       _Java_sun_awt_windows_WWindowPeer_getSysMinHeight@8 100f2f70 f   awt_Window.obj
 0001:000f1ff0       _Java_sun_awt_windows_WWindowPeer_getSysIconHeight@8 100f2ff0 f   awt_Window.obj
 0001:000f2070       _Java_sun_awt_windows_WWindowPeer_getSysIconWidth@8 100f3070 f   awt_Window.obj
 0001:000f20f0       _Java_sun_awt_windows_WWindowPeer_getSysSmIconHeight@8 100f30f0 f   awt_Window.obj
 0001:000f2170       _Java_sun_awt_windows_WWindowPeer_getSysSmIconWidth@8 100f3170 f   awt_Window.obj
 0001:000f21f0       _Java_sun_awt_windows_WWindowPeer_setIconImagesData@32 100f31f0 f   awt_Window.obj
 0001:000f2300       _Java_sun_awt_windows_WWindowPeer_setMinSize@16 100f3300 f   awt_Window.obj
 0001:000f23d0       _Java_sun_awt_windows_WWindowPeer_getScreenImOn@8 100f33d0 f   awt_Window.obj
 0001:000f2470       _Java_sun_awt_windows_WWindowPeer_modalDisable@20 100f3470 f   awt_Window.obj
 0001:000f2540       _Java_sun_awt_windows_WWindowPeer_modalEnable@12 100f3540 f   awt_Window.obj
 0001:000f25d0       _Java_sun_awt_windows_WWindowPeer_setFocusableWindow@12 100f35d0 f   awt_Window.obj
 0001:000f2690       _Java_sun_awt_windows_WWindowPeer_nativeGrab@8 100f3690 f   awt_Window.obj
 0001:000f2720       _Java_sun_awt_windows_WWindowPeer_nativeUngrab@8 100f3720 f   awt_Window.obj
 0001:000f27b0       _Java_sun_awt_windows_WWindowPeer_setOpacity@12 100f37b0 f   awt_Window.obj
 0001:000f2870       _Java_sun_awt_windows_WWindowPeer_setOpaqueImpl@12 100f3870 f   awt_Window.obj
 0001:000f2930       _Java_sun_awt_windows_WWindowPeer_updateWindowImpl@20 100f3930 f   awt_Window.obj
 0001:000f2a20       _AwtWindow_UpdateWindow    100f3a20 f   awt_Window.obj
 0001:000f2b00       _Java_sun_awt_windows_WWindowPeer_repositionSecurityWarning@8 100f3b00 f   awt_Window.obj
 0001:000f2bc0       ?IsContainer@AwtWindow@@UAEHXZ 100f3bc0 f i awt_Dialog.obj
 0001:000f2bc0       ?IsSimpleWindow@AwtWindow@@UAEHXZ 100f3bc0 f i awt_Window.obj
 0001:000f2bc0       ?IsUndecorated@AwtWindow@@UAEHXZ 100f3bc0 f i awt_Window.obj
 0001:000f2bc0       ?IsScrollbar@AwtScrollbar@@UAEHXZ 100f3bc0 f i awt_Scrollbar.obj
 0001:000f2bc0       ?NeedDblClick@AwtList@@UAEHXZ 100f3bc0 f i awt_List.obj
 0001:000f2bc0       ?WmCreate@AwtComponent@@UAE?AW4MsgRouting@@XZ 100f3bc0 f i awt_Button.obj
 0001:000f2bc0       ?IsEUDC@CEUDCSegTable@@UAEHXZ 100f3bc0 f i awt_Font.obj
 0001:000f2bc0       ?IsTopLevel@AwtWindow@@UAEHXZ 100f3bc0 f i awt_Dialog.obj
 0001:000f2bc0       ?WmClose@AwtComponent@@UAE?AW4MsgRouting@@XZ 100f3bc0 f i awt_Button.obj
 0001:000f2bd0       ??_EAwtWindow@@UAEPAXI@Z   100f3bd0 f i awt_Window.obj
 0001:000f2bd0       ??_GAwtWindow@@UAEPAXI@Z   100f3bd0 f i awt_Window.obj
 0001:000f2c00       ?IsAlwaysOnTop@AwtWindow@@QAE_NXZ 100f3c00 f i awt_Window.obj
 0001:000f2c20       ?IsUntrusted@AwtWindow@@IAEHXZ 100f3c20 f i awt_Window.obj
 0001:000f2c40       ?IsEmbeddedFrameActivationRequest@AwtFrame@@QAEHXZ 100f3c40 f i awt_Window.obj
 0001:000f2c60       ?GetTexture@D3DResource@@QAEPAUIDirect3DTexture9@@XZ 100f3c60 f i D3DBlitLoops.obj
 0001:000f2c60       ?_getMonitorInfo@AwtWin32GraphicsDevice@@QAEPAUtagMONITOR_INFO@@XZ 100f3c60 f i awt_Win32GraphicsDevice.obj
 0001:000f2c60       ?GetGrayscaleGlyphCache@D3DContext@@QAEPAVD3DGlyphCache@@XZ 100f3c60 f i Devices.obj
 0001:000f2c60       ?GetInputMethodWindow@AwtToolkit@@QAEPAUHWND__@@XZ 100f3c60 f i awt_InputMethod.obj
 0001:000f2c60       ?IsToolTipControlInitialized@ComCtl32Util@@QAEHXZ 100f3c60 f i awt_Window.obj
 0001:000f2c80       ?GetWindowUnderMouse@AwtToolkit@@QAEPAUHWND__@@XZ 100f3c80 f i awt_Window.obj
 0001:000f2ca0       ?InvokeFunctionLater@AwtToolkit@@QAEXP6AXPAX@Z0@Z 100f3ca0 f i awt_Window.obj
 0001:000f2cf0       ?isInputMethodWindow@AwtFrame@@QAEHXZ 100f3cf0 f i awt_Window.obj
 0001:000f2d10       ?isOpaque@AwtWindow@@AAEHXZ 100f3d10 f i awt_Window.obj
 0001:000f2d30       ?getOpacity@AwtWindow@@AAEEXZ 100f3d30 f i awt_Window.obj
 0001:000f2d50       ?setOpacity@AwtWindow@@AAEXE@Z 100f3d50 f i awt_Window.obj
 0001:000f2d70       ?setOpaque@AwtWindow@@AAEXH@Z 100f3d70 f i awt_Window.obj
 0001:000f2d90       ?initScreens@@YAXPAUJNIEnv_@@@Z 100f3d90 f   awt_Win32GraphicsEnv.obj
 0001:000f2dc0       ?DWMResetCompositionEnabled@@YAXXZ 100f3dc0 f   awt_Win32GraphicsEnv.obj
 0001:000f2de0       ?DWMIsCompositionEnabled@@YAHXZ 100f3de0 f   awt_Win32GraphicsEnv.obj
 0001:000f2f00       _Java_sun_awt_Win32GraphicsEnvironment_initDisplay@8 100f3f00 f   awt_Win32GraphicsEnv.obj
 0001:000f2f90       _Java_sun_awt_Win32GraphicsEnvironment_getNumScreens@8 100f3f90 f   awt_Win32GraphicsEnv.obj
 0001:000f2fd0       _Java_sun_awt_Win32GraphicsEnvironment_getDefaultScreen@8 100f3fd0 f   awt_Win32GraphicsEnv.obj
 0001:000f2fe0       _Java_sun_awt_Win32GraphicsEnvironment_registerFontWithPlatform@12 100f3fe0 f   awt_Win32GraphicsEnv.obj
 0001:000f30f0       _Java_sun_awt_Win32GraphicsEnvironment_deRegisterFontWithPlatform@12 100f40f0 f   awt_Win32GraphicsEnv.obj
 0001:000f3130       _Java_sun_awt_Win32GraphicsEnvironment_getEUDCFontFile@8 100f4130 f   awt_Win32GraphicsEnv.obj
 0001:000f3360       _Java_sun_awt_Win32GraphicsEnvironment_getXResolution@8 100f4360 f   awt_Win32GraphicsEnv.obj
 0001:000f3410       _Java_sun_awt_Win32GraphicsEnvironment_getYResolution@8 100f4410 f   awt_Win32GraphicsEnv.obj
 0001:000f34c0       _Java_sun_awt_Win32GraphicsEnvironment_isVistaOS@8 100f44c0 f   awt_Win32GraphicsEnv.obj
 0001:000f3510       ??0AwtWin32GraphicsDevice@@QAE@HPAXPAVDevices@@@Z 100f4510 f   awt_Win32GraphicsDevice.obj
 0001:000f3630       ??1AwtWin32GraphicsDevice@@QAE@XZ 100f4630 f   awt_Win32GraphicsDevice.obj
 0001:000f36f0       ?GetDC@AwtWin32GraphicsDevice@@QAEPAUHDC__@@XZ 100f46f0 f   awt_Win32GraphicsDevice.obj
 0001:000f3710       ?ReleaseDC@AwtWin32GraphicsDevice@@QAEXPAUHDC__@@@Z 100f4710 f   awt_Win32GraphicsDevice.obj
 0001:000f3730       ?Initialize@AwtWin32GraphicsDevice@@QAEXXZ 100f4730 f   awt_Win32GraphicsDevice.obj
 0001:000f3cb0       ?GetColorModel@AwtWin32GraphicsDevice@@QAEPAV_jobject@@PAUJNIEnv_@@E@Z 100f4cb0 f   awt_Win32GraphicsDevice.obj
 0001:000f4190       ?SetGrayness@AwtWin32GraphicsDevice@@QAEXH@Z 100f5190 f   awt_Win32GraphicsDevice.obj
 0001:000f41b0       ?UpdateDynamicColorModel@AwtWin32GraphicsDevice@@QAEXXZ 100f51b0 f   awt_Win32GraphicsDevice.obj
 0001:000f4380       ?GetSystemPaletteEntries@AwtWin32GraphicsDevice@@QAEPAIXZ 100f5380 f   awt_Win32GraphicsDevice.obj
 0001:000f43a0       ?GetSystemInverseLUT@AwtWin32GraphicsDevice@@QAEPAEXZ 100f53a0 f   awt_Win32GraphicsDevice.obj
 0001:000f43c0       ?UpdateSystemPalette@AwtWin32GraphicsDevice@@QAEHXZ 100f53c0 f   awt_Win32GraphicsDevice.obj
 0001:000f43f0       ?SelectPalette@AwtWin32GraphicsDevice@@QAEPAUHPALETTE__@@PAUHDC__@@@Z 100f53f0 f   awt_Win32GraphicsDevice.obj
 0001:000f4420       ?RealizePalette@AwtWin32GraphicsDevice@@QAEXPAUHDC__@@@Z 100f5420 f   awt_Win32GraphicsDevice.obj
 0001:000f4450       ?DeviceIndexForWindow@AwtWin32GraphicsDevice@@SAHPAUHWND__@@@Z 100f5450 f   awt_Win32GraphicsDevice.obj
 0001:000f4480       ?GetPalette@AwtWin32GraphicsDevice@@QAEPAUHPALETTE__@@XZ 100f5480 f   awt_Win32GraphicsDevice.obj
 0001:000f44b0       ?Release@AwtWin32GraphicsDevice@@QAEXXZ 100f54b0 f   awt_Win32GraphicsDevice.obj
 0001:000f44d0       ?SetJavaDevice@AwtWin32GraphicsDevice@@QAEXPAUJNIEnv_@@PAV_jobject@@@Z 100f54d0 f   awt_Win32GraphicsDevice.obj
 0001:000f44f0       ?DisableOffscreenAcceleration@AwtWin32GraphicsDevice@@QAEXXZ 100f54f0 f   awt_Win32GraphicsDevice.obj
 0001:000f4500       ?Invalidate@AwtWin32GraphicsDevice@@QAEXPAUJNIEnv_@@@Z 100f5500 f   awt_Win32GraphicsDevice.obj
 0001:000f4560       ?GetColorModel@AwtWin32GraphicsDevice@@SAPAV_jobject@@PAUJNIEnv_@@EH@Z 100f5560 f   awt_Win32GraphicsDevice.obj
 0001:000f45e0       ?_getMonitorInfo@AwtWin32GraphicsDevice@@SAPAUtagMONITOR_INFO@@H@Z 100f55e0 f   awt_Win32GraphicsDevice.obj
 0001:000f4650       ?ResetAllMonitorInfo@AwtWin32GraphicsDevice@@SAXXZ 100f5650 f   awt_Win32GraphicsDevice.obj
 0001:000f4710       ?DisableOffscreenAccelerationForDevice@AwtWin32GraphicsDevice@@SAXPAX@Z 100f5710 f   awt_Win32GraphicsDevice.obj
 0001:000f47f0       ?GetMonitor@AwtWin32GraphicsDevice@@SAPAXH@Z 100f57f0 f   awt_Win32GraphicsDevice.obj
 0001:000f4860       ?GetPalette@AwtWin32GraphicsDevice@@SAPAUHPALETTE__@@H@Z 100f5860 f   awt_Win32GraphicsDevice.obj
 0001:000f48d0       ?UpdateDynamicColorModel@AwtWin32GraphicsDevice@@SAXH@Z 100f58d0 f   awt_Win32GraphicsDevice.obj
 0001:000f4940       ?UpdateSystemPalette@AwtWin32GraphicsDevice@@SAHH@Z 100f5940 f   awt_Win32GraphicsDevice.obj
 0001:000f49b0       ?SelectPalette@AwtWin32GraphicsDevice@@SAPAUHPALETTE__@@PAUHDC__@@H@Z 100f59b0 f   awt_Win32GraphicsDevice.obj
 0001:000f4a20       ?RealizePalette@AwtWin32GraphicsDevice@@SAXPAUHDC__@@H@Z 100f5a20 f   awt_Win32GraphicsDevice.obj
 0001:000f4a90       ?GetColorData@AwtWin32GraphicsDevice@@SAPAU_ColorData@@H@Z 100f5a90 f   awt_Win32GraphicsDevice.obj
 0001:000f4b00       ?GetGrayness@AwtWin32GraphicsDevice@@SAHH@Z 100f5b00 f   awt_Win32GraphicsDevice.obj
 0001:000f4b70       ?GetDCFromScreen@AwtWin32GraphicsDevice@@SAPAUHDC__@@H@Z 100f5b70 f   awt_Win32GraphicsDevice.obj
 0001:000f4c00       ?AreSameMonitors@AwtWin32GraphicsDevice@@CAHPAX0@Z 100f5c00 f   awt_Win32GraphicsDevice.obj
 0001:000f4d10       ?GetScreenFromMHND@AwtWin32GraphicsDevice@@SAHPAX@Z 100f5d10 f   awt_Win32GraphicsDevice.obj
 0001:000f4e40       _Java_sun_awt_Win32GraphicsDevice_initIDs@8 100f5e40 f   awt_Win32GraphicsDevice.obj
 0001:000f5050       _Java_sun_awt_Win32GraphicsDevice_getMaxConfigsImpl@12 100f6050 f   awt_Win32GraphicsDevice.obj
 0001:000f5130       _Java_sun_awt_Win32GraphicsDevice_isPixFmtSupported@16 100f6130 f   awt_Win32GraphicsDevice.obj
 0001:000f5270       _Java_sun_awt_Win32GraphicsDevice_getDefaultPixIDImpl@12 100f6270 f   awt_Win32GraphicsDevice.obj
 0001:000f5430       _Java_sun_awt_Win32GraphicsDevice_enterFullScreenExclusive@16 100f6430 f   awt_Win32GraphicsDevice.obj
 0001:000f5550       _Java_sun_awt_Win32GraphicsDevice_exitFullScreenExclusive@16 100f6550 f   awt_Win32GraphicsDevice.obj
 0001:000f5670       ?CreateDisplayMode@@YAPAV_jobject@@PAUJNIEnv_@@JJJJ@Z 100f6670 f   awt_Win32GraphicsDevice.obj
 0001:000f5780       _Java_sun_awt_Win32GraphicsDevice_getCurrentDisplayMode@12 100f6780 f   awt_Win32GraphicsDevice.obj
 0001:000f5980       _Java_sun_awt_Win32GraphicsDevice_configDisplayMode@32 100f6980 f   awt_Win32GraphicsDevice.obj
 0001:000f5ac0       ?addDisplayMode@@YAXPAUJNIEnv_@@PAV_jobject@@JJJJ@Z 100f6ac0 f   awt_Win32GraphicsDevice.obj
 0001:000f5be0       _Java_sun_awt_Win32GraphicsDevice_enumDisplayModes@16 100f6be0 f   awt_Win32GraphicsDevice.obj
 0001:000f5d00       _Java_sun_awt_Win32GraphicsDevice_makeColorModel@16 100f6d00 f   awt_Win32GraphicsDevice.obj
 0001:000f5d50       _Java_sun_awt_Win32GraphicsDevice_initDevice@12 100f6d50 f   awt_Win32GraphicsDevice.obj
 0001:000f5d90       ?GetSystemEntries@AwtPalette@@QAEPAIXZ 100f6d90 f i awt_Win32GraphicsDevice.obj
 0001:000f5db0       ?GetLogicalEntries@AwtPalette@@QAEPAIXZ 100f6db0 f i awt_Win32GraphicsDevice.obj
 0001:000f5db0       ??0IUnknown@@QAE@XZ        100f6db0 f i awt_TextArea.obj
 0001:000f5db0       ?GetMenuBar@AwtMenuBar@@UAEPAV1@XZ 100f6db0 f i awt_MenuBar.obj
 0001:000f5dc0       ?GetSystemInverseLUT@AwtPalette@@QAEPAEXZ 100f6dc0 f i awt_Win32GraphicsDevice.obj
 0001:000f5de0       ?GetPalette@AwtPalette@@QAEPAUHPALETTE__@@XZ 100f6de0 f i awt_Win32GraphicsDevice.obj
 0001:000f5e00       ?GetJavaDevice@AwtWin32GraphicsDevice@@QAEPAV_jobject@@XZ 100f6e00 f i awt_Win32GraphicsDevice.obj
 0001:000f5e00       ?GetLCDGlyphCache@D3DContext@@QAEPAVD3DGlyphCache@@XZ 100f6e00 f i Devices.obj
 0001:000f5e20       ?GetMonitor@AwtWin32GraphicsDevice@@QAEPAXXZ 100f6e20 f i awt_Win32GraphicsDevice.obj
 0001:000f5e20       ?GetSurface@D3DResource@@QAEPAUIDirect3DSurface9@@XZ 100f6e20 f i D3DBlitLoops.obj
 0001:000f5e20       ?GetHWnd@AwtToolkit@@QAEPAUHWND__@@XZ 100f6e20 f i ObjectList.obj
 0001:000f5e20       ?GetDeviceType@D3DPipelineManager@@QAE?AW4_D3DDEVTYPE@@XZ 100f6e20 f i Devices.obj
 0001:000f5e40       _Java_sun_awt_Win32GraphicsConfig_initIDs@8 100f6e40 f   awt_Win32GraphicsConfig.obj
 0001:000f5ee0       _Java_sun_awt_Win32GraphicsConfig_getBounds@12 100f6ee0 f   awt_Win32GraphicsConfig.obj
 0001:000f5fd0       ??0AwtDropTarget@@QAE@PAUJNIEnv_@@PAVAwtComponent@@@Z 100f6fd0 f   awt_DnDDT.obj
 0001:000f60d0       ??1AwtDropTarget@@UAE@XZ   100f70d0 f   awt_DnDDT.obj
 0001:000f6170       ?QueryInterface@AwtDropTarget@@UAGJABU_GUID@@PAPAX@Z 100f7170 f   awt_DnDDT.obj
 0001:000f6310       ?AddRef@AwtDropTarget@@UAGKXZ 100f7310 f   awt_DnDDT.obj
 0001:000f6330       ?Release@AwtDropTarget@@UAGKXZ 100f7330 f   awt_DnDDT.obj
 0001:000f6390       ?DragEnter@AwtDropTarget@@UAGJPAUIDataObject@@KU_POINTL@@PAK@Z 100f7390 f   awt_DnDDT.obj
 0001:000f6680       ?DragOver@AwtDropTarget@@UAGJKU_POINTL@@PAK@Z 100f7680 f   awt_DnDDT.obj
 0001:000f68c0       ?DragLeave@AwtDropTarget@@UAGJXZ 100f78c0 f   awt_DnDDT.obj
 0001:000f6a90       ?Drop@AwtDropTarget@@UAGJPAUIDataObject@@KU_POINTL@@PAK@Z 100f7a90 f   awt_DnDDT.obj
 0001:000f6d60       ?DoDropDone@AwtDropTarget@@UAEXEJ@Z 100f7d60 f   awt_DnDDT.obj
 0001:000f6da0       ?_DropDone@AwtDropTarget@@CAXPAX@Z 100f7da0 f   awt_DnDDT.obj
 0001:000f6dd0       ?DropDone@AwtDropTarget@@MAEXEJ@Z 100f7dd0 f   awt_DnDDT.obj
 0001:000f6e10       ?_RegisterTarget@AwtDropTarget@@CAXPAX@Z 100f7e10 f   awt_DnDDT.obj
 0001:000f6e40       ?RegisterTarget@AwtDropTarget@@UAEXG@Z 100f7e40 f   awt_DnDDT.obj
 0001:000f6ef0       ?DoGetData@AwtDropTarget@@UAEPAV_jobject@@_J@Z 100f7ef0 f   awt_DnDDT.obj
 0001:000f6f60       ?_GetData@AwtDropTarget@@CAXPAX@Z 100f7f60 f   awt_DnDDT.obj
 0001:000f6fa0       ?GetData@AwtDropTarget@@MAEPAV_jobject@@_J@Z 100f7fa0 f   awt_DnDDT.obj
 0001:000f79c0       ?_compar@AwtDropTarget@@CAHPBX0@Z 100f89c0 f   awt_DnDDT.obj
 0001:000f7a10       ?LoadCache@AwtDropTarget@@MAEXPAUIDataObject@@@Z 100f8a10 f   awt_DnDDT.obj
 0001:000f7cb0       ?UnloadCache@AwtDropTarget@@MAEXXZ 100f8cb0 f   awt_DnDDT.obj
 0001:000f7d80       ?DragCleanup@AwtDropTarget@@MAEXXZ 100f8d80 f   awt_DnDDT.obj
 0001:000f7da0       ?IsLocalDataObject@AwtDropTarget@@SAHPAUIDataObject@@@Z 100f8da0 f   awt_DnDDT.obj
 0001:000f7e80       ?call_dTCcreate@AwtDropTarget@@CAPAV_jobject@@PAUJNIEnv_@@@Z 100f8e80 f   awt_DnDDT.obj
 0001:000f7fd0       ?call_dTCenter@AwtDropTarget@@CAJPAUJNIEnv_@@PAV_jobject@@1JJJJPAV_jlongArray@@_J@Z 100f8fd0 f   awt_DnDDT.obj
 0001:000f80c0       ?call_dTCexit@AwtDropTarget@@CAXPAUJNIEnv_@@PAV_jobject@@1_J@Z 100f90c0 f   awt_DnDDT.obj
 0001:000f81a0       ?call_dTCmotion@AwtDropTarget@@CAJPAUJNIEnv_@@PAV_jobject@@1JJJJPAV_jlongArray@@_J@Z 100f91a0 f   awt_DnDDT.obj
 0001:000f8290       ?call_dTCdrop@AwtDropTarget@@CAXPAUJNIEnv_@@PAV_jobject@@1JJJJPAV_jlongArray@@_J@Z 100f9290 f   awt_DnDDT.obj
 0001:000f8380       ?call_dTCgetfs@AwtDropTarget@@CAPAV_jobject@@PAUJNIEnv_@@PAV_jstring@@_J@Z 100f9380 f   awt_DnDDT.obj
 0001:000f8440       ?call_dTCgetis@AwtDropTarget@@CAPAV_jobject@@PAUJNIEnv_@@_J@Z 100f9440 f   awt_DnDDT.obj
 0001:000f8500       ??0WDTCPIStreamWrapper@@QAE@PAUtagSTGMEDIUM@@@Z 100f9500 f   awt_DnDDT.obj
 0001:000f85b0       ??1WDTCPIStreamWrapper@@UAE@XZ 100f95b0 f   awt_DnDDT.obj
 0001:000f85e0       ?DoAvailable@WDTCPIStreamWrapper@@SAJPAV1@@Z 100f95e0 f   awt_DnDDT.obj
 0001:000f8630       ?_Available@WDTCPIStreamWrapper@@KAXPAX@Z 100f9630 f   awt_DnDDT.obj
 0001:000f8660       ?Available@WDTCPIStreamWrapper@@UAEJXZ 100f9660 f   awt_DnDDT.obj
 0001:000f86f0       ?DoRead@WDTCPIStreamWrapper@@SAJPAV1@@Z 100f96f0 f   awt_DnDDT.obj
 0001:000f8740       ?_Read@WDTCPIStreamWrapper@@KAXPAX@Z 100f9740 f   awt_DnDDT.obj
 0001:000f8770       ?Read@WDTCPIStreamWrapper@@UAEJXZ 100f9770 f   awt_DnDDT.obj
 0001:000f8810       ?DoReadBytes@WDTCPIStreamWrapper@@SAJPAV1@PAV_jbyteArray@@JJ@Z 100f9810 f   awt_DnDDT.obj
 0001:000f8870       ?_ReadBytes@WDTCPIStreamWrapper@@KAXPAX@Z 100f9870 f   awt_DnDDT.obj
 0001:000f88c0       ?ReadBytes@WDTCPIStreamWrapper@@UAEJPAV_jbyteArray@@JJ@Z 100f98c0 f   awt_DnDDT.obj
 0001:000f89b0       ?DoClose@WDTCPIStreamWrapper@@SAXPAV1@@Z 100f99b0 f   awt_DnDDT.obj
 0001:000f89d0       ?_Close@WDTCPIStreamWrapper@@KAXPAX@Z 100f99d0 f   awt_DnDDT.obj
 0001:000f89e0       ?Close@WDTCPIStreamWrapper@@UAEXXZ 100f99e0 f   awt_DnDDT.obj
 0001:000f8a20       _awt_dnd_initialize        100f9a20 f   awt_DnDDT.obj
 0001:000f8a30       _awt_dnd_uninitialize      100f9a30 f   awt_DnDDT.obj
 0001:000f8a40       _convertActionsToDROPEFFECT 100f9a40 f   awt_DnDDT.obj
 0001:000f8a90       _convertDROPEFFECTToActions 100f9a90 f   awt_DnDDT.obj
 0001:000f8ae0       _mapModsToDROPEFFECT       100f9ae0 f   awt_DnDDT.obj
 0001:000f8b60       _Java_sun_awt_windows_WDropTargetContextPeer_getData@24 100f9b60 f   awt_DnDDT.obj
 0001:000f8c20       _Java_sun_awt_windows_WDropTargetContextPeer_dropDone@24 100f9c20 f   awt_DnDDT.obj
 0001:000f8cc0       _Java_sun_awt_windows_WDropTargetContextPeerFileStream_freeStgMedium@16 100f9cc0 f   awt_DnDDT.obj
 0001:000f8d40       _Java_sun_awt_windows_WDropTargetContextPeerIStream_Available@16 100f9d40 f   awt_DnDDT.obj
 0001:000f8dd0       _Java_sun_awt_windows_WDropTargetContextPeerIStream_Read@16 100f9dd0 f   awt_DnDDT.obj
 0001:000f8e60       _Java_sun_awt_windows_WDropTargetContextPeerIStream_ReadBytes@28 100f9e60 f   awt_DnDDT.obj
 0001:000f8ef0       _Java_sun_awt_windows_WDropTargetContextPeerIStream_Close@16 100f9ef0 f   awt_DnDDT.obj
 0001:000f8f60       ??_GAwtDropTarget@@UAEPAXI@Z 100f9f60 f i awt_DnDDT.obj
 0001:000f8f60       ??_EAwtDropTarget@@UAEPAXI@Z 100f9f60 f i awt_DnDDT.obj
 0001:000f8f90       _==                        100f9f90 f i awt_DnDDT.obj
 0001:000f8fb0       ?IsCurrentDnDDataObject@AwtDropTarget@@SAHPAUIDataObject@@@Z 100f9fb0 f i awt_DnDDT.obj
 0001:000f8fd0       ?WaitForSingleObject@AwtToolkit@@QAEXPAX@Z 100f9fd0 f i awt_DnDDT.obj
 0001:000f8ff0       ?WaitUntilSignalled@AwtDropTarget@@IAEXH@Z 100f9ff0 f i awt_DnDDT.obj
 0001:000f9030       ?Signal@AwtDropTarget@@QAEXXZ 100fa030 f i awt_DnDDT.obj
 0001:000f9050       ?SetCurrentDnDDataObject@AwtDropTarget@@SAXPAUIDataObject@@@Z 100fa050 f i awt_DnDDT.obj
 0001:000f9080       ??_EWDTCPIStreamWrapper@@UAEPAXI@Z 100fa080 f i awt_DnDDT.obj
 0001:000f9080       ??_GWDTCPIStreamWrapper@@UAEPAXI@Z 100fa080 f i awt_DnDDT.obj
 0001:000f90b0       ?WaitUntilSignalled@WDTCPIStreamWrapper@@IAEXH@Z 100fa0b0 f i awt_DnDDT.obj
 0001:000f90f0       ?Signal@WDTCPIStreamWrapper@@QAEXXZ 100fa0f0 f i awt_DnDDT.obj
 0001:000f9110       ?GetByteArrayElements@JNIEnv_@@QAEPACPAV_jbyteArray@@PAE@Z 100fa110 f i awt_DnDDT.obj
 0001:000f9140       ?ReleaseByteArrayElements@JNIEnv_@@QAEXPAV_jbyteArray@@PACJ@Z 100fa140 f i awt_DnDDT.obj
 0001:000f9170       ?QueryInterface@AwtDropTarget@@$4PPPPPPPM@A@AGJABU_GUID@@PAPAX@Z 100fa170 f i awt_DnDDT.obj
 0001:000f9180       ?AddRef@AwtDropTarget@@$4PPPPPPPM@A@AGKXZ 100fa180 f i awt_DnDDT.obj
 0001:000f9190       ?Release@AwtDropTarget@@$4PPPPPPPM@A@AGKXZ 100fa190 f i awt_DnDDT.obj
 0001:000f91a0       ?DragEnter@AwtDropTarget@@$4PPPPPPPM@A@AGJPAUIDataObject@@KU_POINTL@@PAK@Z 100fa1a0 f i awt_DnDDT.obj
 0001:000f91b0       ?DragOver@AwtDropTarget@@$4PPPPPPPM@A@AGJKU_POINTL@@PAK@Z 100fa1b0 f i awt_DnDDT.obj
 0001:000f91c0       ?DragLeave@AwtDropTarget@@$4PPPPPPPM@A@AGJXZ 100fa1c0 f i awt_DnDDT.obj
 0001:000f91d0       ?Drop@AwtDropTarget@@$4PPPPPPPM@A@AGJPAUIDataObject@@KU_POINTL@@PAK@Z 100fa1d0 f i awt_DnDDT.obj
 0001:000f91e0       ?StartDrag@AwtDragSource@@SAXPAV1@PAV_jobject@@@Z 100fa1e0 f   awt_DnDDS.obj
 0001:000f9250       ?_DoDragDrop@AwtDragSource@@KAXPAX@Z 100fa250 f   awt_DnDDS.obj
 0001:000f94d0       ??0AwtDragSource@@QAE@PAUJNIEnv_@@PAV_jobject@@111JPAV_jlongArray@@1@Z 100fa4d0 f   awt_DnDDS.obj
 0001:000f9670       ??1AwtDragSource@@UAE@XZ   100fa670 f   awt_DnDDS.obj
 0001:000f9750       ?_compar@AwtDragSource@@CAHPBX0@Z 100fa750 f   awt_DnDDS.obj
 0001:000f97a0       ?LoadCache@AwtDragSource@@AAEXPAV_jlongArray@@@Z 100fa7a0 f   awt_DnDDS.obj
 0001:000f9ab0       ?UnloadCache@AwtDragSource@@AAEXXZ 100faab0 f   awt_DnDDS.obj
 0001:000f9af0       ?SetCursor@AwtDragSource@@UAEPAUHICON__@@PAV_jobject@@@Z 100faaf0 f   awt_DnDDS.obj
 0001:000f9bd0       ?MatchFormatEtc@AwtDragSource@@IAGJPAUtagFORMATETC@@0@Z 100fabd0 f   awt_DnDDS.obj
 0001:000f9d20       ?QueryInterface@AwtDragSource@@UAGJABU_GUID@@PAPAX@Z 100fad20 f   awt_DnDDS.obj
 0001:000f9ee0       ?AddRef@AwtDragSource@@UAGKXZ 100faee0 f   awt_DnDDS.obj
 0001:000f9f00       ?Release@AwtDragSource@@UAGKXZ 100faf00 f   awt_DnDDS.obj
 0001:000f9f60       ?QueryContinueDrag@AwtDragSource@@UAGJHK@Z 100faf60 f   awt_DnDDS.obj
 0001:000fa140       ?GiveFeedback@AwtDragSource@@UAGJK@Z 100fb140 f   awt_DnDDS.obj
 0001:000fa4b0       ?GetData@AwtDragSource@@UAGJPAUtagFORMATETC@@PAUtagSTGMEDIUM@@@Z 100fb4b0 f   awt_DnDDS.obj
 0001:000faad0       ?GetDataHere@AwtDragSource@@UAGJPAUtagFORMATETC@@PAUtagSTGMEDIUM@@@Z 100fbad0 f   awt_DnDDS.obj
 0001:000fadf0       ?QueryGetData@AwtDragSource@@UAGJPAUtagFORMATETC@@@Z 100fbdf0 f   awt_DnDDS.obj
 0001:000fae80       ?GetCanonicalFormatEtc@AwtDragSource@@UAGJPAUtagFORMATETC@@0@Z 100fbe80 f   awt_DnDDS.obj
 0001:000faf50       ?SetData@AwtDragSource@@UAGJPAUtagFORMATETC@@PAUtagSTGMEDIUM@@H@Z 100fbf50 f   awt_DnDDS.obj
 0001:000fafe0       ?EnumFormatEtc@AwtDragSource@@UAGJKPAPAUIEnumFORMATETC@@@Z 100fbfe0 f   awt_DnDDS.obj
 0001:000fb0e0       ?DAdvise@AwtDragSource@@UAGJPAUtagFORMATETC@@KPAUIAdviseSink@@PAK@Z 100fc0e0 f   awt_DnDDS.obj
 0001:000fb0f0       ?DUnadvise@AwtDragSource@@UAGJK@Z 100fc0f0 f   awt_DnDDS.obj
 0001:000fb100       ?EnumDAdvise@AwtDragSource@@UAGJPAPAUIEnumSTATDATA@@@Z 100fc100 f   awt_DnDDS.obj
 0001:000fb110       ?GetProcessId@AwtDragSource@@UAGJPAUtagFORMATETC@@PAUtagSTGMEDIUM@@@Z 100fc110 f   awt_DnDDS.obj
 0001:000fb1f0       ?call_dSCenter@AwtDragSource@@CAXPAUJNIEnv_@@PAV_jobject@@JJJJ@Z 100fc1f0 f   awt_DnDDS.obj
 0001:000fb390       ?call_dSCmotion@AwtDragSource@@CAXPAUJNIEnv_@@PAV_jobject@@JJJJ@Z 100fc390 f   awt_DnDDS.obj
 0001:000fb490       ?call_dSCchanged@AwtDragSource@@CAXPAUJNIEnv_@@PAV_jobject@@JJJJ@Z 100fc490 f   awt_DnDDS.obj
 0001:000fb590       ?call_dSCexit@AwtDragSource@@CAXPAUJNIEnv_@@PAV_jobject@@JJ@Z 100fc590 f   awt_DnDDS.obj
 0001:000fb680       ?call_dSCddfinished@AwtDragSource@@CAXPAUJNIEnv_@@PAV_jobject@@EJJJ@Z 100fc680 f   awt_DnDDS.obj
 0001:000fb780       ?call_dSCmouseMoved@AwtDragSource@@CAXPAUJNIEnv_@@PAV_jobject@@JJJJ@Z 100fc780 f   awt_DnDDS.obj
 0001:000fb880       ??0ADSIEnumFormatEtc@AwtDragSource@@QAE@PAV1@@Z 100fc880 f   awt_DnDDS.obj
 0001:000fb940       ??1ADSIEnumFormatEtc@AwtDragSource@@UAE@XZ 100fc940 f   awt_DnDDS.obj
 0001:000fb9c0       ?QueryInterface@ADSIEnumFormatEtc@AwtDragSource@@UAGJABU_GUID@@PAPAX@Z 100fc9c0 f   awt_DnDDS.obj
 0001:000fbb20       ?AddRef@ADSIEnumFormatEtc@AwtDragSource@@UAGKXZ 100fcb20 f   awt_DnDDS.obj
 0001:000fbb40       ?Release@ADSIEnumFormatEtc@AwtDragSource@@UAGKXZ 100fcb40 f   awt_DnDDS.obj
 0001:000fbba0       ?Next@ADSIEnumFormatEtc@AwtDragSource@@UAGJKPAUtagFORMATETC@@PAK@Z 100fcba0 f   awt_DnDDS.obj
 0001:000fbcb0       ?Skip@ADSIEnumFormatEtc@AwtDragSource@@UAGJK@Z 100fccb0 f   awt_DnDDS.obj
 0001:000fbd70       ?Reset@ADSIEnumFormatEtc@AwtDragSource@@UAGJXZ 100fcd70 f   awt_DnDDS.obj
 0001:000fbd90       ?Clone@ADSIEnumFormatEtc@AwtDragSource@@UAGJPAPAUIEnumFORMATETC@@@Z 100fcd90 f   awt_DnDDS.obj
 0001:000fbea0       ??0ADSIStreamProxy@AwtDragSource@@QAE@PAV1@PAV_jbyteArray@@J@Z 100fcea0 f   awt_DnDDS.obj
 0001:000fc080       ??0ADSIStreamProxy@AwtDragSource@@AAE@PAV01@@Z 100fd080 f   awt_DnDDS.obj
 0001:000fc1a0       ??1ADSIStreamProxy@AwtDragSource@@UAE@XZ 100fd1a0 f   awt_DnDDS.obj
 0001:000fc270       ?QueryInterface@ADSIStreamProxy@AwtDragSource@@UAGJABU_GUID@@PAPAX@Z 100fd270 f   awt_DnDDS.obj
 0001:000fc3d0       ?AddRef@ADSIStreamProxy@AwtDragSource@@UAGKXZ 100fd3d0 f   awt_DnDDS.obj
 0001:000fc3f0       ?Release@ADSIStreamProxy@AwtDragSource@@UAGKXZ 100fd3f0 f   awt_DnDDS.obj
 0001:000fc450       ?Read@ADSIStreamProxy@AwtDragSource@@UAGJPAXKPAK@Z 100fd450 f   awt_DnDDS.obj
 0001:000fc550       ?Write@ADSIStreamProxy@AwtDragSource@@UAGJPBXKPAK@Z 100fd550 f   awt_DnDDS.obj
 0001:000fc5f0       ?Seek@ADSIStreamProxy@AwtDragSource@@UAGJT_LARGE_INTEGER@@KPAT_ULARGE_INTEGER@@@Z 100fd5f0 f   awt_DnDDS.obj
 0001:000fc760       ?SetSize@ADSIStreamProxy@AwtDragSource@@UAGJT_ULARGE_INTEGER@@@Z 100fd760 f   awt_DnDDS.obj
 0001:000fc770       ?CopyTo@ADSIStreamProxy@AwtDragSource@@UAGJPAUIStream@@T_ULARGE_INTEGER@@PAT4@2@Z 100fd770 f   awt_DnDDS.obj
 0001:000fc8a0       ?Commit@ADSIStreamProxy@AwtDragSource@@UAGJK@Z 100fd8a0 f   awt_DnDDS.obj
 0001:000fc8b0       ?Revert@ADSIStreamProxy@AwtDragSource@@UAGJXZ 100fd8b0 f   awt_DnDDS.obj
 0001:000fc8c0       ?LockRegion@ADSIStreamProxy@AwtDragSource@@UAGJT_ULARGE_INTEGER@@0K@Z 100fd8c0 f   awt_DnDDS.obj
 0001:000fc8d0       ?UnlockRegion@ADSIStreamProxy@AwtDragSource@@UAGJT_ULARGE_INTEGER@@0K@Z 100fd8d0 f   awt_DnDDS.obj
 0001:000fc8e0       ?Stat@ADSIStreamProxy@AwtDragSource@@UAGJPAUtagSTATSTG@@K@Z 100fd8e0 f   awt_DnDDS.obj
 0001:000fc980       ?Clone@ADSIStreamProxy@AwtDragSource@@UAGJPAPAUIStream@@@Z 100fd980 f   awt_DnDDS.obj
 0001:000fca80       _Java_sun_awt_windows_WDragSourceContextPeer_setNativeCursor@24 100fda80 f   awt_DnDDS.obj
 0001:000fcb00       _Java_sun_awt_windows_WDragSourceContextPeer_createDragSource@32 100fdb00 f   awt_DnDDS.obj
 0001:000fccb0       _Java_sun_awt_windows_WDragSourceContextPeer_doDragDrop@20 100fdcb0 f   awt_DnDDS.obj
 0001:000fcd40       ?WaitUntilSignalled@AwtDragSource@@IAEXH@Z 100fdd40 f i awt_DnDDS.obj
 0001:000fcd80       ?GetGlyphCacheTexture@D3DGlyphCache@@QAEPAVD3DResource@@XZ 100fdd80 f i D3DTextRenderer.obj
 0001:000fcd80       ?GetHandle@AwtGDIObject@@QAEPAXXZ 100fdd80 f i GDIWindowSurfaceData.obj
 0001:000fcd80       ?GetColorData@AwtWin32GraphicsDevice@@QAEPAU_ColorData@@XZ 100fdd80 f i GDIWindowSurfaceData.obj
 0001:000fcd80       ?GetNumDevices@Devices@@QAEHXZ 100fdd80 f i Devices.obj
 0001:000fcd80       ?GetPaintState@D3DContext@@QAEJXZ 100fdd80 f i Devices.obj
 0001:000fcd80       ?GetPeer@AwtDragSource@@QAEPAV_jobject@@XZ 100fdd80 f i awt_DnDDS.obj
 0001:000fcd80       ?GetText@AwtInputTextInfor@@QBEPAV_jstring@@XZ 100fdd80 f i awt_Component.obj
 0001:000fcda0       ?Signal@AwtDragSource@@QAEXXZ 100fdda0 f i awt_DnDDS.obj
 0001:000fcdc0       ??_EAwtDragSource@@UAEPAXI@Z 100fddc0 f i awt_DnDDS.obj
 0001:000fcdc0       ??_GAwtDragSource@@UAEPAXI@Z 100fddc0 f i awt_DnDDS.obj
 0001:000fcdf0       ??_GADSIEnumFormatEtc@AwtDragSource@@UAEPAXI@Z 100fddf0 f i awt_DnDDS.obj
 0001:000fcdf0       ??_EADSIEnumFormatEtc@AwtDragSource@@UAEPAXI@Z 100fddf0 f i awt_DnDDS.obj
 0001:000fce20       ?IsDisposed@AwtToolkit@@QAEHXZ 100fde20 f i awt_Toolkit.obj
 0001:000fce20       ?getNTypes@AwtDragSource@@QAEIXZ 100fde20 f i awt_DnDDS.obj
 0001:000fce40       ?getType@AwtDragSource@@QAE?AUtagFORMATETC@@I@Z 100fde40 f i awt_DnDDS.obj
 0001:000fce80       ??_EADSIStreamProxy@AwtDragSource@@UAEPAXI@Z 100fde80 f i awt_DnDDS.obj
 0001:000fce80       ??_GADSIStreamProxy@AwtDragSource@@UAEPAXI@Z 100fde80 f i awt_DnDDS.obj
 0001:000fceb0       ??0IStream@@QAE@XZ         100fdeb0 f i awt_DnDDS.obj
 0001:000fced0       ?QueryInterface@AwtDragSource@@$4PPPPPPPM@A@AGJABU_GUID@@PAPAX@Z 100fded0 f i awt_DnDDS.obj
 0001:000fcee0       ?AddRef@AwtDragSource@@$4PPPPPPPM@A@AGKXZ 100fdee0 f i awt_DnDDS.obj
 0001:000fcef0       ?Release@AwtDragSource@@$4PPPPPPPM@A@AGKXZ 100fdef0 f i awt_DnDDS.obj
 0001:000fcf00       ?QueryContinueDrag@AwtDragSource@@$4PPPPPPPM@A@AGJHK@Z 100fdf00 f i awt_DnDDS.obj
 0001:000fcf10       ?GiveFeedback@AwtDragSource@@$4PPPPPPPM@A@AGJK@Z 100fdf10 f i awt_DnDDS.obj
 0001:000fcf20       ?QueryInterface@AwtDragSource@@$4PPPPPPPM@7AGJABU_GUID@@PAPAX@Z 100fdf20 f i awt_DnDDS.obj
 0001:000fcf40       ?AddRef@AwtDragSource@@$4PPPPPPPM@7AGKXZ 100fdf40 f i awt_DnDDS.obj
 0001:000fcf60       ?Release@AwtDragSource@@$4PPPPPPPM@7AGKXZ 100fdf60 f i awt_DnDDS.obj
 0001:000fcf80       ?GetData@AwtDragSource@@$4PPPPPPPM@A@AGJPAUtagFORMATETC@@PAUtagSTGMEDIUM@@@Z 100fdf80 f i awt_DnDDS.obj
 0001:000fcf90       ?GetDataHere@AwtDragSource@@$4PPPPPPPM@A@AGJPAUtagFORMATETC@@PAUtagSTGMEDIUM@@@Z 100fdf90 f i awt_DnDDS.obj
 0001:000fcfa0       ?QueryGetData@AwtDragSource@@$4PPPPPPPM@A@AGJPAUtagFORMATETC@@@Z 100fdfa0 f i awt_DnDDS.obj
 0001:000fcfb0       ?GetCanonicalFormatEtc@AwtDragSource@@$4PPPPPPPM@A@AGJPAUtagFORMATETC@@0@Z 100fdfb0 f i awt_DnDDS.obj
 0001:000fcfc0       ?SetData@AwtDragSource@@$4PPPPPPPM@A@AGJPAUtagFORMATETC@@PAUtagSTGMEDIUM@@H@Z 100fdfc0 f i awt_DnDDS.obj
 0001:000fcfd0       ?EnumFormatEtc@AwtDragSource@@$4PPPPPPPM@A@AGJKPAPAUIEnumFORMATETC@@@Z 100fdfd0 f i awt_DnDDS.obj
 0001:000fcfe0       ?DAdvise@AwtDragSource@@$4PPPPPPPM@A@AGJPAUtagFORMATETC@@KPAUIAdviseSink@@PAK@Z 100fdfe0 f i awt_DnDDS.obj
 0001:000fcff0       ?DUnadvise@AwtDragSource@@$4PPPPPPPM@A@AGJK@Z 100fdff0 f i awt_DnDDS.obj
 0001:000fd000       ?EnumDAdvise@AwtDragSource@@$4PPPPPPPM@A@AGJPAPAUIEnumSTATDATA@@@Z 100fe000 f i awt_DnDDS.obj
 0001:000fd010       ?QueryInterface@ADSIEnumFormatEtc@AwtDragSource@@$4PPPPPPPM@A@AGJABU_GUID@@PAPAX@Z 100fe010 f i awt_DnDDS.obj
 0001:000fd020       ?AddRef@ADSIEnumFormatEtc@AwtDragSource@@$4PPPPPPPM@A@AGKXZ 100fe020 f i awt_DnDDS.obj
 0001:000fd030       ?Release@ADSIEnumFormatEtc@AwtDragSource@@$4PPPPPPPM@A@AGKXZ 100fe030 f i awt_DnDDS.obj
 0001:000fd040       ?Next@ADSIEnumFormatEtc@AwtDragSource@@$4PPPPPPPM@A@AGJKPAUtagFORMATETC@@PAK@Z 100fe040 f i awt_DnDDS.obj
 0001:000fd050       ?Skip@ADSIEnumFormatEtc@AwtDragSource@@$4PPPPPPPM@A@AGJK@Z 100fe050 f i awt_DnDDS.obj
 0001:000fd060       ?Reset@ADSIEnumFormatEtc@AwtDragSource@@$4PPPPPPPM@A@AGJXZ 100fe060 f i awt_DnDDS.obj
 0001:000fd070       ?Clone@ADSIEnumFormatEtc@AwtDragSource@@$4PPPPPPPM@A@AGJPAPAUIEnumFORMATETC@@@Z 100fe070 f i awt_DnDDS.obj
 0001:000fd080       ?QueryInterface@ADSIStreamProxy@AwtDragSource@@$4PPPPPPPM@A@AGJABU_GUID@@PAPAX@Z 100fe080 f i awt_DnDDS.obj
 0001:000fd090       ?AddRef@ADSIStreamProxy@AwtDragSource@@$4PPPPPPPM@A@AGKXZ 100fe090 f i awt_DnDDS.obj
 0001:000fd0a0       ?Release@ADSIStreamProxy@AwtDragSource@@$4PPPPPPPM@A@AGKXZ 100fe0a0 f i awt_DnDDS.obj
 0001:000fd0b0       ?Read@ADSIStreamProxy@AwtDragSource@@$4PPPPPPPM@A@AGJPAXKPAK@Z 100fe0b0 f i awt_DnDDS.obj
 0001:000fd0c0       ?Write@ADSIStreamProxy@AwtDragSource@@$4PPPPPPPM@A@AGJPBXKPAK@Z 100fe0c0 f i awt_DnDDS.obj
 0001:000fd0d0       ?Seek@ADSIStreamProxy@AwtDragSource@@$4PPPPPPPM@A@AGJT_LARGE_INTEGER@@KPAT_ULARGE_INTEGER@@@Z 100fe0d0 f i awt_DnDDS.obj
 0001:000fd0e0       ?SetSize@ADSIStreamProxy@AwtDragSource@@$4PPPPPPPM@A@AGJT_ULARGE_INTEGER@@@Z 100fe0e0 f i awt_DnDDS.obj
 0001:000fd0f0       ?CopyTo@ADSIStreamProxy@AwtDragSource@@$4PPPPPPPM@A@AGJPAUIStream@@T_ULARGE_INTEGER@@PAT4@2@Z 100fe0f0 f i awt_DnDDS.obj
 0001:000fd100       ?Commit@ADSIStreamProxy@AwtDragSource@@$4PPPPPPPM@A@AGJK@Z 100fe100 f i awt_DnDDS.obj
 0001:000fd110       ?Revert@ADSIStreamProxy@AwtDragSource@@$4PPPPPPPM@A@AGJXZ 100fe110 f i awt_DnDDS.obj
 0001:000fd120       ?LockRegion@ADSIStreamProxy@AwtDragSource@@$4PPPPPPPM@A@AGJT_ULARGE_INTEGER@@0K@Z 100fe120 f i awt_DnDDS.obj
 0001:000fd130       ?UnlockRegion@ADSIStreamProxy@AwtDragSource@@$4PPPPPPPM@A@AGJT_ULARGE_INTEGER@@0K@Z 100fe130 f i awt_DnDDS.obj
 0001:000fd140       ?Stat@ADSIStreamProxy@AwtDragSource@@$4PPPPPPPM@A@AGJPAUtagSTATSTG@@K@Z 100fe140 f i awt_DnDDS.obj
 0001:000fd150       ?Clone@ADSIStreamProxy@AwtDragSource@@$4PPPPPPPM@A@AGJPAPAUIStream@@@Z 100fe150 f i awt_DnDDS.obj
 0001:000fd160       _awt_getImagingLib         100fe160 f   awt_Mlib.obj
 0001:000fd2a0       _awt_setMlibStartTimer     100fe2a0 f   awt_Mlib.obj
 0001:000fd2b0       _awt_setMlibStopTimer      100fe2b0 f   awt_Mlib.obj
 0001:000fd2c0       _awt_getBIColorOrder       100fe2c0 f   awt_Mlib.obj
 0001:000fd400       ?init@NewHandler@@SAXXZ    100fe400 f   awt_new.obj
 0001:000fd440       ?handler@NewHandler@@CAHI@Z 100fe440 f   awt_new.obj
 0001:000fd460       ?safe_Malloc@@YAPAXI@Z     100fe460 f   awt_new.obj
 0001:000fd4a0       ?safe_Calloc@@YAPAXII@Z    100fe4a0 f   awt_new.obj
 0001:000fd4e0       ?safe_Realloc@@YAPAXPAXI@Z 100fe4e0 f   awt_new.obj
 0001:000fd540       ?entry_point@@YAXXZ        100fe540 f   awt_new.obj
 0001:000fd580       ?handle_bad_alloc@@YAXXZ   100fe580 f   awt_new.obj
 0001:000fd5c0       ?safe_ExceptionOccurred@@YAPAV_jthrowable@@PAUJNIEnv_@@@Z 100fe5c0 f   awt_new.obj
 0001:000fd680       ?Throw@JNIEnv_@@QAEJPAV_jthrowable@@@Z 100fe680 f i awt_new.obj
 0001:000fd6a0       ?ExceptionOccurred@JNIEnv_@@QAEPAV_jthrowable@@XZ 100fe6a0 f i awt_new.obj
 0001:000fd6c0       ??0AwtTrayIcon@@QAE@XZ     100fe6c0 f   awt_TrayIcon.obj
 0001:000fd750       ??1AwtTrayIcon@@UAE@XZ     100fe750 f   awt_TrayIcon.obj
 0001:000fd7d0       ?GetClassNameW@AwtTrayIcon@@SAPBGXZ 100fe7d0 f   awt_TrayIcon.obj
 0001:000fd7e0       ?FillClassInfo@AwtTrayIcon@@SAXPAUtagWNDCLASSW@@@Z 100fe7e0 f   awt_TrayIcon.obj
 0001:000fd860       ?RegisterClassW@AwtTrayIcon@@SAXXZ 100fe860 f   awt_TrayIcon.obj
 0001:000fd8e0       ?UnregisterClassW@AwtTrayIcon@@SAXXZ 100fe8e0 f   awt_TrayIcon.obj
 0001:000fd900       ?CreateMessageWindow@AwtTrayIcon@@SAPAUHWND__@@XZ 100fe900 f   awt_TrayIcon.obj
 0001:000fd950       ?DestroyMessageWindow@AwtTrayIcon@@SAXXZ 100fe950 f   awt_TrayIcon.obj
 0001:000fd970       ?Create@AwtTrayIcon@@SAPAV1@PAV_jobject@@0@Z 100fe970 f   awt_TrayIcon.obj
 0001:000fda90       ?InitNID@AwtTrayIcon@@QAEXI@Z 100fea90 f   awt_TrayIcon.obj
 0001:000fdbf0       ?SendTrayMessage@AwtTrayIcon@@QAEHK@Z 100febf0 f   awt_TrayIcon.obj
 0001:000fdc10       ?TrayWindowProc@AwtTrayIcon@@SGJPAUHWND__@@IIJ@Z 100fec10 f   awt_TrayIcon.obj
 0001:000fde50       ?WmMouseDown@AwtTrayIcon@@UAE?AW4MsgRouting@@IHHH@Z 100fee50 f   awt_TrayIcon.obj
 0001:000fe000       ?WmMouseUp@AwtTrayIcon@@UAE?AW4MsgRouting@@IHHH@Z 100ff000 f   awt_TrayIcon.obj
 0001:000fe0e0       ?WmMouseMove@AwtTrayIcon@@UAE?AW4MsgRouting@@IHH@Z 100ff0e0 f   awt_TrayIcon.obj
 0001:000fe160       ?WmBalloonUserClick@AwtTrayIcon@@UAE?AW4MsgRouting@@IHH@Z 100ff160 f   awt_TrayIcon.obj
 0001:000fe1e0       ?WmKeySelect@AwtTrayIcon@@UAE?AW4MsgRouting@@IHH@Z 100ff1e0 f   awt_TrayIcon.obj
 0001:000fe250       ?WmSelect@AwtTrayIcon@@UAE?AW4MsgRouting@@IHH@Z 100ff250 f   awt_TrayIcon.obj
 0001:000fe2c0       ?SendMouseEvent@AwtTrayIcon@@QAEXJ_JJJJJEJPAUtagMSG@@@Z 100ff2c0 f   awt_TrayIcon.obj
 0001:000fe470       ?SendActionEvent@AwtTrayIcon@@QAEXJ_JJPAUtagMSG@@@Z 100ff470 f   awt_TrayIcon.obj
 0001:000fe630       ?SearchTrayIconItem@AwtTrayIcon@@SAPAV1@I@Z 100ff630 f   awt_TrayIcon.obj
 0001:000fe670       ?RemoveTrayIconItem@AwtTrayIcon@@SAXI@Z 100ff670 f   awt_TrayIcon.obj
 0001:000fe710       ?LinkObjects@AwtTrayIcon@@QAEXPAUJNIEnv_@@PAV_jobject@@@Z 100ff710 f   awt_TrayIcon.obj
 0001:000fe750       ?UnlinkObjects@AwtTrayIcon@@QAEXXZ 100ff750 f   awt_TrayIcon.obj
 0001:000fe7b0       ?CreateBMP@AwtTrayIcon@@SAPAUHBITMAP__@@PAUHWND__@@PAHHHH@Z 100ff7b0 f   awt_TrayIcon.obj
 0001:000fe980       ?SetToolTip@AwtTrayIcon@@QAEXPBG@Z 100ff980 f   awt_TrayIcon.obj
 0001:000feac0       ?_SetToolTip@AwtTrayIcon@@SAXPAX@Z 100ffac0 f   awt_TrayIcon.obj
 0001:000febe0       ?SetIcon@AwtTrayIcon@@QAEXPAUHICON__@@@Z 100ffbe0 f   awt_TrayIcon.obj
 0001:000fec10       ?_SetIcon@AwtTrayIcon@@SAXPAX@Z 100ffc10 f   awt_TrayIcon.obj
 0001:000fece0       ?_UpdateIcon@AwtTrayIcon@@SAXPAX@Z 100ffce0 f   awt_TrayIcon.obj
 0001:000fedc0       ?DisplayMessage@AwtTrayIcon@@QAEXPBG00@Z 100ffdc0 f   awt_TrayIcon.obj
 0001:000fefb0       ?_DisplayMessage@AwtTrayIcon@@SAXPAX@Z 100fffb0 f   awt_TrayIcon.obj
 0001:000ff140       _Java_java_awt_TrayIcon_initIDs@8 10100140 f   awt_TrayIcon.obj
 0001:000ff230       _Java_sun_awt_windows_WTrayIconPeer_create@8 10100230 f   awt_TrayIcon.obj
 0001:000ff2e0       _Java_sun_awt_windows_WTrayIconPeer__1dispose@8 101002e0 f   awt_TrayIcon.obj
 0001:000ff370       _Java_sun_awt_windows_WTrayIconPeer_setToolTip@12 10100370 f   awt_TrayIcon.obj
 0001:000ff450       _Java_sun_awt_windows_WTrayIconPeer_setNativeIcon@28 10100450 f   awt_TrayIcon.obj
 0001:000ff690       _Java_sun_awt_windows_WTrayIconPeer_updateNativeIcon@12 10100690 f   awt_TrayIcon.obj
 0001:000ff750       _Java_sun_awt_windows_WTrayIconPeer__1displayMessage@20 10100750 f   awt_TrayIcon.obj
 0001:000ff890       ??_EAwtTrayIcon@@UAEPAXI@Z 10100890 f i awt_TrayIcon.obj
 0001:000ff890       ??_GAwtTrayIcon@@UAEPAXI@Z 10100890 f i awt_TrayIcon.obj
 0001:000ff8c0       ?AddTrayIconItem@AwtTrayIcon@@QAEXI@Z 101008c0 f i awt_TrayIcon.obj
 0001:000ff960       ??0TrayIconListItem@AwtTrayIcon@@QAE@IPAV1@@Z 10100960 f i awt_TrayIcon.obj
 0001:000ff960       ??0ChildListItem@AwtComponent@@QAE@IPAV1@@Z 10100960 f i awt_Choice.obj
 0001:000ff990       _ShaderList_AddProgram     10100990 f   ShaderList.obj
 0001:000ffa80       _ShaderList_FindProgram    10100a80 f   ShaderList.obj
 0001:000ffb20       _ShaderList_Dispose        10100b20 f   ShaderList.obj
 0001:000ffb90       ?D3DBL_CopySurfaceToIntArgbImage@@YAJPAUIDirect3DSurface9@@PAUSurfaceDataRasInfo@@JJJJJJ@Z 10100b90 f   D3DBlitLoops.obj
 0001:000ffe70       ?D3DBL_CopyImageToIntXrgbSurface@@YAJPAUSurfaceDataRasInfo@@HPAVD3DResource@@JJJJJJ@Z 10100e70 f   D3DBlitLoops.obj
 0001:00100200       ?D3DBlitSurfaceToSurface@@YAJPAVD3DContext@@PAU_D3DSDOps@@1W4_D3DTEXTUREFILTERTYPE@@JJJJJJJJ@Z 10101200 f   D3DBlitLoops.obj
 0001:001004f0       ?D3DBlitToSurfaceViaTexture@@YAJPAVD3DContext@@PAUSurfaceDataRasInfo@@HPAU_D3DSDOps@@EJJJJJNNNN@Z 101014f0 f   D3DBlitLoops.obj
 0001:00100bf0       ?D3DBlitLoops_IsoBlit@@YAJPAUJNIEnv_@@PAVD3DContext@@_J2EJEEJJJJNNNN@Z 10101bf0 f   D3DBlitLoops.obj
 0001:00101330       ?D3DBlitLoops_Blit@@YAJPAUJNIEnv_@@PAVD3DContext@@_J2EJJEJJJJNNNN@Z 10102330 f   D3DBlitLoops.obj
 0001:00101880       ?D3DBlitLoops_SurfaceToSwBlit@@YAJPAUJNIEnv_@@PAVD3DContext@@_J2JJJJJJJ@Z 10102880 f   D3DBlitLoops.obj
 0001:00101e20       ?D3DBlitLoops_CopyArea@@YAJPAUJNIEnv_@@PAVD3DContext@@PAU_D3DSDOps@@JJJJJJ@Z 10102e20 f   D3DBlitLoops.obj
 0001:00102350       ?GetDesc@D3DResource@@QAEPAU_D3DSURFACE_DESC@@XZ 10103350 f i D3DBlitLoops.obj
 0001:00102370       ?D3DBufImgOps_EnableConvolveOp@@YAJPAVD3DContext@@_JEJJPAE@Z 10103370 f   D3DBufImgOps.obj
 0001:00102670       ?D3DBufImgOps_DisableConvolveOp@@YAJPAVD3DContext@@@Z 10103670 f   D3DBufImgOps.obj
 0001:001026e0       ?D3DBufImgOps_EnableRescaleOp@@YAJPAVD3DContext@@EPAE1@Z 101036e0 f   D3DBufImgOps.obj
 0001:001027c0       ?D3DBufImgOps_DisableRescaleOp@@YAJPAVD3DContext@@@Z 101037c0 f   D3DBufImgOps.obj
 0001:00102830       ?D3DBufImgOps_EnableLookupOp@@YAJPAVD3DContext@@EEJJJPAX@Z 10103830 f   D3DBufImgOps.obj
 0001:00102ba0       ?D3DBufImgOps_DisableLookupOp@@YAJPAVD3DContext@@@Z 10103ba0 f   D3DBufImgOps.obj
 0001:00102c20       ?D3DUtils_SetOrthoMatrixOffCenterLH@@YAXPAU_D3DMATRIX@@MM@Z 10103c20 f   D3DContext.obj
 0001:00102c90       ?D3DUtils_SetIdentityMatrix@@YAXPAU_D3DMATRIX@@@Z 10103c90 f   D3DContext.obj
 0001:00102d40       ?D3DUtils_2DConcatenateM@@YAXPAU_D3DMATRIX@@0@Z 10103d40 f   D3DContext.obj
 0001:00102e30       ?CreateInstance@D3DContext@@SAJPAUIDirect3D9@@IPAPAV1@@Z 10103e30 f   D3DContext.obj
 0001:00102f00       ??0D3DContext@@AAE@PAUIDirect3D9@@I@Z 10103f00 f   D3DContext.obj
 0001:00103130       ?ReleaseDefPoolResources@D3DContext@@QAEXXZ 10104130 f   D3DContext.obj
 0001:001032a0       ?ReleaseContextResources@D3DContext@@QAEXXZ 101042a0 f   D3DContext.obj
 0001:001034e0       ??1D3DContext@@UAE@XZ      101044e0 f   D3DContext.obj
 0001:00103550       ?InitDevice@D3DContext@@AAEJPAUIDirect3DDevice9@@@Z 10104550 f   D3DContext.obj
 0001:00103a40       ?CheckAndResetDevice@D3DContext@@QAEJXZ 10104a40 f   D3DContext.obj
 0001:00103b30       ?ResetContext@D3DContext@@QAEJXZ 10104b30 f   D3DContext.obj
 0001:00103bb0       ?ConfigureContext@D3DContext@@QAEJPAU_D3DPRESENT_PARAMETERS_@@@Z 10104bb0 f   D3DContext.obj
 0001:00104070       ?InitContext@D3DContext@@QAEJXZ 10105070 f   D3DContext.obj
 0001:001040e0       ?Sync@D3DContext@@QAEJXZ   101050e0 f   D3DContext.obj
 0001:001041b0       ?SaveState@D3DContext@@QAEJXZ 101051b0 f   D3DContext.obj
 0001:001042d0       ?RestoreState@D3DContext@@QAEJXZ 101052d0 f   D3DContext.obj
 0001:001043c0       ?IsStretchRectFilteringSupported@D3DContext@@QAEHW4_D3DTEXTUREFILTERTYPE@@@Z 101053c0 f   D3DContext.obj
 0001:00104410       ?IsTextureFilteringSupported@D3DContext@@QAEHW4_D3DTEXTUREFILTERTYPE@@@Z 10105410 f   D3DContext.obj
 0001:00104460       ?IsTextureFormatSupported@D3DContext@@QAEHW4_D3DFORMAT@@K@Z 10105460 f   D3DContext.obj
 0001:001044c0       ?IsDepthStencilBufferOk@D3DContext@@AAEHPAU_D3DSURFACE_DESC@@@Z 101054c0 f   D3DContext.obj
 0001:001045b0       ?InitDepthStencilBuffer@D3DContext@@AAEJPAU_D3DSURFACE_DESC@@@Z 101055b0 f   D3DContext.obj
 0001:00104680       ?SetRenderTarget@D3DContext@@QAEJPAUIDirect3DSurface9@@@Z 10105680 f   D3DContext.obj
 0001:00104890       ?ResetTransform@D3DContext@@QAEJXZ 10105890 f   D3DContext.obj
 0001:00104930       ?SetTransform@D3DContext@@QAEJNNNNNN@Z 10105930 f   D3DContext.obj
 0001:00104b30       ?SetRectClip@D3DContext@@QAEJHHHH@Z 10105b30 f   D3DContext.obj
 0001:00104d90       ?ResetClip@D3DContext@@QAEJXZ 10105d90 f   D3DContext.obj
 0001:00104df0       ?GetClipType@D3DContext@@QAE?AW4ClipType@@XZ 10105df0 f   D3DContext.obj
 0001:00104e80       ?BeginShapeClip@D3DContext@@QAEJXZ 10105e80 f   D3DContext.obj
 0001:00105030       ?EndShapeClip@D3DContext@@QAEJXZ 10106030 f   D3DContext.obj
 0001:00105100       ?UploadTileToTexture@D3DContext@@QAEJPAVD3DResource@@PAXJJJJJJJW4TileFormat@@PAJ3@Z 10106100 f   D3DContext.obj
 0001:001057e0       ?InitLCDGlyphCache@D3DContext@@QAEJXZ 101067e0 f   D3DContext.obj
 0001:00105810       ?InitGrayscaleGlyphCache@D3DContext@@QAEJXZ 10106810 f   D3DContext.obj
 0001:00105840       ?ResetComposite@D3DContext@@QAEJXZ 10106840 f   D3DContext.obj
 0001:001058d0       ?SetAlphaComposite@D3DContext@@QAEJJMJ@Z 101068d0 f   D3DContext.obj
 0001:00105a20       ?SetTexture@D3DContext@@QAEJPAUIDirect3DTexture9@@K@Z 10106a20 f   D3DContext.obj
 0001:00105b00       ?UpdateTextureColorState@D3DContext@@QAEJKK@Z 10106b00 f   D3DContext.obj
 0001:00105b80       ?UpdateState@D3DContext@@QAEJC@Z 10106b80 f   D3DContext.obj
 0001:00105d00       ?FlushVertexQueue@D3DContext@@QAEJXZ 10106d00 f   D3DContext.obj
 0001:00105d30       ?BeginScene@D3DContext@@QAEJC@Z 10106d30 f   D3DContext.obj
 0001:00105dc0       ?EndScene@D3DContext@@QAEJXZ 10106dc0 f   D3DContext.obj
 0001:00105e20       ?CreateFragmentProgram@D3DContext@@AAEPAUIDirect3DPixelShader9@@PAPAKPAUShaderList@@J@Z 10106e20 f   D3DContext.obj
 0001:00105eb0       ?EnableFragmentProgram@D3DContext@@AAEJPAPAKPAUShaderList@@J@Z 10106eb0 f   D3DContext.obj
 0001:00105f60       ?EnableBasicGradientProgram@D3DContext@@QAEJJ@Z 10106f60 f   D3DContext.obj
 0001:00105f90       ?EnableLinearGradientProgram@D3DContext@@QAEJJ@Z 10106f90 f   D3DContext.obj
 0001:00105fc0       ?EnableRadialGradientProgram@D3DContext@@QAEJJ@Z 10106fc0 f   D3DContext.obj
 0001:00105ff0       ?EnableConvolveProgram@D3DContext@@QAEJJ@Z 10106ff0 f   D3DContext.obj
 0001:00106020       ?EnableRescaleProgram@D3DContext@@QAEJJ@Z 10107020 f   D3DContext.obj
 0001:00106050       ?EnableLookupProgram@D3DContext@@QAEJJ@Z 10107050 f   D3DContext.obj
 0001:00106080       ?EnableLCDTextProgram@D3DContext@@QAEJXZ 10107080 f   D3DContext.obj
 0001:00106120       ?EnableAAParallelogramProgram@D3DContext@@QAEJXZ 10107120 f   D3DContext.obj
 0001:001061d0       ?DisableAAParallelogramProgram@D3DContext@@QAEJXZ 101071d0 f   D3DContext.obj
 0001:00106240       ?IsAlphaRTSurfaceSupported@D3DContext@@QAEHXZ 10107240 f   D3DContext.obj
 0001:00106290       ?IsAlphaRTTSupported@D3DContext@@QAEHXZ 10107290 f   D3DContext.obj
 0001:001062e0       ?IsOpaqueRTTSupported@D3DContext@@QAEHXZ 101072e0 f   D3DContext.obj
 0001:00106340       ?InitContextCaps@D3DContext@@AAEJXZ 10107340 f   D3DContext.obj
 0001:00106590       ?EndValidate@AwtScrollPane@@UAEXXZ 10107590 f i awt_ScrollPane.obj
 0001:00106590       ?BeginValidate@AwtScrollPane@@UAEXXZ 10107590 f i awt_ScrollPane.obj
 0001:00106590       ?ReleaseDefPoolResources@D3DMaskCache@@QAEXXZ 10107590 f i D3DContext.obj
 0001:001065a0       ??_GD3DGlyphCache@@QAEPAXI@Z 101075a0 f i D3DContext.obj
 0001:001065d0       ??_GD3DVertexCacher@@QAEPAXI@Z 101075d0 f i D3DContext.obj
 0001:00106600       ??_GD3DMaskCache@@QAEPAXI@Z 10107600 f i D3DContext.obj
 0001:00106630       ??_GD3DResourceManager@@QAEPAXI@Z 10107630 f i D3DContext.obj
 0001:00106660       ?CreateInstance@D3DGlyphCache@@SAJPAVD3DContext@@W4GlyphCacheType@@PAPAV1@@Z 10107660 f   D3DGlyphCache.obj
 0001:00106740       ??0D3DGlyphCache@@AAE@W4GlyphCacheType@@@Z 10107740 f   D3DGlyphCache.obj
 0001:001067b0       ??1D3DGlyphCache@@QAE@XZ   101077b0 f   D3DGlyphCache.obj
 0001:00106800       ?ReleaseDefPoolResources@D3DGlyphCache@@QAEXXZ 10107800 f   D3DGlyphCache.obj
 0001:00106850       ?Init@D3DGlyphCache@@QAEJPAVD3DContext@@@Z 10107850 f   D3DGlyphCache.obj
 0001:00106980       ?AddGlyph@D3DGlyphCache@@QAEJPAUGlyphInfo@@@Z 10107980 f   D3DGlyphCache.obj
 0001:00106ab0       ?CheckGlyphCacheByteOrder@D3DGlyphCache@@QAEJE@Z 10107ab0 f   D3DGlyphCache.obj
 0001:00106b60       _Java_sun_java2d_d3d_D3DGraphicsDevice_initD3D@8 10107b60 f   D3DGraphicsDevice.obj
 0001:00106bb0       _Java_sun_java2d_d3d_D3DGraphicsDevice_getDeviceIdNative@12 10107bb0 f   D3DGraphicsDevice.obj
 0001:00106dd0       _Java_sun_java2d_d3d_D3DGraphicsDevice_getDeviceCapsNative@12 10107dd0 f   D3DGraphicsDevice.obj
 0001:00106e70       _Java_sun_java2d_d3d_D3DGraphicsDevice_enterFullScreenExclusiveNative@20 10107e70 f   D3DGraphicsDevice.obj
 0001:00107000       _Java_sun_java2d_d3d_D3DGraphicsDevice_exitFullScreenExclusiveNative@12 10108000 f   D3DGraphicsDevice.obj
 0001:00107130       _Java_sun_java2d_d3d_D3DGraphicsDevice_configDisplayModeNative@36 10108130 f   D3DGraphicsDevice.obj
 0001:001073a0       _Java_sun_java2d_d3d_D3DGraphicsDevice_getCurrentDisplayModeNative@12 101083a0 f   D3DGraphicsDevice.obj
 0001:001074e0       _Java_sun_java2d_d3d_D3DGraphicsDevice_enumDisplayModesNative@16 101084e0 f   D3DGraphicsDevice.obj
 0001:00107680       _Java_sun_java2d_d3d_D3DGraphicsDevice_getAvailableAcceleratedMemoryNative@12 10108680 f   D3DGraphicsDevice.obj
 0001:00107780       _Java_sun_java2d_d3d_D3DGraphicsDevice_isD3DAvailableOnDeviceNative@12 10108780 f   D3DGraphicsDevice.obj
 0001:00107820       ?D3DMaskBlit_MaskBlit@@YAJPAUJNIEnv_@@PAVD3DContext@@JJJJPAX@Z 10108820 f   D3DMaskBlit.obj
 0001:00107a40       ?CreateInstance@D3DMaskCache@@SAJPAVD3DContext@@PAPAV1@@Z 10108a40 f   D3DMaskCache.obj
 0001:00107b20       ??0D3DMaskCache@@AAE@XZ    10108b20 f   D3DMaskCache.obj
 0001:00107b60       ??1D3DMaskCache@@QAE@XZ    10108b60 f   D3DMaskCache.obj
 0001:00107b90       ?Init@D3DMaskCache@@QAEJPAVD3DContext@@@Z 10108b90 f   D3DMaskCache.obj
 0001:00107bd0       ?Enable@D3DMaskCache@@QAEJXZ 10108bd0 f   D3DMaskCache.obj
 0001:00107ca0       ?Disable@D3DMaskCache@@QAEJXZ 10108ca0 f   D3DMaskCache.obj
 0001:00107ce0       ?AddMaskQuad@D3DMaskCache@@QAEJHHHHHHHPAX@Z 10108ce0 f   D3DMaskCache.obj
 0001:00107eb0       ?D3DMaskFill_MaskFill@@YAJPAVD3DContext@@JJJJJJJPAE@Z 10108eb0 f   D3DMaskFill.obj
 0001:00108080       _Java_sun_java2d_d3d_D3DMaskFill_maskFill@40 10109080 f   D3DMaskFill.obj
 0001:00108120       ?CreateInstance@D3DPipelineManager@@CAPAV1@XZ 10109120 f   D3DPipelineManager.obj
 0001:00108240       ?DeleteInstance@D3DPipelineManager@@CAXXZ 10109240 f   D3DPipelineManager.obj
 0001:001082a0       ?GetInstance@D3DPipelineManager@@SAPAV1@XZ 101092a0 f   D3DPipelineManager.obj
 0001:001082b0       ??0D3DPipelineManager@@AAE@XZ 101092b0 f   D3DPipelineManager.obj
 0001:00108310       ??1D3DPipelineManager@@AAE@XZ 10109310 f   D3DPipelineManager.obj
 0001:00108340       ?ReleaseD3D@D3DPipelineManager@@AAEJXZ 10109340 f   D3DPipelineManager.obj
 0001:001083b0       ?InitD3D@D3DPipelineManager@@AAEJXZ 101093b0 f   D3DPipelineManager.obj
 0001:001084b0       ?ReleaseAdapters@D3DPipelineManager@@AAEJXZ 101094b0 f   D3DPipelineManager.obj
 0001:001085b0       ?NotifyAdapterEventListeners@D3DPipelineManager@@SAXIJ@Z 101095b0 f   D3DPipelineManager.obj
 0001:00108670       ?GetAdapterOrdinalForScreen@D3DPipelineManager@@QAEIJ@Z 10109670 f   D3DPipelineManager.obj
 0001:001086b0       ?HandleAdaptersChange@D3DPipelineManager@@SAJPAPAUHMONITOR__@@I@Z 101096b0 f   D3DPipelineManager.obj
 0001:001088e0       ?HandleLostDevices@D3DPipelineManager@@QAEJXZ 101098e0 f   D3DPipelineManager.obj
 0001:00108a30       ?InitAdapters@D3DPipelineManager@@AAEJXZ 10109a30 f   D3DPipelineManager.obj
 0001:00108b40       ?CheckOSVersion@D3DPipelineManager@@CAJXZ 10109b40 f   D3DPipelineManager.obj
 0001:00108bf0       ?GDICheckForBadHardware@D3DPipelineManager@@CAJXZ 10109bf0 f   D3DPipelineManager.obj
 0001:00108d90       ?D3DPPLM_OsVersionMatches@@YAHG@Z 10109d90 f   D3DPipelineManager.obj
 0001:00108fa0       ?CheckForBadHardware@D3DPipelineManager@@CAJKK_J@Z 10109fa0 f   D3DPipelineManager.obj
 0001:00109140       ?CheckAdaptersInfo@D3DPipelineManager@@AAEJXZ 1010a140 f   D3DPipelineManager.obj
 0001:00109420       ?SelectDeviceType@D3DPipelineManager@@AAE?AW4_D3DDEVTYPE@@XZ 1010a420 f   D3DPipelineManager.obj
 0001:00109560       ?CheckDeviceCaps@D3DPipelineManager@@AAEJI@Z 1010a560 f   D3DPipelineManager.obj
 0001:00109b50       ?D3DEnabledOnAdapter@D3DPipelineManager@@AAEJI@Z 1010ab50 f   D3DPipelineManager.obj
 0001:00109bf0       ?GetAdapterOrdinalByHmon@D3DPipelineManager@@AAEIPAUHMONITOR__@@@Z 1010abf0 f   D3DPipelineManager.obj
 0001:00109c70       ?GetMatchingDepthStencilFormat@D3DPipelineManager@@QAE?AW4_D3DFORMAT@@IW42@0@Z 1010ac70 f   D3DPipelineManager.obj
 0001:00109d30       ?CreateDefaultFocusWindow@D3DPipelineManager@@AAEPAUHWND__@@XZ 1010ad30 f   D3DPipelineManager.obj
 0001:00109eb0       ?GetCurrentFocusWindow@D3DPipelineManager@@QAEPAUHWND__@@XZ 1010aeb0 f   D3DPipelineManager.obj
 0001:00109f30       ?SetFSFocusWindow@D3DPipelineManager@@QAEPAUHWND__@@IPAU2@@Z 1010af30 f   D3DPipelineManager.obj
 0001:0010a0a0       ?GetD3DContext@D3DPipelineManager@@QAEJIPAPAVD3DContext@@@Z 1010b0a0 f   D3DPipelineManager.obj
 0001:0010a230       ??0D3DInitializer@@AAE@XZ  1010b230 f   D3DPipelineManager.obj
 0001:0010a260       ??1D3DInitializer@@EAE@XZ  1010b260 f   D3DPipelineManager.obj
 0001:0010a310       ?InitImpl@D3DInitializer@@MAEXXZ 1010b310 f   D3DPipelineManager.obj
 0001:0010a440       ?CleanImpl@D3DInitializer@@MAEX_N@Z 1010b440 f   D3DPipelineManager.obj
 0001:0010a490       ?InitImpl@D3DAdapterInitializer@D3DInitializer@@MAEXXZ 1010b490 f   D3DPipelineManager.obj
 0001:0010a4f0       ?CleanImpl@D3DAdapterInitializer@D3DInitializer@@MAEX_N@Z 1010b4f0 f   D3DPipelineManager.obj
 0001:0010a500       _preloadD3D                1010b500 f   D3DPipelineManager.obj
 0001:0010a540       ??_GD3DPipelineManager@@AAEPAXI@Z 1010b540 f i D3DPipelineManager.obj
 0001:0010a570       ??0PreloadAction@AwtToolkit@@QAE@XZ 1010b570 f i D3DPipelineManager.obj
 0001:0010a5b0       ??_GPreloadAction@AwtToolkit@@UAEPAXI@Z 1010b5b0 f i D3DPipelineManager.obj
 0001:0010a5b0       ??_EPreloadAction@AwtToolkit@@UAEPAXI@Z 1010b5b0 f i D3DPipelineManager.obj
 0001:0010a5e0       ??1PreloadAction@AwtToolkit@@UAE@XZ 1010b5e0 f i D3DPipelineManager.obj
 0001:0010a600       ??_ED3DInitializer@@EAEPAXI@Z 1010b600 f i D3DPipelineManager.obj
 0001:0010a600       ??_GD3DInitializer@@EAEPAXI@Z 1010b600 f i D3DPipelineManager.obj
 0001:0010a630       ??_ED3DAdapterInitializer@D3DInitializer@@UAEPAXI@Z 1010b630 f i D3DPipelineManager.obj
 0001:0010a6a0       ??0D3DAdapterInitializer@D3DInitializer@@QAE@XZ 1010b6a0 f i D3DPipelineManager.obj
 0001:0010a6c0       ??1D3DAdapterInitializer@D3DInitializer@@UAE@XZ 1010b6c0 f i D3DPipelineManager.obj
 0001:0010a6e0       ?D3DPaints_ResetPaint@@YAJPAVD3DContext@@@Z 1010b6e0 f   D3DPaints.obj
 0001:0010a880       ?D3DPaints_SetColor@@YAJPAVD3DContext@@J@Z 1010b880 f   D3DPaints.obj
 0001:0010a920       ?D3DPaints_SetGradientPaint@@YAJPAVD3DContext@@EENNNJJ@Z 1010b920 f   D3DPaints.obj
 0001:0010abf0       ?D3DPaints_SetTexturePaint@@YAJPAVD3DContext@@E_JENNNNNN@Z 1010bbf0 f   D3DPaints.obj
 0001:0010ae90       ?D3DPaints_SetLinearGradientPaint@@YAJPAVD3DContext@@PAU_D3DSDOps@@EEJJMMMPAX2@Z 1010be90 f   D3DPaints.obj
 0001:0010b360       ?D3DPaints_SetRadialGradientPaint@@YAJPAVD3DContext@@PAU_D3DSDOps@@EEJJMMMMMMMPAX2@Z 1010c360 f   D3DPaints.obj
 0001:0010b570       ?D3DRenderer_DrawLine@@YAJPAVD3DContext@@JJJJ@Z 1010c570 f   D3DRenderer.obj
 0001:0010b5c0       ?D3DRenderer_DrawRect@@YAJPAVD3DContext@@JJJJ@Z 1010c5c0 f   D3DRenderer.obj
 0001:0010b620       ?D3DRenderer_FillRect@@YAJPAVD3DContext@@JJJJ@Z 1010c620 f   D3DRenderer.obj
 0001:0010b680       ?D3DRenderer_DrawPoly@@YAJPAVD3DContext@@JEJJPAJ1@Z 1010c680 f   D3DRenderer.obj
 0001:0010b6f0       ?D3DRenderer_DrawScanlines@@YAJPAVD3DContext@@JPAJ@Z 1010c6f0 f   D3DRenderer.obj
 0001:0010b740       ?D3DRenderer_FillSpans@@YAJPAVD3DContext@@JPAJ@Z 1010c740 f   D3DRenderer.obj
 0001:0010b780       ?D3DRenderer_FillParallelogram@@YAJPAVD3DContext@@MMMMMM@Z 1010c780 f   D3DRenderer.obj
 0001:0010b800       ?D3DRenderer_DrawParallelogram@@YAJPAVD3DContext@@MMMMMMMM@Z 1010c800 f   D3DRenderer.obj
 0001:0010ba40       ?D3DRenderer_FillAAParallelogram@@YAJPAVD3DContext@@MMMMMM@Z 1010ca40 f   D3DRenderer.obj
 0001:0010bb10       ?D3DRenderer_DrawAAParallelogram@@YAJPAVD3DContext@@MMMMMMMM@Z 1010cb10 f   D3DRenderer.obj
 0001:0010bd10       _Java_sun_java2d_d3d_D3DRenderer_drawPoly@32 1010cd10 f   D3DRenderer.obj
 0001:0010bde0       ?D3DRQ_SwapBuffers@@YAJPAVD3DPipelineManager@@PAU_D3DSDOps@@HHHH@Z 1010cde0 f   D3DRenderQueue.obj
 0001:0010c120       ?D3DRQ_MarkLostIfNeeded@@YAJJPAU_D3DSDOps@@@Z 1010d120 f   D3DRenderQueue.obj
 0001:0010c1d0       ?D3DRQ_FlushBuffer@@YAXPAX@Z 1010d1d0 f   D3DRenderQueue.obj
 0001:0010e4a0       ?D3DRQ_GetCurrentContext@@YAPAVD3DContext@@XZ 1010f4a0 f   D3DRenderQueue.obj
 0001:0010e4b0       ?D3DRQ_GetCurrentDestination@@YAPAU_D3DSDOps@@XZ 1010f4b0 f   D3DRenderQueue.obj
 0001:0010e4c0       ?D3DRQ_ResetCurrentContextAndDestination@@YAXXZ 1010f4c0 f   D3DRenderQueue.obj
 0001:0010e4f0       _Java_sun_java2d_d3d_D3DRenderQueue_flushBuffer@24 1010f4f0 f   D3DRenderQueue.obj
 0001:0010e580       ?GetSwapChain@D3DResource@@QAEPAUIDirect3DSwapChain9@@XZ 1010f580 f i D3DRenderQueue.obj
 0001:0010e580       ?isBatchingEnabled@BatchDestructionManager@GDIHashtable@@QAEHXZ 1010f580 f i GDIHashtable.obj
 0001:0010e5a0       ?Init@D3DResource@@IAEXPAUIDirect3DResource9@@PAUIDirect3DSwapChain9@@@Z 1010f5a0 f   D3DResourceManager.obj
 0001:0010e820       ??1D3DResource@@MAE@XZ     1010f820 f   D3DResourceManager.obj
 0001:0010e880       ?SetSDOps@D3DResource@@QAEXPAU_D3DSDOps@@@Z 1010f880 f   D3DResourceManager.obj
 0001:0010e8d0       ?IsDefaultPool@D3DResource@@UAEHXZ 1010f8d0 f   D3DResourceManager.obj
 0001:0010e900       ?Release@D3DResource@@MAEXXZ 1010f900 f   D3DResourceManager.obj
 0001:0010ead0       ?CreateInstance@D3DResourceManager@@SAJPAVD3DContext@@PAPAV1@@Z 1010fad0 f   D3DResourceManager.obj
 0001:0010ebb0       ??0D3DResourceManager@@AAE@XZ 1010fbb0 f   D3DResourceManager.obj
 0001:0010ebf0       ?Init@D3DResourceManager@@QAEJPAVD3DContext@@@Z 1010fbf0 f   D3DResourceManager.obj
 0001:0010ec60       ??1D3DResourceManager@@QAE@XZ 1010fc60 f   D3DResourceManager.obj
 0001:0010eca0       ?ReleaseAll@D3DResourceManager@@QAEXXZ 1010fca0 f   D3DResourceManager.obj
 0001:0010ed70       ?ReleaseDefPoolResources@D3DResourceManager@@QAEXXZ 1010fd70 f   D3DResourceManager.obj
 0001:0010eda0       ?ReleaseResource@D3DResourceManager@@QAEJPAVIManagedResource@@@Z 1010fda0 f   D3DResourceManager.obj
 0001:0010ee60       ?AddResource@D3DResourceManager@@QAEJPAVIManagedResource@@@Z 1010fe60 f   D3DResourceManager.obj
 0001:0010eee0       ?CreateTexture@D3DResourceManager@@QAEJIIHHPAW4_D3DFORMAT@@KPAPAVD3DResource@@@Z 1010fee0 f   D3DResourceManager.obj
 0001:0010f180       ?CreateRTSurface@D3DResourceManager@@QAEJIIHHPAW4_D3DFORMAT@@PAPAVD3DResource@@@Z 10110180 f   D3DResourceManager.obj
 0001:0010f340       ?CreateOSPSurface@D3DResourceManager@@AAEJIIW4_D3DFORMAT@@PAPAVD3DResource@@@Z 10110340 f   D3DResourceManager.obj
 0001:0010f4e0       ?CreateSwapChain@D3DResourceManager@@QAEJPAUHWND__@@IIIW4_D3DSWAPEFFECT@@IPAPAVD3DResource@@@Z 101104e0 f   D3DResourceManager.obj
 0001:0010f780       ?GetMaskTexture@D3DResourceManager@@QAEJPAPAVD3DResource@@@Z 10110780 f   D3DResourceManager.obj
 0001:0010f8f0       ?GetBlitTexture@D3DResourceManager@@QAEJPAPAVD3DResource@@@Z 101108f0 f   D3DResourceManager.obj
 0001:0010f9b0       ?GetGradientTexture@D3DResourceManager@@QAEJPAPAVD3DResource@@@Z 101109b0 f   D3DResourceManager.obj
 0001:0010fa70       ?GetMultiGradientTexture@D3DResourceManager@@QAEJPAPAVD3DResource@@@Z 10110a70 f   D3DResourceManager.obj
 0001:0010fb30       ?GetLookupOpLutTexture@D3DResourceManager@@QAEJPAPAVD3DResource@@@Z 10110b30 f   D3DResourceManager.obj
 0001:0010fbf0       ?GetBlitRTTexture@D3DResourceManager@@QAEJIIW4_D3DFORMAT@@PAPAVD3DResource@@@Z 10110bf0 f   D3DResourceManager.obj
 0001:0010fda0       ?GetBlitOSPSurface@D3DResourceManager@@QAEJIIW4_D3DFORMAT@@PAPAVD3DResource@@@Z 10110da0 f   D3DResourceManager.obj
 0001:0010fed0       ?GetLockableRTSurface@D3DResourceManager@@QAEJIIW4_D3DFORMAT@@PAPAVD3DResource@@@Z 10110ed0 f   D3DResourceManager.obj
 0001:00110020       ?GetCachedDestTexture@D3DResourceManager@@QAEJW4_D3DFORMAT@@PAPAVD3DResource@@@Z 10111020 f   D3DResourceManager.obj
 0001:00110190       ?GetStockTextureResource@D3DResourceManager@@AAEJIIHHPAW4_D3DFORMAT@@KPAPAVD3DResource@@@Z 10111190 f   D3DResourceManager.obj
 0001:00110200       ??1IManagedResource@@MAE@XZ 10111200 f i D3DResourceManager.obj
 0001:00110230       ??_GIManagedResource@@MAEPAXI@Z 10111230 f i D3DResourceManager.obj
 0001:00110230       ??_EIManagedResource@@MAEPAXI@Z 10111230 f i D3DResourceManager.obj
 0001:00110260       ??_ED3DResource@@MAEPAXI@Z 10111260 f i D3DResourceManager.obj
 0001:00110260       ??_GD3DResource@@MAEPAXI@Z 10111260 f i D3DResourceManager.obj
 0001:00110290       ??0D3DResource@@QAE@PAUIDirect3DResource9@@@Z 10111290 f i D3DResourceManager.obj
 0001:001102f0       ??0IManagedResource@@IAE@XZ 101112f0 f i D3DResourceManager.obj
 0001:00110320       ??0D3DResource@@QAE@PAUIDirect3DSwapChain9@@@Z 10111320 f i D3DResourceManager.obj
 0001:00110380       ?D3DSD_SetNativeDimensions@@YAXPAUJNIEnv_@@PAU_D3DSDOps@@@Z 10111380 f   D3DSurfaceData.obj
 0001:00110460       ?D3DSD_Flush@@YAXPAX@Z     10111460 f   D3DSurfaceData.obj
 0001:00110520       ?D3DSD_MarkLost@@YAXPAX@Z  10111520 f   D3DSurfaceData.obj
 0001:001105f0       ?D3DSD_Dispose@@YAXPAUJNIEnv_@@PAU_SurfaceDataOps@@@Z 101115f0 f   D3DSurfaceData.obj
 0001:00110660       ?D3DSD_Lock@@YAJPAUJNIEnv_@@PAU_SurfaceDataOps@@PAUSurfaceDataRasInfo@@J@Z 10111660 f   D3DSurfaceData.obj
 0001:00110680       ?D3DSD_GetRasInfo@@YAXPAUJNIEnv_@@PAU_SurfaceDataOps@@PAUSurfaceDataRasInfo@@@Z 10111680 f   D3DSurfaceData.obj
 0001:001106a0       ?D3DSD_Unlock@@YAXPAUJNIEnv_@@PAU_SurfaceDataOps@@PAUSurfaceDataRasInfo@@@Z 101116a0 f   D3DSurfaceData.obj
 0001:001106c0       _Java_sun_java2d_d3d_D3DSurfaceData_initOps@20 101116c0 f   D3DSurfaceData.obj
 0001:001107a0       _Java_sun_java2d_d3d_D3DSurfaceData_initTexture@24 101117a0 f   D3DSurfaceData.obj
 0001:00110970       _Java_sun_java2d_d3d_D3DSurfaceData_initRTSurface@20 10111970 f   D3DSurfaceData.obj
 0001:00110b20       _Java_sun_java2d_d3d_D3DSurfaceData_initFlipBackbuffer@36 10111b20 f   D3DSurfaceData.obj
 0001:00110e20       _Java_sun_java2d_d3d_D3DSurfaceData_dbGetPixelNative@24 10111e20 f   D3DSurfaceData.obj
 0001:00111080       _Java_sun_java2d_d3d_D3DSurfaceData_dbSetPixelNative@28 10112080 f   D3DSurfaceData.obj
 0001:001112c0       _Java_sun_java2d_d3d_D3DSurfaceData_getNativeResourceNative@20 101122c0 f   D3DSurfaceData.obj
 0001:00111410       _Java_sun_java2d_d3d_D3DSurfaceData_updateWindowAccelImpl@32 10112410 f   D3DSurfaceData.obj
 0001:001116f0       ?D3DTR_EnableGlyphVertexCache@@YAJPAVD3DContext@@@Z 101126f0 f   D3DTextRenderer.obj
 0001:00111780       ?D3DTR_DisableGlyphVertexCache@@YAJPAVD3DContext@@@Z 10112780 f   D3DTextRenderer.obj
 0001:001117b0       ?D3DTR_DrawGlyphList@@YAJPAVD3DContext@@PAU_D3DSDOps@@JEEEJMMPAE2@Z 101127b0 f   D3DTextRenderer.obj
 0001:00112fd0       _Java_sun_java2d_d3d_D3DTextRenderer_drawGlyphList@44 10113fd0 f   D3DTextRenderer.obj
 0001:001130e0       ?pow@@YAMMM@Z              101140e0 f i D3DTextRenderer.obj
 0001:00113100       _powf                      10114100 f i D3DTextRenderer.obj
 0001:00113130       ?CreateInstance@D3DVertexCacher@@SAJPAVD3DContext@@PAPAV1@@Z 10114130 f   D3DVertexCacher.obj
 0001:00113210       ??0D3DVertexCacher@@AAE@XZ 10114210 f   D3DVertexCacher.obj
 0001:00113240       ?Init@D3DVertexCacher@@QAEJPAVD3DContext@@@Z 10114240 f   D3DVertexCacher.obj
 0001:001134a0       ?ReleaseDefPoolResources@D3DVertexCacher@@QAEXXZ 101144a0 f   D3DVertexCacher.obj
 0001:001134f0       ?DrawLine@D3DVertexCacher@@QAEJHHHH@Z 101144f0 f   D3DVertexCacher.obj
 0001:001137d0       ?DrawPoly@D3DVertexCacher@@QAEJJEJJPAJ0@Z 101147d0 f   D3DVertexCacher.obj
 0001:00113b30       ?DrawScanlines@D3DVertexCacher@@QAEJJPAJ@Z 10114b30 f   D3DVertexCacher.obj
 0001:00113cd0       ?FillSpans@D3DVertexCacher@@QAEJJPAJ@Z 10114cd0 f   D3DVertexCacher.obj
 0001:00113ff0       ?DrawRect@D3DVertexCacher@@QAEJHHHH@Z 10114ff0 f   D3DVertexCacher.obj
 0001:00114420       ?FillRect@D3DVertexCacher@@QAEJHHHH@Z 10115420 f   D3DVertexCacher.obj
 0001:001147a0       ?FillParallelogram@D3DVertexCacher@@QAEJMMMMMM@Z 101157a0 f   D3DVertexCacher.obj
 0001:00114b60       ?FillParallelogramAA@D3DVertexCacher@@QAEJMMMMMM@Z 10115b60 f   D3DVertexCacher.obj
 0001:00115230       ?DrawParallelogramAA@D3DVertexCacher@@QAEJMMMMMMMMMMMM@Z 10116230 f   D3DVertexCacher.obj
 0001:00115c00       ?DrawTexture@D3DVertexCacher@@QAEJMMMMMMMM@Z 10116c00 f   D3DVertexCacher.obj
 0001:00115fa0       ?DrawTexture@D3DVertexCacher@@QAEJMMMMMMMMMMMM@Z 10116fa0 f   D3DVertexCacher.obj
 0001:00116450       ?Render@D3DVertexCacher@@QAEJH@Z 10117450 f   D3DVertexCacher.obj
 0001:001166a0       ?EnsureCapacity@D3DVertexCacher@@AAEJW4_D3DPRIMITIVETYPE@@I@Z 101176a0 f   D3DVertexCacher.obj
 0001:001167e0       ?ceil@@YAMM@Z              101177e0 f i D3DVertexCacher.obj
 0001:00116800       _ceilf                     10117800 f i D3DVertexCacher.obj
 0001:00116820       _Java_sun_awt_shell_Win32ShellFolder2_initIDs@8 10117820 f   ShellFolder2.obj
 0001:00116c00       _Java_sun_awt_shell_Win32ShellFolderManager2_initializeCom@8 10117c00 f   ShellFolder2.obj
 0001:00116c40       _Java_sun_awt_shell_Win32ShellFolderManager2_uninitializeCom@8 10117c40 f   ShellFolder2.obj
 0001:00116c50       _Java_sun_awt_shell_Win32ShellFolder2_getIShellIcon@16 10117c50 f   ShellFolder2.obj
 0001:00116cb0       _Java_sun_awt_shell_Win32ShellFolder2_initDesktop@8 10117cb0 f   ShellFolder2.obj
 0001:00116d50       _Java_sun_awt_shell_Win32ShellFolder2_initSpecial@20 10117d50 f   ShellFolder2.obj
 0001:00116e20       _Java_sun_awt_shell_Win32ShellFolder2_getNextPIDLEntry@16 10117e20 f   ShellFolder2.obj
 0001:00116e90       _Java_sun_awt_shell_Win32ShellFolder2_copyFirstPIDLEntry@16 10117e90 f   ShellFolder2.obj
 0001:00116f10       _Java_sun_awt_shell_Win32ShellFolder2_combinePIDLs@24 10117f10 f   ShellFolder2.obj
 0001:00116ff0       _Java_sun_awt_shell_Win32ShellFolder2_releasePIDL@16 10117ff0 f   ShellFolder2.obj
 0001:00117020       _Java_sun_awt_shell_Win32ShellFolder2_releaseIShellFolder@16 10118020 f   ShellFolder2.obj
 0001:00117040       _Java_sun_awt_shell_Win32ShellFolder2_compareIDs@32 10118040 f   ShellFolder2.obj
 0001:00117070       _Java_sun_awt_shell_Win32ShellFolder2_getAttributes0@28 10118070 f   ShellFolder2.obj
 0001:001170c0       _Java_sun_awt_shell_Win32ShellFolder2_getFileSystemPath0@12 101180c0 f   ShellFolder2.obj
 0001:00117140       _Java_sun_awt_shell_Win32ShellFolder2_getEnumObjects@24 10118140 f   ShellFolder2.obj
 0001:001171a0       _Java_sun_awt_shell_Win32ShellFolder2_getNextChild@16 101181a0 f   ShellFolder2.obj
 0001:001171e0       _Java_sun_awt_shell_Win32ShellFolder2_releaseEnumObjects@16 101181e0 f   ShellFolder2.obj
 0001:00117210       _Java_sun_awt_shell_Win32ShellFolder2_bindToObject@24 10118210 f   ShellFolder2.obj
 0001:00117270       _Java_sun_awt_shell_Win32ShellFolder2_getLinkLocation@28 10118270 f   ShellFolder2.obj
 0001:00117590       _Java_sun_awt_shell_Win32ShellFolder2_parseDisplayName0@20 10118590 f   ShellFolder2.obj
 0001:00117690       _Java_sun_awt_shell_Win32ShellFolder2_getDisplayNameOf@28 10118690 f   ShellFolder2.obj
 0001:001177b0       _Java_sun_awt_shell_Win32ShellFolder2_getFolderType@16 101187b0 f   ShellFolder2.obj
 0001:00117810       _Java_sun_awt_shell_Win32ShellFolder2_getExecutableType@12 10118810 f   ShellFolder2.obj
 0001:00117890       _Java_sun_awt_shell_Win32ShellFolder2_getIcon@16 10118890 f   ShellFolder2.obj
 0001:00117920       _Java_sun_awt_shell_Win32ShellFolder2_getIconIndex@24 10118920 f   ShellFolder2.obj
 0001:00117980       _Java_sun_awt_shell_Win32ShellFolder2_extractIcon@28 10118980 f   ShellFolder2.obj
 0001:00117b80       _Java_sun_awt_shell_Win32ShellFolder2_disposeIcon@16 10118b80 f   ShellFolder2.obj
 0001:00117ba0       _Java_sun_awt_shell_Win32ShellFolder2_getIconBits@20 10118ba0 f   ShellFolder2.obj
 0001:00117d90       _Java_sun_awt_shell_Win32ShellFolder2_getStandardViewButton0@12 10118d90 f   ShellFolder2.obj
 0001:00117e50       _Java_sun_awt_shell_Win32ShellFolder2_getSystemIcon@12 10118e50 f   ShellFolder2.obj
 0001:00117e70       _Java_sun_awt_shell_Win32ShellFolder2_getIconResource@28 10118e70 f   ShellFolder2.obj
 0001:00117ef0       _Java_sun_awt_shell_Win32ShellFolder2_doGetColumnInfo@16 10118ef0 f   ShellFolder2.obj
 0001:00118330       _Java_sun_awt_shell_Win32ShellFolder2_doGetColumnValue@28 10119330 f   ShellFolder2.obj
 0001:001184d0       _Java_sun_awt_shell_Win32ShellFolder2_compareIDsByColumn@36 101194d0 f   ShellFolder2.obj
 0001:00118520       ?InitThemes@@YAHXZ         10119520 f   ThemeReader.obj
 0001:001188d0       _Java_sun_awt_windows_ThemeReader_isThemed@8 101198d0 f   ThemeReader.obj
 0001:00118900       _Java_sun_awt_windows_ThemeReader_openTheme@12 10119900 f   ThemeReader.obj
 0001:00118950       _Java_sun_awt_windows_ThemeReader_setWindowTheme@12 10119950 f   ThemeReader.obj
 0001:001189d0       _Java_sun_awt_windows_ThemeReader_closeTheme@16 101199d0 f   ThemeReader.obj
 0001:00118a00       _Java_sun_awt_windows_ThemeReader_paintBackground@48 10119a00 f   ThemeReader.obj
 0001:00118f50       ?newInsets@@YAPAV_jobject@@PAUJNIEnv_@@JJJJ@Z 10119f50 f   ThemeReader.obj
 0001:00119000       _Java_sun_awt_windows_ThemeReader_getThemeMargins@28 1011a000 f   ThemeReader.obj
 0001:00119080       _Java_sun_awt_windows_ThemeReader_isThemePartDefined@24 1011a080 f   ThemeReader.obj
 0001:001190b0       _Java_sun_awt_windows_ThemeReader_getColor@28 1011a0b0 f   ThemeReader.obj
 0001:001191d0       _Java_sun_awt_windows_ThemeReader_getInt@28 1011a1d0 f   ThemeReader.obj
 0001:00119220       _Java_sun_awt_windows_ThemeReader_getEnum@28 1011a220 f   ThemeReader.obj
 0001:00119270       _Java_sun_awt_windows_ThemeReader_getBoolean@28 1011a270 f   ThemeReader.obj
 0001:001192c0       _Java_sun_awt_windows_ThemeReader_getSysBoolean@20 1011a2c0 f   ThemeReader.obj
 0001:001192f0       _Java_sun_awt_windows_ThemeReader_getPoint@28 1011a2f0 f   ThemeReader.obj
 0001:001193f0       _Java_sun_awt_windows_ThemeReader_getPosition@28 1011a3f0 f   ThemeReader.obj
 0001:00119510       _Java_sun_awt_windows_ThemeReader_getPartSize@24 1011a510 f   ThemeReader.obj
 0001:00119610       _Java_sun_awt_windows_ThemeReader_getThemeBackgroundContentMargins@32 1011a610 f   ThemeReader.obj
 0001:00119690       _Java_sun_awt_windows_ThemeReader_getThemeTransitionDuration@32 1011a690 f   ThemeReader.obj
 0001:001196f0       _Java_sun_awt_windows_ThemeReader_isGetThemeTransitionDurationDefined@8 1011a6f0 f   ThemeReader.obj
 0001:00119710       ?InitFields@ComCtl32Util@@AAEXXZ 1011a710 f   ComCtl32Util.obj
 0001:00119760       ??0ComCtl32Util@@AAE@XZ    1011a760 f   ComCtl32Util.obj
 0001:00119780       ??1ComCtl32Util@@AAE@XZ    1011a780 f   ComCtl32Util.obj
 0001:001197b0       ?InitLibraries@ComCtl32Util@@QAEXXZ 1011a7b0 f   ComCtl32Util.obj
 0001:00119880       ?FreeLibraries@ComCtl32Util@@QAEXXZ 1011a880 f   ComCtl32Util.obj
 0001:001198b0       ?SubclassHWND@ComCtl32Util@@QAEP6GJPAUHWND__@@IIJ@Z0P6GJ0IIJ@Z@Z 1011a8b0 f   ComCtl32Util.obj
 0001:00119920       ?UnsubclassHWND@ComCtl32Util@@QAEXPAUHWND__@@P6GJ0IIJ@Z1@Z 1011a920 f   ComCtl32Util.obj
 0001:001199a0       ?DefWindowProcW@ComCtl32Util@@QAEJP6GJPAUHWND__@@IIJ@Z0IIJ@Z 1011a9a0 f   ComCtl32Util.obj
 0001:00119a40       ?SharedWindowProc@ComCtl32Util@@CGJPAUHWND__@@IIJIK@Z 1011aa40 f   ComCtl32Util.obj
 0001:00119ad0       ?InitCommonControls@ComCtl32Util@@AAEXXZ 1011aad0 f   ComCtl32Util.obj
 0001:00119b10       _Java_java_awt_Button_initIDs@8 1011ab10 f   initIDs.obj
 0001:00119b20       _Java_java_awt_FileDialog_initIDs@8 1011ab20 f   initIDs.obj
 0001:00119b30       _Java_java_awt_TextField_initIDs@8 1011ab30 f   initIDs.obj
 0001:00119b40       ?CommDlgExtendedError@AwtCommDialog@@SAKXZ 1011ab40 f   awt_dlls.obj
 0001:00119b60       ?PrintDlgW@AwtCommDialog@@SAHPAUtagPDW@@@Z 1011ab60 f   awt_dlls.obj
 0001:00119b80       ?PageSetupDlgW@AwtCommDialog@@SAHPAUtagPSDW@@@Z 1011ab80 f   awt_dlls.obj
 0001:00119ba0       ?load_comdlg_procs@AwtCommDialog@@CAXXZ 1011aba0 f   awt_dlls.obj
 0001:00119d70       ?load_shell_procs@@YAXXZ   1011ad70 f   awt_dlls.obj
 0001:00119e20       ?load_user_procs@@YAXXZ    1011ae20 f   awt_dlls.obj
 0001:00119f00       ?load_version_procs@@YAXXZ 1011af00 f   awt_dlls.obj
 0001:00119fc0       ?load_rsrc32_procs@@YAXXZ  1011afc0 f   awt_dlls.obj
 0001:0011a1a0       ?load_rich_edit_library@@YAXXZ 1011b1a0 f   awt_dlls.obj
 0001:0011a670       ?PlaySoundWrapper@AwtWinMM@@SAHPBGPAUHINSTANCE__@@K@Z 1011b670 f   awt_dlls.obj
 0001:0011a6a0       ?load_winmm_procs@AwtWinMM@@CAXXZ 1011b6a0 f   awt_dlls.obj
 0001:0011a740       ?load_dwmapi_procs@@YAXXZ  1011b740 f   awt_dlls.obj
 0001:0011a7f0       ?GetExtendedErrorWrapper@AwtCommDialog@@CAKXZ 1011b7f0 f i awt_dlls.obj
 0001:0011a800       ?PageSetupDlgWrapper@AwtCommDialog@@CAHPAUtagPSDW@@@Z 1011b800 f i awt_dlls.obj
 0001:0011a810       ?LoadUnicows@UnicowsLoader@@SGPAUHINSTANCE__@@XZ 1011b810 f   UnicowsLoader.obj
 0001:0011a8f0       ?GetModuleHandleW@UnicowsLoader@@SAPAUHINSTANCE__@@XZ 1011b8f0 f   UnicowsLoader.obj
 0001:0011a900       ?DevModeA2DevModeW@UnicowsLoader@@CAXPBU_devicemodeA@@PAU_devicemodeW@@@Z 1011b900 f   UnicowsLoader.obj
 0001:0011ab40       ?PrinterInfo1A2W@UnicowsLoader@@CAXQAU_PRINTER_INFO_1A@@PAU_PRINTER_INFO_1W@@K@Z 1011bb40 f   UnicowsLoader.obj
 0001:0011abf0       ?PrinterInfo2A2W@UnicowsLoader@@CAXQAU_PRINTER_INFO_2A@@PAU_PRINTER_INFO_2W@@K@Z 1011bbf0 f   UnicowsLoader.obj
 0001:0011adb0       ?PrinterInfo5A2W@UnicowsLoader@@CAXQAU_PRINTER_INFO_5A@@PAU_PRINTER_INFO_5W@@K@Z 1011bdb0 f   UnicowsLoader.obj
 0001:0011ae40       ?PrinterInfoA2W@UnicowsLoader@@CAXQAXPAXKK@Z 1011be40 f   UnicowsLoader.obj
 0001:0011aeb0       ?StringA2W@UnicowsLoader@@CAXPBDPAPAG1@Z 1011beb0 f   UnicowsLoader.obj
 0001:0011af20       ?GetPrinterWImpl@UnicowsLoader@@SGHPAXKPAEKPAK@Z 1011bf20 f   UnicowsLoader.obj
 0001:0011b000       ?EnumPrintersWImpl@UnicowsLoader@@SGHKPAGKPAEKPAK2@Z 1011c000 f   UnicowsLoader.obj
 0001:0011b150       ?_wfullpathImpl@UnicowsLoader@@SAPAGPAGPBGI@Z 1011c150 f   UnicowsLoader.obj
 0001:0011b230       _Java_sun_awt_DefaultMouseInfoPeer_isWindowUnderMouse@12 1011c230 f   MouseInfo.obj
 0001:0011b340       _Java_sun_awt_DefaultMouseInfoPeer_fillPointWithCoords@12 1011c340 f   MouseInfo.obj
 0001:0011b434       _JNU_ThrowOutOfMemoryError@8 1011c434 f   java:java.dll
 0001:0011b43a       _JNU_ThrowInternalError@8  1011c43a f   java:java.dll
 0001:0011b440       _JNU_ThrowNullPointerException@8 1011c440 f   java:java.dll
 0001:0011b446       _JNU_ThrowArrayIndexOutOfBoundsException@8 1011c446 f   java:java.dll
 0001:0011b44c       _JNU_CallMethodByName      1011c44c f   java:java.dll
 0001:0011b452       _JNU_ThrowNoSuchMethodError@8 1011c452 f   java:java.dll
 0001:0011b458       _JNU_ReleaseStringPlatformChars@12 1011c458 f   java:java.dll
 0001:0011b45e       _JNU_GetStringPlatformChars@12 1011c45e f   java:java.dll
 0001:0011b464       _JNU_GetStaticFieldByName@20 1011c464 f   java:java.dll
 0001:0011b46a       _JNU_NewStringPlatform@8   1011c46a f   java:java.dll
 0001:0011b470       _jio_snprintf              1011c470 f   java:java.dll
 0001:0011b476       _JNU_SetFieldByName        1011c476 f   java:java.dll
 0001:0011b47c       _JNU_CallStaticMethodByName 1011c47c f   java:java.dll
 0001:0011b482       _JNU_GetEnv@8              1011c482 f   java:java.dll
 0001:0011b488       _JNU_ThrowByName@12        1011c488 f   java:java.dll
 0001:0011b48e       _JNU_ThrowIOException@8    1011c48e f   java:java.dll
 0001:0011b494       _JNU_NewObjectByName       1011c494 f   java:java.dll
 0001:0011b49a       _JNU_GetFieldByName@20     1011c49a f   java:java.dll
 0001:0011b4a0       _JNU_ClassString@4         1011c4a0 f   java:java.dll
 0001:0011b4a6       _JNU_IsInstanceOfByName@12 1011c4a6 f   java:java.dll
 0001:0011b4ac       _getEncodingFromLangID     1011c4ac f   java:java.dll
 0001:0011b4b2       _getJavaIDFromLangID       1011c4b2 f   java:java.dll
 0001:0011b4b8       _JNU_CallMethodByNameV@24  1011c4b8 f   java:java.dll
 0001:0011b4be       _JNU_ToString@8            1011c4be f   java:java.dll
 0001:0011b4c4       _JNU_ThrowIllegalArgumentException@8 1011c4c4 f   java:java.dll
 0001:0011b4ca       _kernel32_LoadLibraryW_Thunk@0 1011c4ca f   unicows:thunk_kernel32_LoadLibraryW.obj
 0001:0011b4ef       _kernel32_GetProcAddress_Thunk@0 1011c4ef f   unicows:thunk_kernel32_GetProcAddress.obj
 0001:0011b514       _user32_CreateWindowExW_Thunk@0 1011c514 f   unicows:thunk_user32_CreateWindowExW.obj
 0001:0011b539       _user32_RegisterClassW_Thunk@0 1011c539 f   unicows:thunk_user32_RegisterClassW.obj
 0001:0011b55e       _user32_DefWindowProcW_Thunk@0 1011c55e f   unicows:thunk_user32_DefWindowProcW.obj
 0001:0011b583       _kernel32_GetModuleHandleW_Thunk@0 1011c583 f   unicows:thunk_kernel32_GetModuleHandleW.obj
 0001:0011b5a8       _user32_PostMessageW_Thunk@0 1011c5a8 f   unicows:thunk_user32_PostMessageW.obj
 0001:0011b5cd       _kernel32_lstrcpynW_Thunk@0 1011c5cd f   unicows:thunk_kernel32_lstrcpynW.obj
 0001:0011b5f2       _kernel32_lstrlenW_Thunk@0 1011c5f2 f   unicows:thunk_kernel32_lstrlenW.obj
 0001:0011b617       _kernel32_GetProfileStringW_Thunk@0 1011c617 f   unicows:thunk_kernel32_GetProfileStringW.obj
 0001:0011b63c       _winspool_EnumPrintersW_Thunk@0 1011c63c f   unicows:thunk_winspool_EnumPrintersW.obj
 0001:0011b661       _DirectCall_EnumPrintersW@0 1011c661 f   unicows:thunk_winspool_EnumPrintersW.obj
 0001:0011b661       _EnumPrintersW@28          1011c661 f   unicows:thunk_winspool_EnumPrintersW.obj
 0001:0011b667       _kernel32_GetVersionExW_Thunk@0 1011c667 f   unicows:thunk_kernel32_GetVersionExW.obj
 0001:0011b68c       _winspool_OpenPrinterW_Thunk@0 1011c68c f   unicows:thunk_winspool_OpenPrinterW.obj
 0001:0011b6b1       _OpenPrinterW@12           1011c6b1 f   unicows:thunk_winspool_OpenPrinterW.obj
 0001:0011b6b1       _DirectCall_OpenPrinterW@0 1011c6b1 f   unicows:thunk_winspool_OpenPrinterW.obj
 0001:0011b6b7       _gdi32_ResetDCW_Thunk@0    1011c6b7 f   unicows:thunk_gdi32_ResetDCW.obj
 0001:0011b6dc       _gdi32_CreateDCW_Thunk@0   1011c6dc f   unicows:thunk_gdi32_CreateDCW.obj
 0001:0011b701       _winspool_DeviceCapabilitiesW_Thunk@0 1011c701 f   unicows:thunk_winspool_DeviceCapabilitiesW.obj
 0001:0011b726       _winspool_GetPrinterW_Thunk@0 1011c726 f   unicows:thunk_winspool_GetPrinterW.obj
 0001:0011b74b       _DirectCall_GetPrinterW@0  1011c74b f   unicows:thunk_winspool_GetPrinterW.obj
 0001:0011b74b       _GetPrinterW@20            1011c74b f   unicows:thunk_winspool_GetPrinterW.obj
 0001:0011b751       _winspool_StartDocPrinterW_Thunk@0 1011c751 f   unicows:thunk_winspool_StartDocPrinterW.obj
 0001:0011b776       _DirectCall_StartDocPrinterW@0 1011c776 f   unicows:thunk_winspool_StartDocPrinterW.obj
 0001:0011b776       _StartDocPrinterW@12       1011c776 f   unicows:thunk_winspool_StartDocPrinterW.obj
 0001:0011b77c       _advapi32_RegCreateKeyExW_Thunk@0 1011c77c f   unicows:thunk_advapi32_RegCreateKeyExW.obj
 0001:0011b7a1       _advapi32_RegEnumKeyExW_Thunk@0 1011c7a1 f   unicows:thunk_advapi32_RegEnumKeyExW.obj
 0001:0011b7c6       _advapi32_RegQueryValueExW_Thunk@0 1011c7c6 f   unicows:thunk_advapi32_RegQueryValueExW.obj
 0001:0011b7eb       _advapi32_RegSetValueExW_Thunk@0 1011c7eb f   unicows:thunk_advapi32_RegSetValueExW.obj
 0001:0011b810       _advapi32_RegDeleteKeyW_Thunk@0 1011c810 f   unicows:thunk_advapi32_RegDeleteKeyW.obj
 0001:0011b835       _advapi32_RegOpenKeyExW_Thunk@0 1011c835 f   unicows:thunk_advapi32_RegOpenKeyExW.obj
 0001:0011b85a       _kernel32_FormatMessageW_Thunk@0 1011c85a f   unicows:thunk_kernel32_FormatMessageW.obj
 0001:0011b87f       _user32_GetWindowLongW_Thunk@0 1011c87f f   unicows:thunk_user32_GetWindowLongW.obj
 0001:0011b8a4       _user32_SetWindowLongW_Thunk@0 1011c8a4 f   unicows:thunk_user32_SetWindowLongW.obj
 0001:0011b8c9       _user32_SendMessageW_Thunk@0 1011c8c9 f   unicows:thunk_user32_SendMessageW.obj
 0001:0011b8ee       _user32_GetPropW_Thunk@0   1011c8ee f   unicows:thunk_user32_GetPropW.obj
 0001:0011b913       _user32_SetWindowTextW_Thunk@0 1011c913 f   unicows:thunk_user32_SetWindowTextW.obj
 0001:0011b938       _user32_GetWindowTextLengthW_Thunk@0 1011c938 f   unicows:thunk_user32_GetWindowTextLengthW.obj
 0001:0011b95d       _user32_GetWindowTextW_Thunk@0 1011c95d f   unicows:thunk_user32_GetWindowTextW.obj
 0001:0011b982       _gdi32_GetTextMetricsW_Thunk@0 1011c982 f   unicows:thunk_gdi32_GetTextMetricsW.obj
 0001:0011b9a7       _user32_EnumClipboardFormats_Thunk@0 1011c9a7 f   unicows:thunk_user32_EnumClipboardFormats.obj
 0001:0011b9cc       _user32_GetClipboardData_Thunk@0 1011c9cc f   unicows:thunk_user32_GetClipboardData.obj
 0001:0011b9f1       _user32_RemovePropW_Thunk@0 1011c9f1 f   unicows:thunk_user32_RemovePropW.obj
 0001:0011ba16       _user32_RegisterClassExW_Thunk@0 1011ca16 f   unicows:thunk_user32_RegisterClassExW.obj
 0001:0011ba3b       _user32_GetClassInfoExW_Thunk@0 1011ca3b f   unicows:thunk_user32_GetClassInfoExW.obj
 0001:0011ba60       _user32_UnregisterClassW_Thunk@0 1011ca60 f   unicows:thunk_user32_UnregisterClassW.obj
 0001:0011ba85       _user32_MapVirtualKeyW_Thunk@0 1011ca85 f   unicows:thunk_user32_MapVirtualKeyW.obj
 0001:0011baaa       _user32_SetPropW_Thunk@0   1011caaa f   unicows:thunk_user32_SetPropW.obj
 0001:0011bacf       _user32_SystemParametersInfoW_Thunk@0 1011cacf f   unicows:thunk_user32_SystemParametersInfoW.obj
 0001:0011baf4       _kernel32_MultiByteToWideChar_Thunk@0 1011caf4 f   unicows:thunk_kernel32_MultiByteToWideChar.obj
 0001:0011bb19       _user32_MapVirtualKeyExW_Thunk@0 1011cb19 f   unicows:thunk_user32_MapVirtualKeyExW.obj
 0001:0011bb3e       _user32_VkKeyScanW_Thunk@0 1011cb3e f   unicows:thunk_user32_VkKeyScanW.obj
 0001:0011bb63       _kernel32_GetLocaleInfoW_Thunk@0 1011cb63 f   unicows:thunk_kernel32_GetLocaleInfoW.obj
 0001:0011bb88       _kernel32_WideCharToMultiByte_Thunk@0 1011cb88 f   unicows:thunk_kernel32_WideCharToMultiByte.obj
 0001:0011bbad       _kernel32_IsBadStringPtrW_Thunk@0 1011cbad f   unicows:thunk_kernel32_IsBadStringPtrW.obj
 0001:0011bbd2       _user32_EnableWindow_Thunk@0 1011cbd2 f   unicows:thunk_user32_EnableWindow.obj
 0001:0011bbf7       _user32_RegisterWindowMessageW_Thunk@0 1011cbf7 f   unicows:thunk_user32_RegisterWindowMessageW.obj
 0001:0011bc1c       _user32_FindWindowW_Thunk@0 1011cc1c f   unicows:thunk_user32_FindWindowW.obj
 0001:0011bc41       _user32_LoadCursorW_Thunk@0 1011cc41 f   unicows:thunk_user32_LoadCursorW.obj
 0001:0011bc66       _user32_PeekMessageW_Thunk@0 1011cc66 f   unicows:thunk_user32_PeekMessageW.obj
 0001:0011bc8b       _gdi32_CreateMetaFileW_Thunk@0 1011cc8b f   unicows:thunk_gdi32_CreateMetaFileW.obj
 0001:0011bcb0       _gdi32_CreateEnhMetaFileW_Thunk@0 1011ccb0 f   unicows:thunk_gdi32_CreateEnhMetaFileW.obj
 0001:0011bcd5       _user32_RegisterClipboardFormatW_Thunk@0 1011ccd5 f   unicows:thunk_user32_RegisterClipboardFormatW.obj
 0001:0011bcfa       _user32_GetClipboardFormatNameW_Thunk@0 1011ccfa f   unicows:thunk_user32_GetClipboardFormatNameW.obj
 0001:0011bd1f       _shell32_ShellExecuteW_Thunk@0 1011cd1f f   unicows:thunk_shell32_ShellExecuteW.obj
 0001:0011bd44       _kernel32_ExpandEnvironmentStringsW_Thunk@0 1011cd44 f   unicows:thunk_kernel32_ExpandEnvironmentStringsW.obj
 0001:0011bd69       _kernel32_lstrcpyW_Thunk@0 1011cd69 f   unicows:thunk_kernel32_lstrcpyW.obj
 0001:0011bd8e       _gdi32_GetTextFaceW_Thunk@0 1011cd8e f   unicows:thunk_gdi32_GetTextFaceW.obj
 0001:0011bdb3       _user32_SetWindowsHookExW_Thunk@0 1011cdb3 f   unicows:thunk_user32_SetWindowsHookExW.obj
 0001:0011bdd8       _user32_AppendMenuW_Thunk@0 1011cdd8 f   unicows:thunk_user32_AppendMenuW.obj
 0001:0011bdfd       _user32_GetMenuItemInfoW_Thunk@0 1011cdfd f   unicows:thunk_user32_GetMenuItemInfoW.obj
 0001:0011be22       _kernel32_SetCurrentDirectoryW_Thunk@0 1011ce22 f   unicows:thunk_kernel32_SetCurrentDirectoryW.obj
 0001:0011be47       _kernel32_GetCurrentDirectoryW_Thunk@0 1011ce47 f   unicows:thunk_kernel32_GetCurrentDirectoryW.obj
 0001:0011be6c       _user32_SetClassLongW_Thunk@0 1011ce6c f   unicows:thunk_user32_SetClassLongW.obj
 0001:0011be91       _user32_GetClassLongW_Thunk@0 1011ce91 f   unicows:thunk_user32_GetClassLongW.obj
 0001:0011beb6       _user32_wsprintfW_Thunk@0  1011ceb6 f   unicows:thunk_user32_wsprintfW.obj
 0001:0011bedb       _gdi32_CreateFontIndirectW_Thunk@0 1011cedb f   unicows:thunk_gdi32_CreateFontIndirectW.obj
 0001:0011bf00       _gdi32_EnumFontFamiliesExW_Thunk@0 1011cf00 f   unicows:thunk_gdi32_EnumFontFamiliesExW.obj
 0001:0011bf25       _gdi32_GetCharWidthW_Thunk@0 1011cf25 f   unicows:thunk_gdi32_GetCharWidthW.obj
 0001:0011bf4a       _gdi32_GetTextExtentPointW_Thunk@0 1011cf4a f   unicows:thunk_gdi32_GetTextExtentPointW.obj
 0001:0011bf6f       _gdi32_GetTextExtentPoint32W_Thunk@0 1011cf6f f   unicows:thunk_gdi32_GetTextExtentPoint32W.obj
 0001:0011bf94       _gdi32_TextOutW_Thunk@0    1011cf94 f   unicows:thunk_gdi32_TextOutW.obj
 0001:0011bfb9       _gdi32_ExtTextOutW_Thunk@0 1011cfb9 f   unicows:thunk_gdi32_ExtTextOutW.obj
 0001:0011bfde       _kernel32_CreateFileW_Thunk@0 1011cfde f   unicows:thunk_kernel32_CreateFileW.obj
 0001:0011c003       _kernel32_LCMapStringW_Thunk@0 1011d003 f   unicows:thunk_kernel32_LCMapStringW.obj
 0001:0011c028       _user32_SetMenuItemInfoW_Thunk@0 1011d028 f   unicows:thunk_user32_SetMenuItemInfoW.obj
 0001:0011c04d       _user32_LoadBitmapW_Thunk@0 1011d04d f   unicows:thunk_user32_LoadBitmapW.obj
 0001:0011c072       _user32_InsertMenuItemW_Thunk@0 1011d072 f   unicows:thunk_user32_InsertMenuItemW.obj
 0001:0011c097       _winspool_DocumentPropertiesW_Thunk@0 1011d097 f   unicows:thunk_winspool_DocumentPropertiesW.obj
 0001:0011c0bc       _DirectCall_DocumentPropertiesW@0 1011d0bc f   unicows:thunk_winspool_DocumentPropertiesW.obj
 0001:0011c0bc       _DocumentPropertiesW@24    1011d0bc f   unicows:thunk_winspool_DocumentPropertiesW.obj
 0001:0011c0c2       _gdi32_StartDocW_Thunk@0   1011d0c2 f   unicows:thunk_gdi32_StartDocW.obj
 0001:0011c0e7       _user32_CallWindowProcW_Thunk@0 1011d0e7 f   unicows:thunk_user32_CallWindowProcW.obj
 0001:0011c10c       _user32_IsClipboardFormatAvailable_Thunk@0 1011d10c f   unicows:thunk_user32_IsClipboardFormatAvailable.obj
 0001:0011c131       _gdi32_GetObjectW_Thunk@0  1011d131 f   unicows:thunk_gdi32_GetObjectW.obj
 0001:0011c156       _user32_LoadKeyboardLayoutW_Thunk@0 1011d156 f   unicows:thunk_user32_LoadKeyboardLayoutW.obj
 0001:0011c17b       _kernel32_CreateEventW_Thunk@0 1011d17b f   unicows:thunk_kernel32_CreateEventW.obj
 0001:0011c1a0       _user32_MessageBoxW_Thunk@0 1011d1a0 f   unicows:thunk_user32_MessageBoxW.obj
 0001:0011c1c5       _user32_DispatchMessageW_Thunk@0 1011d1c5 f   unicows:thunk_user32_DispatchMessageW.obj
 0001:0011c1ea       _user32_LoadIconW_Thunk@0  1011d1ea f   unicows:thunk_user32_LoadIconW.obj
 0001:0011c20f       _user32_LoadImageW_Thunk@0 1011d20f f   unicows:thunk_user32_LoadImageW.obj
 0001:0011c234       _user32_LoadCursorFromFileW_Thunk@0 1011d234 f   unicows:thunk_user32_LoadCursorFromFileW.obj
 0001:0011c259       _gdi32_CreateICW_Thunk@0   1011d259 f   unicows:thunk_gdi32_CreateICW.obj
 0001:0011c27e       _user32_GetClassInfoW_Thunk@0 1011d27e f   unicows:thunk_user32_GetClassInfoW.obj
 0001:0011c2a3       _kernel32_GetWindowsDirectoryW_Thunk@0 1011d2a3 f   unicows:thunk_kernel32_GetWindowsDirectoryW.obj
 0001:0011c2c8       _user32_EnumDisplaySettingsW_Thunk@0 1011d2c8 f   unicows:thunk_user32_EnumDisplaySettingsW.obj
 0001:0011c2ed       _user32_ChangeDisplaySettingsW_Thunk@0 1011d2ed f   unicows:thunk_user32_ChangeDisplaySettingsW.obj
 0001:0011c312       _kernel32_CreateMutexW_Thunk@0 1011d312 f   unicows:thunk_kernel32_CreateMutexW.obj
 0001:0011c337       _shell32_Shell_NotifyIconW_Thunk@0 1011d337 f   unicows:thunk_shell32_Shell_NotifyIconW.obj
 0001:0011c35c       _kernel32_lstrcmpW_Thunk@0 1011d35c f   unicows:thunk_kernel32_lstrcmpW.obj
 0001:0011c381       _kernel32_GetModuleFileNameW_Thunk@0 1011d381 f   unicows:thunk_kernel32_GetModuleFileNameW.obj
 0001:0011c3a6       _StringCopyWorkerA@12      1011d3a6 f i unicows:resolve.obj
 0001:0011c3e1       _StringLengthWorkerA@12    1011d3e1 f i unicows:resolve.obj
 0001:0011c415       _GetOrdinal@20             1011d415 f   unicows:resolve.obj
 0001:0011c490       _ImageEntryToDataC@12      1011d490 f   unicows:resolve.obj
 0001:0011c4ca       _strcmpiC@8                1011d4ca f   unicows:resolve.obj
 0001:0011c4ed       _strncpyC@12               1011d4ed f   unicows:resolve.obj
 0001:0011c52c       _StringCatWorkerA@12       1011d52c f i unicows:resolve.obj
 0001:0011c55d       _GetProcAddressInternal@8  1011d55d f   unicows:resolve.obj
 0001:0011c5c1       _driveandpathC@12          1011d5c1 f   unicows:resolve.obj
 0001:0011c65c       _LoadGodot@0               1011d65c f   unicows:resolve.obj
 0001:0011c907       _ResolveThunk@20           1011d907 f   unicows:resolve.obj
 0001:0011ca69       _GodotFailCreateEventW@16  1011da69 f   unicows:failure.obj
 0001:0011ca77       _GodotFailCreateFileW@28   1011da77 f   unicows:failure.obj
 0001:0011ca85       _GodotFailCreateMutexW@12  1011da85 f   unicows:failure.obj
 0001:0011ca93       _GodotFailGetProcAddress@8 1011da93 f   unicows:failure.obj
 0001:0011ca98       _GodotFailLCMapStringW@24  1011da98 f   unicows:failure.obj
 0001:0011ca98       _GodotFailDocumentPropertiesW@24 1011da98 f   unicows:failure.obj
 0001:0011ca98       _GodotFailShellExecuteW@24 1011da98 f   unicows:failure.obj
 0001:0011caa5       _GodotFaillstrcpyW@8       1011daa5 f   unicows:failure.obj
 0001:0011cace       _GodotFaillstrlenW@4       1011dace f   unicows:failure.obj
 0001:0011caf7       _GodotFailMultiByteToWideChar@24 1011daf7 f   unicows:failure.obj
 0001:0011cb25       _GodotFailWideCharToMultiByte@32 1011db25 f   unicows:failure.obj
 0001:0011cb53       _GodotFailDeviceCapabilitiesW@20 1011db53 f   unicows:failure.obj
 0001:0011cb53       _GodotFailPeekMessageW@20  1011db53 f   unicows:failure.obj
 0001:0011cb53       _GodotFailCallWindowProcW@20 1011db53 f   unicows:failure.obj
 0001:0011cb53       _GodotFailGetPrinterW@20   1011db53 f   unicows:failure.obj
 0001:0011cb53       _GodotFailEnumFontFamiliesExW@20 1011db53 f   unicows:failure.obj
 0001:0011cb53       _GodotFailGetProfileStringW@20 1011db53 f   unicows:failure.obj
 0001:0011cb60       _GodotFailCreateWindowExW@48 1011db60 f   unicows:failure.obj
 0001:0011cb6d       _GodotFailEnumClipboardFormats@4 1011db6d f   unicows:failure.obj
 0001:0011cb96       _GodotFailGetTextFaceW@12  1011db96 f   unicows:failure.obj
 0001:0011cb96       _GodotFailSetWindowLongW@12 1011db96 f   unicows:failure.obj
 0001:0011cb96       _GodotFailSetClassLongW@12 1011db96 f   unicows:failure.obj
 0001:0011cb96       _GodotFailGetModuleFileNameW@12 1011db96 f   unicows:failure.obj
 0001:0011cb96       _GodotFailStartDocPrinterW@12 1011db96 f   unicows:failure.obj
 0001:0011cb96       _GodotFailGetWindowTextW@12 1011db96 f   unicows:failure.obj
 0001:0011cb96       _GodotFailGetClassInfoExW@12 1011db96 f   unicows:failure.obj
 0001:0011cb96       _GodotFailOpenPrinterW@12  1011db96 f   unicows:failure.obj
 0001:0011cb96       _GodotFailEnumDisplaySettingsW@12 1011db96 f   unicows:failure.obj
 0001:0011cb96       _GodotFailSetPropW@12      1011db96 f   unicows:failure.obj
 0001:0011cb96       _GodotFailMapVirtualKeyExW@12 1011db96 f   unicows:failure.obj
 0001:0011cb96       _GodotFaillstrcpynW@12     1011db96 f   unicows:failure.obj
 0001:0011cb96       _GodotFailGetClassInfoW@12 1011db96 f   unicows:failure.obj
 0001:0011cb96       _GodotFailGetClipboardFormatNameW@12 1011db96 f   unicows:failure.obj
 0001:0011cb96       _GodotFailExpandEnvironmentStringsW@12 1011db96 f   unicows:failure.obj
 0001:0011cb96       _GodotFailGetObjectW@12    1011db96 f   unicows:failure.obj
 0001:0011cba3       _GodotFailEnableWindow@8   1011dba3 f   unicows:failure.obj
 0001:0011cbcc       _GodotFailStartDocW@8      1011dbcc f   unicows:failure.obj
 0001:0011cbcc       _GodotFailShell_NotifyIconW@8 1011dbcc f   unicows:failure.obj
 0001:0011cbcc       _GodotFailMapVirtualKeyW@8 1011dbcc f   unicows:failure.obj
 0001:0011cbcc       _GodotFaillstrcmpW@8       1011dbcc f   unicows:failure.obj
 0001:0011cbcc       _GodotFailLoadKeyboardLayoutW@8 1011dbcc f   unicows:failure.obj
 0001:0011cbcc       _GodotFailGetTextMetricsW@8 1011dbcc f   unicows:failure.obj
 0001:0011cbcc       _GodotFailLoadIconW@8      1011dbcc f   unicows:failure.obj
 0001:0011cbcc       _GodotFailUnregisterClassW@8 1011dbcc f   unicows:failure.obj
 0001:0011cbcc       _GodotFailResetDCW@8       1011dbcc f   unicows:failure.obj
 0001:0011cbcc       _GodotFailIsBadStringPtrW@8 1011dbcc f   unicows:failure.obj
 0001:0011cbcc       _GodotFailLoadBitmapW@8    1011dbcc f   unicows:failure.obj
 0001:0011cbcc       _GodotFailSetWindowTextW@8 1011dbcc f   unicows:failure.obj
 0001:0011cbcc       _GodotFailGetWindowLongW@8 1011dbcc f   unicows:failure.obj
 0001:0011cbcc       _GodotFailGetCurrentDirectoryW@8 1011dbcc f   unicows:failure.obj
 0001:0011cbcc       _GodotFailGetClassLongW@8  1011dbcc f   unicows:failure.obj
 0001:0011cbcc       _GodotFailFindWindowW@8    1011dbcc f   unicows:failure.obj
 0001:0011cbcc       _GodotFailLoadCursorW@8    1011dbcc f   unicows:failure.obj
 0001:0011cbcc       _GodotFailGetWindowsDirectoryW@8 1011dbcc f   unicows:failure.obj
 0001:0011cbd9       _GodotFailGetClipboardData@4 1011dbd9 f   unicows:failure.obj
 0001:0011cc02       _GodotFailCreateEnhMetaFileW@16 1011dc02 f   unicows:failure.obj
 0001:0011cc02       _GodotFailSetMenuItemInfoW@16 1011dc02 f   unicows:failure.obj
 0001:0011cc02       _GodotFailPostMessageW@16  1011dc02 f   unicows:failure.obj
 0001:0011cc02       _GodotFailSetWindowsHookExW@16 1011dc02 f   unicows:failure.obj
 0001:0011cc02       _GodotFailAppendMenuW@16   1011dc02 f   unicows:failure.obj
 0001:0011cc02       _GodotFailCreateICW@16     1011dc02 f   unicows:failure.obj
 0001:0011cc02       _GodotFailInsertMenuItemW@16 1011dc02 f   unicows:failure.obj
 0001:0011cc02       _GodotFailGetLocaleInfoW@16 1011dc02 f   unicows:failure.obj
 0001:0011cc02       _GodotFailDefWindowProcW@16 1011dc02 f   unicows:failure.obj
 0001:0011cc02       _GodotFailSystemParametersInfoW@16 1011dc02 f   unicows:failure.obj
 0001:0011cc02       _GodotFailGetMenuItemInfoW@16 1011dc02 f   unicows:failure.obj
 0001:0011cc02       _GodotFailSendMessageW@16  1011dc02 f   unicows:failure.obj
 0001:0011cc02       _GodotFailCreateDCW@16     1011dc02 f   unicows:failure.obj
 0001:0011cc0f       _GodotFailGetPropW@8       1011dc0f f   unicows:failure.obj
 0001:0011cc0f       _GodotFailRemovePropW@8    1011dc0f f   unicows:failure.obj
 0001:0011cc0f       _GodotFailChangeDisplaySettingsW@8 1011dc0f f   unicows:failure.obj
 0001:0011cc1d       _GodotFailRegisterWindowMessageW@4 1011dc1d f   unicows:failure.obj
 0001:0011cc1d       _GodotFailDispatchMessageW@4 1011dc1d f   unicows:failure.obj
 0001:0011cc1d       _GodotFailCreateFontIndirectW@4 1011dc1d f   unicows:failure.obj
 0001:0011cc1d       _GodotFailRegisterClipboardFormatW@4 1011dc1d f   unicows:failure.obj
 0001:0011cc1d       _GodotFailLoadCursorFromFileW@4 1011dc1d f   unicows:failure.obj
 0001:0011cc1d       _GodotFailSetCurrentDirectoryW@4 1011dc1d f   unicows:failure.obj
 0001:0011cc1d       _GodotFailGetModuleHandleW@4 1011dc1d f   unicows:failure.obj
 0001:0011cc1d       _GodotFailLoadLibraryW@4   1011dc1d f   unicows:failure.obj
 0001:0011cc1d       _GodotFailCreateMetaFileW@4 1011dc1d f   unicows:failure.obj
 0001:0011cc1d       _GodotFailGetVersionExW@4  1011dc1d f   unicows:failure.obj
 0001:0011cc1d       _GodotFailGetWindowTextLengthW@4 1011dc1d f   unicows:failure.obj
 0001:0011cc2a       _GodotFailIsClipboardFormatAvailable@4 1011dc2a f   unicows:failure.obj
 0001:0011cc53       _GodotFailLoadImageW@24    1011dc53 f   unicows:failure.obj
 0001:0011cc61       _GodotFailMessageBoxW@16   1011dc61 f   unicows:failure.obj
 0001:0011cc8a       _GodotFailVkKeyScanW@4     1011dc8a f   unicows:failure.obj
 0001:0011cc8a       _GodotFailRegisterClassW@4 1011dc8a f   unicows:failure.obj
 0001:0011cc8a       _GodotFailRegisterClassExW@4 1011dc8a f   unicows:failure.obj
 0001:0011cc98       _GodotFailwsprintfW        1011dc98 f   unicows:failure.obj
 0001:0011cca4       _GodotFailExtTextOutW@32   1011dca4 f   unicows:failure.obj
 0001:0011ccd2       _GodotFailGetCharWidthW@16 1011dcd2 f   unicows:failure.obj
 0001:0011ccfb       _GodotFailGetTextExtentPointW@16 1011dcfb f   unicows:failure.obj
 0001:0011cd24       _GodotFailGetTextExtentPoint32W@16 1011dd24 f   unicows:failure.obj
 0001:0011cd4d       _GodotFailTextOutW@20      1011dd4d f   unicows:failure.obj
 0001:0011cd7b       _GodotFailRegCreateKeyExW@36 1011dd7b f   unicows:failure.obj
 0001:0011cd81       _GodotFailRegDeleteKeyW@8  1011dd81 f   unicows:failure.obj
 0001:0011cd87       _GodotFailRegEnumKeyExW@32 1011dd87 f   unicows:failure.obj
 0001:0011cd8d       _GodotFailRegOpenKeyExW@20 1011dd8d f   unicows:failure.obj
 0001:0011cd93       _GodotFailRegSetValueExW@24 1011dd93 f   unicows:failure.obj
 0001:0011cd93       _GodotFailRegQueryValueExW@24 1011dd93 f   unicows:failure.obj
 0001:0011cd99       _GodotFailFormatMessageW@28 1011dd99 f   unicows:failure.obj
 0001:0011cd99       _GodotFailEnumPrintersW@28 1011dd99 f   unicows:failure.obj
 0001:0011cda6       _FindFirstPrinterChangeNotification@16 1011dda6 f   winspool:WINSPOOL.DRV
 0001:0011cdac       _FindClosePrinterChangeNotification@4 1011ddac f   winspool:WINSPOOL.DRV
 0001:0011cdb2       _FindNextPrinterChangeNotification@16 1011ddb2 f   winspool:WINSPOOL.DRV
 0001:0011cdb8       _ClosePrinter@4            1011ddb8 f   winspool:WINSPOOL.DRV
 0001:0011cdbe       _EndDocPrinter@4           1011ddbe f   winspool:WINSPOOL.DRV
 0001:0011cdc4       _StartPagePrinter@4        1011ddc4 f   winspool:WINSPOOL.DRV
 0001:0011cdca       _WritePrinter@16           1011ddca f   winspool:WINSPOOL.DRV
 0001:0011cdd0       _EndPagePrinter@4          1011ddd0 f   winspool:WINSPOOL.DRV
 0001:0011cdd6       _GetPrinterA@20            1011ddd6 f   winspool:WINSPOOL.DRV
 0001:0011cddc       _EnumPrintersA@28          1011dddc f   winspool:WINSPOOL.DRV
 0001:0011cde2       _ImmSetCompositionWindow@8 1011dde2 f   imm32:IMM32.dll
 0001:0011cde8       _ImmSetCandidateWindow@8   1011dde8 f   imm32:IMM32.dll
 0001:0011cdee       _ImmGetContext@4           1011ddee f   imm32:IMM32.dll
 0001:0011cdf4       _ImmAssociateContext@8     1011ddf4 f   imm32:IMM32.dll
 0001:0011cdfa       _ImmGetDefaultIMEWnd@4     1011ddfa f   imm32:IMM32.dll
 0001:0011ce00       _ImmGetDescriptionW@12     1011de00 f   imm32:IMM32.dll
 0001:0011ce06       _ImmGetCompositionStringW@16 1011de06 f   imm32:IMM32.dll
 0001:0011ce0c       _ImmSetCompositionFontW@8  1011de0c f   imm32:IMM32.dll
 0001:0011ce12       _ImmGetOpenStatus@4        1011de12 f   imm32:IMM32.dll
 0001:0011ce18       _ImmSetOpenStatus@8        1011de18 f   imm32:IMM32.dll
 0001:0011ce1e       _ImmSetConversionStatus@12 1011de1e f   imm32:IMM32.dll
 0001:0011ce24       _ImmGetConversionStatus@12 1011de24 f   imm32:IMM32.dll
 0001:0011ce2a       _ImmNotifyIME@16           1011de2a f   imm32:IMM32.dll
 0001:0011ce30       _ImmDestroyContext@4       1011de30 f   imm32:IMM32.dll
 0001:0011ce36       _ImmCreateContext@0        1011de36 f   imm32:IMM32.dll
 0001:0011ce3c       _JVM_RawMonitorCreate@0    1011de3c f   jvm:jvm.dll
 0001:0011ce42       _JVM_RawMonitorDestroy@4   1011de42 f   jvm:jvm.dll
 0001:0011ce48       _JVM_RawMonitorEnter@4     1011de48 f   jvm:jvm.dll
 0001:0011ce4e       _JVM_RawMonitorExit@4      1011de4e f   jvm:jvm.dll
 0001:0011ce54       _JVM_CurrentTimeMillis@8   1011de54 f   jvm:jvm.dll
 0001:0011ce5a       _JVM_RaiseSignal@4         1011de5a f   jvm:jvm.dll
 0001:0011ce60       __ftol2                    1011de60 f   MSVCRT:ftol2.obj
 0001:0011cee0       __allmul                   1011dee0 f   MSVCRT:llmul.obj
 0001:0011cf14       _sqrt                      1011df14 f   MSVCRT:MSVCR71.dll
 0001:0011cf20       __alldiv                   1011df20 f   MSVCRT:lldiv.obj
 0001:0011cfca       _memcpy                    1011dfca f   MSVCRT:MSVCR71.dll
 0001:0011cfd0       __chkstk                   1011dfd0 f   MSVCRT:chkstk.obj
 0001:0011cfd0       __alloca_probe             1011dfd0     MSVCRT:chkstk.obj
 0001:0011d00e       _memset                    1011e00e f   MSVCRT:MSVCR71.dll
 0001:0011d020       __allshr                   1011e020 f   MSVCRT:llshr.obj
 0001:0011d050       __allshl                   1011e050 f   MSVCRT:llshl.obj
 0001:0011d070       _pow                       1011e070 f   MSVCRT:MSVCR71.dll
 0001:0011d076       _strcpy                    1011e076 f   MSVCRT:MSVCR71.dll
 0001:0011d07c       _strcmp                    1011e07c f   MSVCRT:MSVCR71.dll
 0001:0011d082       _strlen                    1011e082 f   MSVCRT:MSVCR71.dll
 0001:0011d088       ___CxxFrameHandler         1011e088 f   MSVCRT:MSVCR71.dll
 0001:0011d08e       __onexit                   1011e08e f   MSVCRT:atonexit.obj
 0001:0011d0b4       _atexit                    1011e0b4 f   MSVCRT:atonexit.obj
 0001:0011d0c6       ?__ArrayUnwind@@YGXPAXIHP6EX0@Z@Z 1011e0c6 f   MSVCRT:ehvecdtr.obj
 0001:0011d124       ??_M@YGXPAXIHP6EX0@Z@Z     1011e124 f   MSVCRT:ehvecdtr.obj
 0001:0011d184       _sin                       1011e184 f   MSVCRT:MSVCR71.dll
 0001:0011d18a       _cos                       1011e18a f   MSVCRT:MSVCR71.dll
 0001:0011d190       ??_Etype_info@@UAEPAXI@Z   1011e190 f i MSVCRT:ti_inst.obj
 0001:0011d1dc       __CxxThrowException@8      1011e1dc f   MSVCRT:MSVCR71.dll
 0001:0011d1e2       _abs                       1011e1e2 f   MSVCRT:MSVCR71.dll
 0001:0011d1e8       __purecall                 1011e1e8 f   MSVCRT:MSVCR71.dll
 0001:0011d1ee       _fabs                      1011e1ee f   MSVCRT:MSVCR71.dll
 0001:0011d1f4       _memcmp                    1011e1f4 f   MSVCRT:MSVCR71.dll
 0001:0011d1fa       _labs                      1011e1fa f   MSVCRT:MSVCR71.dll
 0001:0011d200       ??_L@YGXPAXIHP6EX0@Z1@Z    1011e200 f   MSVCRT:ehvecctr.obj
 0001:0011d262       _strcat                    1011e262 f   MSVCRT:MSVCR71.dll
 0001:0011d268       __CRT_INIT@12              1011e268 f   MSVCRT:crtdll.obj
 0001:0011d326       __DllMainCRTStartup@12     1011e326 f   MSVCRT:crtdll.obj
 0001:0011d40a       ___dllonexit               1011e40a f   MSVCRT:MSVCR71.dll
 0001:0011d410       ?terminate@@YAXXZ          1011e410 f   MSVCRT:MSVCR71.dll
 0001:0011d418       __SEH_prolog               1011e418 f   MSVCRT:sehprolg.obj
 0001:0011d453       __SEH_epilog               1011e453 f   MSVCRT:sehprolg.obj
 0001:0011d464       __except_handler3          1011e464 f   MSVCRT:MSVCR71.dll
 0001:0011d46a       ??1type_info@@UAE@XZ       1011e46a f   MSVCRT:MSVCR71.dll
 0001:0011d470       __initterm                 1011e470 f   MSVCRT:MSVCR71.dll
 0001:0011d476       __RTC_Initialize           1011e476 f   MSVCRT:initsect.obj
 0001:0011d4ba       __RTC_Terminate            1011e4ba f   MSVCRT:initsect.obj
 0001:0011d4fe       ___CppXcptFilter           1011e4fe f   MSVCRT:MSVCR71.dll
 0002:00000000       __imp__RegQueryValueExA@24 10121000     advapi32:ADVAPI32.dll
 0002:00000004       __imp__RegFlushKey@4       10121004     advapi32:ADVAPI32.dll
 0002:00000008       __imp__RegCloseKey@4       10121008     advapi32:ADVAPI32.dll
 0002:0000000c       __imp__RegOpenKeyExA@20    1012100c     advapi32:ADVAPI32.dll
 0002:00000010       \177ADVAPI32_NULL_THUNK_DATA 10121010     advapi32:ADVAPI32.dll
 0002:00000014       __imp__ImageList_Destroy@4 10121014     comctl32:COMCTL32.dll
 0002:00000018       __imp__ImageList_GetIcon@12 10121018     comctl32:COMCTL32.dll
 0002:0000001c       \177COMCTL32_NULL_THUNK_DATA 1012101c     comctl32:COMCTL32.dll
 0002:00000020       __imp__GdiGetBatchLimit@0  10121020     gdi32:GDI32.dll
 0002:00000024       __imp__GdiSetBatchLimit@4  10121024     gdi32:GDI32.dll
 0002:00000028       __imp__SelectObject@8      10121028     gdi32:GDI32.dll
 0002:0000002c       __imp__SelectClipRgn@8     1012102c     gdi32:GDI32.dll
 0002:00000030       __imp__SetROP2@8           10121030     gdi32:GDI32.dll
 0002:00000034       __imp__OffsetViewportOrgEx@16 10121034     gdi32:GDI32.dll
 0002:00000038       __imp__CreateRectRgn@16    10121038     gdi32:GDI32.dll
 0002:0000003c       __imp__CreateRectRgnIndirect@4 1012103c     gdi32:GDI32.dll
 0002:00000040       __imp__CombineRgn@16       10121040     gdi32:GDI32.dll
 0002:00000044       __imp__DeleteObject@4      10121044     gdi32:GDI32.dll
 0002:00000048       __imp__BeginPath@4         10121048     gdi32:GDI32.dll
 0002:0000004c       __imp__PolyBezierTo@12     1012104c     gdi32:GDI32.dll
 0002:00000050       __imp__CloseFigure@4       10121050     gdi32:GDI32.dll
 0002:00000054       __imp__EndPath@4           10121054     gdi32:GDI32.dll
 0002:00000058       __imp__FillPath@4          10121058     gdi32:GDI32.dll
 0002:0000005c       __imp__StrokePath@4        1012105c     gdi32:GDI32.dll
 0002:00000060       __imp__AbortPath@4         10121060     gdi32:GDI32.dll
 0002:00000064       __imp__SetPolyFillMode@8   10121064     gdi32:GDI32.dll
 0002:00000068       __imp__Pie@36              10121068     gdi32:GDI32.dll
 0002:0000006c       __imp__Polyline@12         1012106c     gdi32:GDI32.dll
 0002:00000070       __imp__Arc@36              10121070     gdi32:GDI32.dll
 0002:00000074       __imp__Ellipse@20          10121074     gdi32:GDI32.dll
 0002:00000078       __imp__RoundRect@28        10121078     gdi32:GDI32.dll
 0002:0000007c       __imp__PatBlt@24           1012107c     gdi32:GDI32.dll
 0002:00000080       __imp__MoveToEx@16         10121080     gdi32:GDI32.dll
 0002:00000084       __imp__LineTo@12           10121084     gdi32:GDI32.dll
 0002:00000088       __imp__SetDIBitsToDevice@48 10121088     gdi32:GDI32.dll
 0002:0000008c       __imp__SwapBuffers@4       1012108c     gdi32:GDI32.dll
 0002:00000090       __imp__ChoosePixelFormat@8 10121090     gdi32:GDI32.dll
 0002:00000094       __imp__SetPixelFormat@12   10121094     gdi32:GDI32.dll
 0002:00000098       __imp__ExtEscape@24        10121098     gdi32:GDI32.dll
 0002:0000009c       __imp__CreateBitmap@20     1012109c     gdi32:GDI32.dll
 0002:000000a0       __imp__CreateDIBitmap@24   101210a0     gdi32:GDI32.dll
 0002:000000a4       __imp__GetDIBits@28        101210a4     gdi32:GDI32.dll
 0002:000000a8       __imp__CreateSolidBrush@4  101210a8     gdi32:GDI32.dll
 0002:000000ac       __imp__GetClipBox@8        101210ac     gdi32:GDI32.dll
 0002:000000b0       __imp__DeleteMetaFile@4    101210b0     gdi32:GDI32.dll
 0002:000000b4       __imp__SetMetaFileBitsEx@8 101210b4     gdi32:GDI32.dll
 0002:000000b8       __imp__SetEnhMetaFileBits@8 101210b8     gdi32:GDI32.dll
 0002:000000bc       __imp__GetEnhMetaFileBits@12 101210bc     gdi32:GDI32.dll
 0002:000000c0       __imp__SetWinMetaFileBits@16 101210c0     gdi32:GDI32.dll
 0002:000000c4       __imp__GetMetaFileBitsEx@12 101210c4     gdi32:GDI32.dll
 0002:000000c8       __imp__SetTextColor@8      101210c8     gdi32:GDI32.dll
 0002:000000cc       __imp__GetStockObject@4    101210cc     gdi32:GDI32.dll
 0002:000000d0       __imp__GetRegionData@12    101210d0     gdi32:GDI32.dll
 0002:000000d4       __imp__OffsetRgn@12        101210d4     gdi32:GDI32.dll
 0002:000000d8       __imp__SetBkMode@8         101210d8     gdi32:GDI32.dll
 0002:000000dc       __imp__OffsetWindowOrgEx@16 101210dc     gdi32:GDI32.dll
 0002:000000e0       __imp__RestoreDC@8         101210e0     gdi32:GDI32.dll
 0002:000000e4       __imp__SaveDC@4            101210e4     gdi32:GDI32.dll
 0002:000000e8       __imp__SetWindowOrgEx@16   101210e8     gdi32:GDI32.dll
 0002:000000ec       __imp__GetObjectType@4     101210ec     gdi32:GDI32.dll
 0002:000000f0       __imp__GetEnhMetaFilePaletteEntries@12 101210f0     gdi32:GDI32.dll
 0002:000000f4       __imp__GetPaletteEntries@16 101210f4     gdi32:GDI32.dll
 0002:000000f8       __imp__DeleteEnhMetaFile@4 101210f8     gdi32:GDI32.dll
 0002:000000fc       __imp__PlayEnhMetaFile@12  101210fc     gdi32:GDI32.dll
 0002:00000100       __imp__StretchDIBits@52    10121100     gdi32:GDI32.dll
 0002:00000104       __imp__RealizePalette@4    10121104     gdi32:GDI32.dll
 0002:00000108       __imp__SelectPalette@12    10121108     gdi32:GDI32.dll
 0002:0000010c       __imp__CreatePalette@4     1012110c     gdi32:GDI32.dll
 0002:00000110       __imp__LPtoDP@12           10121110     gdi32:GDI32.dll
 0002:00000114       __imp__SetMapMode@8        10121114     gdi32:GDI32.dll
 0002:00000118       __imp__GetEnhMetaFileHeader@12 10121118     gdi32:GDI32.dll
 0002:0000011c       __imp__CloseMetaFile@4     1012111c     gdi32:GDI32.dll
 0002:00000120       __imp__CloseEnhMetaFile@4  10121120     gdi32:GDI32.dll
 0002:00000124       __imp__DPtoLP@12           10121124     gdi32:GDI32.dll
 0002:00000128       __imp__GetTextExtentPoint32A@16 10121128     gdi32:GDI32.dll
 0002:0000012c       __imp__TextOutA@20         1012112c     gdi32:GDI32.dll
 0002:00000130       __imp__ExtTextOutA@32      10121130     gdi32:GDI32.dll
 0002:00000134       __imp__GetFontData@20      10121134     gdi32:GDI32.dll
 0002:00000138       __imp__SetTextAlign@8      10121138     gdi32:GDI32.dll
 0002:0000013c       __imp__StretchBlt@44       1012113c     gdi32:GDI32.dll
 0002:00000140       __imp__GetNearestColor@8   10121140     gdi32:GDI32.dll
 0002:00000144       __imp__GetSystemPaletteEntries@16 10121144     gdi32:GDI32.dll
 0002:00000148       __imp__CreatePen@12        10121148     gdi32:GDI32.dll
 0002:0000014c       __imp__EndDoc@4            1012114c     gdi32:GDI32.dll
 0002:00000150       __imp__AbortDoc@4          10121150     gdi32:GDI32.dll
 0002:00000154       __imp__StartPage@4         10121154     gdi32:GDI32.dll
 0002:00000158       __imp__EndPage@4           10121158     gdi32:GDI32.dll
 0002:0000015c       __imp__GetCurrentPositionEx@8 1012115c     gdi32:GDI32.dll
 0002:00000160       __imp__SelectClipPath@8    10121160     gdi32:GDI32.dll
 0002:00000164       __imp__ExtCreatePen@20     10121164     gdi32:GDI32.dll
 0002:00000168       __imp__CreateFontIndirectA@4 10121168     gdi32:GDI32.dll
 0002:0000016c       __imp__EnumFontFamiliesExA@20 1012116c     gdi32:GDI32.dll
 0002:00000170       __imp__GetPixel@12         10121170     gdi32:GDI32.dll
 0002:00000174       __imp__CreateCompatibleBitmap@12 10121174     gdi32:GDI32.dll
 0002:00000178       __imp__DescribePixelFormat@16 10121178     gdi32:GDI32.dll
 0002:0000017c       __imp__GdiFlush@0          1012117c     gdi32:GDI32.dll
 0002:00000180       __imp__CreateCompatibleDC@4 10121180     gdi32:GDI32.dll
 0002:00000184       __imp__BitBlt@36           10121184     gdi32:GDI32.dll
 0002:00000188       __imp__CreateDIBSection@24 10121188     gdi32:GDI32.dll
 0002:0000018c       __imp__DeleteDC@4          1012118c     gdi32:GDI32.dll
 0002:00000190       __imp__ExtCreateRegion@12  10121190     gdi32:GDI32.dll
 0002:00000194       __imp__SetBkColor@8        10121194     gdi32:GDI32.dll
 0002:00000198       __imp__Polygon@12          10121198     gdi32:GDI32.dll
 0002:0000019c       __imp__GetDeviceCaps@8     1012119c     gdi32:GDI32.dll
 0002:000001a0       \177GDI32_NULL_THUNK_DATA  101211a0     gdi32:GDI32.dll
 0002:000001a4       __imp__ImmSetCompositionWindow@8 101211a4     imm32:IMM32.dll
 0002:000001a8       __imp__ImmGetContext@4     101211a8     imm32:IMM32.dll
 0002:000001ac       __imp__ImmAssociateContext@8 101211ac     imm32:IMM32.dll
 0002:000001b0       __imp__ImmGetDefaultIMEWnd@4 101211b0     imm32:IMM32.dll
 0002:000001b4       __imp__ImmGetDescriptionW@12 101211b4     imm32:IMM32.dll
 0002:000001b8       __imp__ImmGetCompositionStringW@16 101211b8     imm32:IMM32.dll
 0002:000001bc       __imp__ImmSetCompositionFontW@8 101211bc     imm32:IMM32.dll
 0002:000001c0       __imp__ImmGetOpenStatus@4  101211c0     imm32:IMM32.dll
 0002:000001c4       __imp__ImmSetOpenStatus@8  101211c4     imm32:IMM32.dll
 0002:000001c8       __imp__ImmSetConversionStatus@12 101211c8     imm32:IMM32.dll
 0002:000001cc       __imp__ImmGetConversionStatus@12 101211cc     imm32:IMM32.dll
 0002:000001d0       __imp__ImmNotifyIME@16     101211d0     imm32:IMM32.dll
 0002:000001d4       __imp__ImmDestroyContext@4 101211d4     imm32:IMM32.dll
 0002:000001d8       __imp__ImmCreateContext@0  101211d8     imm32:IMM32.dll
 0002:000001dc       __imp__ImmSetCandidateWindow@8 101211dc     imm32:IMM32.dll
 0002:000001e0       \177IMM32_NULL_THUNK_DATA  101211e0     imm32:IMM32.dll
 0002:000001e4       __imp__GlobalUnlock@4      101211e4     kernel32:KERNEL32.dll
 0002:000001e8       __imp__GlobalLock@4        101211e8     kernel32:KERNEL32.dll
 0002:000001ec       __imp__GlobalSize@4        101211ec     kernel32:KERNEL32.dll
 0002:000001f0       __imp__IsBadReadPtr@8      101211f0     kernel32:KERNEL32.dll
 0002:000001f4       __imp__LocalFree@4         101211f4     kernel32:KERNEL32.dll
 0002:000001f8       __imp__GetTickCount@0      101211f8     kernel32:KERNEL32.dll
 0002:000001fc       __imp__GetACP@0            101211fc     kernel32:KERNEL32.dll
 0002:00000200       __imp__SetLastError@4      10121200     kernel32:KERNEL32.dll
 0002:00000204       __imp__FormatMessageA@28   10121204     kernel32:KERNEL32.dll
 0002:00000208       __imp__InterlockedDecrement@4 10121208     kernel32:KERNEL32.dll
 0002:0000020c       __imp__ReadFile@20         1012120c     kernel32:KERNEL32.dll
 0002:00000210       __imp__SetFilePointer@16   10121210     kernel32:KERNEL32.dll
 0002:00000214       __imp__CloseHandle@4       10121214     kernel32:KERNEL32.dll
 0002:00000218       __imp__CreateFileA@28      10121218     kernel32:KERNEL32.dll
 0002:0000021c       __imp__GetCurrentProcessId@0 1012121c     kernel32:KERNEL32.dll
 0002:00000220       __imp__GetLastError@0      10121220     kernel32:KERNEL32.dll
 0002:00000224       __imp__WaitForSingleObject@8 10121224     kernel32:KERNEL32.dll
 0002:00000228       __imp__GlobalAlloc@8       10121228     kernel32:KERNEL32.dll
 0002:0000022c       __imp__GlobalFree@4        1012122c     kernel32:KERNEL32.dll
 0002:00000230       __imp__GetVersion@0        10121230     kernel32:KERNEL32.dll
 0002:00000234       __imp__InterlockedIncrement@4 10121234     kernel32:KERNEL32.dll
 0002:00000238       __imp__TlsAlloc@0          10121238     kernel32:KERNEL32.dll
 0002:0000023c       __imp__TlsGetValue@4       1012123c     kernel32:KERNEL32.dll
 0002:00000240       __imp__TlsSetValue@8       10121240     kernel32:KERNEL32.dll
 0002:00000244       __imp__GetCurrentThreadId@0 10121244     kernel32:KERNEL32.dll
 0002:00000248       __imp__EnterCriticalSection@4 10121248     kernel32:KERNEL32.dll
 0002:0000024c       __imp__LeaveCriticalSection@4 1012124c     kernel32:KERNEL32.dll
 0002:00000250       __imp__DeleteCriticalSection@4 10121250     kernel32:KERNEL32.dll
 0002:00000254       __imp__InitializeCriticalSection@4 10121254     kernel32:KERNEL32.dll
 0002:00000258       __imp__IsDBCSLeadByteEx@8  10121258     kernel32:KERNEL32.dll
 0002:0000025c       __imp__GetWindowsDirectoryA@8 1012125c     kernel32:KERNEL32.dll
 0002:00000260       __imp__InterlockedCompareExchange@12 10121260     kernel32:KERNEL32.dll
 0002:00000264       __imp__IsBadWritePtr@8     10121264     kernel32:KERNEL32.dll
 0002:00000268       __imp__SetEvent@4          10121268     kernel32:KERNEL32.dll
 0002:0000026c       __imp__ResetEvent@4        1012126c     kernel32:KERNEL32.dll
 0002:00000270       __imp__Sleep@4             10121270     kernel32:KERNEL32.dll
 0002:00000274       __imp__GetSystemDefaultLangID@0 10121274     kernel32:KERNEL32.dll
 0002:00000278       __imp__ReleaseMutex@4      10121278     kernel32:KERNEL32.dll
 0002:0000027c       __imp__GetThreadLocale@0   1012127c     kernel32:KERNEL32.dll
 0002:00000280       __imp__LoadLibraryA@4      10121280     kernel32:KERNEL32.dll
 0002:00000284       __imp__GetModuleFileNameA@12 10121284     kernel32:KERNEL32.dll
 0002:00000288       __imp__GetModuleHandleA@4  10121288     kernel32:KERNEL32.dll
 0002:0000028c       __imp__FreeLibrary@4       1012128c     kernel32:KERNEL32.dll
 0002:00000290       __imp__CompareStringA@24   10121290     kernel32:KERNEL32.dll
 0002:00000294       __imp__InterlockedExchange@8 10121294     kernel32:KERNEL32.dll
 0002:00000298       __imp__GetSystemDirectoryA@8 10121298     kernel32:KERNEL32.dll
 0002:0000029c       \177KERNEL32_NULL_THUNK_DATA 1012129c     kernel32:KERNEL32.dll
 0002:000002a0       __imp__strchr              101212a0     MSVCRT:MSVCR71.dll
 0002:000002a4       __imp__setlocale           101212a4     MSVCRT:MSVCR71.dll
 0002:000002a8       __imp__wcstoul             101212a8     MSVCRT:MSVCR71.dll
 0002:000002ac       __imp__memcmp              101212ac     MSVCRT:MSVCR71.dll
 0002:000002b0       __imp__wcstok              101212b0     MSVCRT:MSVCR71.dll
 0002:000002b4       __imp___wcsicmp            101212b4     MSVCRT:MSVCR71.dll
 0002:000002b8       __imp__labs                101212b8     MSVCRT:MSVCR71.dll
 0002:000002bc       __imp__iswspace            101212bc     MSVCRT:MSVCR71.dll
 0002:000002c0       __imp__fabs                101212c0     MSVCRT:MSVCR71.dll
 0002:000002c4       __imp__strcpy              101212c4     MSVCRT:MSVCR71.dll
 0002:000002c8       __imp__wcschr              101212c8     MSVCRT:MSVCR71.dll
 0002:000002cc       __imp__wcsstr              101212cc     MSVCRT:MSVCR71.dll
 0002:000002d0       __imp___snprintf           101212d0     MSVCRT:MSVCR71.dll
 0002:000002d4       __imp___wtoi               101212d4     MSVCRT:MSVCR71.dll
 0002:000002d8       __imp__memmove             101212d8     MSVCRT:MSVCR71.dll
 0002:000002dc       __imp__wcscmp              101212dc     MSVCRT:MSVCR71.dll
 0002:000002e0       __imp___purecall           101212e0     MSVCRT:MSVCR71.dll
 0002:000002e4       __imp__abs                 101212e4     MSVCRT:MSVCR71.dll
 0002:000002e8       __imp__swprintf            101212e8     MSVCRT:MSVCR71.dll
 0002:000002ec       __imp__wcsdup              101212ec     MSVCRT:MSVCR71.dll
 0002:000002ec       __imp___wcsdup             101212ec     MSVCRT:MSVCR71.dll
 0002:000002f0       __imp__strstr              101212f0     MSVCRT:MSVCR71.dll
 0002:000002f4       __imp___control87          101212f4     MSVCRT:MSVCR71.dll
 0002:000002f8       __imp__wcslen              101212f8     MSVCRT:MSVCR71.dll
 0002:000002fc       __imp___CxxThrowException@8 101212fc     MSVCRT:MSVCR71.dll
 0002:00000300       __imp__cos                 10121300     MSVCRT:MSVCR71.dll
 0002:00000304       __imp__sin                 10121304     MSVCRT:MSVCR71.dll
 0002:00000308       __imp____CxxFrameHandler   10121308     MSVCRT:MSVCR71.dll
 0002:0000030c       __imp__strcspn             1012130c     MSVCRT:MSVCR71.dll
 0002:00000310       __imp__strncmp             10121310     MSVCRT:MSVCR71.dll
 0002:00000314       __imp__vsprintf            10121314     MSVCRT:MSVCR71.dll
 0002:00000318       __imp__strlen              10121318     MSVCRT:MSVCR71.dll
 0002:0000031c       __imp__ceil                1012131c     MSVCRT:MSVCR71.dll
 0002:00000320       __imp__floor               10121320     MSVCRT:MSVCR71.dll
 0002:00000324       __imp__sqrt                10121324     MSVCRT:MSVCR71.dll
 0002:00000328       __imp__strcmp              10121328     MSVCRT:MSVCR71.dll
 0002:0000032c       __imp__malloc              1012132c     MSVCRT:MSVCR71.dll
 0002:00000330       __imp__realloc             10121330     MSVCRT:MSVCR71.dll
 0002:00000334       __imp__memcpy              10121334     MSVCRT:MSVCR71.dll
 0002:00000338       __imp__memset              10121338     MSVCRT:MSVCR71.dll
 0002:0000033c       __imp__calloc              1012133c     MSVCRT:MSVCR71.dll
 0002:00000340       __imp__qsort               10121340     MSVCRT:MSVCR71.dll
 0002:00000344       __imp__fflush              10121344     MSVCRT:MSVCR71.dll
 0002:00000348       __imp__vfprintf            10121348     MSVCRT:MSVCR71.dll
 0002:0000034c       __imp__fprintf             1012134c     MSVCRT:MSVCR71.dll
 0002:00000350       __imp___iob                10121350     MSVCRT:MSVCR71.dll
 0002:00000354       __imp__printf              10121354     MSVCRT:MSVCR71.dll
 0002:00000358       __imp__fopen               10121358     MSVCRT:MSVCR71.dll
 0002:0000035c       __imp__sscanf              1012135c     MSVCRT:MSVCR71.dll
 0002:00000360       __imp__getenv              10121360     MSVCRT:MSVCR71.dll
 0002:00000364       __imp__pow                 10121364     MSVCRT:MSVCR71.dll
 0002:00000368       __imp___assert             10121368     MSVCRT:MSVCR71.dll
 0002:0000036c       __imp__strncpy             1012136c     MSVCRT:MSVCR71.dll
 0002:00000370       __imp__sprintf             10121370     MSVCRT:MSVCR71.dll
 0002:00000374       __imp__wcscpy              10121374     MSVCRT:MSVCR71.dll
 0002:00000378       __imp___strupr             10121378     MSVCRT:MSVCR71.dll
 0002:00000378       __imp__strupr              10121378     MSVCRT:MSVCR71.dll
 0002:0000037c       __imp___i64tow             1012137c     MSVCRT:MSVCR71.dll
 0002:00000380       __imp__wcscat              10121380     MSVCRT:MSVCR71.dll
 0002:00000384       __imp___wgetenv            10121384     MSVCRT:MSVCR71.dll
 0002:00000388       __imp___beginthreadex      10121388     MSVCRT:MSVCR71.dll
 0002:0000038c       __imp__wcsncmp             1012138c     MSVCRT:MSVCR71.dll
 0002:00000390       __imp__fwprintf            10121390     MSVCRT:MSVCR71.dll
 0002:00000394       __imp__bsearch             10121394     MSVCRT:MSVCR71.dll
 0002:00000398       __imp_?_set_new_handler@@YAP6AHI@ZP6AHI@Z@Z 10121398     MSVCRT:MSVCR71.dll
 0002:0000039c       __imp_?_set_new_mode@@YAHH@Z 1012139c     MSVCRT:MSVCR71.dll
 0002:000003a0       __imp__wcsncpy             101213a0     MSVCRT:MSVCR71.dll
 0002:000003a4       __imp___snwprintf          101213a4     MSVCRT:MSVCR71.dll
 0002:000003a8       __imp__swscanf             101213a8     MSVCRT:MSVCR71.dll
 0002:000003ac       __imp__strcat              101213ac     MSVCRT:MSVCR71.dll
 0002:000003b0       __imp__strrchr             101213b0     MSVCRT:MSVCR71.dll
 0002:000003b4       __imp___fullpath           101213b4     MSVCRT:MSVCR71.dll
 0002:000003b8       __imp___wfullpath          101213b8     MSVCRT:MSVCR71.dll
 0002:000003bc       __imp____dllonexit         101213bc     MSVCRT:MSVCR71.dll
 0002:000003c0       __imp___onexit             101213c0     MSVCRT:MSVCR71.dll
 0002:000003c4       __imp_?terminate@@YAXXZ    101213c4     MSVCRT:MSVCR71.dll
 0002:000003c8       __imp___except_handler3    101213c8     MSVCRT:MSVCR71.dll
 0002:000003cc       __imp_??1type_info@@UAE@XZ 101213cc     MSVCRT:MSVCR71.dll
 0002:000003d0       __imp___initterm           101213d0     MSVCRT:MSVCR71.dll
 0002:000003d4       __imp___adjust_fdiv        101213d4     MSVCRT:MSVCR71.dll
 0002:000003d8       __imp____CppXcptFilter     101213d8     MSVCRT:MSVCR71.dll
 0002:000003dc       __imp__free                101213dc     MSVCRT:MSVCR71.dll
 0002:000003e0       \177MSVCR71_NULL_THUNK_DATA 101213e0     MSVCRT:MSVCR71.dll
 0002:000003e4       __imp__FlashWindowEx@4     101213e4     user32:USER32.dll
 0002:000003e8       __imp__EnumChildWindows@12 101213e8     user32:USER32.dll
 0002:000003ec       __imp__DrawIconEx@36       101213ec     user32:USER32.dll
 0002:000003f0       __imp__GetIconInfo@8       101213f0     user32:USER32.dll
 0002:000003f4       __imp__RealGetWindowClassW@12 101213f4     user32:USER32.dll
 0002:000003f8       __imp__DestroyCursor@4     101213f8     user32:USER32.dll
 0002:000003fc       __imp__SetTimer@16         101213fc     user32:USER32.dll
 0002:00000400       __imp__TranslateMessage@4  10121400     user32:USER32.dll
 0002:00000404       __imp__EnumThreadWindows@12 10121404     user32:USER32.dll
 0002:00000408       __imp__PostQuitMessage@4   10121408     user32:USER32.dll
 0002:0000040c       __imp__KillTimer@8         1012140c     user32:USER32.dll
 0002:00000410       __imp__ToAscii@20          10121410     user32:USER32.dll
 0002:00000414       __imp__GetKeyboardState@4  10121414     user32:USER32.dll
 0002:00000418       __imp__ActivateKeyboardLayout@8 10121418     user32:USER32.dll
 0002:0000041c       __imp__GetCaretPos@4       1012141c     user32:USER32.dll
 0002:00000420       __imp__GetWindowTextLengthA@4 10121420     user32:USER32.dll
 0002:00000424       __imp__LockWindowUpdate@4  10121424     user32:USER32.dll
 0002:00000428       __imp__GetScrollInfo@12    10121428     user32:USER32.dll
 0002:0000042c       __imp__keybd_event@16      1012142c     user32:USER32.dll
 0002:00000430       __imp__mouse_event@20      10121430     user32:USER32.dll
 0002:00000434       __imp__TrackPopupMenu@28   10121434     user32:USER32.dll
 0002:00000438       __imp__CreatePopupMenu@0   10121438     user32:USER32.dll
 0002:0000043c       __imp__MoveWindow@24       1012143c     user32:USER32.dll
 0002:00000440       __imp__EqualRect@8         10121440     user32:USER32.dll
 0002:00000444       __imp__WindowFromDC@4      10121444     user32:USER32.dll
 0002:00000448       __imp__IntersectRect@12    10121448     user32:USER32.dll
 0002:0000044c       __imp__CheckMenuItem@12    1012144c     user32:USER32.dll
 0002:00000450       __imp__EnableMenuItem@12   10121450     user32:USER32.dll
 0002:00000454       __imp__GetMenuState@12     10121454     user32:USER32.dll
 0002:00000458       __imp__RemoveMenu@12       10121458     user32:USER32.dll
 0002:0000045c       __imp__CreateMenu@0        1012145c     user32:USER32.dll
 0002:00000460       __imp__DestroyMenu@4       10121460     user32:USER32.dll
 0002:00000464       __imp__BeginPaint@8        10121464     user32:USER32.dll
 0002:00000468       __imp__EndPaint@8          10121468     user32:USER32.dll
 0002:0000046c       __imp__GetKeyboardLayoutList@8 1012146c     user32:USER32.dll
 0002:00000470       __imp__ClientToScreen@8    10121470     user32:USER32.dll
 0002:00000474       __imp__GetAncestor@8       10121474     user32:USER32.dll
 0002:00000478       __imp__GetActiveWindow@0   10121478     user32:USER32.dll
 0002:0000047c       __imp__DrawMenuBar@4       1012147c     user32:USER32.dll
 0002:00000480       __imp__GetMenu@4           10121480     user32:USER32.dll
 0002:00000484       __imp__SetMenu@8           10121484     user32:USER32.dll
 0002:00000488       __imp__GetWindowDC@4       10121488     user32:USER32.dll
 0002:0000048c       __imp__IsZoomed@4          1012148c     user32:USER32.dll
 0002:00000490       __imp__GetSystemMenu@8     10121490     user32:USER32.dll
 0002:00000494       __imp__DeleteMenu@12       10121494     user32:USER32.dll
 0002:00000498       __imp__GetMenuItemCount@4  10121498     user32:USER32.dll
 0002:0000049c       __imp__UnhookWindowsHookEx@4 1012149c     user32:USER32.dll
 0002:000004a0       __imp__RedrawWindow@16     101214a0     user32:USER32.dll
 0002:000004a4       __imp__MessageBeep@4       101214a4     user32:USER32.dll
 0002:000004a8       __imp__BringWindowToTop@4  101214a8     user32:USER32.dll
 0002:000004ac       __imp__SetForegroundWindow@4 101214ac     user32:USER32.dll
 0002:000004b0       __imp__IsIconic@4          101214b0     user32:USER32.dll
 0002:000004b4       __imp__GetForegroundWindow@0 101214b4     user32:USER32.dll
 0002:000004b8       __imp__CallNextHookEx@16   101214b8     user32:USER32.dll
 0002:000004bc       __imp__MessageBoxA@16      101214bc     user32:USER32.dll
 0002:000004c0       __imp__IsRectEmpty@4       101214c0     user32:USER32.dll
 0002:000004c4       __imp__WaitMessage@0       101214c4     user32:USER32.dll
 0002:000004c8       __imp__DestroyWindow@4     101214c8     user32:USER32.dll
 0002:000004cc       __imp__GetDC@4             101214cc     user32:USER32.dll
 0002:000004d0       __imp__GetWindowRect@8     101214d0     user32:USER32.dll
 0002:000004d4       __imp__IsWindow@4          101214d4     user32:USER32.dll
 0002:000004d8       __imp__IsWindowVisible@4   101214d8     user32:USER32.dll
 0002:000004dc       __imp__InvalidateRgn@12    101214dc     user32:USER32.dll
 0002:000004e0       __imp__OffsetRect@12       101214e0     user32:USER32.dll
 0002:000004e4       __imp__ScrollDC@28         101214e4     user32:USER32.dll
 0002:000004e8       __imp__SetRect@20          101214e8     user32:USER32.dll
 0002:000004ec       __imp__GetClientRect@8     101214ec     user32:USER32.dll
 0002:000004f0       __imp__GetDesktopWindow@0  101214f0     user32:USER32.dll
 0002:000004f4       __imp__GetQueueStatus@4    101214f4     user32:USER32.dll
 0002:000004f8       __imp__CreateIconIndirect@4 101214f8     user32:USER32.dll
 0002:000004fc       __imp__SetCursor@4         101214fc     user32:USER32.dll
 0002:00000500       __imp__DestroyIcon@4       10121500     user32:USER32.dll
 0002:00000504       __imp__GetDoubleClickTime@0 10121504     user32:USER32.dll
 0002:00000508       __imp__IsWindowEnabled@4   10121508     user32:USER32.dll
 0002:0000050c       __imp__SetWindowRgn@12     1012150c     user32:USER32.dll
 0002:00000510       __imp__SetParent@8         10121510     user32:USER32.dll
 0002:00000514       __imp__BeginDeferWindowPos@4 10121514     user32:USER32.dll
 0002:00000518       __imp__GetDlgItem@8        10121518     user32:USER32.dll
 0002:0000051c       __imp__ToUnicodeEx@28      1012151c     user32:USER32.dll
 0002:00000520       __imp__GetKeyboardLayout@4 10121520     user32:USER32.dll
 0002:00000524       __imp__GetKeyboardType@4   10121524     user32:USER32.dll
 0002:00000528       __imp__GetKeyState@4       10121528     user32:USER32.dll
 0002:0000052c       __imp__ValidateRgn@8       1012152c     user32:USER32.dll
 0002:00000530       __imp__GetUpdateRgn@12     10121530     user32:USER32.dll
 0002:00000534       __imp__SetRectEmpty@4      10121534     user32:USER32.dll
 0002:00000538       __imp__GetSysColor@4       10121538     user32:USER32.dll
 0002:0000053c       __imp__PtInRect@12         1012153c     user32:USER32.dll
 0002:00000540       __imp__DrawFocusRect@8     10121540     user32:USER32.dll
 0002:00000544       __imp__InflateRect@12      10121544     user32:USER32.dll
 0002:00000548       __imp__CopyRect@8          10121548     user32:USER32.dll
 0002:0000054c       __imp__DrawEdge@16         1012154c     user32:USER32.dll
 0002:00000550       __imp__FillRect@12         10121550     user32:USER32.dll
 0002:00000554       __imp__GetWindow@8         10121554     user32:USER32.dll
 0002:00000558       __imp__DrawFrameControl@16 10121558     user32:USER32.dll
 0002:0000055c       __imp__UpdateWindow@4      1012155c     user32:USER32.dll
 0002:00000560       __imp__InvalidateRect@12   10121560     user32:USER32.dll
 0002:00000564       __imp__ScreenToClient@8    10121564     user32:USER32.dll
 0002:00000568       __imp__GetSystemMetrics@4  10121568     user32:USER32.dll
 0002:0000056c       __imp__SetWindowPos@28     1012156c     user32:USER32.dll
 0002:00000570       __imp__SetCapture@4        10121570     user32:USER32.dll
 0002:00000574       __imp__ReleaseCapture@0    10121574     user32:USER32.dll
 0002:00000578       __imp__GetCapture@0        10121578     user32:USER32.dll
 0002:0000057c       __imp__SetClipboardViewer@4 1012157c     user32:USER32.dll
 0002:00000580       __imp__ChangeClipboardChain@8 10121580     user32:USER32.dll
 0002:00000584       __imp__OpenClipboard@4     10121584     user32:USER32.dll
 0002:00000588       __imp__UnionRect@12        10121588     user32:USER32.dll
 0002:0000058c       __imp__GetUpdateRect@12    1012158c     user32:USER32.dll
 0002:00000590       __imp__GetMessageTime@0    10121590     user32:USER32.dll
 0002:00000594       __imp__GetFocus@0          10121594     user32:USER32.dll
 0002:00000598       __imp__SetActiveWindow@4   10121598     user32:USER32.dll
 0002:0000059c       __imp__GetDCEx@12          1012159c     user32:USER32.dll
 0002:000005a0       __imp__ShowCursor@4        101215a0     user32:USER32.dll
 0002:000005a4       __imp__GetMessagePos@0     101215a4     user32:USER32.dll
 0002:000005a8       __imp__ToAsciiEx@24        101215a8     user32:USER32.dll
 0002:000005ac       __imp__SetScrollInfo@16    101215ac     user32:USER32.dll
 0002:000005b0       __imp__GetScrollRange@16   101215b0     user32:USER32.dll
 0002:000005b4       __imp__GetScrollPos@8      101215b4     user32:USER32.dll
 0002:000005b8       __imp__SetScrollRange@20   101215b8     user32:USER32.dll
 0002:000005bc       __imp__SetScrollPos@16     101215bc     user32:USER32.dll
 0002:000005c0       __imp__MapWindowPoints@16  101215c0     user32:USER32.dll
 0002:000005c4       __imp__DeferWindowPos@32   101215c4     user32:USER32.dll
 0002:000005c8       __imp__GetWindowPlacement@8 101215c8     user32:USER32.dll
 0002:000005cc       __imp__SetWindowPlacement@8 101215cc     user32:USER32.dll
 0002:000005d0       __imp__ShowWindow@8        101215d0     user32:USER32.dll
 0002:000005d4       __imp__GetCursorPos@4      101215d4     user32:USER32.dll
 0002:000005d8       __imp__WindowFromPoint@8   101215d8     user32:USER32.dll
 0002:000005dc       __imp__GetWindowThreadProcessId@8 101215dc     user32:USER32.dll
 0002:000005e0       __imp__GetParent@4         101215e0     user32:USER32.dll
 0002:000005e4       __imp__SetFocus@4          101215e4     user32:USER32.dll
 0002:000005e8       __imp__EndDeferWindowPos@4 101215e8     user32:USER32.dll
 0002:000005ec       __imp__CountClipboardFormats@0 101215ec     user32:USER32.dll
 0002:000005f0       __imp__SetClipboardData@8  101215f0     user32:USER32.dll
 0002:000005f4       __imp__CloseClipboard@0    101215f4     user32:USER32.dll
 0002:000005f8       __imp__EmptyClipboard@0    101215f8     user32:USER32.dll
 0002:000005fc       __imp__GetOpenClipboardWindow@0 101215fc     user32:USER32.dll
 0002:00000600       __imp__ReleaseDC@8         10121600     user32:USER32.dll
 0002:00000604       \177USER32_NULL_THUNK_DATA 10121604     user32:USER32.dll
 0002:00000608       __imp__FindClosePrinterChangeNotification@4 10121608     winspool:WINSPOOL.DRV
 0002:0000060c       __imp__FindNextPrinterChangeNotification@16 1012160c     winspool:WINSPOOL.DRV
 0002:00000610       __imp__ClosePrinter@4      10121610     winspool:WINSPOOL.DRV
 0002:00000614       __imp__EndDocPrinter@4     10121614     winspool:WINSPOOL.DRV
 0002:00000618       __imp__StartPagePrinter@4  10121618     winspool:WINSPOOL.DRV
 0002:0000061c       __imp__WritePrinter@16     1012161c     winspool:WINSPOOL.DRV
 0002:00000620       __imp__EndPagePrinter@4    10121620     winspool:WINSPOOL.DRV
 0002:00000624       __imp__GetPrinterA@20      10121624     winspool:WINSPOOL.DRV
 0002:00000628       __imp__EnumPrintersA@28    10121628     winspool:WINSPOOL.DRV
 0002:0000062c       __imp__FindFirstPrinterChangeNotification@16 1012162c     winspool:WINSPOOL.DRV
 0002:00000630       \177WINSPOOL_NULL_THUNK_DATA 10121630     winspool:WINSPOOL.DRV
 0002:00000634       __imp__JNU_NewStringPlatform@8 10121634     java:java.dll
 0002:00000638       __imp__JNU_GetStaticFieldByName@20 10121638     java:java.dll
 0002:0000063c       __imp__JNU_GetStringPlatformChars@12 1012163c     java:java.dll
 0002:00000640       __imp__JNU_ReleaseStringPlatformChars@12 10121640     java:java.dll
 0002:00000644       __imp__jio_snprintf        10121644     java:java.dll
 0002:00000648       __imp__JNU_CallMethodByName 10121648     java:java.dll
 0002:0000064c       __imp__JNU_ThrowArrayIndexOutOfBoundsException@8 1012164c     java:java.dll
 0002:00000650       __imp__JNU_ThrowNullPointerException@8 10121650     java:java.dll
 0002:00000654       __imp__JNU_ThrowInternalError@8 10121654     java:java.dll
 0002:00000658       __imp__JNU_SetFieldByName  10121658     java:java.dll
 0002:0000065c       __imp__JNU_CallStaticMethodByName 1012165c     java:java.dll
 0002:00000660       __imp__JNU_ThrowOutOfMemoryError@8 10121660     java:java.dll
 0002:00000664       __imp__JNU_GetEnv@8        10121664     java:java.dll
 0002:00000668       __imp__JNU_ThrowByName@12  10121668     java:java.dll
 0002:0000066c       __imp__JNU_ThrowIOException@8 1012166c     java:java.dll
 0002:00000670       __imp__JNU_NewObjectByName 10121670     java:java.dll
 0002:00000674       __imp__JNU_GetFieldByName@20 10121674     java:java.dll
 0002:00000678       __imp__JNU_ClassString@4   10121678     java:java.dll
 0002:0000067c       __imp__JNU_IsInstanceOfByName@12 1012167c     java:java.dll
 0002:00000680       __imp__JNU_ThrowNoSuchMethodError@8 10121680     java:java.dll
 0002:00000684       __imp__getEncodingFromLangID 10121684     java:java.dll
 0002:00000688       __imp__JNU_ThrowIllegalArgumentException@8 10121688     java:java.dll
 0002:0000068c       __imp__JNU_ToString@8      1012168c     java:java.dll
 0002:00000690       __imp__JNU_CallMethodByNameV@24 10121690     java:java.dll
 0002:00000694       __imp__getJavaIDFromLangID 10121694     java:java.dll
 0002:00000698       \177java_NULL_THUNK_DATA   10121698     java:java.dll
 0002:0000069c       __imp__JVM_RaiseSignal@4   1012169c     jvm:jvm.dll
 0002:000006a0       __imp__JVM_CurrentTimeMillis@8 101216a0     jvm:jvm.dll
 0002:000006a4       __imp__JVM_RawMonitorExit@4 101216a4     jvm:jvm.dll
 0002:000006a8       __imp__JVM_RawMonitorEnter@4 101216a8     jvm:jvm.dll
 0002:000006ac       __imp__JVM_RawMonitorDestroy@4 101216ac     jvm:jvm.dll
 0002:000006b0       __imp__JVM_RawMonitorCreate@0 101216b0     jvm:jvm.dll
 0002:000006b4       \177jvm_NULL_THUNK_DATA    101216b4     jvm:jvm.dll
 0002:000006b8       __imp__CoTaskMemFree@4     101216b8     ole32:ole32.dll
 0002:000006bc       __imp__CoUninitialize@0    101216bc     ole32:ole32.dll
 0002:000006c0       __imp__CoInitialize@4      101216c0     ole32:ole32.dll
 0002:000006c4       __imp__CoFileTimeNow@4     101216c4     ole32:ole32.dll
 0002:000006c8       __imp__DoDragDrop@16       101216c8     ole32:ole32.dll
 0002:000006cc       __imp__OleUninitialize@0   101216cc     ole32:ole32.dll
 0002:000006d0       __imp__OleInitialize@4     101216d0     ole32:ole32.dll
 0002:000006d4       __imp__CoGetCurrentProcess@0 101216d4     ole32:ole32.dll
 0002:000006d8       __imp__ReleaseStgMedium@4  101216d8     ole32:ole32.dll
 0002:000006dc       __imp__RegisterDragDrop@8  101216dc     ole32:ole32.dll
 0002:000006e0       __imp__RevokeDragDrop@4    101216e0     ole32:ole32.dll
 0002:000006e4       __imp__CoLockObjectExternal@12 101216e4     ole32:ole32.dll
 0002:000006e8       __imp__CoCreateInstance@20 101216e8     ole32:ole32.dll
 0002:000006ec       \177ole32_NULL_THUNK_DATA  101216ec     ole32:ole32.dll
 0002:00000710       __real@3fe0000000000000    10121710     GraphicsPrimitiveMgr.obj
 0002:00000718       __real@3ff0000000000000    10121718     ScaledBlit.obj
 0002:00000720       __real@41f0000000000000    10121720     FillParallelogram.obj
 0002:00000728       __real@0000000000000000    10121728     FillParallelogram.obj
 0002:00000730       __real@3ff00068db8bac71    10121730     DrawParallelogram.obj
 0002:00000738       __real@4000000000000000    10121738     DrawParallelogram.obj
 0002:00000740       __real@41bfffffff000000    10121740     DrawLine.obj
 0002:00000748       __real@c1c0000000000000    10121748     DrawLine.obj
 0002:00000750       __real@3f000000            10121750     ProcessPath.obj
 0002:00000754       __real@fe7fffff            10121754     ProcessPath.obj
 0002:00000758       __real@7e7fffff            10121758     ProcessPath.obj
 0002:0000075c       __real@3a800000            1012175c     ProcessPath.obj
 0002:00000760       __real@40000000            10121760     ProcessPath.obj
 0002:00000764       __real@44800000            10121764     ProcessPath.obj
 0002:00000768       __real@44000000            10121768     ProcessPath.obj
 0002:0000076c       __real@c0000000            1012176c     ProcessPath.obj
 0002:00000770       __real@43000000            10121770     ProcessPath.obj
 0002:00000778       __real@c000000000000000    10121778     ProcessPath.obj
 0002:00000780       __real@4010000000000000    10121780     ProcessPath.obj
 0002:00000788       __real@40400000            10121788     ProcessPath.obj
 0002:0000078c       __real@43800000            1012178c     ProcessPath.obj
 0002:00000790       __real@46000000            10121790     ProcessPath.obj
 0002:00000794       __real@c0400000            10121794     ProcessPath.obj
 0002:00000798       __real@45000000            10121798     ProcessPath.obj
 0002:0000079c       __real@40c00000            1012179c     ProcessPath.obj
 0002:000007a0       __real@4090000000000000    101217a0     ProcessPath.obj
 0002:000007a8       __real@406fffff2e48e8a7    101217a8     MaskFill.obj
 0002:000007b0       __real@bff0000000000000    101217b0     MaskFill.obj
 0002:000007b8       __real@bf70000000000000    101217b8     MaskFill.obj
 0002:000007c0       __real@3f70000000000000    101217c0     MaskFill.obj
 0002:000007c8       __real@bfe0000000000000    101217c8     TransformHelper.obj
 0002:000007d0       __real@4020000000000000    101217d0     TransformHelper.obj
 0002:000007d8       __real@4014000000000000    101217d8     TransformHelper.obj
 0002:000007e0       __real@4008000000000000    101217e0     TransformHelper.obj
 0002:000007e8       __real@4070000000000000    101217e8     TransformHelper.obj
 0002:000007f0       __real@406fe00000000000    101217f0     ByteBinary1Bit.obj
 0002:000007f8       __real@40efffe000000000    101217f8     UshortGray.obj
 0002:00000800       __real@3e800000            10121800     ShapeSpanIterator.obj
 0002:00000808       __real@41dfffffffc00000    10121808     ShapeSpanIterator.obj
 0002:00000810       __real@47800000            10121810     awt_ImagingLib.obj
 0002:00000818       __real@3fd5555555555555    10121818     dither.obj
 0002:00000824       __real@3f800000            10121824     OGLBlitLoops.obj
 0002:00000828       __real@4040000000000000    10121828     OGLBlitLoops.obj
 0002:00000830       __real@437f0000            10121830     OGLBufImgOps.obj
 0002:00000834       __real@42000000            10121834     OGLMaskBlit.obj
 0002:00000838       __real@3f4ccccd            10121838     OGLRenderer.obj
 0002:0000083c       __real@3f99999a            1012183c     OGLRenderer.obj
 0002:00000840       __real@3e4ccccd            10121840     OGLRenderer.obj
 0002:00000844       __real@00000000            10121844     OGLRenderer.obj
 0002:00000848       __real@4059000000000000    10121848     OGLTextRenderer.obj
 0002:00000a24       ??_7CriticalSection@@6B@   10121a24     CmdIDList.obj
 0002:00000bf8       ??_7Hashtable@@6B@         10121bf8     Hashtable.obj
 0002:000010a0       ??_7D3DContext@@6B@        101220a0     Devices.obj
 0002:00001788       __real@4076800000000000    10122788     GDIRenderer.obj
 0002:00001790       __real@400921fb54411744    10122790     GDIRenderer.obj
 0002:00001798       __real@3febb67ae8584caa    10122798     GDIRenderer.obj
 0002:00002cdc       ??_7AwtBrush@@6B@          10123cdc     awt_Brush.obj
 0002:00002ce4       ??_7AwtGDIObject@@6B@      10123ce4     awt_Brush.obj
 0002:00002cec       ??_7GDIHashtable@@6B@      10123cec     awt_Brush.obj
 0002:000030a8       ??_7AwtButton@@6B@         101240a8     awt_Button.obj
 0002:0000326c       ??_C@_05MAJJAKPI@FALSE?$AA@ 1012426c     awt_Button.obj
 0002:00003278       ??_C@_0EH@BDEJCLDN@c?3?2build_area?2jdk6_21?2j2se?2src?2w@ 10124278     awt_Button.obj
 0002:000032c0       ??_C@_0BF@FNDAEHPH@?3?3SetRectEmpty?$CIrect?$CJ?$AA@ 101242c0     awt_Button.obj
 0002:000032d8       ??_C@_0EK@JKKCAKAC@c?3?2build_area?2jdk6_21?2j2se?2src?2w@ 101242d8     awt_Button.obj
 0002:00003324       ??_C@_09NIMMPCEL@GetHWnd?$CI?$CJ?$AA@ 10124324     awt_Button.obj
 0002:00003330       ??_C@_0CC@BKFEOOG@ret?5?$CB?$DN?50?5?$HM?$HM?5?3?3GetLastError?$CI?$CJ?5?$DN?$DN?5@ 10124330     awt_Button.obj
 0002:00003354       ??_C@_0BN@ECFHNKMJ@?$CBsafe_ExceptionOccurred?$CIenv?$CJ?$AA@ 10124354     awt_Button.obj
 0002:000036b0       ??_7AwtCanvas@@6B@         101246b0     awt_Canvas.obj
 0002:00003944       ?CHECK_SIZE@AwtCheckbox@@2HB 10124944     awt_Checkbox.obj
 0002:000040f8       ??_7AwtCheckbox@@6B@       101250f8     awt_Checkbox.obj
 0002:00004af0       ??_7AwtChoice@@6B@         10125af0     awt_Choice.obj
 0002:00004cb4       ??_C@_0BD@LGKGINPE@m_hFont?$FL0?$FN?5?$CB?$DN?5NULL?$AA@ 10125cb4     awt_Choice.obj
 0002:00004cc8       ??_C@_0EF@KKHJDGOM@c?3?2build_area?2jdk6_21?2j2se?2src?2w@ 10125cc8     awt_Choice.obj
 0002:00005550       ??_C@_0BB@MOLJEJJH@EmptyClipboard?$CI?$CJ?$AA@ 10126550     awt_Clipboard.obj
 0002:00005568       ??_C@_0EK@FJEBLNBG@c?3?2build_area?2jdk6_21?2j2se?2src?2w@ 10126568     awt_Clipboard.obj
 0002:0000a138       ??_7AwtComponent@@6B@      1012b138     awt_Component.obj
 0002:0000a300       __real@3fbd2f1a9fbe76c9    1012b300     awt_Component.obj
 0002:0000a308       __real@3fe2c8b439581062    1012b308     awt_Component.obj
 0002:0000a310       __real@3fd322d0e5604189    1012b310     awt_Component.obj
 0002:0000a318       ??_C@_0BJ@LMEHCFGK@Can?8t?5allocate?5localRefs?$AA@ 1012b318     awt_Component.obj
 0002:0000a338       ??_C@_0EI@KCKCPNIA@c?3?2build_area?2jdk6_21?2j2se?2src?2w@ 1012b338     awt_Component.obj
 0002:0000a380       ??_C@_0DD@ELBCNICA@AwtToolkit?3?3MainThread?$CI?$CJ?5?$DN?$DN?5?3?3Ge@ 1012b380     awt_Component.obj
 0002:0000a3b8       ??_C@_0EG@KGJPKCKM@c?3?2build_area?2jdk6_21?2j2se?2src?2w@ 1012b3b8     awt_Component.obj
 0002:0000a400       ??_C@_1CK@ICBNENOC@?$AAM?$AAS?$AAH?$AA_?$AAS?$AAC?$AAR?$AAO?$AAL?$AAL?$AA_?$AAL?$AAI?$AAN?$AAE?$AAS?$AA_?$AAM?$AAS?$AAG@ 1012b400     awt_Component.obj
 0002:0000a42c       ??_C@_1CK@MGKHBFME@?$AAM?$AAS?$AAH?$AA_?$AAW?$AAH?$AAE?$AAE?$AAL?$AAS?$AAU?$AAP?$AAP?$AAO?$AAR?$AAT?$AA_?$AAM?$AAS?$AAG@ 1012b42c     awt_Component.obj
 0002:0000a458       ??_C@_1CA@CDFPEELE@?$AAM?$AAS?$AAW?$AAH?$AAE?$AAE?$AAL?$AA_?$AAR?$AAO?$AAL?$AAL?$AAM?$AAS?$AAG?$AA?$AA@ 1012b458     awt_Component.obj
 0002:0000a478       ??_C@_1O@EMPHFLGL@?$AAM?$AAo?$AAu?$AAs?$AAe?$AAZ?$AA?$AA@ 1012b478     awt_Component.obj
 0002:0000a488       ??_C@_1CC@PACAMENH@?$AAM?$AAa?$AAg?$AAe?$AAl?$AAl?$AAa?$AAn?$AA?5?$AAM?$AAS?$AAW?$AAH?$AAE?$AAE?$AAL?$AA?$AA@ 1012b488     awt_Component.obj
 0002:0000ace8       ??_7AwtCursor@@6B@         1012bce8     awt_Cursor.obj
 0002:0000b244       ?LOCK_FAILED_MESSAGE@OleStrongLock@@0QBDB 1012c244     awt_DataTransferer.obj
 0002:0000ef30       ??_7AwtDialog@@6B@         1012ff30     awt_Dialog.obj
 0002:0000f138       ??_C@_0BM@HKLMJME@?3?3CopyRect?$CIrect?0?5?$CGm_insets?$CJ?$AA@ 10130138     awt_Dialog.obj
 0002:0000f158       ??_C@_0EH@LBGNGCFL@c?3?2build_area?2jdk6_21?2j2se?2src?2w@ 10130158     awt_Dialog.obj
 0002:0000f570       ??_7JAWTDrawingSurface@@6B@ 10130570     awt_DrawingSurface.obj
 0002:0000f574       ??_7JAWTOffscreenDrawingSurface@@6B@ 10130574     awt_DrawingSurface.obj
 0002:00012a24       ??_7AwtFont@@6B@           10133a24     awt_Font.obj
 0002:00012a30       ??_C@_0BD@LFFFGOFF@m_hFont?$FLi?$FN?5?$CB?$DN?5NULL?$AA@ 10133a30     awt_Font.obj
 0002:00012a48       __real@404ca5dc1a674644    10133a48     awt_Font.obj
 0002:00012a50       __real@4024000000000000    10133a50     awt_Font.obj
 0002:00012a58       ??_7CSegTableComponent@@6B@ 10133a58     awt_Font.obj
 0002:00012a64       ??_C@_0DF@KMLMFPNP@?4?4?1?4?4?1?4?4?1src?1windows?1native?1sun?1@ 10133a64     awt_Font.obj
 0002:00012a9c       ??_7CSegTable@@6B@         10133a9c     awt_Font.obj
 0002:00012ab0       ??_7CStdSegTable@@6B@      10133ab0     awt_Font.obj
 0002:00012ac4       ??_C@_0BE@LBEMNJCF@nBytes?5?$CB?$DN?5GDI_ERROR?$AA@ 10133ac4     awt_Font.obj
 0002:00012ad8       ??_C@_08LBMAAOBB@m_hTmpDC?$AA@ 10133ad8     awt_Font.obj
 0002:00012ae4       ??_7CEUDCSegTable@@6B@     10133ae4     awt_Font.obj
 0002:00012af8       ??_C@_0BB@BDOBKIE@dwRead?5?$DN?$DN?5cbData?$AA@ 10133af8     awt_Font.obj
 0002:00012b0c       ??_C@_0DD@NEKADHAG@?3?3ReadFile?$CIm_hTmpFile?0?5lpData?0?5c@ 10133b0c     awt_Font.obj
 0002:00012b40       ??_C@_0BB@KICIFMO@m_hTmpCMapOffset?$AA@ 10133b40     awt_Font.obj
 0002:00012b54       ??_C@_0L@FIGJAOEL@m_hTmpFile?$AA@ 10133b54     awt_Font.obj
 0002:00012b60       ??_C@_0BH@DLHMEDBE@m_lpszFontName?5?$CB?$DN?5NULL?$AA@ 10133b60     awt_Font.obj
 0002:00012b78       ??_7CCombinedSegTable@@6B@ 10133b78     awt_Font.obj
 0002:00013cb8       ??_7AwtFrame@@6B@          10134cb8     awt_Frame.obj
 0002:00013eb8       ??_C@_0BJ@LCEEJBPL@?3?3DrawMenuBar?$CIGetHWnd?$CI?$CJ?$CJ?$AA@ 10134eb8     awt_Frame.obj
 0002:00014020       __real@3feccccccccccccd    10135020     awt_GDIObject.obj
 0002:000140c8       ?SYSCOMMAND_IMM@@3IB       101350c8     awt_InputMethod.obj
 0002:00014464       ?GCS_INDEX@AwtInputTextInfor@@0QBKB 10135464     awt_InputTextInfor.obj
 0002:00015680       ??_7AwtLabel@@6B@          10136680     awt_Label.obj
 0002:00016248       ??_7AwtList@@6B@           10137248     awt_List.obj
 0002:0001640c       ??_C@_0BA@FLNCHMMK@GetListHandle?$CI?$CJ?$AA@ 1013740c     awt_List.obj
 0002:00016420       ??_C@_0EF@EACANJIM@c?3?2build_area?2jdk6_21?2j2se?2src?2w@ 10137420     awt_List.obj
 0002:00016468       ??_C@_0O@CBNJABIL@ret?5?$CB?$DN?5LB_ERR?$AA@ 10137468     awt_List.obj
 0002:00016478       ??_C@_0BI@JHPCOOIE@GetListHandle?$CI?$CJ?5?$CB?$DN?5NULL?$AA@ 10137478     awt_List.obj
 0002:00016490       ??_C@_0BA@MMNENHIN@index?5?$CB?$DN?5LB_ERR?$AA@ 10137490     awt_List.obj
 0002:000164a0       ??_C@_0DE@BACHFCAH@SendListMessage?$CI0x0181?0?5index?0?5?$CI@ 101374a0     awt_List.obj
 0002:00016b00       ??_7AwtMenu@@6B@           10137b00     awt_Menu.obj
 0002:00017040       ??_7AwtMenuBar@@6B@        10138040     awt_MenuBar.obj
 0002:0001807c       ??_7AwtMenuItem@@6B@       1013907c     awt_MenuItem.obj
 0002:000180a0       ??_C@_09BALMEKAL@?$CBm_freeId?$AA@ 101390a0     awt_MenuItem.obj
 0002:000180b0       ??_C@_0EJ@LBHEBFNF@c?3?2build_area?2jdk6_21?2j2se?2src?2w@ 101390b0     awt_MenuItem.obj
 0002:00018854       ??_7AwtObject@@6B@         10139854     awt_Object.obj
 0002:00018d70       ??_7AwtPopupMenu@@6B@      10139d70     awt_PopupMenu.obj
 0002:00018eec       ??_7AwtPen@@6B@            10139eec     awt_Pen.obj
 0002:0001a830       __real@4052000000000000    1013b830     awt_PrintControl.obj
 0002:0001c248       __real@3fb999999999999a    1013d248     awt_PrintJob.obj
 0002:0001c250       __real@408f400000000000    1013d250     awt_PrintJob.obj
 0002:0001c778       ??_7AwtRobot@@6B@          1013d778     awt_Robot.obj
 0002:0001c92c       ?SbNlineDown@AwtScrollbar@@0QBDB 1013d92c     awt_Scrollbar.obj
 0002:0001c938       ?SbNlineUp@AwtScrollbar@@0QBDB 1013d938     awt_Scrollbar.obj
 0002:0001c948       ?SbNpageDown@AwtScrollbar@@0QBDB 1013d948     awt_Scrollbar.obj
 0002:0001c954       ?SbNpageUp@AwtScrollbar@@0QBDB 1013d954     awt_Scrollbar.obj
 0002:0001c960       ?SbNdrag@AwtScrollbar@@0QBDB 1013d960     awt_Scrollbar.obj
 0002:0001c96c       ?SbNdragEnd@AwtScrollbar@@0QBDB 1013d96c     awt_Scrollbar.obj
 0002:0001c978       ?SbNwarp@AwtScrollbar@@0QBDB 1013d978     awt_Scrollbar.obj
 0002:0001cc60       ??_7AwtScrollbar@@6B@      1013dc60     awt_Scrollbar.obj
 0002:0001ce24       ??_C@_04PFANPMCN@?$CII?$CJV?$AA@ 1013de24     awt_Scrollbar.obj
 0002:0001ce2c       ??_C@_0DK@HKNEMGGB@?4?4?1?4?4?1?4?4?1src?1windows?1native?1sun?1@ 1013de2c     awt_Scrollbar.obj
 0002:0001ce68       ??_C@_0DB@DMJONKNP@AwtScrollbar?3?5ignoring?5duplicate@ 1013de68     awt_Scrollbar.obj
 0002:0001da78       ??_7AwtScrollPane@@6B@     1013ea78     awt_ScrollPane.obj
 0002:0001e6f8       ??_7AwtTextArea@@6B@       1013f6f8     awt_TextArea.obj
 0002:0001e8d0       ??_C@_0EO@FKIAMFNA@c?3?2build_area?2jdk6_21?2j2se?2src?2w@ 1013f8d0     awt_TextArea.obj
 0002:0001e920       ??_7OleCallback@AwtTextArea@@6B@ 1013f920     awt_TextArea.obj
 0002:0001ed70       ??_7AwtTextComponent@@6B@  1013fd70     awt_TextComponent.obj
 0002:0001f2a0       ??_7AwtTextField@@6B@      101402a0     awt_TextField.obj
 0002:000202a4       ?EXIT_ENCLOSING_LOOP@AwtToolkit@@2HB 101412a4     awt_Toolkit.obj
 0002:000202a8       ?EXIT_ALL_ENCLOSING_LOOPS@AwtToolkit@@2HB 101412a8     awt_Toolkit.obj
 0002:000222d8       ??_7AwtWindow@@6B@         101432d8     awt_Window.obj
 0002:000224d4       ??_C@_0DE@PMCBHMED@Message?5not?5posted?0?5native?5event@ 101434d4     awt_Window.obj
 0002:00023b38       ?CACHE_INCR@AwtDropTarget@@0IB 10144b38     awt_DnDDT.obj
 0002:0002422c       ??_7AwtDropTarget@@6BIDropTarget@@@ 1014522c     awt_DnDDT.obj
 0002:00024248       ??_7AwtDropTarget@@6B0@@   10145248     awt_DnDDT.obj
 0002:0002426c       ??_8AwtDropTarget@@7B@     1014526c     awt_DnDDT.obj
 0002:0002428c       ??_C@_0DI@LCFDACMG@sm_pCurrentDnDDataObject?5?$CB?$DN?5NULL@ 1014528c     awt_DnDDT.obj
 0002:000242c8       ??_C@_0EG@JHODBFFP@c?3?2build_area?2jdk6_21?2j2se?2src?2w@ 101452c8     awt_DnDDT.obj
 0002:00024310       ??_7WDTCPIStreamWrapper@@6B@ 10145310     awt_DnDDT.obj
 0002:00024e08       ??_7AwtDragSource@@6BIDataObject@@@ 10145e08     awt_DnDDS.obj
 0002:00024e38       ??_7AwtDragSource@@6BIDropSource@@@ 10145e38     awt_DnDDS.obj
 0002:00024e4c       ??_7AwtDragSource@@6B0@@   10145e4c     awt_DnDDS.obj
 0002:00024e58       ??_8AwtDragSource@@7B@     10145e58     awt_DnDDS.obj
 0002:00024e74       ??_7ADSIEnumFormatEtc@AwtDragSource@@6BIEnumFORMATETC@@@ 10145e74     awt_DnDDS.obj
 0002:00024e90       ??_7ADSIEnumFormatEtc@AwtDragSource@@6B01@@ 10145e90     awt_DnDDS.obj
 0002:00024e94       ??_8ADSIEnumFormatEtc@AwtDragSource@@7B@ 10145e94     awt_DnDDS.obj
 0002:00024e9c       ??_7ADSIStreamProxy@AwtDragSource@@6BIStream@@@ 10145e9c     awt_DnDDS.obj
 0002:00024ed4       ??_7ADSIStreamProxy@AwtDragSource@@6B01@@ 10145ed4     awt_DnDDS.obj
 0002:00024ed8       ??_8ADSIStreamProxy@AwtDragSource@@7B@ 10145ed8     awt_DnDDS.obj
 0002:00025638       ??_7AwtTrayIcon@@6B@       10146638     awt_TrayIcon.obj
 0002:00025660       ??_C@_0EJ@GPHNCKPI@c?3?2build_area?2jdk6_21?2j2se?2src?2w@ 10146660     awt_TrayIcon.obj
 0002:00026904       __real@38d1b717            10147904     D3DBlitLoops.obj
 0002:0003abc0       ??_7D3DInitializer@@6B@    1015bbc0     D3DPipelineManager.obj
 0002:0003abcc       ??_7PreloadAction@AwtToolkit@@6B@ 1015bbcc     D3DPipelineManager.obj
 0002:0003abd8       ??_7D3DAdapterInitializer@D3DInitializer@@6B@ 1015bbd8     D3DPipelineManager.obj
 0002:0003d464       ??_7D3DResource@@6B@       1015e464     D3DResourceManager.obj
 0002:0003d470       ??_7IManagedResource@@6B@  1015e470     D3DResourceManager.obj
 0002:0003f678       __real@42c80000            10160678     D3DTextRenderer.obj
 0002:0003f9f4       __real@be99999a            101609f4     D3DVertexCacher.obj
 0002:0003f9f8       __real@3ecccccd            101609f8     D3DVertexCacher.obj
 0002:0003f9fc       __real@3e9ba5e3            101609fc     D3DVertexCacher.obj
 0002:0003fa00       __real@be800000            10160a00     D3DVertexCacher.obj
 0002:0003fa04       __real@bdcccccd            10160a04     D3DVertexCacher.obj
 0002:0003fa08       __real@3e99999a            10160a08     D3DVertexCacher.obj
 0002:0003fa0c       __real@3f028f5c            10160a0c     D3DVertexCacher.obj
 0002:0003fa10       __real@be4ccccd            10160a10     D3DVertexCacher.obj
 0002:00040c40       ??_C@_0N@MDJJJHMB@kernel32?4dll?$AA@ 10161c40     unicows:thunk_kernel32_LoadLibraryW.obj
 0002:00040c50       ??_C@_0N@KCFDJLIF@LoadLibraryW?$AA@ 10161c50     unicows:thunk_kernel32_LoadLibraryW.obj
 0002:00040c60       ??_C@_0P@DGIDOA@GetProcAddress?$AA@ 10161c60     unicows:thunk_kernel32_GetProcAddress.obj
 0002:00040c70       ??_C@_0L@GMPLCCII@user32?4dll?$AA@ 10161c70     unicows:thunk_user32_CreateWindowExW.obj
 0002:00040c7c       ??_C@_0BA@MHOOFEGE@CreateWindowExW?$AA@ 10161c7c     unicows:thunk_user32_CreateWindowExW.obj
 0002:00040c8c       ??_C@_0P@NEJFGNKG@RegisterClassW?$AA@ 10161c8c     unicows:thunk_user32_RegisterClassW.obj
 0002:00040c9c       ??_C@_0P@BAKOEHMB@DefWindowProcW?$AA@ 10161c9c     unicows:thunk_user32_DefWindowProcW.obj
 0002:00040cac       ??_C@_0BB@GBNBFCPM@GetModuleHandleW?$AA@ 10161cac     unicows:thunk_kernel32_GetModuleHandleW.obj
 0002:00040cc0       ??_C@_0N@GFAAMACM@PostMessageW?$AA@ 10161cc0     unicows:thunk_user32_PostMessageW.obj
 0002:00040cd0       ??_C@_09JLFLINJL@lstrcpynW?$AA@ 10161cd0     unicows:thunk_kernel32_lstrcpynW.obj
 0002:00040cdc       ??_C@_08DIDKOHKE@lstrlenW?$AA@ 10161cdc     unicows:thunk_kernel32_lstrlenW.obj
 0002:00040ce8       ??_C@_0BC@KAEEPMLG@GetProfileStringW?$AA@ 10161ce8     unicows:thunk_kernel32_GetProfileStringW.obj
 0002:00040cfc       ??_C@_0N@ICCOAHAN@winspool?4drv?$AA@ 10161cfc     unicows:thunk_winspool_EnumPrintersW.obj
 0002:00040d0c       ??_C@_0O@OIJEMHMF@EnumPrintersW?$AA@ 10161d0c     unicows:thunk_winspool_EnumPrintersW.obj
 0002:00040d1c       ??_C@_0O@KHLDIKFN@GetVersionExW?$AA@ 10161d1c     unicows:thunk_kernel32_GetVersionExW.obj
 0002:00040d2c       ??_C@_0N@LCEDPELK@OpenPrinterW?$AA@ 10161d2c     unicows:thunk_winspool_OpenPrinterW.obj
 0002:00040d3c       ??_C@_09HDGMBNAP@gdi32?4dll?$AA@ 10161d3c     unicows:thunk_gdi32_ResetDCW.obj
 0002:00040d48       ??_C@_08MHOCAJEO@ResetDCW?$AA@ 10161d48     unicows:thunk_gdi32_ResetDCW.obj
 0002:00040d54       ??_C@_09FAFGKJHN@CreateDCW?$AA@ 10161d54     unicows:thunk_gdi32_CreateDCW.obj
 0002:00040d60       ??_C@_0BE@CGHPAHHF@DeviceCapabilitiesW?$AA@ 10161d60     unicows:thunk_winspool_DeviceCapabilitiesW.obj
 0002:00040d74       ??_C@_0M@MCCPOGD@GetPrinterW?$AA@ 10161d74     unicows:thunk_winspool_GetPrinterW.obj
 0002:00040d80       ??_C@_0BB@HGAIHODG@StartDocPrinterW?$AA@ 10161d80     unicows:thunk_winspool_StartDocPrinterW.obj
 0002:00040d94       ??_C@_0N@INAGJMNN@advapi32?4dll?$AA@ 10161d94     unicows:thunk_advapi32_RegCreateKeyExW.obj
 0002:00040da4       ??_C@_0BA@MPOFGLLA@RegCreateKeyExW?$AA@ 10161da4     unicows:thunk_advapi32_RegCreateKeyExW.obj
 0002:00040db4       ??_C@_0O@NHPJLAPM@RegEnumKeyExW?$AA@ 10161db4     unicows:thunk_advapi32_RegEnumKeyExW.obj
 0002:00040dc4       ??_C@_0BB@GLNAEDBD@RegQueryValueExW?$AA@ 10161dc4     unicows:thunk_advapi32_RegQueryValueExW.obj
 0002:00040dd8       ??_C@_0P@LIPJIDOO@RegSetValueExW?$AA@ 10161dd8     unicows:thunk_advapi32_RegSetValueExW.obj
 0002:00040de8       ??_C@_0O@BJCLIAAA@RegDeleteKeyW?$AA@ 10161de8     unicows:thunk_advapi32_RegDeleteKeyW.obj
 0002:00040df8       ??_C@_0O@COHOBMLB@RegOpenKeyExW?$AA@ 10161df8     unicows:thunk_advapi32_RegOpenKeyExW.obj
 0002:00040e08       ??_C@_0P@EGGMAMDC@FormatMessageW?$AA@ 10161e08     unicows:thunk_kernel32_FormatMessageW.obj
 0002:00040e18       ??_C@_0P@IGFJGAED@GetWindowLongW?$AA@ 10161e18     unicows:thunk_user32_GetWindowLongW.obj
 0002:00040e28       ??_C@_0P@EIEHJKGP@SetWindowLongW?$AA@ 10161e28     unicows:thunk_user32_SetWindowLongW.obj
 0002:00040e38       ??_C@_0N@HADBEMKH@SendMessageW?$AA@ 10161e38     unicows:thunk_user32_SendMessageW.obj
 0002:00040e48       ??_C@_08GOPLCALG@GetPropW?$AA@ 10161e48     unicows:thunk_user32_GetPropW.obj
 0002:00040e54       ??_C@_0P@IGGABHFC@SetWindowTextW?$AA@ 10161e54     unicows:thunk_user32_SetWindowTextW.obj
 0002:00040e64       ??_C@_0BF@KCNFIJIA@GetWindowTextLengthW?$AA@ 10161e64     unicows:thunk_user32_GetWindowTextLengthW.obj
 0002:00040e7c       ??_C@_0P@EIHOONHO@GetWindowTextW?$AA@ 10161e7c     unicows:thunk_user32_GetWindowTextW.obj
 0002:00040e8c       ??_C@_0BA@HHNPOPIO@GetTextMetricsW?$AA@ 10161e8c     unicows:thunk_gdi32_GetTextMetricsW.obj
 0002:00040e9c       ??_C@_0BF@NKEJCDAN@EnumClipboardFormats?$AA@ 10161e9c     unicows:thunk_user32_EnumClipboardFormats.obj
 0002:00040eb4       ??_C@_0BB@MFFIAPJA@GetClipboardData?$AA@ 10161eb4     unicows:thunk_user32_GetClipboardData.obj
 0002:00040ec8       ??_C@_0M@CMEJACFH@RemovePropW?$AA@ 10161ec8     unicows:thunk_user32_RemovePropW.obj
 0002:00040ed4       ??_C@_0BB@JOFGLPHA@RegisterClassExW?$AA@ 10161ed4     unicows:thunk_user32_RegisterClassExW.obj
 0002:00040ee8       ??_C@_0BA@BOKJBFN@GetClassInfoExW?$AA@ 10161ee8     unicows:thunk_user32_GetClassInfoExW.obj
 0002:00040ef8       ??_C@_0BB@OFBGMKEL@UnregisterClassW?$AA@ 10161ef8     unicows:thunk_user32_UnregisterClassW.obj
 0002:00040f0c       ??_C@_0P@CJJFJGDO@MapVirtualKeyW?$AA@ 10161f0c     unicows:thunk_user32_MapVirtualKeyW.obj
 0002:00040f1c       ??_C@_08JPNHDDML@SetPropW?$AA@ 10161f1c     unicows:thunk_user32_SetPropW.obj
 0002:00040f28       ??_C@_0BG@MBJCIDC@SystemParametersInfoW?$AA@ 10161f28     unicows:thunk_user32_SystemParametersInfoW.obj
 0002:00040f40       ??_C@_0BE@HCIKGJGE@MultiByteToWideChar?$AA@ 10161f40     unicows:thunk_kernel32_MultiByteToWideChar.obj
 0002:00040f54       ??_C@_0BB@NKBGJPG@MapVirtualKeyExW?$AA@ 10161f54     unicows:thunk_user32_MapVirtualKeyExW.obj
 0002:00040f68       ??_C@_0L@PAOJMKBF@VkKeyScanW?$AA@ 10161f68     unicows:thunk_user32_VkKeyScanW.obj
 0002:00040f74       ??_C@_0P@HEMLGGFN@GetLocaleInfoW?$AA@ 10161f74     unicows:thunk_kernel32_GetLocaleInfoW.obj
 0002:00040f84       ??_C@_0BE@LJADKLBD@WideCharToMultiByte?$AA@ 10161f84     unicows:thunk_kernel32_WideCharToMultiByte.obj
 0002:00040f98       ??_C@_0BA@BADANCFI@IsBadStringPtrW?$AA@ 10161f98     unicows:thunk_kernel32_IsBadStringPtrW.obj
 0002:00040fa8       ??_C@_0N@IPGECGPG@EnableWindow?$AA@ 10161fa8     unicows:thunk_user32_EnableWindow.obj
 0002:00040fb8       ??_C@_0BH@BHMECBNF@RegisterWindowMessageW?$AA@ 10161fb8     unicows:thunk_user32_RegisterWindowMessageW.obj
 0002:00040fd0       ??_C@_0M@GGMMHJAL@FindWindowW?$AA@ 10161fd0     unicows:thunk_user32_FindWindowW.obj
 0002:00040fdc       ??_C@_0M@GNNFICFG@LoadCursorW?$AA@ 10161fdc     unicows:thunk_user32_LoadCursorW.obj
 0002:00040fe8       ??_C@_0N@BPNBPMKA@PeekMessageW?$AA@ 10161fe8     unicows:thunk_user32_PeekMessageW.obj
 0002:00040ff8       ??_C@_0BA@JIKCBJJP@CreateMetaFileW?$AA@ 10161ff8     unicows:thunk_gdi32_CreateMetaFileW.obj
 0002:00041008       ??_C@_0BD@OHKBFGHI@CreateEnhMetaFileW?$AA@ 10162008     unicows:thunk_gdi32_CreateEnhMetaFileW.obj
 0002:0004101c       ??_C@_0BJ@LGPOIID@RegisterClipboardFormatW?$AA@ 1016201c     unicows:thunk_user32_RegisterClipboardFormatW.obj
 0002:00041038       ??_C@_0BI@OFMFOEGH@GetClipboardFormatNameW?$AA@ 10162038     unicows:thunk_user32_GetClipboardFormatNameW.obj
 0002:00041050       ??_C@_0M@KFDNOLCO@shell32?4dll?$AA@ 10162050     unicows:thunk_shell32_ShellExecuteW.obj
 0002:0004105c       ??_C@_0O@NCONNCKD@ShellExecuteW?$AA@ 1016205c     unicows:thunk_shell32_ShellExecuteW.obj
 0002:0004106c       ??_C@_0BK@MIHKMAHC@ExpandEnvironmentStringsW?$AA@ 1016206c     unicows:thunk_kernel32_ExpandEnvironmentStringsW.obj
 0002:00041088       ??_C@_08MEMEGCCN@lstrcpyW?$AA@ 10162088     unicows:thunk_kernel32_lstrcpyW.obj
 0002:00041094       ??_C@_0N@OAMAKFBK@GetTextFaceW?$AA@ 10162094     unicows:thunk_gdi32_GetTextFaceW.obj
 0002:000410a4       ??_C@_0BC@PIBNIJA@SetWindowsHookExW?$AA@ 101620a4     unicows:thunk_user32_SetWindowsHookExW.obj
 0002:000410b8       ??_C@_0M@BFMGALGH@AppendMenuW?$AA@ 101620b8     unicows:thunk_user32_AppendMenuW.obj
 0002:000410c4       ??_C@_0BB@DEJGBHHD@GetMenuItemInfoW?$AA@ 101620c4     unicows:thunk_user32_GetMenuItemInfoW.obj
 0002:000410d8       ??_C@_0BF@FBLMJNPE@SetCurrentDirectoryW?$AA@ 101620d8     unicows:thunk_kernel32_SetCurrentDirectoryW.obj
 0002:000410f0       ??_C@_0BF@IKBILKD@GetCurrentDirectoryW?$AA@ 101620f0     unicows:thunk_kernel32_GetCurrentDirectoryW.obj
 0002:00041108       ??_C@_0O@HBOLFFAH@SetClassLongW?$AA@ 10162108     unicows:thunk_user32_SetClassLongW.obj
 0002:00041118       ??_C@_0O@OPFOGHA@GetClassLongW?$AA@ 10162118     unicows:thunk_user32_GetClassLongW.obj
 0002:00041128       ??_C@_09ECGNHKJO@wsprintfW?$AA@ 10162128     unicows:thunk_user32_wsprintfW.obj
 0002:00041134       ??_C@_0BE@NANFOEAA@CreateFontIndirectW?$AA@ 10162134     unicows:thunk_gdi32_CreateFontIndirectW.obj
 0002:00041148       ??_C@_0BE@ONBMENCO@EnumFontFamiliesExW?$AA@ 10162148     unicows:thunk_gdi32_EnumFontFamiliesExW.obj
 0002:0004115c       ??_C@_0O@OEAPAOEJ@GetCharWidthW?$AA@ 1016215c     unicows:thunk_gdi32_GetCharWidthW.obj
 0002:0004116c       ??_C@_0BE@IHIFKDBN@GetTextExtentPointW?$AA@ 1016216c     unicows:thunk_gdi32_GetTextExtentPointW.obj
 0002:00041180       ??_C@_0BG@NGOCIDPC@GetTextExtentPoint32W?$AA@ 10162180     unicows:thunk_gdi32_GetTextExtentPoint32W.obj
 0002:00041198       ??_C@_08MBDHBAEG@TextOutW?$AA@ 10162198     unicows:thunk_gdi32_TextOutW.obj
 0002:000411a4       ??_C@_0M@EPGIJEDD@ExtTextOutW?$AA@ 101621a4     unicows:thunk_gdi32_ExtTextOutW.obj
 0002:000411b0       ??_C@_0M@GPOOGHPH@CreateFileW?$AA@ 101621b0     unicows:thunk_kernel32_CreateFileW.obj
 0002:000411bc       ??_C@_0N@DBMGCDLD@LCMapStringW?$AA@ 101621bc     unicows:thunk_kernel32_LCMapStringW.obj
 0002:000411cc       ??_C@_0BB@FAMPKJMB@SetMenuItemInfoW?$AA@ 101621cc     unicows:thunk_user32_SetMenuItemInfoW.obj
 0002:000411e0       ??_C@_0M@OLNDBNNB@LoadBitmapW?$AA@ 101621e0     unicows:thunk_user32_LoadBitmapW.obj
 0002:000411ec       ??_C@_0BA@NHNNFMFF@InsertMenuItemW?$AA@ 101621ec     unicows:thunk_user32_InsertMenuItemW.obj
 0002:000411fc       ??_C@_0BE@EAGAOOIE@DocumentPropertiesW?$AA@ 101621fc     unicows:thunk_winspool_DocumentPropertiesW.obj
 0002:00041210       ??_C@_09GFEBLBNN@StartDocW?$AA@ 10162210     unicows:thunk_gdi32_StartDocW.obj
 0002:0004121c       ??_C@_0BA@DDLFEAI@CallWindowProcW?$AA@ 1016221c     unicows:thunk_user32_CallWindowProcW.obj
 0002:0004122c       ??_C@_0BL@PBEALDID@IsClipboardFormatAvailable?$AA@ 1016222c     unicows:thunk_user32_IsClipboardFormatAvailable.obj
 0002:00041248       ??_C@_0L@GKDCBFOM@GetObjectW?$AA@ 10162248     unicows:thunk_gdi32_GetObjectW.obj
 0002:00041254       ??_C@_0BE@LPPJLGGJ@LoadKeyboardLayoutW?$AA@ 10162254     unicows:thunk_user32_LoadKeyboardLayoutW.obj
 0002:00041268       ??_C@_0N@PFDOPFFB@CreateEventW?$AA@ 10162268     unicows:thunk_kernel32_CreateEventW.obj
 0002:00041278       ??_C@_0M@DLDCCGNP@MessageBoxW?$AA@ 10162278     unicows:thunk_user32_MessageBoxW.obj
 0002:00041284       ??_C@_0BB@KAKAGNBE@DispatchMessageW?$AA@ 10162284     unicows:thunk_user32_DispatchMessageW.obj
 0002:00041298       ??_C@_09FKKCGKNE@LoadIconW?$AA@ 10162298     unicows:thunk_user32_LoadIconW.obj
 0002:000412a4       ??_C@_0L@KLMDNOFB@LoadImageW?$AA@ 101622a4     unicows:thunk_user32_LoadImageW.obj
 0002:000412b0       ??_C@_0BE@NNDHNHOD@LoadCursorFromFileW?$AA@ 101622b0     unicows:thunk_user32_LoadCursorFromFileW.obj
 0002:000412c4       ??_C@_09KCDMHBKA@CreateICW?$AA@ 101622c4     unicows:thunk_gdi32_CreateICW.obj
 0002:000412d0       ??_C@_0O@KIPPCHCE@GetClassInfoW?$AA@ 101622d0     unicows:thunk_user32_GetClassInfoW.obj
 0002:000412e0       ??_C@_0BF@BNEDMIFM@GetWindowsDirectoryW?$AA@ 101622e0     unicows:thunk_kernel32_GetWindowsDirectoryW.obj
 0002:000412f8       ??_C@_0BF@EOKFFKMH@EnumDisplaySettingsW?$AA@ 101622f8     unicows:thunk_user32_EnumDisplaySettingsW.obj
 0002:00041310       ??_C@_0BH@CKLOJF@ChangeDisplaySettingsW?$AA@ 10162310     unicows:thunk_user32_ChangeDisplaySettingsW.obj
 0002:00041328       ??_C@_0N@MDNOAJMP@CreateMutexW?$AA@ 10162328     unicows:thunk_kernel32_CreateMutexW.obj
 0002:00041338       ??_C@_0BC@OHODCNPC@Shell_NotifyIconW?$AA@ 10162338     unicows:thunk_shell32_Shell_NotifyIconW.obj
 0002:0004134c       ??_C@_08GJGGNGOA@lstrcmpW?$AA@ 1016234c     unicows:thunk_kernel32_lstrcmpW.obj
 0002:00041358       ??_C@_0BD@OHLLLJLK@GetModuleFileNameW?$AA@ 10162358     unicows:thunk_kernel32_GetModuleFileNameW.obj
 0002:0004136c       ??_C@_0M@LFKFALEL@msvfw32?4dll?$AA@ 1016236c     unicows:resolve.obj
 0002:00041378       ??_C@_0M@GNJPFCHP@sensapi?4dll?$AA@ 10162378     unicows:resolve.obj
 0002:00041384       ??_C@_0L@MFANFMBE@oledlg?4dll?$AA@ 10162384     unicows:resolve.obj
 0002:00041390       ??_C@_0L@OADEGAIP@oleacc?4dll?$AA@ 10162390     unicows:resolve.obj
 0002:0004139c       ??_C@_0M@KOFABFN@secur32?4dll?$AA@ 1016239c     unicows:resolve.obj
 0002:000413a8       ??_C@_0N@IMJBHDLM@avicap32?4dll?$AA@ 101623a8     unicows:resolve.obj
 0002:000413b8       ??_C@_09CBHKFKGB@winmm?4dll?$AA@ 101623b8     unicows:resolve.obj
 0002:000413c4       ??_C@_0N@GNDPINJL@rasapi32?4dll?$AA@ 101623c4     unicows:resolve.obj
 0002:000413d4       ??_C@_07DJIBAOMD@mpr?4dll?$AA@ 101623d4     unicows:resolve.obj
 0002:000413dc       ??_C@_0M@JHNIIDCD@version?4dll?$AA@ 101623dc     unicows:resolve.obj
 0002:000413e8       ??_C@_0N@KIEIKGAE@comdlg32?4dll?$AA@ 101623e8     unicows:resolve.obj
 0002:000413f8       ??_C@_0M@JNPPCEJC@unicows?4dll?$AA@ 101623f8     unicows:resolve.obj
 0002:00041404       ??_C@_0BI@HKEHDEHI@?2Microsoft?5Shared?2MSLU?2?$AA@ 10162404     unicows:resolve.obj
 0002:0004141c       ??_C@_0P@FMMLJAPD@CommonFilesDir?$AA@ 1016241c     unicows:resolve.obj
 0002:0004142c       ??_C@_0CK@HLJOMJAK@SOFTWARE?2Microsoft?2Windows?2Curre@ 1016242c     unicows:resolve.obj
 0002:00041458       ??_C@_0M@HLOHPNFA@RegCloseKey?$AA@ 10162458     unicows:resolve.obj
 0002:00041464       ??_C@_0BB@HHEIPGME@RegQueryValueExA?$AA@ 10162464     unicows:resolve.obj
 0002:00041478       ??_C@_0O@DCOGKJGG@RegOpenKeyExA?$AA@ 10162478     unicows:resolve.obj
 0002:00041488       ??_C@_0N@PJNJBDOG@security?4dll?$AA@ 10162488     unicows:resolve.obj
 0002:00041498       ??_C@_1BA@KHFEOAHJ@?$AA?$DP?$AA?$DP?$AA?$DP?$AA?4?$AA?$DP?$AA?$DP?$AA?$DP?$AA?$AA@ 10162498     unicows:resolve.obj
 0002:000414a8       ??_C@_0BD@CFFEJJPG@GetFileAttributesW?$AA@ 101624a8     unicows:resolve.obj
 0002:000414bc       _IID_IRichEditOleCallback  101624bc     uuid:cguid_i.obj
 0002:000414cc       _GUID_NULL                 101624cc     uuid:cguid_i.obj
 0002:000414dc       _IID_IUnknown              101624dc     uuid:unknwn_i.obj
 0002:000414ec       _IID_IDataObject           101624ec     uuid:objidl_i.obj
 0002:000414fc       _IID_IAdviseSink           101624fc     uuid:objidl_i.obj
 0002:0004150c       _IID_IEnumFORMATETC        1016250c     uuid:objidl_i.obj
 0002:0004151c       _IID_IPersistFile          1016251c     uuid:objidl_i.obj
 0002:0004152c       _IID_IStream               1016252c     uuid:objidl_i.obj
 0002:0004153c       _IID_IDropTarget           1016253c     uuid:oleidl_i.obj
 0002:0004154c       _IID_IDropSource           1016254c     uuid:oleidl_i.obj
 0002:0004155c       _IID_IShellFolder2         1016255c     uuid:shguids.obj
 0002:0004156c       _IID_IExtractIconW         1016256c     uuid:shguids.obj
 0002:0004157c       _IID_IShellLinkW           1016257c     uuid:shguids.obj
 0002:0004158c       _IID_IShellLinkA           1016258c     uuid:shguids.obj
 0002:0004159c       _IID_IShellDetails         1016259c     uuid:shguids.obj
 0002:000415ac       _IID_IExtractIconA         101625ac     uuid:shguids.obj
 0002:000415bc       _IID_IShellFolder          101625bc     uuid:shguids.obj
 0002:000415cc       _IID_IShellIcon            101625cc     uuid:shguids.obj
 0002:000415dc       _CLSID_ShellLink           101625dc     uuid:shguids.obj
 0002:00041610       ??_7type_info@@6B@         10162610     MSVCRT:ti_inst.obj
 0002:00041658       __load_config_used         10162658     MSVCRT:loadcfg.obj
 0002:00041708       ??_R1A@?0A@A@type_info@@8  10162708     MSVCRT:ti_inst.obj
 0002:00041720       ??_R2type_info@@8          10162720     MSVCRT:ti_inst.obj
 0002:00041728       ??_R3type_info@@8          10162728     MSVCRT:ti_inst.obj
 0002:00041738       ??_R4type_info@@6B@        10162738     MSVCRT:ti_inst.obj
 0002:00041750       ___safe_se_handler_table   10162750     <linker-defined>
 0002:00042024       ___rtc_iaa                 10163024     MSVCRT:initsect.obj
 0002:00042028       ___rtc_izz                 10163028     MSVCRT:initsect.obj
 0002:0004202c       ___rtc_taa                 1016302c     MSVCRT:initsect.obj
 0002:00042030       ___rtc_tzz                 10163030     MSVCRT:initsect.obj
 0002:00042470       __CT??_R0?AVawt_toolkit_shutdown@@@81 10163470     GDIWindowSurfaceData.obj
 0002:0004248c       __CTA1?AVawt_toolkit_shutdown@@ 1016348c     GDIWindowSurfaceData.obj
 0002:00042494       __TI1?AVawt_toolkit_shutdown@@ 10163494     GDIWindowSurfaceData.obj
 0002:000428d8       __CT??_R0?AVbad_alloc@std@@@81 101638d8     WPrinterJob.obj
 0002:000428f4       __CTA1?AVbad_alloc@std@@   101638f4     WPrinterJob.obj
 0002:000428fc       __TI1?AVbad_alloc@std@@    101638fc     WPrinterJob.obj
 0002:0004dda4       __IMPORT_DESCRIPTOR_java   1016eda4     java:java.dll
 0002:0004ddb8       __IMPORT_DESCRIPTOR_KERNEL32 1016edb8     kernel32:KERNEL32.dll
 0002:0004ddcc       __IMPORT_DESCRIPTOR_USER32 1016edcc     user32:USER32.dll
 0002:0004dde0       __IMPORT_DESCRIPTOR_GDI32  1016ede0     gdi32:GDI32.dll
 0002:0004ddf4       __IMPORT_DESCRIPTOR_WINSPOOL 1016edf4     winspool:WINSPOOL.DRV
 0002:0004de08       __IMPORT_DESCRIPTOR_IMM32  1016ee08     imm32:IMM32.dll
 0002:0004de1c       __IMPORT_DESCRIPTOR_ole32  1016ee1c     ole32:ole32.dll
 0002:0004de30       __IMPORT_DESCRIPTOR_jvm    1016ee30     jvm:jvm.dll
 0002:0004de44       __IMPORT_DESCRIPTOR_COMCTL32 1016ee44     comctl32:COMCTL32.dll
 0002:0004de58       __IMPORT_DESCRIPTOR_ADVAPI32 1016ee58     advapi32:ADVAPI32.dll
 0002:0004de6c       __IMPORT_DESCRIPTOR_MSVCR71 1016ee6c     MSVCRT:MSVCR71.dll
 0002:0004de80       __NULL_IMPORT_DESCRIPTOR   1016ee80     java:java.dll
 0003:00000000       ___xc_a                    1017d000     MSVCRT:cinitexe.obj
 0003:000000a8       ___xc_z                    1017d0a8     MSVCRT:cinitexe.obj
 0003:000000ac       ___xi_a                    1017d0ac     MSVCRT:cinitexe.obj
 0003:000000b0       ___xi_z                    1017d0b0     MSVCRT:cinitexe.obj
 0003:000005a8       _PrimitiveTypes            1017d5a8     GraphicsPrimitiveMgr.obj
 0003:00000890       _SurfaceTypes              1017d890     GraphicsPrimitiveMgr.obj
 0003:00000b28       _CompositeTypes            1017db28     GraphicsPrimitiveMgr.obj
 0003:00000cb0       _pBilinearFunc             1017dcb0     TransformHelper.obj
 0003:00000cb4       _pBicubicFunc              1017dcb4     TransformHelper.obj
 0003:00000cb8       _AlphaRules                1017dcb8     AlphaMacros.obj
 0003:00000d20       _AnyByteSetParallelogramFuncs 1017dd20     AnyByte.obj
 0003:00000d28       _AnyBytePrimitives         1017dd28     AnyByte.obj
 0003:00000f88       _ByteBinary1BitPrimitives  1017df88     ByteBinary1Bit.obj
 0003:000012a8       _ByteBinary2BitPrimitives  1017e2a8     ByteBinary2Bit.obj
 0003:000015c8       _ByteBinary4BitPrimitives  1017e5c8     ByteBinary4Bit.obj
 0003:000018e8       _ByteIndexedTransformHelperFuncs 1017e8e8     ByteIndexed.obj
 0003:000018f4       _ByteIndexedBmTransformHelperFuncs 1017e8f4     ByteIndexed.obj
 0003:00001900       _ByteIndexedPrimitives     1017e900     ByteIndexed.obj
 0003:00001c80       _ByteGrayTransformHelperFuncs 1017ec80     ByteGray.obj
 0003:00001c90       _ByteGrayPrimitives        1017ec90     ByteGray.obj
 0003:00002150       _Index8GrayTransformHelperFuncs 1017f150     Index8Gray.obj
 0003:00002160       _Index8GrayPrimitives      1017f160     Index8Gray.obj
 0003:000024c0       _Index12GrayTransformHelperFuncs 1017f4c0     Index12Gray.obj
 0003:000024d0       _Index12GrayPrimitives     1017f4d0     Index12Gray.obj
 0003:00002850       _AnyShortSetParallelogramFuncs 1017f850     AnyShort.obj
 0003:00002858       _AnyShortPrimitives        1017f858     AnyShort.obj
 0003:00002ab8       _Ushort555RgbPrimitives    1017fab8     Ushort555Rgb.obj
 0003:00002ef8       _Ushort565RgbPrimitives    1017fef8     Ushort565Rgb.obj
 0003:00003358       _Ushort4444ArgbPrimitives  10180358     Ushort4444Argb.obj
 0003:00003398       _Ushort555RgbxPrimitives   10180398     Ushort555Rgbx.obj
 0003:00003658       _UshortGrayPrimitives      10180658     UshortGray.obj
 0003:000039f8       _UshortIndexedPrimitives   101809f8     UshortIndexed.obj
 0003:00003db8       _Any3ByteSetParallelogramFuncs 10180db8     Any3Byte.obj
 0003:00003dc0       _Any3BytePrimitives        10180dc0     Any3Byte.obj
 0003:00004020       _ThreeByteBgrTransformHelperFuncs 10181020     ThreeByteBgr.obj
 0003:00004030       _ThreeByteBgrPrimitives    10181030     ThreeByteBgr.obj
 0003:00004450       _AnyIntSetParallelogramFuncs 10181450     AnyInt.obj
 0003:00004458       _AnyIntPrimitives          10181458     AnyInt.obj
 0003:000046b8       _IntArgbTransformHelperFuncs 101816b8     IntArgb.obj
 0003:000046c8       _IntArgbPrimitives         101816c8     IntArgb.obj
 0003:00004968       _IntArgbPreTransformHelperFuncs 10181968     IntArgbPre.obj
 0003:00004978       _IntArgbPrePrimitives      10181978     IntArgbPre.obj
 0003:00004d18       _IntArgbBmTransformHelperFuncs 10181d18     IntArgbBm.obj
 0003:00004d28       _IntArgbBmPrimitives       10181d28     IntArgbBm.obj
 0003:00004f68       _IntRgbTransformHelperFuncs 10181f68     IntRgb.obj
 0003:00004f78       _IntRgbPrimitives          10181f78     IntRgb.obj
 0003:000053d8       _IntBgrTransformHelperFuncs 101823d8     IntBgr.obj
 0003:000053e8       _IntBgrPrimitives          101823e8     IntBgr.obj
 0003:00005928       _IntRgbxTransformHelperFuncs 10182928     IntRgbx.obj
 0003:00005938       _IntRgbxPrimitives         10182938     IntRgbx.obj
 0003:00005d18       _Any4ByteSetParallelogramFuncs 10182d18     Any4Byte.obj
 0003:00005d20       _Any4BytePrimitives        10182d20     Any4Byte.obj
 0003:00005f80       _FourByteAbgrTransformHelperFuncs 10182f80     FourByteAbgr.obj
 0003:00005f90       _FourByteAbgrPrimitives    10182f90     FourByteAbgr.obj
 0003:00006350       _FourByteAbgrPreTransformHelperFuncs 10183350     FourByteAbgrPre.obj
 0003:00006360       _FourByteAbgrPrePrimitives 10183360     FourByteAbgrPre.obj
 0003:00008024       _DMemStatePtr              10185024     debug_mem.obj
 0003:00009710       _StdBlendRules             10186710     OGLContext.obj
 0003:0000c890       _PixelFormats              10189890     OGLSurfaceData.obj
 0003:0000e7b4       _threadInfoIndex           1018b7b4     GDIWindowSurfaceData.obj
 0003:0000e7b8       ??_R0?AVawt_toolkit_shutdown@@@8 1018b7b8     GDIWindowSurfaceData.obj
 0003:0000e7e0       ?useD3D@@3HA               1018b7e0     WindowsFlags.obj
 0003:0000e7fc       ??_R0?AVbad_alloc@std@@@8  1018b7fc     WPrinterJob.obj
 0003:0000e874       ?skipInitialWmDrawClipboardMsg@AwtClipboard@@0HC 1018b874     awt_Clipboard.obj
 0003:0000e894       ?szAwtComponentClassName@@3PBGB 1018b894     awt_Component.obj
 0003:0000e898       ?keyMapTable@@3PAUKeyMapEntry@@A 1018b898     awt_Component.obj
 0003:0000edd4       ?m_fEUDCSubKeyExist@CCombinedSegTable@@0HA 1018bdd4     awt_Font.obj
 0003:0000edd8       ?m_fTTEUDCFileExist@CCombinedSegTable@@0HA 1018bdd8     awt_Font.obj
 0003:0000eeb8       ?customPalette@AwtPalette@@0PAUtagPALETTEENTRY@@A 1018beb8     awt_Palette.obj
 0003:0000f268       ?m_useCustomPalette@AwtPalette@@0HA 1018c268     awt_Palette.obj
 0003:0000f3f4       ?_dt_lineid_@?5??DoScrollCallbackCoalesce@AwtScrollbar@@AAEXPBDH@Z@4HA 1018c3f4     awt_Scrollbar.obj
 0003:0000f62c       ?rescaleShaders@@3PAPBKA   1018c62c     D3DContext.obj
 0003:0000f634       ?convolveShaders@@3PAPBKA  1018c634     D3DContext.obj
 0003:0000f644       ?lookupShaders@@3PAPBKA    1018c644     D3DContext.obj
 0003:0000f654       ?gradShaders@@3PAPBKA      1018c654     D3DContext.obj
 0003:0000f668       ?linearShaders@@3PAPBKA    1018c668     D3DContext.obj
 0003:0000f6e8       ?radialShaders@@3PAPBKA    1018c6e8     D3DContext.obj
 0003:0000f768       ?StdBlendRules@@3PAUD3DBlendRule@@A 1018c768     D3DContext.obj
 0003:0000f87c       ?known_versions@@3PAY01KA  1018c87c     awt_dlls.obj
 0003:0000f89c       __PfnLoadUnicows           1018c89c     UnicowsLoader.obj
 0003:0000f8a0       _Unicows_GetPrinterW       1018c8a0     UnicowsLoader.obj
 0003:0000f8a4       _Unicows_EnumPrintersW     1018c8a4     UnicowsLoader.obj
 0003:0000f8b0       _m_rgDLLMap                1018c8b0     unicows:resolve.obj
 0003:0000f950       ??_R0?AVtype_info@@@8      1018c950     MSVCRT:ti_inst.obj
 0003:0000f968       ___security_cookie         1018c968     MSVCRT:seccook.obj
 0003:0000f96c       _advapi32_RegCreateKeyExW_Ptr 1018c96c     unicows:thunk_advapi32_RegCreateKeyExW.obj
 0003:0000f96c       __imp__RegCreateKeyExW@36  1018c96c     unicows:thunk_advapi32_RegCreateKeyExW.obj
 0003:0000f970       __imp__RegDeleteKeyW@8     1018c970     unicows:thunk_advapi32_RegDeleteKeyW.obj
 0003:0000f970       _advapi32_RegDeleteKeyW_Ptr 1018c970     unicows:thunk_advapi32_RegDeleteKeyW.obj
 0003:0000f974       __imp__RegEnumKeyExW@32    1018c974     unicows:thunk_advapi32_RegEnumKeyExW.obj
 0003:0000f974       _advapi32_RegEnumKeyExW_Ptr 1018c974     unicows:thunk_advapi32_RegEnumKeyExW.obj
 0003:0000f978       __imp__RegOpenKeyExW@20    1018c978     unicows:thunk_advapi32_RegOpenKeyExW.obj
 0003:0000f978       _advapi32_RegOpenKeyExW_Ptr 1018c978     unicows:thunk_advapi32_RegOpenKeyExW.obj
 0003:0000f97c       __imp__RegQueryValueExW@24 1018c97c     unicows:thunk_advapi32_RegQueryValueExW.obj
 0003:0000f97c       _advapi32_RegQueryValueExW_Ptr 1018c97c     unicows:thunk_advapi32_RegQueryValueExW.obj
 0003:0000f980       __imp__RegSetValueExW@24   1018c980     unicows:thunk_advapi32_RegSetValueExW.obj
 0003:0000f980       _advapi32_RegSetValueExW_Ptr 1018c980     unicows:thunk_advapi32_RegSetValueExW.obj
 0003:0000f984       _gdi32_CreateDCW_Ptr       1018c984     unicows:thunk_gdi32_CreateDCW.obj
 0003:0000f984       __imp__CreateDCW@16        1018c984     unicows:thunk_gdi32_CreateDCW.obj
 0003:0000f988       _gdi32_CreateEnhMetaFileW_Ptr 1018c988     unicows:thunk_gdi32_CreateEnhMetaFileW.obj
 0003:0000f988       __imp__CreateEnhMetaFileW@16 1018c988     unicows:thunk_gdi32_CreateEnhMetaFileW.obj
 0003:0000f98c       __imp__CreateFontIndirectW@4 1018c98c     unicows:thunk_gdi32_CreateFontIndirectW.obj
 0003:0000f98c       _gdi32_CreateFontIndirectW_Ptr 1018c98c     unicows:thunk_gdi32_CreateFontIndirectW.obj
 0003:0000f990       __imp__CreateICW@16        1018c990     unicows:thunk_gdi32_CreateICW.obj
 0003:0000f990       _gdi32_CreateICW_Ptr       1018c990     unicows:thunk_gdi32_CreateICW.obj
 0003:0000f994       __imp__CreateMetaFileW@4   1018c994     unicows:thunk_gdi32_CreateMetaFileW.obj
 0003:0000f994       _gdi32_CreateMetaFileW_Ptr 1018c994     unicows:thunk_gdi32_CreateMetaFileW.obj
 0003:0000f998       _gdi32_EnumFontFamiliesExW_Ptr 1018c998     unicows:thunk_gdi32_EnumFontFamiliesExW.obj
 0003:0000f998       __imp__EnumFontFamiliesExW@20 1018c998     unicows:thunk_gdi32_EnumFontFamiliesExW.obj
 0003:0000f99c       __imp__ExtTextOutW@32      1018c99c     unicows:thunk_gdi32_ExtTextOutW.obj
 0003:0000f99c       _gdi32_ExtTextOutW_Ptr     1018c99c     unicows:thunk_gdi32_ExtTextOutW.obj
 0003:0000f9a0       _gdi32_GetCharWidthW_Ptr   1018c9a0     unicows:thunk_gdi32_GetCharWidthW.obj
 0003:0000f9a0       __imp__GetCharWidthW@16    1018c9a0     unicows:thunk_gdi32_GetCharWidthW.obj
 0003:0000f9a4       _gdi32_GetObjectW_Ptr      1018c9a4     unicows:thunk_gdi32_GetObjectW.obj
 0003:0000f9a4       __imp__GetObjectW@12       1018c9a4     unicows:thunk_gdi32_GetObjectW.obj
 0003:0000f9a8       __imp__GetTextExtentPoint32W@16 1018c9a8     unicows:thunk_gdi32_GetTextExtentPoint32W.obj
 0003:0000f9a8       _gdi32_GetTextExtentPoint32W_Ptr 1018c9a8     unicows:thunk_gdi32_GetTextExtentPoint32W.obj
 0003:0000f9ac       _gdi32_GetTextExtentPointW_Ptr 1018c9ac     unicows:thunk_gdi32_GetTextExtentPointW.obj
 0003:0000f9ac       __imp__GetTextExtentPointW@16 1018c9ac     unicows:thunk_gdi32_GetTextExtentPointW.obj
 0003:0000f9b0       __imp__GetTextFaceW@12     1018c9b0     unicows:thunk_gdi32_GetTextFaceW.obj
 0003:0000f9b0       _gdi32_GetTextFaceW_Ptr    1018c9b0     unicows:thunk_gdi32_GetTextFaceW.obj
 0003:0000f9b4       _gdi32_GetTextMetricsW_Ptr 1018c9b4     unicows:thunk_gdi32_GetTextMetricsW.obj
 0003:0000f9b4       __imp__GetTextMetricsW@8   1018c9b4     unicows:thunk_gdi32_GetTextMetricsW.obj
 0003:0000f9b8       __imp__ResetDCW@8          1018c9b8     unicows:thunk_gdi32_ResetDCW.obj
 0003:0000f9b8       _gdi32_ResetDCW_Ptr        1018c9b8     unicows:thunk_gdi32_ResetDCW.obj
 0003:0000f9bc       __imp__StartDocW@8         1018c9bc     unicows:thunk_gdi32_StartDocW.obj
 0003:0000f9bc       _gdi32_StartDocW_Ptr       1018c9bc     unicows:thunk_gdi32_StartDocW.obj
 0003:0000f9c0       _gdi32_TextOutW_Ptr        1018c9c0     unicows:thunk_gdi32_TextOutW.obj
 0003:0000f9c0       __imp__TextOutW@20         1018c9c0     unicows:thunk_gdi32_TextOutW.obj
 0003:0000f9c4       _kernel32_CreateEventW_Ptr 1018c9c4     unicows:thunk_kernel32_CreateEventW.obj
 0003:0000f9c4       __imp__CreateEventW@16     1018c9c4     unicows:thunk_kernel32_CreateEventW.obj
 0003:0000f9c8       __imp__CreateFileW@28      1018c9c8     unicows:thunk_kernel32_CreateFileW.obj
 0003:0000f9c8       _kernel32_CreateFileW_Ptr  1018c9c8     unicows:thunk_kernel32_CreateFileW.obj
 0003:0000f9cc       __imp__CreateMutexW@12     1018c9cc     unicows:thunk_kernel32_CreateMutexW.obj
 0003:0000f9cc       _kernel32_CreateMutexW_Ptr 1018c9cc     unicows:thunk_kernel32_CreateMutexW.obj
 0003:0000f9d0       _kernel32_ExpandEnvironmentStringsW_Ptr 1018c9d0     unicows:thunk_kernel32_ExpandEnvironmentStringsW.obj
 0003:0000f9d0       __imp__ExpandEnvironmentStringsW@12 1018c9d0     unicows:thunk_kernel32_ExpandEnvironmentStringsW.obj
 0003:0000f9d4       _kernel32_FormatMessageW_Ptr 1018c9d4     unicows:thunk_kernel32_FormatMessageW.obj
 0003:0000f9d4       __imp__FormatMessageW@28   1018c9d4     unicows:thunk_kernel32_FormatMessageW.obj
 0003:0000f9d8       __imp__GetCurrentDirectoryW@8 1018c9d8     unicows:thunk_kernel32_GetCurrentDirectoryW.obj
 0003:0000f9d8       _kernel32_GetCurrentDirectoryW_Ptr 1018c9d8     unicows:thunk_kernel32_GetCurrentDirectoryW.obj
 0003:0000f9dc       __imp__GetLocaleInfoW@16   1018c9dc     unicows:thunk_kernel32_GetLocaleInfoW.obj
 0003:0000f9dc       _kernel32_GetLocaleInfoW_Ptr 1018c9dc     unicows:thunk_kernel32_GetLocaleInfoW.obj
 0003:0000f9e0       __imp__GetModuleFileNameW@12 1018c9e0     unicows:thunk_kernel32_GetModuleFileNameW.obj
 0003:0000f9e0       _kernel32_GetModuleFileNameW_Ptr 1018c9e0     unicows:thunk_kernel32_GetModuleFileNameW.obj
 0003:0000f9e4       _kernel32_GetModuleHandleW_Ptr 1018c9e4     unicows:thunk_kernel32_GetModuleHandleW.obj
 0003:0000f9e4       __imp__GetModuleHandleW@4  1018c9e4     unicows:thunk_kernel32_GetModuleHandleW.obj
 0003:0000f9e8       _kernel32_GetProcAddress_Ptr 1018c9e8     unicows:thunk_kernel32_GetProcAddress.obj
 0003:0000f9e8       __imp__GetProcAddress@8    1018c9e8     unicows:thunk_kernel32_GetProcAddress.obj
 0003:0000f9ec       __imp__GetProfileStringW@20 1018c9ec     unicows:thunk_kernel32_GetProfileStringW.obj
 0003:0000f9ec       _kernel32_GetProfileStringW_Ptr 1018c9ec     unicows:thunk_kernel32_GetProfileStringW.obj
 0003:0000f9f0       __imp__GetVersionExW@4     1018c9f0     unicows:thunk_kernel32_GetVersionExW.obj
 0003:0000f9f0       _kernel32_GetVersionExW_Ptr 1018c9f0     unicows:thunk_kernel32_GetVersionExW.obj
 0003:0000f9f4       __imp__GetWindowsDirectoryW@8 1018c9f4     unicows:thunk_kernel32_GetWindowsDirectoryW.obj
 0003:0000f9f4       _kernel32_GetWindowsDirectoryW_Ptr 1018c9f4     unicows:thunk_kernel32_GetWindowsDirectoryW.obj
 0003:0000f9f8       _kernel32_IsBadStringPtrW_Ptr 1018c9f8     unicows:thunk_kernel32_IsBadStringPtrW.obj
 0003:0000f9f8       __imp__IsBadStringPtrW@8   1018c9f8     unicows:thunk_kernel32_IsBadStringPtrW.obj
 0003:0000f9fc       _kernel32_LCMapStringW_Ptr 1018c9fc     unicows:thunk_kernel32_LCMapStringW.obj
 0003:0000f9fc       __imp__LCMapStringW@24     1018c9fc     unicows:thunk_kernel32_LCMapStringW.obj
 0003:0000fa00       _kernel32_LoadLibraryW_Ptr 1018ca00     unicows:thunk_kernel32_LoadLibraryW.obj
 0003:0000fa00       __imp__LoadLibraryW@4      1018ca00     unicows:thunk_kernel32_LoadLibraryW.obj
 0003:0000fa04       _kernel32_MultiByteToWideChar_Ptr 1018ca04     unicows:thunk_kernel32_MultiByteToWideChar.obj
 0003:0000fa04       __imp__MultiByteToWideChar@24 1018ca04     unicows:thunk_kernel32_MultiByteToWideChar.obj
 0003:0000fa08       _kernel32_SetCurrentDirectoryW_Ptr 1018ca08     unicows:thunk_kernel32_SetCurrentDirectoryW.obj
 0003:0000fa08       __imp__SetCurrentDirectoryW@4 1018ca08     unicows:thunk_kernel32_SetCurrentDirectoryW.obj
 0003:0000fa0c       _kernel32_WideCharToMultiByte_Ptr 1018ca0c     unicows:thunk_kernel32_WideCharToMultiByte.obj
 0003:0000fa0c       __imp__WideCharToMultiByte@32 1018ca0c     unicows:thunk_kernel32_WideCharToMultiByte.obj
 0003:0000fa10       __imp__lstrcmpW@8          1018ca10     unicows:thunk_kernel32_lstrcmpW.obj
 0003:0000fa10       _kernel32_lstrcmpW_Ptr     1018ca10     unicows:thunk_kernel32_lstrcmpW.obj
 0003:0000fa14       __imp__lstrcpyW@8          1018ca14     unicows:thunk_kernel32_lstrcpyW.obj
 0003:0000fa14       _kernel32_lstrcpyW_Ptr     1018ca14     unicows:thunk_kernel32_lstrcpyW.obj
 0003:0000fa18       _kernel32_lstrcpynW_Ptr    1018ca18     unicows:thunk_kernel32_lstrcpynW.obj
 0003:0000fa18       __imp__lstrcpynW@12        1018ca18     unicows:thunk_kernel32_lstrcpynW.obj
 0003:0000fa1c       __imp__lstrlenW@4          1018ca1c     unicows:thunk_kernel32_lstrlenW.obj
 0003:0000fa1c       _kernel32_lstrlenW_Ptr     1018ca1c     unicows:thunk_kernel32_lstrlenW.obj
 0003:0000fa20       __imp__ShellExecuteW@24    1018ca20     unicows:thunk_shell32_ShellExecuteW.obj
 0003:0000fa20       _shell32_ShellExecuteW_Ptr 1018ca20     unicows:thunk_shell32_ShellExecuteW.obj
 0003:0000fa24       _shell32_Shell_NotifyIconW_Ptr 1018ca24     unicows:thunk_shell32_Shell_NotifyIconW.obj
 0003:0000fa24       __imp__Shell_NotifyIconW@8 1018ca24     unicows:thunk_shell32_Shell_NotifyIconW.obj
 0003:0000fa28       _user32_AppendMenuW_Ptr    1018ca28     unicows:thunk_user32_AppendMenuW.obj
 0003:0000fa28       __imp__AppendMenuW@16      1018ca28     unicows:thunk_user32_AppendMenuW.obj
 0003:0000fa2c       _user32_CallWindowProcW_Ptr 1018ca2c     unicows:thunk_user32_CallWindowProcW.obj
 0003:0000fa2c       __imp__CallWindowProcW@20  1018ca2c     unicows:thunk_user32_CallWindowProcW.obj
 0003:0000fa30       _user32_ChangeDisplaySettingsW_Ptr 1018ca30     unicows:thunk_user32_ChangeDisplaySettingsW.obj
 0003:0000fa30       __imp__ChangeDisplaySettingsW@8 1018ca30     unicows:thunk_user32_ChangeDisplaySettingsW.obj
 0003:0000fa34       _user32_CreateWindowExW_Ptr 1018ca34     unicows:thunk_user32_CreateWindowExW.obj
 0003:0000fa34       __imp__CreateWindowExW@48  1018ca34     unicows:thunk_user32_CreateWindowExW.obj
 0003:0000fa38       _user32_DefWindowProcW_Ptr 1018ca38     unicows:thunk_user32_DefWindowProcW.obj
 0003:0000fa38       __imp__DefWindowProcW@16   1018ca38     unicows:thunk_user32_DefWindowProcW.obj
 0003:0000fa3c       __imp__DispatchMessageW@4  1018ca3c     unicows:thunk_user32_DispatchMessageW.obj
 0003:0000fa3c       _user32_DispatchMessageW_Ptr 1018ca3c     unicows:thunk_user32_DispatchMessageW.obj
 0003:0000fa40       __imp__EnableWindow@8      1018ca40     unicows:thunk_user32_EnableWindow.obj
 0003:0000fa40       _user32_EnableWindow_Ptr   1018ca40     unicows:thunk_user32_EnableWindow.obj
 0003:0000fa44       __imp__EnumClipboardFormats@4 1018ca44     unicows:thunk_user32_EnumClipboardFormats.obj
 0003:0000fa44       _user32_EnumClipboardFormats_Ptr 1018ca44     unicows:thunk_user32_EnumClipboardFormats.obj
 0003:0000fa48       __imp__EnumDisplaySettingsW@12 1018ca48     unicows:thunk_user32_EnumDisplaySettingsW.obj
 0003:0000fa48       _user32_EnumDisplaySettingsW_Ptr 1018ca48     unicows:thunk_user32_EnumDisplaySettingsW.obj
 0003:0000fa4c       _user32_FindWindowW_Ptr    1018ca4c     unicows:thunk_user32_FindWindowW.obj
 0003:0000fa4c       __imp__FindWindowW@8       1018ca4c     unicows:thunk_user32_FindWindowW.obj
 0003:0000fa50       __imp__GetClassInfoExW@12  1018ca50     unicows:thunk_user32_GetClassInfoExW.obj
 0003:0000fa50       _user32_GetClassInfoExW_Ptr 1018ca50     unicows:thunk_user32_GetClassInfoExW.obj
 0003:0000fa54       __imp__GetClassInfoW@12    1018ca54     unicows:thunk_user32_GetClassInfoW.obj
 0003:0000fa54       _user32_GetClassInfoW_Ptr  1018ca54     unicows:thunk_user32_GetClassInfoW.obj
 0003:0000fa58       _user32_GetClassLongW_Ptr  1018ca58     unicows:thunk_user32_GetClassLongW.obj
 0003:0000fa58       __imp__GetClassLongW@8     1018ca58     unicows:thunk_user32_GetClassLongW.obj
 0003:0000fa5c       _user32_GetClipboardData_Ptr 1018ca5c     unicows:thunk_user32_GetClipboardData.obj
 0003:0000fa5c       __imp__GetClipboardData@4  1018ca5c     unicows:thunk_user32_GetClipboardData.obj
 0003:0000fa60       _user32_GetClipboardFormatNameW_Ptr 1018ca60     unicows:thunk_user32_GetClipboardFormatNameW.obj
 0003:0000fa60       __imp__GetClipboardFormatNameW@12 1018ca60     unicows:thunk_user32_GetClipboardFormatNameW.obj
 0003:0000fa64       _user32_GetMenuItemInfoW_Ptr 1018ca64     unicows:thunk_user32_GetMenuItemInfoW.obj
 0003:0000fa64       __imp__GetMenuItemInfoW@16 1018ca64     unicows:thunk_user32_GetMenuItemInfoW.obj
 0003:0000fa68       __imp__GetPropW@8          1018ca68     unicows:thunk_user32_GetPropW.obj
 0003:0000fa68       _user32_GetPropW_Ptr       1018ca68     unicows:thunk_user32_GetPropW.obj
 0003:0000fa6c       __imp__GetWindowLongW@8    1018ca6c     unicows:thunk_user32_GetWindowLongW.obj
 0003:0000fa6c       _user32_GetWindowLongW_Ptr 1018ca6c     unicows:thunk_user32_GetWindowLongW.obj
 0003:0000fa70       __imp__GetWindowTextLengthW@4 1018ca70     unicows:thunk_user32_GetWindowTextLengthW.obj
 0003:0000fa70       _user32_GetWindowTextLengthW_Ptr 1018ca70     unicows:thunk_user32_GetWindowTextLengthW.obj
 0003:0000fa74       __imp__GetWindowTextW@12   1018ca74     unicows:thunk_user32_GetWindowTextW.obj
 0003:0000fa74       _user32_GetWindowTextW_Ptr 1018ca74     unicows:thunk_user32_GetWindowTextW.obj
 0003:0000fa78       __imp__InsertMenuItemW@16  1018ca78     unicows:thunk_user32_InsertMenuItemW.obj
 0003:0000fa78       _user32_InsertMenuItemW_Ptr 1018ca78     unicows:thunk_user32_InsertMenuItemW.obj
 0003:0000fa7c       __imp__IsClipboardFormatAvailable@4 1018ca7c     unicows:thunk_user32_IsClipboardFormatAvailable.obj
 0003:0000fa7c       _user32_IsClipboardFormatAvailable_Ptr 1018ca7c     unicows:thunk_user32_IsClipboardFormatAvailable.obj
 0003:0000fa80       __imp__LoadBitmapW@8       1018ca80     unicows:thunk_user32_LoadBitmapW.obj
 0003:0000fa80       _user32_LoadBitmapW_Ptr    1018ca80     unicows:thunk_user32_LoadBitmapW.obj
 0003:0000fa84       _user32_LoadCursorFromFileW_Ptr 1018ca84     unicows:thunk_user32_LoadCursorFromFileW.obj
 0003:0000fa84       __imp__LoadCursorFromFileW@4 1018ca84     unicows:thunk_user32_LoadCursorFromFileW.obj
 0003:0000fa88       _user32_LoadCursorW_Ptr    1018ca88     unicows:thunk_user32_LoadCursorW.obj
 0003:0000fa88       __imp__LoadCursorW@8       1018ca88     unicows:thunk_user32_LoadCursorW.obj
 0003:0000fa8c       __imp__LoadIconW@8         1018ca8c     unicows:thunk_user32_LoadIconW.obj
 0003:0000fa8c       _user32_LoadIconW_Ptr      1018ca8c     unicows:thunk_user32_LoadIconW.obj
 0003:0000fa90       _user32_LoadImageW_Ptr     1018ca90     unicows:thunk_user32_LoadImageW.obj
 0003:0000fa90       __imp__LoadImageW@24       1018ca90     unicows:thunk_user32_LoadImageW.obj
 0003:0000fa94       __imp__LoadKeyboardLayoutW@8 1018ca94     unicows:thunk_user32_LoadKeyboardLayoutW.obj
 0003:0000fa94       _user32_LoadKeyboardLayoutW_Ptr 1018ca94     unicows:thunk_user32_LoadKeyboardLayoutW.obj
 0003:0000fa98       __imp__MapVirtualKeyExW@12 1018ca98     unicows:thunk_user32_MapVirtualKeyExW.obj
 0003:0000fa98       _user32_MapVirtualKeyExW_Ptr 1018ca98     unicows:thunk_user32_MapVirtualKeyExW.obj
 0003:0000fa9c       _user32_MapVirtualKeyW_Ptr 1018ca9c     unicows:thunk_user32_MapVirtualKeyW.obj
 0003:0000fa9c       __imp__MapVirtualKeyW@8    1018ca9c     unicows:thunk_user32_MapVirtualKeyW.obj
 0003:0000faa0       _user32_MessageBoxW_Ptr    1018caa0     unicows:thunk_user32_MessageBoxW.obj
 0003:0000faa0       __imp__MessageBoxW@16      1018caa0     unicows:thunk_user32_MessageBoxW.obj
 0003:0000faa4       __imp__PeekMessageW@20     1018caa4     unicows:thunk_user32_PeekMessageW.obj
 0003:0000faa4       _user32_PeekMessageW_Ptr   1018caa4     unicows:thunk_user32_PeekMessageW.obj
 0003:0000faa8       _user32_PostMessageW_Ptr   1018caa8     unicows:thunk_user32_PostMessageW.obj
 0003:0000faa8       __imp__PostMessageW@16     1018caa8     unicows:thunk_user32_PostMessageW.obj
 0003:0000faac       _user32_RegisterClassExW_Ptr 1018caac     unicows:thunk_user32_RegisterClassExW.obj
 0003:0000faac       __imp__RegisterClassExW@4  1018caac     unicows:thunk_user32_RegisterClassExW.obj
 0003:0000fab0       __imp__RegisterClassW@4    1018cab0     unicows:thunk_user32_RegisterClassW.obj
 0003:0000fab0       _user32_RegisterClassW_Ptr 1018cab0     unicows:thunk_user32_RegisterClassW.obj
 0003:0000fab4       __imp__RegisterClipboardFormatW@4 1018cab4     unicows:thunk_user32_RegisterClipboardFormatW.obj
 0003:0000fab4       _user32_RegisterClipboardFormatW_Ptr 1018cab4     unicows:thunk_user32_RegisterClipboardFormatW.obj
 0003:0000fab8       __imp__RegisterWindowMessageW@4 1018cab8     unicows:thunk_user32_RegisterWindowMessageW.obj
 0003:0000fab8       _user32_RegisterWindowMessageW_Ptr 1018cab8     unicows:thunk_user32_RegisterWindowMessageW.obj
 0003:0000fabc       __imp__RemovePropW@8       1018cabc     unicows:thunk_user32_RemovePropW.obj
 0003:0000fabc       _user32_RemovePropW_Ptr    1018cabc     unicows:thunk_user32_RemovePropW.obj
 0003:0000fac0       _user32_SendMessageW_Ptr   1018cac0     unicows:thunk_user32_SendMessageW.obj
 0003:0000fac0       __imp__SendMessageW@16     1018cac0     unicows:thunk_user32_SendMessageW.obj
 0003:0000fac4       _user32_SetClassLongW_Ptr  1018cac4     unicows:thunk_user32_SetClassLongW.obj
 0003:0000fac4       __imp__SetClassLongW@12    1018cac4     unicows:thunk_user32_SetClassLongW.obj
 0003:0000fac8       _user32_SetMenuItemInfoW_Ptr 1018cac8     unicows:thunk_user32_SetMenuItemInfoW.obj
 0003:0000fac8       __imp__SetMenuItemInfoW@16 1018cac8     unicows:thunk_user32_SetMenuItemInfoW.obj
 0003:0000facc       _user32_SetPropW_Ptr       1018cacc     unicows:thunk_user32_SetPropW.obj
 0003:0000facc       __imp__SetPropW@12         1018cacc     unicows:thunk_user32_SetPropW.obj
 0003:0000fad0       _user32_SetWindowLongW_Ptr 1018cad0     unicows:thunk_user32_SetWindowLongW.obj
 0003:0000fad0       __imp__SetWindowLongW@12   1018cad0     unicows:thunk_user32_SetWindowLongW.obj
 0003:0000fad4       __imp__SetWindowTextW@8    1018cad4     unicows:thunk_user32_SetWindowTextW.obj
 0003:0000fad4       _user32_SetWindowTextW_Ptr 1018cad4     unicows:thunk_user32_SetWindowTextW.obj
 0003:0000fad8       _user32_SetWindowsHookExW_Ptr 1018cad8     unicows:thunk_user32_SetWindowsHookExW.obj
 0003:0000fad8       __imp__SetWindowsHookExW@16 1018cad8     unicows:thunk_user32_SetWindowsHookExW.obj
 0003:0000fadc       _user32_SystemParametersInfoW_Ptr 1018cadc     unicows:thunk_user32_SystemParametersInfoW.obj
 0003:0000fadc       __imp__SystemParametersInfoW@16 1018cadc     unicows:thunk_user32_SystemParametersInfoW.obj
 0003:0000fae0       _user32_UnregisterClassW_Ptr 1018cae0     unicows:thunk_user32_UnregisterClassW.obj
 0003:0000fae0       __imp__UnregisterClassW@8  1018cae0     unicows:thunk_user32_UnregisterClassW.obj
 0003:0000fae4       __imp__VkKeyScanW@4        1018cae4     unicows:thunk_user32_VkKeyScanW.obj
 0003:0000fae4       _user32_VkKeyScanW_Ptr     1018cae4     unicows:thunk_user32_VkKeyScanW.obj
 0003:0000fae8       __imp__wsprintfW           1018cae8     unicows:thunk_user32_wsprintfW.obj
 0003:0000fae8       _user32_wsprintfW_Ptr      1018cae8     unicows:thunk_user32_wsprintfW.obj
 0003:0000faec       _winspool_DeviceCapabilitiesW_Ptr 1018caec     unicows:thunk_winspool_DeviceCapabilitiesW.obj
 0003:0000faec       __imp__DeviceCapabilitiesW@20 1018caec     unicows:thunk_winspool_DeviceCapabilitiesW.obj
 0003:0000faf0       _winspool_DocumentPropertiesW_Ptr 1018caf0     unicows:thunk_winspool_DocumentPropertiesW.obj
 0003:0000faf4       _winspool_EnumPrintersW_Ptr 1018caf4     unicows:thunk_winspool_EnumPrintersW.obj
 0003:0000faf8       _winspool_GetPrinterW_Ptr  1018caf8     unicows:thunk_winspool_GetPrinterW.obj
 0003:0000fafc       _winspool_OpenPrinterW_Ptr 1018cafc     unicows:thunk_winspool_OpenPrinterW.obj
 0003:0000fb00       _winspool_StartDocPrinterW_Ptr 1018cb00     unicows:thunk_winspool_StartDocPrinterW.obj
 0003:00010418       _start_timer               1018d418     awt_ImagingLib.obj
 0003:0001041c       _stop_timer                1018d41c     awt_ImagingLib.obj
 0003:00010420       _std_odas_computed         1018d420     dither.obj
 0003:0001e1e0       _sharedContext             1019b1e0     WGLGraphicsConfig.obj
 0003:0001e1e8       ?manager@GDIHashtable@@0VBatchDestructionManager@1@A 1019b1e8     GDIHashtable.obj
 0003:0001e270       ?theInstance@Devices@@0PAV1@A 1019b270     Devices.obj
 0003:0001e274       ?arrayLock@Devices@@0VCriticalSection@@A 1019b274     Devices.obj
 0003:0001e2ac       ?theAwtObjectList@@3VAwtObjectList@@A 1019b2ac     ObjectList.obj
 0003:0001e308       ?forceD3DUsage@@3HA        1019b308     WindowsFlags.obj
 0003:0001e310       ?disableRegistry@@3HA      1019b310     WindowsFlags.obj
 0003:0001e314       ?g_offscreenSharing@@3EA   1019b314     WindowsFlags.obj
 0003:0001e318       ?setHighDPIAware@@3HA      1019b318     WindowsFlags.obj
 0003:0001e320       ?checkRegistry@@3HA        1019b320     WindowsFlags.obj
 0003:0001e324       ?accelReset@@3HA           1019b324     WindowsFlags.obj
 0003:0001e32c       ?consumedID@AwtAWTEvent@@2PAU_jfieldID@@A 1019b32c     awt_AWTEvent.obj
 0003:0001e330       ?idID@AwtAWTEvent@@2PAU_jfieldID@@A 1019b330     awt_AWTEvent.obj
 0003:0001e334       ?bdataID@AwtAWTEvent@@2PAU_jfieldID@@A 1019b334     awt_AWTEvent.obj
 0003:0001e338       ?cache@AwtBrush@@0VGDIHashtable@@A 1019b338     awt_Brush.obj
 0003:0001e398       ?labelID@AwtButton@@2PAU_jfieldID@@A 1019b398     awt_Button.obj
 0003:0001e39c       ?groupID@AwtCheckbox@@2PAU_jfieldID@@A 1019b39c     awt_Checkbox.obj
 0003:0001e3a0       ?stateID@AwtCheckbox@@2PAU_jfieldID@@A 1019b3a0     awt_Checkbox.obj
 0003:0001e3a4       ?labelID@AwtCheckbox@@2PAU_jfieldID@@A 1019b3a4     awt_Checkbox.obj
 0003:0001e3a8       ?mouseCapture@AwtChoice@@2HA 1019b3a8     awt_Choice.obj
 0003:0001e3ac       ?skipNextMouseUp@AwtChoice@@2HA 1019b3ac     awt_Choice.obj
 0003:0001e3b0       ?lostSelectionOwnershipMID@AwtClipboard@@2PAU_jmethodID@@A 1019b3b0     awt_Clipboard.obj
 0003:0001e3b4       ?theCurrentClipboard@AwtClipboard@@2PAV_jobject@@A 1019b3b4     awt_Clipboard.obj
 0003:0001e3b8       ?handleContentsChangedMID@AwtClipboard@@0RAU_jmethodID@@A 1019b3b8     awt_Clipboard.obj
 0003:0001e3bc       ?isGettingOwnership@AwtClipboard@@0HA 1019b3bc     awt_Clipboard.obj
 0003:0001e3c0       ?isClipboardViewerRegistered@AwtClipboard@@0HC 1019b3c0     awt_Clipboard.obj
 0003:0001e3c4       ?hwndNextViewer@AwtClipboard@@0RAUHWND__@@A 1019b3c4     awt_Clipboard.obj
 0003:0001e3c8       ?getRGBMID@AwtColor@@2PAU_jmethodID@@A 1019b3c8     awt_Color.obj
 0003:0001e3d0       ?isEnabledMID@AwtComponent@@2PAU_jmethodID@@A 1019b3d0     awt_Component.obj
 0003:0001e3d4       ?getFontMID@AwtComponent@@2PAU_jmethodID@@A 1019b3d4     awt_Component.obj
 0003:0001e3d8       ?appContextID@AwtComponent@@2PAU_jfieldID@@A 1019b3d8     awt_Component.obj
 0003:0001e3dc       ?replaceSurfaceDataLaterMID@AwtComponent@@2PAU_jmethodID@@A 1019b3dc     awt_Component.obj
 0003:0001e3e0       ?privateKeyID@AwtComponent@@2PAU_jfieldID@@A 1019b3e0     awt_Component.obj
 0003:0001e3e4       ?sm_focusOwner@AwtComponent@@2PAUHWND__@@A 1019b3e4     awt_Component.obj
 0003:0001e3e8       ?foregroundID@AwtComponent@@2PAU_jfieldID@@A 1019b3e8     awt_Component.obj
 0003:0001e3ec       ?sm_realFocusOpposite@AwtComponent@@1PAUHWND__@@A 1019b3ec     awt_Component.obj
 0003:0001f3f0       ?heightID@AwtComponent@@2PAU_jfieldID@@A 1019c3f0     awt_Component.obj
 0003:0001f3f4       ?getToolkitMID@AwtComponent@@2PAU_jmethodID@@A 1019c3f4     awt_Component.obj
 0003:0001f3f8       ?enabledID@AwtComponent@@2PAU_jfieldID@@A 1019c3f8     awt_Component.obj
 0003:0001f3fc       ?yID@AwtComponent@@2PAU_jfieldID@@A 1019c3fc     awt_Component.obj
 0003:0001f400       ?hwndID@AwtComponent@@2PAU_jfieldID@@A 1019c400     awt_Component.obj
 0003:0001f404       ?backgroundID@AwtComponent@@2PAU_jfieldID@@A 1019c404     awt_Component.obj
 0003:0001f408       ?focusableID@AwtComponent@@2PAU_jfieldID@@A 1019c408     awt_Component.obj
 0003:0001f40c       ?peerGCID@AwtComponent@@2PAU_jfieldID@@A 1019c40c     awt_Component.obj
 0003:0001f410       ?sm_focusedWindow@AwtComponent@@0PAUHWND__@@A 1019c410     awt_Component.obj
 0003:0001f414       ?peerID@AwtComponent@@2PAU_jfieldID@@A 1019c414     awt_Component.obj
 0003:0001f418       ?sm_cursorOn@AwtComponent@@0PAUHWND__@@A 1019c418     awt_Component.obj
 0003:0001f41c       ?parentID@AwtComponent@@2PAU_jfieldID@@A 1019c41c     awt_Component.obj
 0003:0001f420       ?getLocationOnScreenMID@AwtComponent@@2PAU_jmethodID@@A 1019c420     awt_Component.obj
 0003:0001f424       ?sm_suppressFocusAndActivation@AwtComponent@@1HA 1019c424     awt_Component.obj
 0003:0001f428       ?replaceSurfaceDataMID@AwtComponent@@2PAU_jmethodID@@A 1019c428     awt_Component.obj
 0003:0001f42c       ?xID@AwtComponent@@2PAU_jfieldID@@A 1019c42c     awt_Component.obj
 0003:0001f430       ?visibleID@AwtComponent@@2PAU_jfieldID@@A 1019c430     awt_Component.obj
 0003:0001f434       ?cursorID@AwtComponent@@2PAU_jfieldID@@A 1019c434     awt_Component.obj
 0003:0001f438       ?widthID@AwtComponent@@2PAU_jfieldID@@A 1019c438     awt_Component.obj
 0003:0001f43c       ?graphicsConfigID@AwtComponent@@2PAU_jfieldID@@A 1019c43c     awt_Component.obj
 0003:0001f444       _g_bUserHasChangedInputLang 1019c444     awt_Component.obj
 0003:0001f448       ?sm_bMenuLoop@AwtComponent@@2HA 1019c448     awt_Component.obj
 0003:0001f458       ?sm_95WheelMessage@AwtComponent@@1IA 1019c458     awt_Component.obj
 0003:0001f45c       ?sm_95WheelSupport@AwtComponent@@1IA 1019c45c     awt_Component.obj
 0003:0001f460       ?m_QueryNewPaletteCalled@AwtComponent@@0HA 1019c460     awt_Component.obj
 0003:0001f464       ?windowMoveLockHeld@@3HA   1019c464     awt_Component.obj
 0003:0001f468       ?windowSizing@@3HA         1019c468     awt_Component.obj
 0003:0001f490       ?m_isWin95@AwtComponent@@2HA 1019c490     awt_Component.obj
 0003:0001f4e0       ?m_idLang@AwtComponent@@0GA 1019c4e0     awt_Component.obj
 0003:0001f520       ?m_isWin2000@AwtComponent@@2HA 1019c520     awt_Component.obj
 0003:0001f524       ?WmAwtIsComponent@AwtComponent@@2IB 1019c524     awt_Component.obj
 0003:0001f528       ?m_isWinNT@AwtComponent@@2HA 1019c528     awt_Component.obj
 0003:0001f52c       ?windowMoveLock@@3VCriticalSection@@A 1019c52c     awt_Component.obj
 0003:0001f564       ?sm_rtlReadingOrder@AwtComponent@@0HA 1019c564     awt_Component.obj
 0003:0001f568       ?m_hkl@AwtComponent@@0PAUHKL__@@A 1019c568     awt_Component.obj
 0003:0001f570       ?sm_rtl@AwtComponent@@0HA  1019c570     awt_Component.obj
 0003:0001f574       ?m_CodePage@AwtComponent@@0IA 1019c574     awt_Component.obj
 0003:0001f738       ?layoutMgrID@AwtContainer@@2PAU_jfieldID@@A 1019c738     awt_Container.obj
 0003:0001f73c       ?findComponentAtMID@AwtContainer@@2PAU_jmethodID@@A 1019c73c     awt_Container.obj
 0003:0001f740       ?updateCursorID@AwtCursor@@2PAU_jmethodID@@A 1019c740     awt_Cursor.obj
 0003:0001f744       ?globalCursorManagerClass@AwtCursor@@2PAV_jclass@@A 1019c744     awt_Cursor.obj
 0003:0001f748       ?mSetPDataID@AwtCursor@@2PAU_jmethodID@@A 1019c748     awt_Cursor.obj
 0003:0001f74c       ?typeID@AwtCursor@@2PAU_jfieldID@@A 1019c74c     awt_Cursor.obj
 0003:0001f750       ?pDataID@AwtCursor@@2PAU_jfieldID@@A 1019c750     awt_Cursor.obj
 0003:0001f754       ?pointYID@AwtCursor@@2PAU_jfieldID@@A 1019c754     awt_Cursor.obj
 0003:0001f758       ?pointXID@AwtCursor@@2PAU_jfieldID@@A 1019c758     awt_Cursor.obj
 0003:0001f75c       ?customCursors@AwtCursor@@0VAwtObjectList@@A 1019c75c     awt_Cursor.obj
 0003:0001fbc4       ?heightID@AwtDimension@@2PAU_jfieldID@@A 1019cbc4     awt_Dimension.obj
 0003:0001fbc8       ?widthID@AwtDimension@@2PAU_jfieldID@@A 1019cbc8     awt_Dimension.obj
 0003:0001fbd0       ?pDataID@AwtDesktopProperties@@2PAU_jfieldID@@A 1019cbd0     awt_DesktopProperties.obj
 0003:0001fbd4       ?setBooleanPropertyID@AwtDesktopProperties@@2PAU_jmethodID@@A 1019cbd4     awt_DesktopProperties.obj
 0003:0001fbd8       ?setIntegerPropertyID@AwtDesktopProperties@@2PAU_jmethodID@@A 1019cbd8     awt_DesktopProperties.obj
 0003:0001fbdc       ?setStringPropertyID@AwtDesktopProperties@@2PAU_jmethodID@@A 1019cbdc     awt_DesktopProperties.obj
 0003:0001fbe0       ?setColorPropertyID@AwtDesktopProperties@@2PAU_jmethodID@@A 1019cbe0     awt_DesktopProperties.obj
 0003:0001fbe4       ?setFontPropertyID@AwtDesktopProperties@@2PAU_jmethodID@@A 1019cbe4     awt_DesktopProperties.obj
 0003:0001fbe8       ?setSoundPropertyID@AwtDesktopProperties@@2PAU_jmethodID@@A 1019cbe8     awt_DesktopProperties.obj
 0003:0001fbf4       ?AWTModalHook@@3PAUHHOOK__@@A 1019cbf4     awt_Dialog.obj
 0003:0001fbf8       ?AWTMouseHook@@3PAUHHOOK__@@A 1019cbf8     awt_Dialog.obj
 0003:0001fbfc       ?titleID@AwtDialog@@2PAU_jfieldID@@A 1019cbfc     awt_Dialog.obj
 0003:0001fc00       ?undecoratedID@AwtDialog@@2PAU_jfieldID@@A 1019cc00     awt_Dialog.obj
 0003:0001fc04       ?AwtModalityNestCounter@@3HA 1019cc04     awt_Dialog.obj
 0003:0001fc08       ?VisibleModalDialogsCount@@3HA 1019cc08     awt_Dialog.obj
 0003:0001fc18       ?jawtSDataID@@3PAU_jfieldID@@A 1019cc18     awt_DrawingSurface.obj
 0003:0001fc1c       ?jawtSMgrID@@3PAU_jfieldID@@A 1019cc1c     awt_DrawingSurface.obj
 0003:0001fc20       ?jawtComponentClass@@3PAV_jclass@@A 1019cc20     awt_DrawingSurface.obj
 0003:0001fc24       ?jawtPDataID@@3PAU_jfieldID@@A 1019cc24     awt_DrawingSurface.obj
 0003:0001fc28       ?jawtVImgClass@@3PAV_jclass@@A 1019cc28     awt_DrawingSurface.obj
 0003:0001fc30       ?checkFilenameFilterMID@AwtFileDialog@@2PAU_jmethodID@@A 1019cc30     awt_FileDialog.obj
 0003:0001fc34       ?parentID@AwtFileDialog@@2PAU_jfieldID@@A 1019cc34     awt_FileDialog.obj
 0003:0001fc38       ?setHWndMID@AwtFileDialog@@2PAU_jmethodID@@A 1019cc38     awt_FileDialog.obj
 0003:0001fc3c       ?filterID@AwtFileDialog@@2PAU_jfieldID@@A 1019cc3c     awt_FileDialog.obj
 0003:0001fc40       ?dirID@AwtFileDialog@@2PAU_jfieldID@@A 1019cc40     awt_FileDialog.obj
 0003:0001fc44       ?fileFilterID@AwtFileDialog@@2PAU_jfieldID@@A 1019cc44     awt_FileDialog.obj
 0003:0001fc48       ?modeID@AwtFileDialog@@2PAU_jfieldID@@A 1019cc48     awt_FileDialog.obj
 0003:0001fd50       ?handleCancelMID@AwtFileDialog@@2PAU_jmethodID@@A 1019cd50     awt_FileDialog.obj
 0003:0001fd54       ?handleSelectedMID@AwtFileDialog@@2PAU_jmethodID@@A 1019cd54     awt_FileDialog.obj
 0003:0001fd58       ?fileID@AwtFileDialog@@2PAU_jfieldID@@A 1019cd58     awt_FileDialog.obj
 0003:0001fd5c       ?targetID@AwtEvent@@2PAU_jfieldID@@A 1019cd5c     awt_Event.obj
 0003:0001fd60       ?yID@AwtEvent@@2PAU_jfieldID@@A 1019cd60     awt_Event.obj
 0003:0001fd64       ?xID@AwtEvent@@2PAU_jfieldID@@A 1019cd64     awt_Event.obj
 0003:0001fd68       ?componentFontsID@AwtFont@@2PAU_jfieldID@@A 1019cd68     awt_Font.obj
 0003:0001fd6c       ?nativeNameID@AwtFont@@2PAU_jfieldID@@A 1019cd6c     awt_Font.obj
 0003:0001fd70       ?peerMID@AwtFont@@2PAU_jmethodID@@A 1019cd70     awt_Font.obj
 0003:0001fd74       ?useUnicodeID@AwtFont@@2PAU_jfieldID@@A 1019cd74     awt_Font.obj
 0003:0001fd78       ?maxHeightID@AwtFont@@2PAU_jfieldID@@A 1019cd78     awt_Font.obj
 0003:0001fd7c       ?descentID@AwtFont@@2PAU_jfieldID@@A 1019cd7c     awt_Font.obj
 0003:0001fd80       ?maxDescentID@AwtFont@@2PAU_jfieldID@@A 1019cd80     awt_Font.obj
 0003:0001fd84       ?maxAdvanceID@AwtFont@@2PAU_jfieldID@@A 1019cd84     awt_Font.obj
 0003:0001fd88       ?fontNameID@AwtFont@@2PAU_jfieldID@@A 1019cd88     awt_Font.obj
 0003:0001fd8c       ?heightID@AwtFont@@2PAU_jfieldID@@A 1019cd8c     awt_Font.obj
 0003:0001fd90       ?leadingID@AwtFont@@2PAU_jfieldID@@A 1019cd90     awt_Font.obj
 0003:0001fd94       ?fontID@AwtFont@@2PAU_jfieldID@@A 1019cd94     awt_Font.obj
 0003:0001fd98       ?pDataID@AwtFont@@2PAU_jfieldID@@A 1019cd98     awt_Font.obj
 0003:0001fd9c       ?getHeightMID@AwtFont@@2PAU_jmethodID@@A 1019cd9c     awt_Font.obj
 0003:0001fda0       ?makeConvertedMultiFontStringMID@AwtFont@@2PAU_jmethodID@@A 1019cda0     awt_Font.obj
 0003:0001fda4       ?fontConfigID@AwtFont@@2PAU_jfieldID@@A 1019cda4     awt_Font.obj
 0003:0001fda8       ?styleID@AwtFont@@2PAU_jfieldID@@A 1019cda8     awt_Font.obj
 0003:0001fdac       ?sizeID@AwtFont@@2PAU_jfieldID@@A 1019cdac     awt_Font.obj
 0003:0001fdb0       ?maxAscentID@AwtFont@@2PAU_jfieldID@@A 1019cdb0     awt_Font.obj
 0003:0001fdb4       ?textComponentFontNameID@AwtFont@@2PAU_jfieldID@@A 1019cdb4     awt_Font.obj
 0003:0001fdb8       ?getFontMID@AwtFont@@2PAU_jmethodID@@A 1019cdb8     awt_Font.obj
 0003:0001fdbc       ?widthsID@AwtFont@@2PAU_jfieldID@@A 1019cdbc     awt_Font.obj
 0003:0001fdc0       ?nameID@AwtFont@@2PAU_jfieldID@@A 1019cdc0     awt_Font.obj
 0003:0001fdc4       ?ascentID@AwtFont@@2PAU_jfieldID@@A 1019cdc4     awt_Font.obj
 0003:0001fdc8       ?m_szCodePageSubkey@CCombinedSegTable@@0PADA 1019cdc8     awt_Font.obj
 0003:0001fdd8       ?m_szDefaultEUDCFile@CCombinedSegTable@@0PAGA 1019cdd8     awt_Font.obj
 0003:0001ffe0       ?g_segTableManager@@3VCSegTableManager@@A 1019cfe0     awt_Font.obj
 0003:0001ffec       ?fontCache@@3VAwtFontCache@@A 1019cfec     awt_Font.obj
 0003:00020000       ?handleID@AwtFrame@@2PAU_jfieldID@@A 1019d000     awt_Frame.obj
 0003:00020004       ?undecoratedID@AwtFrame@@2PAU_jfieldID@@A 1019d004     awt_Frame.obj
 0003:00020008       ?activateEmbeddingTopLevelMID@AwtFrame@@2PAU_jmethodID@@A 1019d008     awt_Frame.obj
 0003:0002000c       ?stateID@AwtFrame@@2PAU_jfieldID@@A 1019d00c     awt_Frame.obj
 0003:00020010       ?isAppActive@@3HA          1019d010     awt_Frame.obj
 0003:00020018       ?sm_BlockedThreads@AwtFrame@@0VHashtable@@A 1019d018     awt_Frame.obj
 0003:00020080       ?numCurrentObjects@AwtGDIObject@@0HA 1019d080     awt_GDIObject.obj
 0003:00020084       ?objectCounterLock@AwtGDIObject@@0PAVCriticalSection@@A 1019d084     awt_GDIObject.obj
 0003:00020088       ?maxGDIObjects@AwtGDIObject@@0HA 1019d088     awt_GDIObject.obj
 0003:0002008c       ?modifiersID@AwtInputEvent@@2PAU_jfieldID@@A 1019d08c     awt_InputEvent.obj
 0003:00020090       ?leftID@AwtInsets@@2PAU_jfieldID@@A 1019d090     awt_Insets.obj
 0003:00020094       ?topID@AwtInsets@@2PAU_jfieldID@@A 1019d094     awt_Insets.obj
 0003:00020098       ?rightID@AwtInsets@@2PAU_jfieldID@@A 1019d098     awt_Insets.obj
 0003:0002009c       ?bottomID@AwtInsets@@2PAU_jfieldID@@A 1019d09c     awt_Insets.obj
 0003:000200a0       ?keyCodeID@AwtKeyEvent@@2PAU_jfieldID@@A 1019d0a0     awt_KeyEvent.obj
 0003:000200a4       ?rawCodeID@AwtKeyEvent@@2PAU_jfieldID@@A 1019d0a4     awt_KeyEvent.obj
 0003:000200a8       ?keyCharID@AwtKeyEvent@@2PAU_jfieldID@@A 1019d0a8     awt_KeyEvent.obj
 0003:000200ac       ?primaryLevelUnicodeID@AwtKeyEvent@@2PAU_jfieldID@@A 1019d0ac     awt_KeyEvent.obj
 0003:000200b0       ?scancodeID@AwtKeyEvent@@2PAU_jfieldID@@A 1019d0b0     awt_KeyEvent.obj
 0003:000200b4       ?shouldNativelyFocusHeavyweightMID@AwtKeyboardFocusManager@@2PAU_jmethodID@@A 1019d0b4     awt_KeyboardFocusManager.obj
 0003:000200b8       ?processSynchronousTransfer@AwtKeyboardFocusManager@@2PAU_jmethodID@@A 1019d0b8     awt_KeyboardFocusManager.obj
 0003:000200bc       ?markClearGlobalFocusOwnerMID@AwtKeyboardFocusManager@@2PAU_jmethodID@@A 1019d0bc     awt_KeyboardFocusManager.obj
 0003:000200c0       ?heavyweightButtonDownMID@AwtKeyboardFocusManager@@2PAU_jmethodID@@A 1019d0c0     awt_KeyboardFocusManager.obj
 0003:000200c4       ?isProxyActive@AwtKeyboardFocusManager@@2PAU_jfieldID@@A 1019d0c4     awt_KeyboardFocusManager.obj
 0003:000200c8       ?keyboardFocusManagerCls@AwtKeyboardFocusManager@@2PAV_jclass@@A 1019d0c8     awt_KeyboardFocusManager.obj
 0003:000200cc       ?removeLastFocusRequestMID@AwtKeyboardFocusManager@@2PAU_jmethodID@@A 1019d0cc     awt_KeyboardFocusManager.obj
 0003:000200d0       ?textID@AwtLabel@@2PAU_jfieldID@@A 1019d0d0     awt_Label.obj
 0003:000200d4       ?alignmentID@AwtLabel@@2PAU_jfieldID@@A 1019d0d4     awt_Label.obj
 0003:000200d8       ?getItemMID@AwtMenu@@2PAU_jmethodID@@A 1019d0d8     awt_Menu.obj
 0003:000200dc       ?countItemsMID@AwtMenu@@2PAU_jmethodID@@A 1019d0dc     awt_Menu.obj
 0003:000200e0       ?getMenuMID@AwtMenuBar@@2PAU_jmethodID@@A 1019d0e0     awt_MenuBar.obj
 0003:000200e4       ?getMenuCountMID@AwtMenuBar@@2PAU_jmethodID@@A 1019d0e4     awt_MenuBar.obj
 0003:000200e8       ?labelID@AwtMenuItem@@2PAU_jfieldID@@A 1019d0e8     awt_MenuItem.obj
 0003:000200ec       ?systemFont@AwtMenuItem@@2PAV_jobject@@A 1019d0ec     awt_MenuItem.obj
 0003:000200f0       ?stateID@AwtMenuItem@@2PAU_jfieldID@@A 1019d0f0     awt_MenuItem.obj
 0003:000200f4       ?isCheckboxID@AwtMenuItem@@2PAU_jfieldID@@A 1019d0f4     awt_MenuItem.obj
 0003:000200f8       ?bmpCheck@AwtMenuItem@@2PAUHBITMAP__@@A 1019d0f8     awt_MenuItem.obj
 0003:000200fc       ?enabledID@AwtMenuItem@@2PAU_jfieldID@@A 1019d0fc     awt_MenuItem.obj
 0003:00020100       ?shortcutLabelID@AwtMenuItem@@2PAU_jfieldID@@A 1019d100     awt_MenuItem.obj
 0003:00020104       ?fontID@AwtMenuItem@@2PAU_jfieldID@@A 1019d104     awt_MenuItem.obj
 0003:00020108       ?privateKeyID@AwtMenuItem@@2PAU_jfieldID@@A 1019d108     awt_MenuItem.obj
 0003:0002010c       ?appContextID@AwtMenuItem@@2PAU_jfieldID@@A 1019d10c     awt_MenuItem.obj
 0003:00020110       ?getDefaultFontMID@AwtMenuItem@@2PAU_jmethodID@@A 1019d110     awt_MenuItem.obj
 0003:00020114       ?sm_rtl@AwtMenuItem@@0HA   1019d114     awt_MenuItem.obj
 0003:00020118       ?m_idLang@AwtMenuItem@@0GA 1019d118     awt_MenuItem.obj
 0003:0002011c       ?sm_rtlReadingOrder@AwtMenuItem@@0HA 1019d11c     awt_MenuItem.obj
 0003:00020120       ?m_isWin95@AwtMenuItem@@0HA 1019d120     awt_MenuItem.obj
 0003:00020124       ?m_CodePage@AwtMenuItem@@0IA 1019d124     awt_MenuItem.obj
 0003:0002012c       ?g_pfnGetSystemMetrics@@3P6GHH@ZA 1019d12c     awt_MMStub.obj
 0003:00020130       ?g_pfnMonitorFromPoint@@3P6GPAXUtagPOINT@@H@ZA 1019d130     awt_MMStub.obj
 0003:00020134       ?g_pfnEnumDisplayDevices@@3P6GHPAXHPAUtagDISPLAY_DEVICE@@K@ZA 1019d134     awt_MMStub.obj
 0003:00020138       ?g_hmpMonitors@@3PAPAXA    1019d138     awt_MMStub.obj
 0003:0002013c       ?g_nMonitorLimit@@3HA      1019d13c     awt_MMStub.obj
 0003:00020140       ?g_nMonitorCounter@@3HA    1019d140     awt_MMStub.obj
 0003:00020144       ?g_pfnGetMonitorInfo@@3P6GHPAXPAUtagMONITOR_INFO@@@ZA 1019d144     awt_MMStub.obj
 0003:00020148       ?g_pfnEnumDisplayMonitors@@3P6GHPAUHDC__@@PBUtagRECT@@P6GHPAX0PAU2@J@ZJ@ZA 1019d148     awt_MMStub.obj
 0003:0002014c       ?g_pfnMonitorFromRect@@3P6GPAXPBUtagRECT@@H@ZA 1019d14c     awt_MMStub.obj
 0003:00020150       ?g_pfnMonitorFromWindow@@3P6GPAXPAUHWND__@@H@ZA 1019d150     awt_MMStub.obj
 0003:00020158       ?yID@AwtMouseEvent@@2PAU_jfieldID@@A 1019d158     awt_MouseEvent.obj
 0003:0002015c       ?buttonID@AwtMouseEvent@@2PAU_jfieldID@@A 1019d15c     awt_MouseEvent.obj
 0003:00020160       ?xID@AwtMouseEvent@@2PAU_jfieldID@@A 1019d160     awt_MouseEvent.obj
 0003:00020164       ?targetID@AwtObject@@2PAU_jfieldID@@A 1019d164     awt_Object.obj
 0003:00020168       ?wObjectPeerClass@AwtObject@@2PAV_jclass@@A 1019d168     awt_Object.obj
 0003:0002016c       ?createErrorID@AwtObject@@2PAU_jfieldID@@A 1019d16c     awt_Object.obj
 0003:00020170       ?getPeerForTargetMID@AwtObject@@2PAU_jmethodID@@A 1019d170     awt_Object.obj
 0003:00020174       ?destroyedID@AwtObject@@2PAU_jfieldID@@A 1019d174     awt_Object.obj
 0003:00020178       ?pDataID@AwtObject@@2PAU_jfieldID@@A 1019d178     awt_Object.obj
 0003:00020180       ?insets_ID@AwtPanel@@2PAU_jfieldID@@A 1019d180     awt_Panel.obj
 0003:00020190       ?cache@AwtPen@@0VGDIHashtable@@A 1019d190     awt_Pen.obj
 0003:000201f0       ?setDevnamesID@AwtPrintControl@@2PAU_jmethodID@@A 1019d1f0     awt_PrintControl.obj
 0003:000201f4       ?getResID@AwtPrintControl@@2PAU_jmethodID@@A 1019d1f4     awt_PrintControl.obj
 0003:000201f8       ?getMinPageID@AwtPrintControl@@2PAU_jmethodID@@A 1019d1f8     awt_PrintControl.obj
 0003:000201fc       ?setPrintDCID@AwtPrintControl@@2PAU_jmethodID@@A 1019d1fc     awt_PrintControl.obj
 0003:00020200       ?setRangeCopiesID@AwtPrintControl@@2PAU_jmethodID@@A 1019d200     awt_PrintControl.obj
 0003:00020204       ?getPrintDCID@AwtPrintControl@@2PAU_jmethodID@@A 1019d204     awt_PrintControl.obj
 0003:00020208       ?dialogOwnerPeerID@AwtPrintControl@@2PAU_jfieldID@@A 1019d208     awt_PrintControl.obj
 0003:0002020c       ?getFromPageID@AwtPrintControl@@2PAU_jmethodID@@A 1019d20c     awt_PrintControl.obj
 0003:00020210       ?getCopiesID@AwtPrintControl@@2PAU_jmethodID@@A 1019d210     awt_PrintControl.obj
 0003:00020214       ?setWin32MediaID@AwtPrintControl@@2PAU_jmethodID@@A 1019d214     awt_PrintControl.obj
 0003:00020218       ?getPrinterID@AwtPrintControl@@2PAU_jmethodID@@A 1019d218     awt_PrintControl.obj
 0003:0002021c       ?getDevmodeID@AwtPrintControl@@2PAU_jmethodID@@A 1019d21c     awt_PrintControl.obj
 0003:00020220       ?setSidesID@AwtPrintControl@@2PAU_jmethodID@@A 1019d220     awt_PrintControl.obj
 0003:00020224       ?setDevmodeID@AwtPrintControl@@2PAU_jmethodID@@A 1019d224     awt_PrintControl.obj
 0003:00020228       ?getPrintToFileEnabledID@AwtPrintControl@@2PAU_jmethodID@@A 1019d228     awt_PrintControl.obj
 0003:0002022c       ?getQualityID@AwtPrintControl@@2PAU_jmethodID@@A 1019d22c     awt_PrintControl.obj
 0003:00020230       ?driverDoesMultipleCopiesID@AwtPrintControl@@2PAU_jfieldID@@A 1019d230     awt_PrintControl.obj
 0003:00020234       ?setResID@AwtPrintControl@@2PAU_jmethodID@@A 1019d234     awt_PrintControl.obj
 0003:00020238       ?setPrinterID@AwtPrintControl@@2PAU_jmethodID@@A 1019d238     awt_PrintControl.obj
 0003:0002023c       ?getDialogID@AwtPrintControl@@2PAU_jmethodID@@A 1019d23c     awt_PrintControl.obj
 0003:00020240       ?getMaxPageID@AwtPrintControl@@2PAU_jmethodID@@A 1019d240     awt_PrintControl.obj
 0003:00020244       ?getToPageID@AwtPrintControl@@2PAU_jmethodID@@A 1019d244     awt_PrintControl.obj
 0003:00020248       ?getOrientID@AwtPrintControl@@2PAU_jmethodID@@A 1019d248     awt_PrintControl.obj
 0003:0002024c       ?setNativeAttID@AwtPrintControl@@2PAU_jmethodID@@A 1019d24c     awt_PrintControl.obj
 0003:00020250       ?getSelectID@AwtPrintControl@@2PAU_jmethodID@@A 1019d250     awt_PrintControl.obj
 0003:00020254       ?getSidesID@AwtPrintControl@@2PAU_jmethodID@@A 1019d254     awt_PrintControl.obj
 0003:00020258       ?driverDoesCollationID@AwtPrintControl@@2PAU_jfieldID@@A 1019d258     awt_PrintControl.obj
 0003:0002025c       ?getMDHID@AwtPrintControl@@2PAU_jmethodID@@A 1019d25c     awt_PrintControl.obj
 0003:00020260       ?getWin32MediaID@AwtPrintControl@@2PAU_jmethodID@@A 1019d260     awt_PrintControl.obj
 0003:00020264       ?setToPageID@AwtPrintControl@@2PAU_jmethodID@@A 1019d264     awt_PrintControl.obj
 0003:00020268       ?getDestID@AwtPrintControl@@2PAU_jmethodID@@A 1019d268     awt_PrintControl.obj
 0003:0002026c       ?getDevnamesID@AwtPrintControl@@2PAU_jmethodID@@A 1019d26c     awt_PrintControl.obj
 0003:00020270       ?getColorID@AwtPrintControl@@2PAU_jmethodID@@A 1019d270     awt_PrintControl.obj
 0003:00020274       ?parentID@AwtPrintDialog@@2PAU_jfieldID@@A 1019d274     awt_PrintDialog.obj
 0003:00020278       ?setHWndMID@AwtPrintDialog@@2PAU_jmethodID@@A 1019d278     awt_PrintDialog.obj
 0003:0002027c       ?controlID@AwtPrintDialog@@2PAU_jfieldID@@A 1019d27c     awt_PrintDialog.obj
 0003:00020280       ?pageID@AwtPrintDialog@@2PAU_jfieldID@@A 1019d280     awt_PrintJob.obj
 0003:00020288       ?yID@AwtRectangle@@2PAU_jfieldID@@A 1019d288     awt_Rectangle.obj
 0003:0002028c       ?heightID@AwtRectangle@@2PAU_jfieldID@@A 1019d28c     awt_Rectangle.obj
 0003:00020290       ?xID@AwtRectangle@@2PAU_jfieldID@@A 1019d290     awt_Rectangle.obj
 0003:00020294       ?widthID@AwtRectangle@@2PAU_jfieldID@@A 1019d294     awt_Rectangle.obj
 0003:00020298       ?lineIncrementID@AwtScrollbar@@2PAU_jfieldID@@A 1019d298     awt_Scrollbar.obj
 0003:0002029c       ?orientationID@AwtScrollbar@@2PAU_jfieldID@@A 1019d29c     awt_Scrollbar.obj
 0003:000202a0       ?pageIncrementID@AwtScrollbar@@2PAU_jfieldID@@A 1019d2a0     awt_Scrollbar.obj
 0003:000202a4       ?ms_hMouseFilter@AwtScrollbar@@0PAUHHOOK__@@A 1019d2a4     awt_Scrollbar.obj
 0003:000202a8       ?ms_isInsideMouseFilter@AwtScrollbar@@0HA 1019d2a8     awt_Scrollbar.obj
 0003:000202ac       ?ms_instanceCounter@AwtScrollbar@@0HA 1019d2ac     awt_Scrollbar.obj
 0003:000202b0       ?vAdjustableID@AwtScrollPane@@2PAU_jfieldID@@A 1019d2b0     awt_ScrollPane.obj
 0003:000202b4       ?blockIncrementID@AwtScrollPane@@2PAU_jfieldID@@A 1019d2b4     awt_ScrollPane.obj
 0003:000202b8       ?scrollbarDisplayPolicyID@AwtScrollPane@@2PAU_jfieldID@@A 1019d2b8     awt_ScrollPane.obj
 0003:000202bc       ?unitIncrementID@AwtScrollPane@@2PAU_jfieldID@@A 1019d2bc     awt_ScrollPane.obj
 0003:000202c0       ?hAdjustableID@AwtScrollPane@@2PAU_jfieldID@@A 1019d2c0     awt_ScrollPane.obj
 0003:000202c4       ?postScrollEventID@AwtScrollPane@@2PAU_jmethodID@@A 1019d2c4     awt_ScrollPane.obj
 0003:000202cc       ?scrollbarVisibilityID@AwtTextArea@@2PAU_jfieldID@@A 1019d2cc     awt_TextArea.obj
 0003:000202d0       ?sm_pDefWindowProc@AwtTextArea@@0P6GJPAUHWND__@@IIJ@ZA 1019d2d0     awt_TextArea.obj
 0003:000202d4       ?sm_oleCallback@AwtTextArea@@0VOleCallback@1@A 1019d2d4     awt_TextArea.obj
 0003:000202dc       ?sm_RichEdit20@AwtTextArea@@0HA 1019d2dc     awt_TextArea.obj
 0003:000202e4       ?canAccessClipboardID@AwtTextComponent@@2PAU_jfieldID@@A 1019d2e4     awt_TextComponent.obj
 0003:000202e8       ?windowsSettingChangeMID@AwtToolkit@@2PAU_jmethodID@@A 1019d2e8     awt_Toolkit.obj
 0003:000202ec       ?getFontMetricsMID@AwtToolkit@@2PAU_jmethodID@@A 1019d2ec     awt_Toolkit.obj
 0003:000202f0       ?m_env@AwtToolkit@@0PAUJNIEnv_@@A 1019d2f0     awt_Toolkit.obj
 0003:000202f4       ?getDefaultToolkitMID@AwtToolkit@@2PAU_jmethodID@@A 1019d2f4     awt_Toolkit.obj
 0003:000202f8       ?m_threadId@AwtToolkit@@0KA 1019d2f8     awt_Toolkit.obj
 0003:000202fc       ?insetsMID@AwtToolkit@@2PAU_jmethodID@@A 1019d2fc     awt_Toolkit.obj
 0003:00020300       ?displayChangeMID@AwtToolkit@@2PAU_jmethodID@@A 1019d300     awt_Toolkit.obj
 0003:00020304       ?jvm@@3PAUJavaVM_@@A       1019d304     awt_Toolkit.obj
 0003:00020308       ?theInstance@AwtToolkit@@0V1@A 1019d308     awt_Toolkit.obj
 0003:00020698       ?locationByPlatformID@AwtWindow@@2PAU_jfieldID@@A 1019d698     awt_Window.obj
 0003:0002069c       ?securityWarningWidthID@AwtWindow@@2PAU_jfieldID@@A 1019d69c     awt_Window.obj
 0003:000206a0       ?sysHID@AwtWindow@@2PAU_jfieldID@@A 1019d6a0     awt_Window.obj
 0003:000206a4       ?windowTYPES@@3PAJA        1019d6a4     awt_Window.obj
 0003:000206bc       ?calculateSecurityWarningPositionMID@AwtWindow@@2PAU_jmethodID@@A 1019d6bc     awt_Window.obj
 0003:000206c0       ?securityWarningHeightID@AwtWindow@@2PAU_jfieldID@@A 1019d6c0     awt_Window.obj
 0003:000206c4       ?sysXID@AwtWindow@@2PAU_jfieldID@@A 1019d6c4     awt_Window.obj
 0003:000206c8       ?warningStringID@AwtWindow@@2PAU_jfieldID@@A 1019d6c8     awt_Window.obj
 0003:000206cc       ?getWarningStringMID@AwtWindow@@2PAU_jmethodID@@A 1019d6cc     awt_Window.obj
 0003:000206d0       ?sysWID@AwtWindow@@2PAU_jfieldID@@A 1019d6d0     awt_Window.obj
 0003:000206d4       ?ms_hCBTFilter@AwtWindow@@0PAUHHOOK__@@A 1019d6d4     awt_Window.obj
 0003:000206d8       ?sysYID@AwtWindow@@2PAU_jfieldID@@A 1019d6d8     awt_Window.obj
 0003:000206dc       ?ms_instanceCounter@AwtWindow@@0HA 1019d6dc     awt_Window.obj
 0003:000206e0       ?m_grabbedWindow@AwtWindow@@1PAV1@A 1019d6e0     awt_Window.obj
 0003:000206e4       ?untrustedWindowsCounter@AwtWindow@@0IA 1019d6e4     awt_Window.obj
 0003:00020720       ?indexCMcacheID@AwtWin32GraphicsDevice@@2PAU_jfieldID@@A 1019d720     awt_Win32GraphicsDevice.obj
 0003:00020724       ?indexCMClass@AwtWin32GraphicsDevice@@2PAV_jclass@@A 1019d724     awt_Win32GraphicsDevice.obj
 0003:00020728       ?paletteChangedMID@AwtWin32GraphicsDevice@@2PAU_jmethodID@@A 1019d728     awt_Win32GraphicsDevice.obj
 0003:0002072c       ?indexCMrgbID@AwtWin32GraphicsDevice@@2PAU_jfieldID@@A 1019d72c     awt_Win32GraphicsDevice.obj
 0003:00020730       _img_oda_alpha             1019d730     awt_Win32GraphicsDevice.obj
 0003:00020770       ?primaryPalettized@AwtWin32GraphicsDevice@@2HA 1019d770     awt_Win32GraphicsDevice.obj
 0003:00020774       ?wToolkitClass@AwtWin32GraphicsDevice@@2PAV_jclass@@A 1019d774     awt_Win32GraphicsDevice.obj
 0003:00020778       ?dynamicColorModelID@AwtWin32GraphicsDevice@@2PAU_jfieldID@@A 1019d778     awt_Win32GraphicsDevice.obj
 0003:0002077c       ?primaryIndex@AwtWin32GraphicsDevice@@2HA 1019d77c     awt_Win32GraphicsDevice.obj
 0003:00020780       ?win32GCVisualID@AwtWin32GraphicsConfig@@2PAU_jfieldID@@A 1019d780     awt_Win32GraphicsConfig.obj
 0003:00020784       ?sm_pCurrentDnDDataObject@AwtDropTarget@@0PAUIDataObject@@A 1019d784     awt_DnDDT.obj
 0003:00020788       ?javaIOExceptionClazz@WDTCPIStreamWrapper@@0PAV_jclass@@A 1019d788     awt_DnDDT.obj
 0003:000207ac       ?m_isOldCursorCustom@AwtDragSource@@0HA 1019d7ac     awt_DnDDS.obj
 0003:000207b0       ?PROCESS_ID_FORMAT@AwtDragSource@@2IB 1019d7b0     awt_DnDDS.obj
 0003:000207e0       ?idID@AwtTrayIcon@@2PAU_jfieldID@@A 1019d7e0     awt_TrayIcon.obj
 0003:000207e4       ?actionCommandID@AwtTrayIcon@@2PAU_jfieldID@@A 1019d7e4     awt_TrayIcon.obj
 0003:000207e8       ?sm_msgWindow@AwtTrayIcon@@2PAUHWND__@@A 1019d7e8     awt_TrayIcon.obj
 0003:000207ec       ?sm_trayIconList@AwtTrayIcon@@2PAVTrayIconListItem@1@A 1019d7ec     awt_TrayIcon.obj
 0003:000207f0       ?sm_instCount@AwtTrayIcon@@2HA 1019d7f0     awt_TrayIcon.obj
 0003:00020840       ?tx@@3U_D3DMATRIX@@A       1019d840     D3DContext.obj
 0003:00020880       ?dwSrcBlendSt@@3KA         1019d880     D3DContext.obj
 0003:00020884       ?dwAlphaSt@@3KA            1019d884     D3DContext.obj
 0003:00020888       ?dwDestBlendSt@@3KA        1019d888     D3DContext.obj
 0003:00020890       ?idTx@@3U_D3DMATRIX@@A     1019d890     D3DContext.obj
 0003:00020910       ?pMgr@D3DPipelineManager@@0PAV1@A 1019d910     D3DPipelineManager.obj
 0003:00020918       ?theInstance@D3DInitializer@@0V1@A 1019d918     D3DPipelineManager.obj
 0003:00020a6c       ?m_Instance@ComCtl32Util@@0V1@A 1019da6c     ComCtl32Util.obj
 0003:00020a88       ?do_print_dlg@AwtCommDialog@@0P6GHPAUtagPDW@@@ZA 1019da88     awt_dlls.obj
 0003:00020a8c       ?fn_set_layered_window_attributes@@3P6GHPAUHWND__@@KEK@ZA 1019da8c     awt_dlls.obj
 0003:00020a90       ?fn_change_display_settings_ex@@3P6GJPBGPAU_devicemodeW@@PAUHWND__@@KPAX@ZA 1019da90     awt_dlls.obj
 0003:00020a94       ?do_ver_query_value@@3P6GHQAXPAGPAPAXPAI@ZA 1019da94     awt_dlls.obj
 0003:00020a98       ?get_dlg_extended_error@AwtCommDialog@@0P6GKXZA 1019da98     awt_dlls.obj
 0003:00020a9c       ?do_page_setup_dlg@AwtCommDialog@@0P6GHPAUtagPSDW@@@ZA 1019da9c     awt_dlls.obj
 0003:00020aa0       ?get_save_file_name@AwtCommDialog@@0P6GHPAUtagOFNW@@@ZA 1019daa0     awt_dlls.obj
 0003:00020aa4       ?get_file_version_info_size@@3P6GKPAGPAK@ZA 1019daa4     awt_dlls.obj
 0003:00020aa8       ?fn_animate_window@@3P6GHPAUHWND__@@KK@ZA 1019daa8     awt_dlls.obj
 0003:00020aac       ?get_file_version_info@@3P6GHPAGKKPAX@ZA 1019daac     awt_dlls.obj
 0003:00020ab0       ?get_path_from_idlist@@3P6GHPBU_ITEMIDLIST@@PAG@ZA 1019dab0     awt_dlls.obj
 0003:00020ab4       ?do_drag_query_file@@3P6GIPAUHDROP__@@IPAGI@ZA 1019dab4     awt_dlls.obj
 0003:00020ab8       ?get_open_file_name@AwtCommDialog@@0P6GHPAUtagOFNW@@@ZA 1019dab8     awt_dlls.obj
 0003:00020abc       ?fn_update_layered_window@@3P6GHPAUHWND__@@PAUHDC__@@PAUtagPOINT@@PAUtagSIZE@@12KPAU_BLENDFUNCTION@@K@ZA 1019dabc     awt_dlls.obj
 0003:00020ac0       ?get_free_system_resources@@3P6GII@ZA 1019dac0     awt_dlls.obj
 0003:00020ac4       ?initialized@AwtWinMM@@0_NA 1019dac4     awt_dlls.obj
 0003:00020ac8       ?playSoundFunc@AwtWinMM@@0P6GHPBGPAUHINSTANCE__@@K@ZA 1019dac8     awt_dlls.obj
 0003:00020acc       ?fn_dwm_is_composition_enabled@@3P6GJPAH@ZA 1019dacc     awt_dlls.obj
 0003:00020ad0       ?fn_dwm_get_window_attribute@@3P6GJPAUHWND__@@KPAXK@ZA 1019dad0     awt_dlls.obj
 0003:00020af0       ?hmodUnicows@UnicowsLoader@@0PAUHINSTANCE__@@A 1019daf0     UnicowsLoader.obj
 0003:00020b08       _previousOp                1019db08     <common>
 0003:00020b0c       _j2d_glReadPixels          1019db0c     <common>
 0003:00020b10       _j2d_glClearColor          1019db10     <common>
 0003:00020b14       _j2d_glTranslatef          1019db14     <common>
 0003:00020b18       _j2d_glHint                1019db18     <common>
 0003:00020b1c       _j2d_glTexSubImage1D       1019db1c     <common>
 0003:00020b20       _j2d_glIsEnabled           1019db20     <common>
 0003:00020b24       _j2d_glTexSubImage2D       1019db24     <common>
 0003:00020b28       _j2d_glReadBuffer          1019db28     <common>
 0003:00020b2c       _j2d_glClear               1019db2c     <common>
 0003:00020b30       _j2d_glColorMask           1019db30     <common>
 0003:00020b34       _j2d_glGetUniformLocationARB 1019db34     <common>
 0003:00020b38       _j2d_glShaderSourceARB     1019db38     <common>
 0003:00020b3c       _j2d_glLogicOp             1019db3c     <common>
 0003:00020b40       _j2d_glPopAttrib           1019db40     <common>
 0003:00020b44       _j2d_glTexEnvi             1019db44     <common>
 0003:00020b48       _j2d_glPixelStorei         1019db48     <common>
 0003:00020b4c       _j2d_glAreTexturesResident 1019db4c     <common>
 0003:00020b50       _j2d_glVertexPointer       1019db50     <common>
 0003:00020b54       _j2d_glViewport            1019db54     <common>
 0003:00020b58       _j2d_wglShareLists         1019db58     <common>
 0003:00020b5c       _j2d_glPushAttrib          1019db5c     <common>
 0003:00020b60       _j2d_glLoadIdentity        1019db60     <common>
 0003:00020b64       _j2d_glGenTextures         1019db64     <common>
 0003:00020b68       _j2d_glCopyPixels          1019db68     <common>
 0003:00020b6c       _j2d_glGetTexLevelParameteriv 1019db6c     <common>
 0003:00020b70       _j2d_glRasterPos2i         1019db70     <common>
 0003:00020b74       _j2d_wglDeleteContext      1019db74     <common>
 0003:00020b78       _j2d_wglGetPixelFormatAttribivARB 1019db78     <common>
 0003:00020b7c       _j2d_glDisable             1019db7c     <common>
 0003:00020b80       _j2d_glFlush               1019db80     <common>
 0003:00020b84       _j2d_glVertex2d            1019db84     <common>
 0003:00020b88       _j2d_glDeleteFramebuffersEXT 1019db88     <common>
 0003:00020b8c       _j2d_wglChoosePixelFormatARB 1019db8c     <common>
 0003:00020b90       _j2d_glFramebufferRenderbufferEXT 1019db90     <common>
 0003:00020b94       _j2d_glFramebufferTexture2DEXT 1019db94     <common>
 0003:00020b98       _j2d_glEnd                 1019db98     <common>
 0003:00020b9c       _j2d_wglGetExtensionsStringARB 1019db9c     <common>
 0003:00020ba0       _j2d_glTexGeni             1019dba0     <common>
 0003:00020ba4       _j2d_glGetObjectParameterivARB 1019dba4     <common>
 0003:00020ba8       _j2d_glBlendFunc           1019dba8     <common>
 0003:00020bac       _j2d_glRecti               1019dbac     <common>
 0003:00020bb0       _j2d_glBindFramebufferEXT  1019dbb0     <common>
 0003:00020bb4       _j2d_glGetBooleanv         1019dbb4     <common>
 0003:00020bb8       _j2d_glUniform4fARB        1019dbb8     <common>
 0003:00020bbc       _j2d_glTexGendv            1019dbbc     <common>
 0003:00020bc0       _j2d_glDrawArrays          1019dbc0     <common>
 0003:00020bc4       _j2d_glColor4ub            1019dbc4     <common>
 0003:00020bc8       _j2d_glMatrixMode          1019dbc8     <common>
 0003:00020bcc       _j2d_wglReleasePbufferDCARB 1019dbcc     <common>
 0003:00020bd0       _j2d_glUniform1iARB        1019dbd0     <common>
 0003:00020bd4       _j2d_wglCreateContext      1019dbd4     <common>
 0003:00020bd8       _j2d_glUniform3fvARB       1019dbd8     <common>
 0003:00020bdc       _j2d_glPixelTransferf      1019dbdc     <common>
 0003:00020be0       _j2d_glPopMatrix           1019dbe0     <common>
 0003:00020be4       _j2d_glTexParameteri       1019dbe4     <common>
 0003:00020be8       _j2d_glDisableClientState  1019dbe8     <common>
 0003:00020bec       _j2d_glDeleteTextures      1019dbec     <common>
 0003:00020bf0       _j2d_glGetError            1019dbf0     <common>
 0003:00020bf4       _j2d_glFinish              1019dbf4     <common>
 0003:00020bf8       _j2d_glScissor             1019dbf8     <common>
 0003:00020bfc       _j2d_glInterleavedArrays   1019dbfc     <common>
 0003:00020c00       _j2d_glPixelZoom           1019dc00     <common>
 0003:00020c04       _j2d_wglGetPbufferDCARB    1019dc04     <common>
 0003:00020c08       _j2d_glDrawBuffer          1019dc08     <common>
 0003:00020c0c       _j2d_glEnableClientState   1019dc0c     <common>
 0003:00020c10       _j2d_glVertex2f            1019dc10     <common>
 0003:00020c14       _j2d_glIsTexture           1019dc14     <common>
 0003:00020c18       _j2d_glUniform3fARB        1019dc18     <common>
 0003:00020c1c       _j2d_glCreateShaderObjectARB 1019dc1c     <common>
 0003:00020c20       _j2d_glEnable              1019dc20     <common>
 0003:00020c24       _j2d_glUniform1fvARB       1019dc24     <common>
 0003:00020c28       _j2d_glGetString           1019dc28     <common>
 0003:00020c2c       _j2d_glClearDepth          1019dc2c     <common>
 0003:00020c30       _j2d_glTexCoord2d          1019dc30     <common>
 0003:00020c34       _j2d_glAlphaFunc           1019dc34     <common>
 0003:00020c38       _j2d_glOrtho               1019dc38     <common>
 0003:00020c3c       _j2d_glCopyTexSubImage2D   1019dc3c     <common>
 0003:00020c40       _j2d_glVertex2i            1019dc40     <common>
 0003:00020c44       _j2d_glUniform2fARB        1019dc44     <common>
 0003:00020c48       _j2d_glPopClientAttrib     1019dc48     <common>
 0003:00020c4c       _j2d_glBindRenderbufferEXT 1019dc4c     <common>
 0003:00020c50       _j2d_glTexImage2D          1019dc50     <common>
 0003:00020c54       _j2d_glAttachObjectARB     1019dc54     <common>
 0003:00020c58       _j2d_glPrioritizeTextures  1019dc58     <common>
 0003:00020c5c       _j2d_glBegin               1019dc5c     <common>
 0003:00020c60       _j2d_glPushClientAttrib    1019dc60     <common>
 0003:00020c64       _j2d_glTexCoordPointer     1019dc64     <common>
 0003:00020c68       _j2d_glCreateProgramObjectARB 1019dc68     <common>
 0003:00020c6c       _j2d_glLoadMatrixd         1019dc6c     <common>
 0003:00020c70       _j2d_glCheckFramebufferStatusEXT 1019dc70     <common>
 0003:00020c74       _j2d_wglQueryPbufferARB    1019dc74     <common>
 0003:00020c78       _j2d_glGetDoublev          1019dc78     <common>
 0003:00020c7c       _j2d_glGenRenderbuffersEXT 1019dc7c     <common>
 0003:00020c80       _j2d_glDeleteRenderbuffersEXT 1019dc80     <common>
 0003:00020c84       _j2d_glActiveTextureARB    1019dc84     <common>
 0003:00020c88       _j2d_wglDestroyPbufferARB  1019dc88     <common>
 0003:00020c8c       _j2d_glTexImage1D          1019dc8c     <common>
 0003:00020c90       _j2d_glLinkProgramARB      1019dc90     <common>
 0003:00020c94       _j2d_wglMakeContextCurrentARB 1019dc94     <common>
 0003:00020c98       _j2d_glUniform1fARB        1019dc98     <common>
 0003:00020c9c       _j2d_glGetProgramivARB     1019dc9c     <common>
 0003:00020ca0       _j2d_glPushMatrix          1019dca0     <common>
 0003:00020ca4       _j2d_wglMakeCurrent        1019dca4     <common>
 0003:00020ca8       _j2d_glUseProgramObjectARB 1019dca8     <common>
 0003:00020cac       _j2d_glCompileShaderARB    1019dcac     <common>
 0003:00020cb0       _j2d_glTexImage3D          1019dcb0     <common>
 0003:00020cb4       _j2d_glDeleteObjectARB     1019dcb4     <common>
 0003:00020cb8       _j2d_glDrawPixels          1019dcb8     <common>
 0003:00020cbc       _j2d_glUniform4fvARB       1019dcbc     <common>
 0003:00020cc0       _j2d_glGetInfoLogARB       1019dcc0     <common>
 0003:00020cc4       _j2d_wglCreatePbufferARB   1019dcc4     <common>
 0003:00020cc8       _j2d_wglGetCurrentDC       1019dcc8     <common>
 0003:00020ccc       _j2d_wglGetCurrentContext  1019dccc     <common>
 0003:00020cd0       _j2d_glBitmap              1019dcd0     <common>
 0003:00020cd4       _j2d_glMultiTexCoord2fARB  1019dcd4     <common>
 0003:00020cd8       _j2d_glColorPointer        1019dcd8     <common>
 0003:00020cdc       _j2d_glScalef              1019dcdc     <common>
 0003:00020ce0       _j2d_wglGetProcAddress     1019dce0     <common>
 0003:00020ce4       _j2d_glRenderbufferStorageEXT 1019dce4     <common>
 0003:00020ce8       _j2d_glGetIntegerv         1019dce8     <common>
 0003:00020cec       _j2d_glPolygonOffset       1019dcec     <common>
 0003:00020cf0       _j2d_glTexCoord2f          1019dcf0     <common>
 0003:00020cf4       _j2d_glDepthFunc           1019dcf4     <common>
 0003:00020cf8       _j2d_glColor3ub            1019dcf8     <common>
 0003:00020cfc       _j2d_glGenFramebuffersEXT  1019dcfc     <common>
 0003:00020d00       _j2d_glBindTexture         1019dd00     <common>
 0003:00020d04       _j2d_glColor4f             1019dd04     <common>
 0003:00020d08       _j2d_glGetFloatv           1019dd08     <common>
 0003:00020d0c       _g_SPPSMmaskOffID          1019dd0c     <common>
 0003:00020d10       _g_SMSetPixelsMID          1019dd10     <common>
 0003:00020d14       _g_BImgGetRGBMID           1019dd14     <common>
 0003:00020d18       _g_SPPSMmaskArrID          1019dd18     <common>
 0003:00020d1c       _g_ICRputDataMID           1019dd1c     <common>
 0003:00020d20       _g_BCRbandoffsID           1019dd20     <common>
 0003:00020d24       _g_RasterBaseOriginXID     1019dd24     <common>
 0003:00020d28       _g_RasterNumDataElementsID 1019dd28     <common>
 0003:00020d2c       _g_ICMrgbID                1019dd2c     <common>
 0003:00020d30       _g_SCRscanstrID            1019dd30     <common>
 0003:00020d34       _g_ICRtypeID               1019dd34     <common>
 0003:00020d38       _g_BCRscanstrID            1019dd38     <common>
 0003:00020d3c       _g_SMGetPixelsMID          1019dd3c     <common>
 0003:00020d40       _g_ICRpixstrID             1019dd40     <common>
 0003:00020d44       _g_SMHeightID              1019dd44     <common>
 0003:00020d48       _g_BPRscanstrID            1019dd48     <common>
 0003:00020d4c       _g_CSMScanStrideID         1019dd4c     <common>
 0003:00020d50       _g_SMWidthID               1019dd50     <common>
 0003:00020d54       _g_KernelWidthID           1019dd54     <common>
 0003:00020d58       _g_CMnBitsID               1019dd58     <common>
 0003:00020d5c       _g_RasterGetDataMID        1019dd5c     <common>
 0003:00020d60       _g_BCRdataOffsetsID        1019dd60     <common>
 0003:00020d64       _g_CSMBandOffsetsID        1019dd64     <common>
 0003:00020d68       _g_ICMtransIdxID           1019dd68     <common>
 0003:00020d6c       _g_BPRdataBitOffsetID      1019dd6c     <common>
 0003:00020d70       _g_BImgTypeID              1019dd70     <common>
 0003:00020d74       _g_SCRdataOffsetsID        1019dd74     <common>
 0003:00020d78       _g_SCRpixstrID             1019dd78     <common>
 0003:00020d7c       _g_RasterMinYID            1019dd7c     <common>
 0003:00020d80       _g_BCRtypeID               1019dd80     <common>
 0003:00020d84       _g_BCRpixstrID             1019dd84     <common>
 0003:00020d88       _g_RasterBaseOriginYID     1019dd88     <common>
 0003:00020d8c       _g_CMgetRGBdefaultMID      1019dd8c     <common>
 0003:00020d90       _g_CMcsTypeID              1019dd90     <common>
 0003:00020d94       _g_CMcspaceID              1019dd94     <common>
 0003:00020d98       _g_SCRdataID               1019dd98     <common>
 0003:00020d9c       _g_SPPSMnBitsID            1019dd9c     <common>
 0003:00020da0       _g_RasterWidthID           1019dda0     <common>
 0003:00020da4       _g_RasterDataBufferID      1019dda4     <common>
 0003:00020da8       _g_CMgetRGBMID             1019dda8     <common>
 0003:00020dac       _g_SCRbandoffsID           1019ddac     <common>
 0003:00020db0       _g_ICMmapSizeID            1019ddb0     <common>
 0003:00020db4       _g_ICRbandoffsID           1019ddb4     <common>
 0003:00020db8       _g_ICRscanstrID            1019ddb8     <common>
 0003:00020dbc       _g_KernelHeightID          1019ddbc     <common>
 0003:00020dc0       _g_BImgSetRGBMID           1019ddc0     <common>
 0003:00020dc4       _g_DataBufferIntPdataID    1019ddc4     <common>
 0003:00020dc8       _g_BPRtypeID               1019ddc8     <common>
 0003:00020dcc       _g_CMisAlphaPreID          1019ddcc     <common>
 0003:00020dd0       _g_BPRpixstrID             1019ddd0     <common>
 0003:00020dd4       _g_BPRdataID               1019ddd4     <common>
 0003:00020dd8       _g_BImgRasterID            1019ddd8     <common>
 0003:00020ddc       _g_CSMPixStrideID          1019dddc     <common>
 0003:00020de0       _g_CMnumComponentsID       1019dde0     <common>
 0003:00020de4       _g_KernelDataID            1019dde4     <common>
 0003:00020de8       _g_CMpDataID               1019dde8     <common>
 0003:00020dec       _g_RasterHeightID          1019ddec     <common>
 0003:00020df0       _g_ICRdataOffsetsID        1019ddf0     <common>
 0003:00020df4       _g_BImgCMID                1019ddf4     <common>
 0003:00020df8       _g_CMtransparencyID        1019ddf8     <common>
 0003:00020dfc       _g_SPPSMmaxBitID           1019ddfc     <common>
 0003:00020e00       _g_CMsuppAlphaID           1019de00     <common>
 0003:00020e04       _g_RasterSampleModelID     1019de04     <common>
 0003:00020e08       _g_RasterMinXID            1019de08     <common>
 0003:00020e0c       _g_SCRtypeID               1019de0c     <common>
 0003:00020e10       _g_CMis_sRGBID             1019de10     <common>
 0003:00020e14       _g_BCRdataID               1019de14     <common>
 0003:00020e18       _g_RasterNumBandsID        1019de18     <common>
 0003:00020e1c       _g_ICRdataID               1019de1c     <common>
 0003:00020e20       _std_img_oda_green         1019de20     <common>
 0003:00020e60       _std_img_oda_blue          1019de60     <common>
 0003:00020ea0       _std_img_oda_red           1019dea0     <common>
 0003:00020ee0       _validID                   1019dee0     <common>
 0003:00020ee4       _pCurIndexID               1019dee4     <common>
 0003:00020ee8       _pEndIndexID               1019dee8     <common>
 0003:00020eec       _pNumXbandsID              1019deec     <common>
 0003:00020ef0       _pRegionID                 1019def0     <common>
 0003:00020ef4       _pBandsArrayID             1019def4     <common>
 0003:00020f00       _mul8table                 1019df00     <common>
 0003:00030f20       _div8table                 101adf20     <common>
 0003:00040f20       _sg2dStrokeHintID          101bdf20     <common>
 0003:00040f24       _sunHints_INTVAL_STROKE_PURE 101bdf24     <common>
 0003:00040f28       _path2DWindingRuleID       101bdf28     <common>
 0003:00040f2c       _path2DNumTypesID          101bdf2c     <common>
 0003:00040f30       _path2DTypesID             101bdf30     <common>
 0003:00040f34       _path2DFloatCoordsID       101bdf34     <common>
 0003:00040f38       _Unicows_GetModuleFileNameW 101bdf38     <common>
 0003:00040f3c       _Unicows_lstrcmpW          101bdf3c     <common>
 0003:00040f40       _Unicows_Shell_NotifyIconW 101bdf40     <common>
 0003:00040f44       _Unicows_CreateMutexW      101bdf44     <common>
 0003:00040f48       _Unicows_ChangeDisplaySettingsW 101bdf48     <common>
 0003:00040f4c       _Unicows_EnumDisplaySettingsW 101bdf4c     <common>
 0003:00040f50       _Unicows_GetWindowsDirectoryW 101bdf50     <common>
 0003:00040f54       _Unicows_GetClassInfoW     101bdf54     <common>
 0003:00040f58       _Unicows_CreateICW         101bdf58     <common>
 0003:00040f5c       _Unicows_LoadCursorFromFileW 101bdf5c     <common>
 0003:00040f60       _Unicows_LoadImageW        101bdf60     <common>
 0003:00040f64       _Unicows_LoadIconW         101bdf64     <common>
 0003:00040f68       _Unicows_DispatchMessageW  101bdf68     <common>
 0003:00040f6c       _Unicows_MessageBoxW       101bdf6c     <common>
 0003:00040f70       _Unicows_CreateEventW      101bdf70     <common>
 0003:00040f74       _Unicows_LoadKeyboardLayoutW 101bdf74     <common>
 0003:00040f78       _Unicows_GetObjectW        101bdf78     <common>
 0003:00040f7c       _Unicows_IsClipboardFormatAvailable 101bdf7c     <common>
 0003:00040f80       _Unicows_CallWindowProcW   101bdf80     <common>
 0003:00040f84       _Unicows_StartDocW         101bdf84     <common>
 0003:00040f88       _Unicows_DocumentPropertiesW 101bdf88     <common>
 0003:00040f8c       _Unicows_InsertMenuItemW   101bdf8c     <common>
 0003:00040f90       _Unicows_LoadBitmapW       101bdf90     <common>
 0003:00040f94       _Unicows_SetMenuItemInfoW  101bdf94     <common>
 0003:00040f98       _Unicows_LCMapStringW      101bdf98     <common>
 0003:00040f9c       _Unicows_CreateFileW       101bdf9c     <common>
 0003:00040fa0       _Unicows_ExtTextOutW       101bdfa0     <common>
 0003:00040fa4       _Unicows_TextOutW          101bdfa4     <common>
 0003:00040fa8       _Unicows_GetTextExtentPoint32W 101bdfa8     <common>
 0003:00040fac       _Unicows_GetTextExtentPointW 101bdfac     <common>
 0003:00040fb0       _Unicows_GetCharWidthW     101bdfb0     <common>
 0003:00040fb4       _Unicows_EnumFontFamiliesExW 101bdfb4     <common>
 0003:00040fb8       _Unicows_CreateFontIndirectW 101bdfb8     <common>
 0003:00040fbc       _Unicows_wsprintfW         101bdfbc     <common>
 0003:00040fc0       _Unicows_GetClassLongW     101bdfc0     <common>
 0003:00040fc4       _Unicows_SetClassLongW     101bdfc4     <common>
 0003:00040fc8       _Unicows_GetCurrentDirectoryW 101bdfc8     <common>
 0003:00040fcc       _Unicows_SetCurrentDirectoryW 101bdfcc     <common>
 0003:00040fd0       _Unicows_GetMenuItemInfoW  101bdfd0     <common>
 0003:00040fd4       _Unicows_AppendMenuW       101bdfd4     <common>
 0003:00040fd8       _Unicows_SetWindowsHookExW 101bdfd8     <common>
 0003:00040fdc       _Unicows_GetTextFaceW      101bdfdc     <common>
 0003:00040fe0       _Unicows_lstrcpyW          101bdfe0     <common>
 0003:00040fe4       _Unicows_ExpandEnvironmentStringsW 101bdfe4     <common>
 0003:00040fe8       _Unicows_ShellExecuteW     101bdfe8     <common>
 0003:00040fec       _Unicows_GetClipboardFormatNameW 101bdfec     <common>
 0003:00040ff0       _Unicows_RegisterClipboardFormatW 101bdff0     <common>
 0003:00040ff4       _Unicows_CreateEnhMetaFileW 101bdff4     <common>
 0003:00040ff8       _Unicows_CreateMetaFileW   101bdff8     <common>
 0003:00040ffc       _Unicows_PeekMessageW      101bdffc     <common>
 0003:00041000       _Unicows_LoadCursorW       101be000     <common>
 0003:00041004       _Unicows_FindWindowW       101be004     <common>
 0003:00041008       _Unicows_RegisterWindowMessageW 101be008     <common>
 0003:0004100c       _Unicows_EnableWindow      101be00c     <common>
 0003:00041010       _Unicows_IsBadStringPtrW   101be010     <common>
 0003:00041014       _Unicows_WideCharToMultiByte 101be014     <common>
 0003:00041018       _Unicows_GetLocaleInfoW    101be018     <common>
 0003:0004101c       _Unicows_VkKeyScanW        101be01c     <common>
 0003:00041020       _Unicows_MapVirtualKeyExW  101be020     <common>
 0003:00041024       _Unicows_MultiByteToWideChar 101be024     <common>
 0003:00041028       _Unicows_SystemParametersInfoW 101be028     <common>
 0003:0004102c       _Unicows_SetPropW          101be02c     <common>
 0003:00041030       _Unicows_MapVirtualKeyW    101be030     <common>
 0003:00041034       _Unicows_UnregisterClassW  101be034     <common>
 0003:00041038       _Unicows_GetClassInfoExW   101be038     <common>
 0003:0004103c       _Unicows_RegisterClassExW  101be03c     <common>
 0003:00041040       _Unicows_RemovePropW       101be040     <common>
 0003:00041044       _Unicows_GetClipboardData  101be044     <common>
 0003:00041048       _Unicows_EnumClipboardFormats 101be048     <common>
 0003:0004104c       _Unicows_GetTextMetricsW   101be04c     <common>
 0003:00041050       _Unicows_GetWindowTextW    101be050     <common>
 0003:00041054       _Unicows_GetWindowTextLengthW 101be054     <common>
 0003:00041058       _Unicows_SetWindowTextW    101be058     <common>
 0003:0004105c       _Unicows_GetPropW          101be05c     <common>
 0003:00041060       _Unicows_SendMessageW      101be060     <common>
 0003:00041064       _Unicows_SetWindowLongW    101be064     <common>
 0003:00041068       _Unicows_GetWindowLongW    101be068     <common>
 0003:0004106c       _Unicows_FormatMessageW    101be06c     <common>
 0003:00041070       _Unicows_RegOpenKeyExW     101be070     <common>
 0003:00041074       _Unicows_RegDeleteKeyW     101be074     <common>
 0003:00041078       _Unicows_RegSetValueExW    101be078     <common>
 0003:0004107c       _Unicows_RegQueryValueExW  101be07c     <common>
 0003:00041080       _Unicows_RegEnumKeyExW     101be080     <common>
 0003:00041084       _Unicows_RegCreateKeyExW   101be084     <common>
 0003:00041088       _Unicows_StartDocPrinterW  101be088     <common>
 0003:0004108c       _Unicows_DeviceCapabilitiesW 101be08c     <common>
 0003:00041090       _Unicows_CreateDCW         101be090     <common>
 0003:00041094       _Unicows_ResetDCW          101be094     <common>
 0003:00041098       _Unicows_OpenPrinterW      101be098     <common>
 0003:0004109c       _Unicows_GetVersionExW     101be09c     <common>
 0003:000410a0       _Unicows_GetProfileStringW 101be0a0     <common>
 0003:000410a4       _Unicows_lstrlenW          101be0a4     <common>
 0003:000410a8       _Unicows_lstrcpynW         101be0a8     <common>
 0003:000410ac       _Unicows_PostMessageW      101be0ac     <common>
 0003:000410b0       _Unicows_GetModuleHandleW  101be0b0     <common>
 0003:000410b4       _Unicows_DefWindowProcW    101be0b4     <common>
 0003:000410b8       _Unicows_RegisterClassW    101be0b8     <common>
 0003:000410bc       _Unicows_CreateWindowExW   101be0bc     <common>
 0003:000410c0       _Unicows_GetProcAddress    101be0c0     <common>
 0003:000410c4       _Unicows_LoadLibraryW      101be0c4     <common>
 0003:000410c8       __adjust_fdiv              101be0c8     <common>
 0003:000410cc       __pRawDllMain              101be0cc     <common>
 0003:000410d0       ___onexitend               101be0d0     <common>
 0003:000410d4       ___onexitbegin             101be0d4     <common>

 entry point at        0001:0011d326

 Static symbols

 0001:00000700       _InitPrimTypes             10001700 f   GraphicsPrimitiveMgr.obj
 0001:00000810       _InitSurfaceTypes          10001810 f   GraphicsPrimitiveMgr.obj
 0001:00000840       _InitSimpleTypes           10001840 f   GraphicsPrimitiveMgr.obj
 0001:00000950       _InitCompositeTypes        10001950 f   GraphicsPrimitiveMgr.obj
 0001:00002310       _findpow2tilesize          10003310 f   ScaledBlit.obj
 0001:00002370       _refine                    10003370 f   ScaledBlit.obj
 0001:00005930       _LineUtils_SetupBresenhamBig 10006930 f   DrawLine.obj
 0001:00006900       _RefineBounds              10007900 f   DrawLine.obj
 0001:000071c0       _RefineBounds              100081c0 f   DrawPolygons.obj
 0001:00007320       _ProcessPoly               10008320 f   DrawPolygons.obj
 0001:00007dc0       _processLine               10008dc0 f   DrawPath.obj
 0001:00008090       _processPoint              10009090 f   DrawPath.obj
 0001:00008530       _drawScanline              10009530 f   FillPath.obj
 0001:00009730       _ProcessQuad               1000a730 f   ProcessPath.obj
 0001:000099c0       _ProcessMonotonicQuad      1000a9c0 f   ProcessPath.obj
 0001:00009d60       _DrawMonotonicQuad         1000ad60 f   ProcessPath.obj
 0001:0000a050       _ProcessFirstMonotonicPartOfQuad 1000b050 f   ProcessPath.obj
 0001:0000a120       _ProcessCubic              1000b120 f   ProcessPath.obj
 0001:0000a700       _ProcessMonotonicCubic     1000b700 f   ProcessPath.obj
 0001:0000abc0       _DrawMonotonicCubic        1000bbc0 f   ProcessPath.obj
 0001:0000b050       _ProcessFirstMonotonicPartOfCubic 1000c050 f   ProcessPath.obj
 0001:0000b190       _ProcessLine               1000c190 f   ProcessPath.obj
 0001:0000cbb0       _endSubPath                1000dbb0 f   ProcessPath.obj
 0001:0000cc80       _stubEndSubPath            1000dc80 f   ProcessPath.obj
 0001:0000d9d0       _fillAARect                1000e9d0 f   MaskFill.obj
 0001:0000ddc0       _fillAAPgram               1000edc0 f   MaskFill.obj
 0001:0000f560       _storePgram                10010560 f   MaskFill.obj
 0001:0000f740       _storeEdge                 10010740 f   MaskFill.obj
 0001:00010000       _drawAAPgram               10011000 f   MaskFill.obj
 0001:000133d0       _calculateEdges            100143d0 f   TransformHelper.obj
 0001:00013630       _BilinearInterp            10014630 f   TransformHelper.obj
 0001:00013890       _BicubicInterp             10014890 f   TransformHelper.obj
 0001:000142b0       _init_bicubic_table        100152b0 f   TransformHelper.obj
 0001:0006e3d0       _MakeSpanData              1006f3d0 f   ShapeSpanIterator.obj
 0001:0006e4d0       _GetSpanData               1006f4d0 f   ShapeSpanIterator.obj
 0001:00070250       _DCBeginPath               10071250 f   ShapeSpanIterator.obj
 0001:00070260       _DCBeginSubpath            10071260 f   ShapeSpanIterator.obj
 0001:00070460       _DCAppendLine              10071460 f   ShapeSpanIterator.obj
 0001:00070600       _DCAppendQuadratic         10071600 f   ShapeSpanIterator.obj
 0001:00070880       _DCAppendCubic             10071880 f   ShapeSpanIterator.obj
 0001:00070ba0       _DCClosedSubpath           10071ba0 f   ShapeSpanIterator.obj
 0001:00070bb0       _DCEndPath                 10071bb0 f   ShapeSpanIterator.obj
 0001:00070c60       _DCUseProxy                10071c60 f   ShapeSpanIterator.obj
 0001:00070c70       _appendSegment             10071c70 f   ShapeSpanIterator.obj
 0001:00070eb0       _subdivideLine             10071eb0 f   ShapeSpanIterator.obj
 0001:00070f90       _subdivideQuad             10071f90 f   ShapeSpanIterator.obj
 0001:00071270       _ptSegDistSq               10072270 f   ShapeSpanIterator.obj
 0001:00071330       _subdivideCubic            10072330 f   ShapeSpanIterator.obj
 0001:000717f0       _ShapeSIOpen               100727f0 f   ShapeSpanIterator.obj
 0001:00071810       _ShapeSIClose              10072810 f   ShapeSpanIterator.obj
 0001:00071820       _ShapeSIGetPathBox         10072820 f   ShapeSpanIterator.obj
 0001:000718b0       _ShapeSIIntersectClipBox   100728b0 f   ShapeSpanIterator.obj
 0001:00071910       _ShapeSINextSpan           10072910 f   ShapeSpanIterator.obj
 0001:00071d60       _ShapeSISkipDownTo         10072d60 f   ShapeSpanIterator.obj
 0001:00071dc0       _initSegmentTable          10072dc0 f   ShapeSpanIterator.obj
 0001:00071ec0       _sortSegmentsByLeadingY    10072ec0 f   ShapeSpanIterator.obj
 0001:00072190       _fill                      10073190 f   SpanClipRenderer.obj
 0001:000726a0       _nextYRange                100736a0 f   SpanClipRenderer.obj
 0001:00072740       _nextXBand                 10073740 f   SpanClipRenderer.obj
 0001:00072b40       _GetSDOps                  10073b40 f   SurfaceData.obj
 0001:00073e90       _BufImg_Dispose            10074e90 f   BufImgSurfaceData.obj
 0001:00073f00       _BufImg_Lock               10074f00 f   BufImgSurfaceData.obj
 0001:00073fe0       _BufImg_GetRasInfo         10074fe0 f   BufImgSurfaceData.obj
 0001:00074170       _BufImg_Release            10075170 f   BufImgSurfaceData.obj
 0001:000741f0       _BufImg_SetupICM           100751f0 f   BufImgSurfaceData.obj
 0001:00076880       _setHints                  10077880 f   awt_parseImage.obj
 0001:000784b0       _compareLUTs               100794b0 f   awt_ImageRep.obj
 0001:00078640       _findIdx                   10079640 f   awt_ImageRep.obj
 0001:00078f30       _mlib_ImageGetType         10079f30 f   awt_ImagingLib.obj
 0001:00078f40       _mlib_ImageGetData         10079f40 f   awt_ImagingLib.obj
 0001:00078f50       _printMedialibError        10079f50 f   awt_ImagingLib.obj
 0001:00078fe0       _getMlibEdgeHint           10079fe0 f   awt_ImagingLib.obj
 0001:00079f20       _mlib_ImageGetWidth        1007af20 f   awt_ImagingLib.obj
 0001:00079f30       _mlib_ImageGetHeight       1007af30 f   awt_ImagingLib.obj
 0001:0007b550       _setImageHints             1007c550 f   awt_ImagingLib.obj
 0001:0007b940       _allocateArray             1007c940 f   awt_ImagingLib.obj
 0001:0007bd20       _cvtCustomToDefault        1007cd20 f   awt_ImagingLib.obj
 0001:0007be70       _allocateRasterArray       1007ce70 f   awt_ImagingLib.obj
 0001:0007c570       _freeArray                 1007d570 f   awt_ImagingLib.obj
 0001:0007c5e0       _freeDataArray             1007d5e0 f   awt_ImagingLib.obj
 0001:0007c650       _storeImageArray           1007d650 f   awt_ImagingLib.obj
 0001:0007c980       _mlib_ImageGetStride       1007d980 f   awt_ImagingLib.obj
 0001:0007c990       _cvtDefaultToCustom        1007d990 f   awt_ImagingLib.obj
 0001:0007cb20       _storeRasterArray          1007db20 f   awt_ImagingLib.obj
 0001:0007cbe0       _storeICMarray             1007dbe0 f   awt_ImagingLib.obj
 0001:0007ce80       _expandICM                 1007de80 f   awt_ImagingLib.obj
 0001:0007d100       _expandPackedBCR           1007e100 f   awt_ImagingLib.obj
 0001:0007d570       _expandPackedBCRdefault    1007e570 f   awt_ImagingLib.obj
 0001:0007da30       _expandPackedSCR           1007ea30 f   awt_ImagingLib.obj
 0001:0007deb0       _expandPackedSCRdefault    1007eeb0 f   awt_ImagingLib.obj
 0001:0007e380       _expandPackedICR           1007f380 f   awt_ImagingLib.obj
 0001:0007e800       _expandPackedICRdefault    1007f800 f   awt_ImagingLib.obj
 0001:0007ecd0       _setPackedBCR              1007fcd0 f   awt_ImagingLib.obj
 0001:0007f050       _setPackedSCR              10080050 f   awt_ImagingLib.obj
 0001:0007f3d0       _setPackedICR              100803d0 f   awt_ImagingLib.obj
 0001:0007f740       _setPackedBCRdefault       10080740 f   awt_ImagingLib.obj
 0001:0007fc20       _setPackedSCRdefault       10080c20 f   awt_ImagingLib.obj
 0001:00080110       _setPackedICRdefault       10081110 f   awt_ImagingLib.obj
 0001:000805f0       _colorMatch                100815f0 f   awt_ImagingLib.obj
 0001:00080d90       _recurseLevel              10081d90 f   dither.obj
 0001:000823b0       _DMem_ClientAllocate       100833b0 f   debug_mem.obj
 0001:000823e0       _DMem_TrackBlock           100833e0 f   debug_mem.obj
 0001:000824c0       _DMem_GetHeader            100834c0 f   debug_mem.obj
 0001:000824e0       _DMem_VerifyBlock          100834e0 f   debug_mem.obj
 0001:000825d0       _DMem_ClientCheckPtr       100835d0 f   debug_mem.obj
 0001:00082600       _DMem_VerifyHeader         10083600 f   debug_mem.obj
 0001:000826e0       _DMem_VerifyGuardArea      100836e0 f   debug_mem.obj
 0001:00082720       _DMem_VerifyTail           10083720 f   debug_mem.obj
 0001:00082880       _DMem_DumpHeader           10083880 f   debug_mem.obj
 0001:00082aa0       _DTrace_GetInfo            10083aa0 f   debug_trace.obj
 0001:00082ad0       _DTrace_GetTraceId         10083ad0 f   debug_trace.obj
 0001:00082b90       _DTrace_CreateTraceId      10083b90 f   debug_trace.obj
 0001:00082c20       _FileNamesSame             10083c20 f   debug_trace.obj
 0001:00082db0       _DTrace_ClientPrint        10083db0 f   debug_trace.obj
 0001:00082f80       _DTrace_IsEnabledAt        10083f80 f   debug_trace.obj
 0001:00083080       _DTrace_PrintStdErr        10084080 f   debug_trace.obj
 0001:00083110       _DTrace_JavaPrint          10084110 f   debug_trace.obj
 0001:00083190       _DTrace_JavaPrintln        10084190 f   debug_trace.obj
 0001:00083730       _OGLBlitSurfaceToSurface   10084730 f   OGLBlitLoops.obj
 0001:00083870       _OGLBlitTextureToSurface   10084870 f   OGLBlitLoops.obj
 0001:00083a50       _OGLBlitToSurfaceViaTexture 10084a50 f   OGLBlitLoops.obj
 0001:000844c0       _OGLBlitSwToSurface        100854c0 f   OGLBlitLoops.obj
 0001:00084690       _OGLBlitSwToTexture        10085690 f   OGLBlitLoops.obj
 0001:00085000       _OGLBufImgOps_CreateConvolveProgram 10086000 f   OGLBufImgOps.obj
 0001:00085380       _OGLBufImgOps_CreateRescaleProgram 10086380 f   OGLBufImgOps.obj
 0001:000857b0       _OGLBufImgOps_CreateLookupProgram 100867b0 f   OGLBufImgOps.obj
 0001:00085ac0       _OGLContext_SetViewport    10086ac0 f   OGLContext.obj
 0001:00085c00       _OGLContext_InitAlphaChannel 10086c00 f   OGLContext.obj
 0001:000868a0       _OGLContext_IsFBObjectExtensionAvailable 100878a0 f   OGLContext.obj
 0001:00086a20       _OGLContext_IsLCDShaderSupportAvailable 10087a20 f   OGLContext.obj
 0001:00086ad0       _OGLContext_IsBIOpShaderSupportAvailable 10087ad0 f   OGLContext.obj
 0001:00086b60       _OGLContext_IsGradShaderSupportAvailable 10087b60 f   OGLContext.obj
 0001:00089020       _OGLPaints_InitGradientTexture 1008a020 f   OGLPaints.obj
 0001:000894c0       _OGLPaints_SetMultiGradientPaint 1008a4c0 f   OGLPaints.obj
 0001:00089640       _OGLPaints_CreateLinearGradProgram 1008a640 f   OGLPaints.obj
 0001:00089690       _OGLPaints_CreateMultiGradProgram 1008a690 f   OGLPaints.obj
 0001:000898f0       _OGLPaints_InitMultiGradientTexture 1008a8f0 f   OGLPaints.obj
 0001:00089bb0       _OGLPaints_CreateRadialGradProgram 1008abb0 f   OGLPaints.obj
 0001:0008d540       _OGLSD_IsPowerOfTwo        1008e540 f   OGLSurfaceData.obj
 0001:0008d560       _OGLSD_InitTextureObject   1008e560 f   OGLSurfaceData.obj
 0001:0008dfb0       _OGLTR_InitGlyphCache      1008efb0 f   OGLTextRenderer.obj
 0001:0008e540       _OGLTR_DisableGlyphModeState 1008f540 f   OGLTextRenderer.obj
 0001:0008e5f0       _OGLTR_DrawGrayscaleGlyphViaCache 1008f5f0 f   OGLTextRenderer.obj
 0001:0008e6d0       _OGLTR_AddToGlyphCache     1008f6d0 f   OGLTextRenderer.obj
 0001:0008e790       _OGLTR_DrawLCDGlyphViaCache 1008f790 f   OGLTextRenderer.obj
 0001:0008ea50       _OGLTR_EnableLCDGlyphModeState 1008fa50 f   OGLTextRenderer.obj
 0001:0008eb90       _OGLTR_CreateLCDTextProgram 1008fb90 f   OGLTextRenderer.obj
 0001:0008ec70       _OGLTR_UpdateLCDTextContrast 1008fc70 f   OGLTextRenderer.obj
 0001:0008efd0       _OGLTR_InitGammaLutTexture 1008ffd0 f   OGLTextRenderer.obj
 0001:0008f060       _OGLTR_UpdateGammaLutTexture 10090060 f   OGLTextRenderer.obj
 0001:0008f0b0       _OGLTR_UpdateLCDTextColor  100900b0 f   OGLTextRenderer.obj
 0001:0008f170       _OGLTR_UpdateCachedDestination 10090170 f   OGLTextRenderer.obj
 0001:0008f3b0       _OGLTR_DrawGrayscaleGlyphNoCache 100903b0 f   OGLTextRenderer.obj
 0001:0008f4d0       _OGLTR_DrawLCDGlyphNoCache 100904d0 f   OGLTextRenderer.obj
 0001:0008fb10       _OGLVertexCache_InitMaskCache 10090b10 f   OGLVertexCache.obj
 0001:00090210       _WGLGC_DestroyOGLContext   10091210 f   WGLGraphicsConfig.obj
 0001:000908d0       _WGLGC_GetPixelFormatForDC 100918d0 f   WGLGraphicsConfig.obj
 0001:00090b30       _WGLGC_CreateContext       10091b30 f   WGLGraphicsConfig.obj
 0001:00090c20       _WGLGC_InitExtFuncs        10091c20 f   WGLGraphicsConfig.obj
 0001:00090dd0       _WGLGC_SetBasicPixelFormatForDC 10091dd0 f   WGLGraphicsConfig.obj
 0001:00090e50       _WGLGC_InitOGLContext      10091e50 f   WGLGraphicsConfig.obj
 0001:00091200       _WGLSD_MakeCurrentToScratch 10092200 f   WGLSurfaceData.obj
 0001:00095a60       _AngleToCoord              10096a60 f   GDIRenderer.obj
 0001:00095ca0       _TransformPoly             10096ca0 f   GDIRenderer.obj
 0001:00097a1f       $L31311                    10098a1f f   GDIWindowSurfaceData.obj
 0001:00097b40       ?GDIWinSD_Lock@@YAJPAUJNIEnv_@@PAU_SurfaceDataOps@@PAUSurfaceDataRasInfo@@J@Z 10098b40 f   GDIWindowSurfaceData.obj
 0001:00097e10       ?GDIWinSD_GetRasInfo@@YAXPAUJNIEnv_@@PAU_SurfaceDataOps@@PAUSurfaceDataRasInfo@@@Z 10098e10 f   GDIWindowSurfaceData.obj
 0001:000982e0       ?GDIWinSD_Setup@@YAXPAUJNIEnv_@@PAU_SurfaceDataOps@@@Z 100992e0 f   GDIWindowSurfaceData.obj
 0001:00098300       ?GDIWinSD_Unlock@@YAXPAUJNIEnv_@@PAU_SurfaceDataOps@@PAUSurfaceDataRasInfo@@@Z 10099300 f   GDIWindowSurfaceData.obj
 0001:000984f0       ?GDIWinSD_GetDC@@YAPAUHDC__@@PAUJNIEnv_@@PAU_GDIWinSDOps@@JPAJPAV_jobject@@3J@Z 100994f0 f   GDIWindowSurfaceData.obj
 0001:00098b10       ?GDIWinSD_ReleaseDC@@YAXPAUJNIEnv_@@PAU_GDIWinSDOps@@PAUHDC__@@@Z 10099b10 f   GDIWindowSurfaceData.obj
 0001:00098b30       ?GDIWinSD_InvalidateSD@@YAXPAUJNIEnv_@@PAU_GDIWinSDOps@@@Z 10099b30 f   GDIWindowSurfaceData.obj
 0001:00098b70       ?GDIWinSD_Dispose@@YAXPAUJNIEnv_@@PAU_SurfaceDataOps@@@Z 10099b70 f   GDIWindowSurfaceData.obj
 0001:00099721       $L74274                    1009a721 f   WPrinterJob.obj
 0001:00099736       $L74275                    1009a736 f   WPrinterJob.obj
 0001:00099a59       $L74310                    1009aa59 f   WPrinterJob.obj
 0001:00099a92       $L74311                    1009aa92 f   WPrinterJob.obj
 0001:00099aa4       $L74312                    1009aaa4 f   WPrinterJob.obj
 0001:00099efe       $L74347                    1009aefe f   WPrinterJob.obj
 0001:00099f10       $L74348                    1009af10 f   WPrinterJob.obj
 0001:0009a1f3       $L74374                    1009b1f3 f   WPrinterJob.obj
 0001:0009a205       $L74375                    1009b205 f   WPrinterJob.obj
 0001:0009a4de       $L74400                    1009b4de f   WPrinterJob.obj
 0001:0009a4f0       $L74401                    1009b4f0 f   WPrinterJob.obj
 0001:0009a7e4       $L74420                    1009b7e4 f   WPrinterJob.obj
 0001:0009a7f6       $L74421                    1009b7f6 f   WPrinterJob.obj
 0001:0009ab2f       $L74444                    1009bb2f f   WPrinterJob.obj
 0001:0009ab41       $L74445                    1009bb41 f   WPrinterJob.obj
 0001:0009afcf       $L74467                    1009bfcf f   WPrinterJob.obj
 0001:0009afe1       $L74468                    1009bfe1 f   WPrinterJob.obj
 0001:0009b0d9       $L74484                    1009c0d9 f   WPrinterJob.obj
 0001:0009b360       _IsDCPostscript            1009c360 f   WPrinterJob.obj
 0001:0009b6c2       $L74499                    1009c6c2 f   WPrinterJob.obj
 0001:0009b6d4       $L74500                    1009c6d4 f   WPrinterJob.obj
 0001:0009b9e0       _getIdOfLongField          1009c9e0 f   WPrinterJob.obj
 0001:0009bae8       $L74523                    1009cae8 f   WPrinterJob.obj
 0001:0009bb50       _getHPrinter               1009cb50 f   WPrinterJob.obj
 0001:0009c571       $L30172                    1009d571 f   awt_AWTEvent.obj
 0001:0009c57c       $L30173                    1009d57c f   awt_AWTEvent.obj
 0001:0009c6f3       $L30190                    1009d6f3 f   awt_AWTEvent.obj
 0001:0009c6fe       $L30191                    1009d6fe f   awt_AWTEvent.obj
 0001:0009db59       $L31069                    1009eb59 f   awt_Button.obj
 0001:0009e2b5       $L31139                    1009f2b5 f   awt_Button.obj
 0001:0009e2c0       $L31140                    1009f2c0 f   awt_Button.obj
 0001:0009e40b       $L31156                    1009f40b f   awt_Button.obj
 0001:0009e416       $L31157                    1009f416 f   awt_Button.obj
 0001:0009e52e       $L31170                    1009f52e f   awt_Button.obj
 0001:0009e539       $L31171                    1009f539 f   awt_Button.obj
 0001:0009ef36       $L30903                    1009ff36 f   awt_Canvas.obj
 0001:0009ef63       $L30904                    1009ff63 f   awt_Canvas.obj
 0001:0009ef75       $L30905                    1009ff75 f   awt_Canvas.obj
 0001:0009f28e       $L30951                    100a028e f   awt_Canvas.obj
 0001:0009f299       $L30952                    100a0299 f   awt_Canvas.obj
 0001:0009f35a       $L30962                    100a035a f   awt_Canvas.obj
 0001:0009f365       $L30963                    100a0365 f   awt_Canvas.obj
 0001:0009f75c       $L31258                    100a075c f   awt_Checkbox.obj
 0001:000a04ed       $L31349                    100a14ed f   awt_Checkbox.obj
 0001:000a06da       $L31370                    100a16da f   awt_Checkbox.obj
 0001:000a06e5       $L31371                    100a16e5 f   awt_Checkbox.obj
 0001:000a07b1       $L31384                    100a17b1 f   awt_Checkbox.obj
 0001:000a07bc       $L31385                    100a17bc f   awt_Checkbox.obj
 0001:000a0880       $L31397                    100a1880 f   awt_Checkbox.obj
 0001:000a088b       $L31398                    100a188b f   awt_Checkbox.obj
 0001:000a0965       $L31410                    100a1965 f   awt_Checkbox.obj
 0001:000a0970       $L31411                    100a1970 f   awt_Checkbox.obj
 0001:000a0aae       $L31420                    100a1aae f   awt_Checkbox.obj
 0001:000a0ab9       $L31421                    100a1ab9 f   awt_Checkbox.obj
 0001:000a0f5c       $L30934                    100a1f5c f   awt_Choice.obj
 0001:000a1f81       $L31048                    100a2f81 f   awt_Choice.obj
 0001:000a1f8c       $L31049                    100a2f8c f   awt_Choice.obj
 0001:000a2041       $L31063                    100a3041 f   awt_Choice.obj
 0001:000a204c       $L31064                    100a304c f   awt_Choice.obj
 0001:000a20d3       $L31073                    100a30d3 f   awt_Choice.obj
 0001:000a20de       $L31074                    100a30de f   awt_Choice.obj
 0001:000a21a9       $L31084                    100a31a9 f   awt_Choice.obj
 0001:000a21b4       $L31085                    100a31b4 f   awt_Choice.obj
 0001:000a228c       $L31095                    100a328c f   awt_Choice.obj
 0001:000a2297       $L31096                    100a3297 f   awt_Choice.obj
 0001:000a23ae       $L31105                    100a33ae f   awt_Choice.obj
 0001:000a23b9       $L31106                    100a33b9 f   awt_Choice.obj
 0001:000a298f       $L68724                    100a398f f   awt_Clipboard.obj
 0001:000a299a       $L68725                    100a399a f   awt_Clipboard.obj
 0001:000a2a62       $L68741                    100a3a62 f   awt_Clipboard.obj
 0001:000a2a6d       $L68742                    100a3a6d f   awt_Clipboard.obj
 0001:000a2b6b       $L68751                    100a3b6b f   awt_Clipboard.obj
 0001:000a2b76       $L68752                    100a3b76 f   awt_Clipboard.obj
 0001:000a2c14       $L68763                    100a3c14 f   awt_Clipboard.obj
 0001:000a2c1f       $L68764                    100a3c1f f   awt_Clipboard.obj
 0001:000a2c82       $L68773                    100a3c82 f   awt_Clipboard.obj
 0001:000a2c8d       $L68774                    100a3c8d f   awt_Clipboard.obj
 0001:000a3043       $L68794                    100a4043 f   awt_Clipboard.obj
 0001:000a304e       $L68795                    100a404e f   awt_Clipboard.obj
 0001:000a319f       $L68818                    100a419f f   awt_Clipboard.obj
 0001:000a31b1       $L68819                    100a41b1 f   awt_Clipboard.obj
 0001:000a33ae       $L68849                    100a43ae f   awt_Clipboard.obj
 0001:000a3529       $L68851                    100a4529 f   awt_Clipboard.obj
 0001:000a3747       $L68852                    100a4747 f   awt_Clipboard.obj
 0001:000a3759       $L68853                    100a4759 f   awt_Clipboard.obj
 0001:000a3972       $L26845                    100a4972 f   awt_Color.obj
 0001:000a397d       $L26846                    100a497d f   awt_Color.obj
 0001:000a3ae8       $L26865                    100a4ae8 f   awt_Color.obj
 0001:000a3afa       $L26866                    100a4afa f   awt_Color.obj
 0001:000a40ad       $L62575                    100a50ad f   awt_Component.obj
 0001:000a40bf       $L62576                    100a50bf f   awt_Component.obj
 0001:000a7cd0       ?getMessageTimeWindows@TimeHelper@@YAKXZ 100a8cd0 f   awt_Component.obj
 0001:000a9610       ?isKanaLockAvailable@@YAHXZ 100aa610 f   awt_Component.obj
 0001:000a9c90       ?resetKbdState@@YAXQAE@Z   100aac90 f   awt_Component.obj
 0001:000aabe7       $L62872                    100abbe7 f   awt_Component.obj
 0001:000b02b1       $L63163                    100b12b1 f   awt_Component.obj
 0001:000b02bc       $L63164                    100b12bc f   awt_Component.obj
 0001:000b02e0       __GetInsets                100b12e0 f   awt_Component.obj
 0001:000b096f       $L63175                    100b196f f   awt_Component.obj
 0001:000b097a       $L63176                    100b197a f   awt_Component.obj
 0001:000b0a03       $L63187                    100b1a03 f   awt_Component.obj
 0001:000b0a0e       $L63188                    100b1a0e f   awt_Component.obj
 0001:000b0a93       $L63197                    100b1a93 f   awt_Component.obj
 0001:000b0a9e       $L63198                    100b1a9e f   awt_Component.obj
 0001:000b0b23       $L63207                    100b1b23 f   awt_Component.obj
 0001:000b0b2e       $L63208                    100b1b2e f   awt_Component.obj
 0001:000b0bb3       $L63217                    100b1bb3 f   awt_Component.obj
 0001:000b0bbe       $L63218                    100b1bbe f   awt_Component.obj
 0001:000b0c7a       $L63229                    100b1c7a f   awt_Component.obj
 0001:000b0c8c       $L63230                    100b1c8c f   awt_Component.obj
 0001:000b0d6c       $L63246                    100b1d6c f   awt_Component.obj
 0001:000b0d77       $L63247                    100b1d77 f   awt_Component.obj
 0001:000b0e4c       $L63257                    100b1e4c f   awt_Component.obj
 0001:000b0e57       $L63258                    100b1e57 f   awt_Component.obj
 0001:000b0f2c       $L63268                    100b1f2c f   awt_Component.obj
 0001:000b0f37       $L63269                    100b1f37 f   awt_Component.obj
 0001:000b0fc3       $L63278                    100b1fc3 f   awt_Component.obj
 0001:000b0fce       $L63279                    100b1fce f   awt_Component.obj
 0001:000b1087       $L63289                    100b2087 f   awt_Component.obj
 0001:000b1092       $L63290                    100b2092 f   awt_Component.obj
 0001:000b1157       $L63300                    100b2157 f   awt_Component.obj
 0001:000b1162       $L63301                    100b2162 f   awt_Component.obj
 0001:000b123c       $L63311                    100b223c f   awt_Component.obj
 0001:000b1247       $L63312                    100b2247 f   awt_Component.obj
 0001:000b135b       $L63324                    100b235b f   awt_Component.obj
 0001:000b136a       $L63325                    100b236a f   awt_Component.obj
 0001:000b13f3       $L63338                    100b23f3 f   awt_Component.obj
 0001:000b13fe       $L63339                    100b23fe f   awt_Component.obj
 0001:000b1483       $L63348                    100b2483 f   awt_Component.obj
 0001:000b148e       $L63349                    100b248e f   awt_Component.obj
 0001:000b1513       $L63358                    100b2513 f   awt_Component.obj
 0001:000b151e       $L63359                    100b251e f   awt_Component.obj
 0001:000b15a3       $L63368                    100b25a3 f   awt_Component.obj
 0001:000b15ae       $L63369                    100b25ae f   awt_Component.obj
 0001:000b163a       $L63380                    100b263a f   awt_Component.obj
 0001:000b1653       $L63381                    100b2653 f   awt_Component.obj
 0001:000b16f3       $L63394                    100b26f3 f   awt_Component.obj
 0001:000b16fe       $L63395                    100b26fe f   awt_Component.obj
 0001:000b17b2       $L63406                    100b27b2 f   awt_Component.obj
 0001:000b17c4       $L63407                    100b27c4 f   awt_Component.obj
 0001:000b18e2       $L63423                    100b28e2 f   awt_Component.obj
 0001:000b18f4       $L63424                    100b28f4 f   awt_Component.obj
 0001:000b1983       $L63439                    100b2983 f   awt_Component.obj
 0001:000b1992       $L63440                    100b2992 f   awt_Component.obj
 0001:000b1a29       $L63455                    100b2a29 f   awt_Component.obj
 0001:000b1a38       $L63456                    100b2a38 f   awt_Component.obj
 0001:000b1b6e       $L63472                    100b2b6e f   awt_Component.obj
 0001:000b1b7d       $L63473                    100b2b7d f   awt_Component.obj
 0001:000b1c70       $L63489                    100b2c70 f   awt_Component.obj
 0001:000b1c7b       $L63490                    100b2c7b f   awt_Component.obj
 0001:000b1d76       $L63500                    100b2d76 f   awt_Component.obj
 0001:000b1d81       $L63501                    100b2d81 f   awt_Component.obj
 0001:000b2fd2       $L26810                    100b3fd2 f   awt_Container.obj
 0001:000b2fdd       $L26811                    100b3fdd f   awt_Container.obj
 0001:000b3b1e       $L31383                    100b4b1e f   awt_Cursor.obj
 0001:000b3b29       $L31384                    100b4b29 f   awt_Cursor.obj
 0001:000b3b97       $L31397                    100b4b97 f   awt_Cursor.obj
 0001:000b3ba2       $L31398                    100b4ba2 f   awt_Cursor.obj
 0001:000b3d4d       $L31415                    100b4d4d f   awt_Cursor.obj
 0001:000b3e99       $L31416                    100b4e99 f   awt_Cursor.obj
 0001:000b3ea4       $L31417                    100b4ea4 f   awt_Cursor.obj
 0001:000b3f45       $L31438                    100b4f45 f   awt_Cursor.obj
 0001:000b3f57       $L31439                    100b4f57 f   awt_Cursor.obj
 0001:000b3ff5       $L31454                    100b4ff5 f   awt_Cursor.obj
 0001:000b4007       $L31455                    100b5007 f   awt_Cursor.obj
 0001:000b409d       $L31468                    100b509d f   awt_Cursor.obj
 0001:000b40a8       $L31469                    100b50a8 f   awt_Cursor.obj
 0001:000b414f       $L31480                    100b514f f   awt_Cursor.obj
 0001:000b415a       $L31481                    100b515a f   awt_Cursor.obj
 0001:000b4180       _GlobalSetCursor           100b5180 f   awt_Cursor.obj
 0001:000b4373       $L31511                    100b5373 f   awt_Cursor.obj
 0001:000b4385       $L31512                    100b5385 f   awt_Cursor.obj
 0001:000b4429       $L31527                    100b5429 f   awt_Cursor.obj
 0001:000b443b       $L31528                    100b543b f   awt_Cursor.obj
 0001:000b44e0       $L31545                    100b54e0 f   awt_Cursor.obj
 0001:000b44f2       $L31546                    100b54f2 f   awt_Cursor.obj
 0001:000b4720       ?get_dataTransfererClazz@@YAPAV_jclass@@PAUJNIEnv_@@@Z 100b5720 f   awt_DataTransferer.obj
 0001:000b4c90       ?IdleFunc@@YGXXZ           100b5c90 f   awt_DataTransferer.obj
 0001:000b4cb0       ?PeekMessageFunc@@YGHAAUtagMSG@@@Z 100b5cb0 f   awt_DataTransferer.obj
 0001:000b50d4       $L75182                    100b60d4 f   awt_DataTransferer.obj
 0001:000b50fe       $L75183                    100b60fe f   awt_DataTransferer.obj
 0001:000b5110       $L75184                    100b6110 f   awt_DataTransferer.obj
 0001:000b5c1d       $L75219                    100b6c1d f   awt_DataTransferer.obj
 0001:000b5da2       $L75220                    100b6da2 f   awt_DataTransferer.obj
 0001:000b5db7       $L75221                    100b6db7 f   awt_DataTransferer.obj
 0001:000b6240       $L75258                    100b7240 f   awt_DataTransferer.obj
 0001:000b6520       $L75260                    100b7520 f   awt_DataTransferer.obj
 0001:000b664e       $L75261                    100b764e f   awt_DataTransferer.obj
 0001:000b6663       $L75262                    100b7663 f   awt_DataTransferer.obj
 0001:000b6714       $L75283                    100b7714 f   awt_DataTransferer.obj
 0001:000b672d       $L75284                    100b772d f   awt_DataTransferer.obj
 0001:000b6850       $L75307                    100b7850 f   awt_DataTransferer.obj
 0001:000b6862       $L75308                    100b7862 f   awt_DataTransferer.obj
 0001:000b68c7       $L75321                    100b78c7 f   awt_DataTransferer.obj
 0001:000b68d2       $L75322                    100b78d2 f   awt_DataTransferer.obj
 0001:000b6b20       ?DumpRegion@@YAXPAUHRGN__@@@Z 100b7b20 f   awt_Debug.obj
 0001:000b6e62       $L26809                    100b7e62 f   awt_Dimension.obj
 0001:000b6e6d       $L26810                    100b7e6d f   awt_Dimension.obj
 0001:000b71f0       ?getXPStylePropFromReg@@YAPAGPAG@Z 100b81f0 f   awt_DesktopProperties.obj
 0001:000b7210       ?getWindowsPropFromReg@@YAPAGPAG0PAK@Z 100b8210 f   awt_DesktopProperties.obj
 0001:000b8960       ?resolveShellDialogFont@@YAPAGXZ 100b9960 f   awt_DesktopProperties.obj
 0001:000b89d0       ?resolveShellDialogFont@@YAPAGPAGPAUHKEY__@@@Z 100b99d0 f   awt_DesktopProperties.obj
 0001:000b8e61       $L76843                    100b9e61 f   awt_DesktopProperties.obj
 0001:000b8e6c       $L76844                    100b9e6c f   awt_DesktopProperties.obj
 0001:000b8f4f       $L76865                    100b9f4f f   awt_DesktopProperties.obj
 0001:000b8f5a       $L76866                    100b9f5a f   awt_DesktopProperties.obj
 0001:000b8fce       $L76876                    100b9fce f   awt_DesktopProperties.obj
 0001:000b8fd9       $L76877                    100b9fd9 f   awt_DesktopProperties.obj
 0001:000b9000       ?GetCppThis@@YAPAVAwtDesktopProperties@@PAUJNIEnv_@@PAV_jobject@@@Z 100ba000 f   awt_DesktopProperties.obj
 0001:000b90e3       $L76889                    100ba0e3 f   awt_DesktopProperties.obj
 0001:000b90ee       $L76890                    100ba0ee f   awt_DesktopProperties.obj
 0001:000b969f       $L31926                    100ba69f f   awt_Dialog.obj
 0001:000ba818       $L32032                    100bb818 f   awt_Dialog.obj
 0001:000ba823       $L32033                    100bb823 f   awt_Dialog.obj
 0001:000ba8cb       $L32044                    100bb8cb f   awt_Dialog.obj
 0001:000ba8d6       $L32045                    100bb8d6 f   awt_Dialog.obj
 0001:000ba963       $L32054                    100bb963 f   awt_Dialog.obj
 0001:000ba96e       $L32055                    100bb96e f   awt_Dialog.obj
 0001:000ba9f3       $L32066                    100bb9f3 f   awt_Dialog.obj
 0001:000ba9fe       $L32067                    100bb9fe f   awt_Dialog.obj
 0001:000baac0       $L32077                    100bbac0 f   awt_Dialog.obj
 0001:000baacb       $L32078                    100bbacb f   awt_Dialog.obj
 0001:000bae93       $L53682                    100bbe93 f   awt_DrawingSurface.obj
 0001:000baea5       $L53683                    100bbea5 f   awt_DrawingSurface.obj
 0001:000baf0d       $L53704                    100bbf0d f   awt_DrawingSurface.obj
 0001:000baf1f       $L53705                    100bbf1f f   awt_DrawingSurface.obj
 0001:000baff6       $L53718                    100bbff6 f   awt_DrawingSurface.obj
 0001:000bb001       $L53719                    100bc001 f   awt_DrawingSurface.obj
 0001:000bb07c       $L53732                    100bc07c f   awt_DrawingSurface.obj
 0001:000bb087       $L53733                    100bc087 f   awt_DrawingSurface.obj
 0001:000bb15f       $L53750                    100bc15f f   awt_DrawingSurface.obj
 0001:000bb171       $L53751                    100bc171 f   awt_DrawingSurface.obj
 0001:000bb21b       $L53766                    100bc21b f   awt_DrawingSurface.obj
 0001:000bb226       $L53767                    100bc226 f   awt_DrawingSurface.obj
 0001:000bb33c       $L53780                    100bc33c f   awt_DrawingSurface.obj
 0001:000bb34e       $L53781                    100bc34e f   awt_DrawingSurface.obj
 0001:000bb40e       $L53796                    100bc40e f   awt_DrawingSurface.obj
 0001:000bb419       $L53797                    100bc419 f   awt_DrawingSurface.obj
 0001:000bb4e8       $L53806                    100bc4e8 f   awt_DrawingSurface.obj
 0001:000bb4f3       $L53807                    100bc4f3 f   awt_DrawingSurface.obj
 0001:000bb632       $L53833                    100bc632 f   awt_DrawingSurface.obj
 0001:000bb644       $L53834                    100bc644 f   awt_DrawingSurface.obj
 0001:000bb79c       $L53858                    100bc79c f   awt_DrawingSurface.obj
 0001:000bb7ae       $L53859                    100bc7ae f   awt_DrawingSurface.obj
 0001:000bb896       $L53881                    100bc896 f   awt_DrawingSurface.obj
 0001:000bb8a1       $L53882                    100bc8a1 f   awt_DrawingSurface.obj
 0001:000bc1f8       $L73743                    100bd1f8 f   awt_FileDialog.obj
 0001:000bc330       ?FileDialogHookProc@@YGIPAUHWND__@@IIJ@Z 100bd330 f   awt_FileDialog.obj
 0001:000bc646       $L73787                    100bd646 f   awt_FileDialog.obj
 0001:000bc65b       $L73788                    100bd65b f   awt_FileDialog.obj
 0001:000bcad7       $L73817                    100bdad7 f   awt_FileDialog.obj
 0001:000bcae2       $L73818                    100bdae2 f   awt_FileDialog.obj
 0001:000bcb52       $L73833                    100bdb52 f   awt_FileDialog.obj
 0001:000bcb5d       $L73834                    100bdb5d f   awt_FileDialog.obj
 0001:000bcbef       $L73843                    100bdbef f   awt_FileDialog.obj
 0001:000bcbfa       $L73844                    100bdbfa f   awt_FileDialog.obj
 0001:000bcc7e       $L73855                    100bdc7e f   awt_FileDialog.obj
 0001:000bcc89       $L73856                    100bdc89 f   awt_FileDialog.obj
 0001:000bcd13       $L73865                    100bdd13 f   awt_FileDialog.obj
 0001:000bcd1e       $L73866                    100bdd1e f   awt_FileDialog.obj
 0001:000bcd9d       $L73875                    100bdd9d f   awt_FileDialog.obj
 0001:000bcda8       $L73876                    100bdda8 f   awt_FileDialog.obj
 0001:000bce2d       $L73885                    100bde2d f   awt_FileDialog.obj
 0001:000bce38       $L73886                    100bde38 f   awt_FileDialog.obj
 0001:000bcf71       $L26817                    100bdf71 f   awt_Event.obj
 0001:000bcf7c       $L26818                    100bdf7c f   awt_Event.obj
 0001:000bd90a       $L32679                    100be90a f   awt_Font.obj
 0001:000bd950       ?GetNativeCharset@@YAHPAG@Z 100be950 f   awt_Font.obj
 0001:000bdd60       ?CreateHFont_sub@@YAPAUHFONT__@@PAGHHHM@Z 100bed60 f   awt_Font.obj
 0001:000be0b0       ?strip_tail@@YAXPAG0@Z     100bf0b0 f   awt_Font.obj
 0001:000bee95       $L32751                    100bfe95 f   awt_Font.obj
 0001:000bf19b       $L32785                    100c019b f   awt_Font.obj
 0001:000bf1ad       $L32786                    100c01ad f   awt_Font.obj
 0001:000bf2ec       $L32809                    100c02ec f   awt_Font.obj
 0001:000bf2fe       $L32810                    100c02fe f   awt_Font.obj
 0001:000bf459       $L32831                    100c0459 f   awt_Font.obj
 0001:000bf495       $L32832                    100c0495 f   awt_Font.obj
 0001:000bf4d4       $L32833                    100c04d4 f   awt_Font.obj
 0001:000bf4e6       $L32834                    100c04e6 f   awt_Font.obj
 0001:000bf5ab       $L32849                    100c05ab f   awt_Font.obj
 0001:000bf5b6       $L32850                    100c05b6 f   awt_Font.obj
 0001:000bf864       $L32859                    100c0864 f   awt_Font.obj
 0001:000bf86f       $L32860                    100c086f f   awt_Font.obj
 0001:000bfa4f       $L32871                    100c0a4f f   awt_Font.obj
 0001:000bfa5a       $L32872                    100c0a5a f   awt_Font.obj
 0001:000bfade       $L32885                    100c0ade f   awt_Font.obj
 0001:000bfae9       $L32886                    100c0ae9 f   awt_Font.obj
 0001:000bfbc8       $L32899                    100c0bc8 f   awt_Font.obj
 0001:000bfbd3       $L32900                    100c0bd3 f   awt_Font.obj
 0001:000bfcb8       $L32909                    100c0cb8 f   awt_Font.obj
 0001:000bfcc3       $L32910                    100c0cc3 f   awt_Font.obj
 0001:000bfdea       $L32919                    100c0dea f   awt_Font.obj
 0001:000bfdf5       $L32920                    100c0df5 f   awt_Font.obj
 0001:000bfe95       $L32929                    100c0e95 f   awt_Font.obj
 0001:000bfea0       $L32930                    100c0ea0 f   awt_Font.obj
 0001:000c0672       $L32996                    100c1672 f   awt_Font.obj
 0001:000c17b5       $L33085                    100c27b5 f   awt_Font.obj
 0001:000c17c0       $L33086                    100c27c0 f   awt_Font.obj
 0001:000c1912       $L33099                    100c2912 f   awt_Font.obj
 0001:000c1921       $L33100                    100c2921 f   awt_Font.obj
 0001:000c2760       $L34996                    100c3760 f   awt_Frame.obj
 0001:000c296a       $L35039                    100c396a f   awt_Frame.obj
 0001:000c297c       $L35040                    100c397c f   awt_Frame.obj
 0001:000c4010       ?keepOnMinimize@@YAHPAV_jobject@@@Z 100c5010 f   awt_Frame.obj
 0001:000c5218       $L35186                    100c6218 f   awt_Frame.obj
 0001:000c5223       $L35187                    100c6223 f   awt_Frame.obj
 0001:000c52e1       $L35199                    100c62e1 f   awt_Frame.obj
 0001:000c52ec       $L35200                    100c62ec f   awt_Frame.obj
 0001:000c5379       $L35211                    100c6379 f   awt_Frame.obj
 0001:000c538b       $L35212                    100c638b f   awt_Frame.obj
 0001:000c546c       $L35226                    100c646c f   awt_Frame.obj
 0001:000c5477       $L35227                    100c6477 f   awt_Frame.obj
 0001:000c5503       $L35236                    100c6503 f   awt_Frame.obj
 0001:000c550e       $L35237                    100c650e f   awt_Frame.obj
 0001:000c55d0       $L35247                    100c65d0 f   awt_Frame.obj
 0001:000c55db       $L35248                    100c65db f   awt_Frame.obj
 0001:000c567b       $L35257                    100c667b f   awt_Frame.obj
 0001:000c5686       $L35258                    100c6686 f   awt_Frame.obj
 0001:000c56ed       $L35269                    100c66ed f   awt_Frame.obj
 0001:000c56ff       $L35270                    100c66ff f   awt_Frame.obj
 0001:000c57d0       $L35284                    100c67d0 f   awt_Frame.obj
 0001:000c57db       $L35285                    100c67db f   awt_Frame.obj
 0001:000c587d       $L35294                    100c687d f   awt_Frame.obj
 0001:000c5888       $L35295                    100c6888 f   awt_Frame.obj
 0001:000c5968       $L35308                    100c6968 f   awt_Frame.obj
 0001:000c5973       $L35309                    100c6973 f   awt_Frame.obj
 0001:000c5a61       $L35321                    100c6a61 f   awt_Frame.obj
 0001:000c5a6c       $L35322                    100c6a6c f   awt_Frame.obj
 0001:000c5b20       $L35331                    100c6b20 f   awt_Frame.obj
 0001:000c5b2b       $L35332                    100c6b2b f   awt_Frame.obj
 0001:000c5be4       $L35343                    100c6be4 f   awt_Frame.obj
 0001:000c5bf6       $L35344                    100c6bf6 f   awt_Frame.obj
 0001:000c5cb1       $L35360                    100c6cb1 f   awt_Frame.obj
 0001:000c5cbc       $L35361                    100c6cbc f   awt_Frame.obj
 0001:000c6384       $L30553                    100c7384 f   awt_InputMethod.obj
 0001:000c6396       $L30554                    100c7396 f   awt_InputMethod.obj
 0001:000c6409       $L30577                    100c7409 f   awt_InputMethod.obj
 0001:000c6414       $L30578                    100c7414 f   awt_InputMethod.obj
 0001:000c64dc       $L30587                    100c74dc f   awt_InputMethod.obj
 0001:000c64e7       $L30588                    100c74e7 f   awt_InputMethod.obj
 0001:000c65a0       $L30601                    100c75a0 f   awt_InputMethod.obj
 0001:000c65ab       $L30602                    100c75ab f   awt_InputMethod.obj
 0001:000c683a       $L30612                    100c783a f   awt_InputMethod.obj
 0001:000c6845       $L30613                    100c7845 f   awt_InputMethod.obj
 0001:000c68c7       $L30638                    100c78c7 f   awt_InputMethod.obj
 0001:000c68d2       $L30639                    100c78d2 f   awt_InputMethod.obj
 0001:000c6959       $L30648                    100c7959 f   awt_InputMethod.obj
 0001:000c6964       $L30649                    100c7964 f   awt_InputMethod.obj
 0001:000c69e6       $L30660                    100c79e6 f   awt_InputMethod.obj
 0001:000c69f8       $L30661                    100c79f8 f   awt_InputMethod.obj
 0001:000c6a71       $L30674                    100c7a71 f   awt_InputMethod.obj
 0001:000c6a7c       $L30675                    100c7a7c f   awt_InputMethod.obj
 0001:000c6af6       $L30686                    100c7af6 f   awt_InputMethod.obj
 0001:000c6b05       $L30687                    100c7b05 f   awt_InputMethod.obj
 0001:000c6ba2       $L30702                    100c7ba2 f   awt_InputMethod.obj
 0001:000c6bb4       $L30703                    100c7bb4 f   awt_InputMethod.obj
 0001:000c6da6       $L30720                    100c7da6 f   awt_InputMethod.obj
 0001:000c6db5       $L30721                    100c7db5 f   awt_InputMethod.obj
 0001:000c6f64       $L30743                    100c7f64 f   awt_InputMethod.obj
 0001:000c6f6f       $L30744                    100c7f6f f   awt_InputMethod.obj
 0001:000c71e9       $L30757                    100c81e9 f   awt_InputMethod.obj
 0001:000c71fb       $L30758                    100c81fb f   awt_InputMethod.obj
 0001:000c7301       $L30779                    100c8301 f   awt_InputMethod.obj
 0001:000c7313       $L30780                    100c8313 f   awt_InputMethod.obj
 0001:000c74f6       $L30799                    100c84f6 f   awt_InputMethod.obj
 0001:000c7508       $L30800                    100c8508 f   awt_InputMethod.obj
 0001:000c7d8f       $L30400                    100c8d8f f   awt_InputTextInfor.obj
 0001:000c7ee4       $L30402                    100c8ee4 f   awt_InputTextInfor.obj
 0001:000c80d0       $L30404                    100c90d0 f   awt_InputTextInfor.obj
 0001:000c82f3       $L30425                    100c92f3 f   awt_InputTextInfor.obj
 0001:000c8474       $L30427                    100c9474 f   awt_InputTextInfor.obj
 0001:000c86f0       $L26825                    100c96f0 f   awt_Insets.obj
 0001:000c86fb       $L26826                    100c96fb f   awt_Insets.obj
 0001:000c888e       $L26833                    100c988e f   awt_KeyEvent.obj
 0001:000c8899       $L26834                    100c9899 f   awt_KeyEvent.obj
 0001:000c8ac1       $L30169                    100c9ac1 f   awt_KeyboardFocusManager.obj
 0001:000c8acc       $L30170                    100c9acc f   awt_KeyboardFocusManager.obj
 0001:000c8b3c       $L30195                    100c9b3c f   awt_KeyboardFocusManager.obj
 0001:000c8b4e       $L30196                    100c9b4e f   awt_KeyboardFocusManager.obj
 0001:000c8b80       ?getNativeFocusState@@YAPAV_jobject@@PAUJNIEnv_@@P6APAXXZ@Z 100c9b80 f   awt_KeyboardFocusManager.obj
 0001:000c8c1c       $L30224                    100c9c1c f   awt_KeyboardFocusManager.obj
 0001:000c8c2e       $L30225                    100c9c2e f   awt_KeyboardFocusManager.obj
 0001:000c8ca8       $L30238                    100c9ca8 f   awt_KeyboardFocusManager.obj
 0001:000c8cb3       $L30239                    100c9cb3 f   awt_KeyboardFocusManager.obj
 0001:000c8fc3       $L30557                    100c9fc3 f   awt_Label.obj
 0001:000c98d8       $L30636                    100ca8d8 f   awt_Label.obj
 0001:000c98e3       $L30637                    100ca8e3 f   awt_Label.obj
 0001:000c99b0       $L30649                    100ca9b0 f   awt_Label.obj
 0001:000c99bb       $L30650                    100ca9bb f   awt_Label.obj
 0001:000c9a71       $L30664                    100caa71 f   awt_Label.obj
 0001:000c9a7c       $L30665                    100caa7c f   awt_Label.obj
 0001:000c9b8e       $L30674                    100cab8e f   awt_Label.obj
 0001:000c9b99       $L30675                    100cab99 f   awt_Label.obj
 0001:000c9c23       $L30684                    100cac23 f   awt_Label.obj
 0001:000c9c2e       $L30685                    100cac2e f   awt_Label.obj
 0001:000ca031       $L34126                    100cb031 f   awt_List.obj
 0001:000ca3f2       $L34183                    100cb3f2 f   awt_List.obj
 0001:000cb969       $L34275                    100cc969 f   awt_List.obj
 0001:000cb97b       $L34276                    100cc97b f   awt_List.obj
 0001:000cba13       $L34291                    100cca13 f   awt_List.obj
 0001:000cba1e       $L34292                    100cca1e f   awt_List.obj
 0001:000cbaf2       $L34302                    100ccaf2 f   awt_List.obj
 0001:000cbafd       $L34303                    100ccafd f   awt_List.obj
 0001:000cbbba       $L34313                    100ccbba f   awt_List.obj
 0001:000cbbc5       $L34314                    100ccbc5 f   awt_List.obj
 0001:000cbc81       $L34324                    100ccc81 f   awt_List.obj
 0001:000cbc8c       $L34325                    100ccc8c f   awt_List.obj
 0001:000cbdb4       $L34335                    100ccdb4 f   awt_List.obj
 0001:000cbdbf       $L34336                    100ccdbf f   awt_List.obj
 0001:000cbe71       $L34346                    100cce71 f   awt_List.obj
 0001:000cbe7c       $L34347                    100cce7c f   awt_List.obj
 0001:000cbf31       $L34357                    100ccf31 f   awt_List.obj
 0001:000cbf3c       $L34358                    100ccf3c f   awt_List.obj
 0001:000cc04e       $L34367                    100cd04e f   awt_List.obj
 0001:000cc059       $L34368                    100cd059 f   awt_List.obj
 0001:000cc117       $L34380                    100cd117 f   awt_List.obj
 0001:000cc126       $L34381                    100cd126 f   awt_List.obj
 0001:000cc7bb       $L31552                    100cd7bb f   awt_Menu.obj
 0001:000cd198       $L31624                    100ce198 f   awt_Menu.obj
 0001:000cd1a3       $L31625                    100ce1a3 f   awt_Menu.obj
 0001:000cd28e       $L31636                    100ce28e f   awt_Menu.obj
 0001:000cd299       $L31637                    100ce299 f   awt_Menu.obj
 0001:000cd380       $L31646                    100ce380 f   awt_Menu.obj
 0001:000cd38b       $L31647                    100ce38b f   awt_Menu.obj
 0001:000cd4a3       $L31656                    100ce4a3 f   awt_Menu.obj
 0001:000cd4ae       $L31657                    100ce4ae f   awt_Menu.obj
 0001:000cd5c3       $L31666                    100ce5c3 f   awt_Menu.obj
 0001:000cd5ce       $L31667                    100ce5ce f   awt_Menu.obj
 0001:000cd91d       $L31466                    100ce91d f   awt_MenuBar.obj
 0001:000cded8       $L31512                    100ceed8 f   awt_MenuBar.obj
 0001:000cdee3       $L31513                    100ceee3 f   awt_MenuBar.obj
 0001:000cdfb0       $L31525                    100cefb0 f   awt_MenuBar.obj
 0001:000cdfbb       $L31526                    100cefbb f   awt_MenuBar.obj
 0001:000ce0a0       $L31539                    100cf0a0 f   awt_MenuBar.obj
 0001:000ce0ab       $L31540                    100cf0ab f   awt_MenuBar.obj
 0001:000ce14b       $L31549                    100cf14b f   awt_MenuBar.obj
 0001:000ce156       $L31550                    100cf156 f   awt_MenuBar.obj
 0001:000ce5f6       $L31379                    100cf5f6 f   awt_MenuItem.obj
 0001:000cfbca       $L31478                    100d0bca f   awt_MenuItem.obj
 0001:000cfbd5       $L31479                    100d0bd5 f   awt_MenuItem.obj
 0001:000cfcb8       $L31490                    100d0cb8 f   awt_MenuItem.obj
 0001:000cfcc3       $L31491                    100d0cc3 f   awt_MenuItem.obj
 0001:000cfd65       $L31500                    100d0d65 f   awt_MenuItem.obj
 0001:000cfd70       $L31501                    100d0d70 f   awt_MenuItem.obj
 0001:000cfe8a       $L31510                    100d0e8a f   awt_MenuItem.obj
 0001:000cfe95       $L31511                    100d0e95 f   awt_MenuItem.obj
 0001:000cff75       $L31525                    100d0f75 f   awt_MenuItem.obj
 0001:000cff80       $L31526                    100d0f80 f   awt_MenuItem.obj
 0001:000d0030       $L31535                    100d1030 f   awt_MenuItem.obj
 0001:000d003b       $L31536                    100d103b f   awt_MenuItem.obj
 0001:000d0121       $L31545                    100d1121 f   awt_MenuItem.obj
 0001:000d012c       $L31546                    100d112c f   awt_MenuItem.obj
 0001:000d01ad       $L31555                    100d11ad f   awt_MenuItem.obj
 0001:000d01b8       $L31556                    100d11b8 f   awt_MenuItem.obj
 0001:000d02a1       $L31565                    100d12a1 f   awt_MenuItem.obj
 0001:000d02ac       $L31566                    100d12ac f   awt_MenuItem.obj
 0001:000d1241       $L26817                    100d2241 f   awt_MouseEvent.obj
 0001:000d124c       $L26818                    100d224c f   awt_MouseEvent.obj
 0001:000d19f5       $L28040                    100d29f5 f   awt_Object.obj
 0001:000d1a00       $L28041                    100d2a00 f   awt_Object.obj
 0001:000d262d       $L30139                    100d362d f   awt_Panel.obj
 0001:000d263f       $L30140                    100d363f f   awt_Panel.obj
 0001:000d26f2       $L30169                    100d36f2 f   awt_Panel.obj
 0001:000d26fd       $L30170                    100d36fd f   awt_Panel.obj
 0001:000d279e       $L30181                    100d379e f   awt_Panel.obj
 0001:000d27a9       $L30182                    100d37a9 f   awt_Panel.obj
 0001:000d2996       $L31185                    100d3996 f   awt_PopupMenu.obj
 0001:000d30c3       $L31254                    100d40c3 f   awt_PopupMenu.obj
 0001:000d30ce       $L31255                    100d40ce f   awt_PopupMenu.obj
 0001:000d3190       $L31265                    100d4190 f   awt_PopupMenu.obj
 0001:000d319b       $L31266                    100d419b f   awt_PopupMenu.obj
 0001:000d38f9       $L32218                    100d48f9 f   awt_PrintControl.obj
 0001:000d42de       $L32237                    100d52de f   awt_PrintControl.obj
 0001:000d42e9       $L32238                    100d52e9 f   awt_PrintControl.obj
 0001:000d435e       $L32255                    100d535e f   awt_PrintControl.obj
 0001:000d4370       $L32256                    100d5370 f   awt_PrintControl.obj
 0001:000d47ee       $L32282                    100d57ee f   awt_PrintControl.obj
 0001:000d5df5       $L73724                    100d6df5 f   awt_PrintDialog.obj
 0001:000d5e00       $L73725                    100d6e00 f   awt_PrintDialog.obj
 0001:000d5e69       $L73740                    100d6e69 f   awt_PrintDialog.obj
 0001:000d5e74       $L73741                    100d6e74 f   awt_PrintDialog.obj
 0001:000d5f58       $L73752                    100d6f58 f   awt_PrintDialog.obj
 0001:000d5f63       $L73753                    100d6f63 f   awt_PrintDialog.obj
 0001:000d6288       $L73770                    100d7288 f   awt_PrintDialog.obj
 0001:000d6297       $L73771                    100d7297 f   awt_PrintDialog.obj
 0001:000d62c0       ?PrintDialogHookProc@@YGIPAUHWND__@@IIJ@Z 100d72c0 f   awt_PrintDialog.obj
 0001:000d6477       $L73794                    100d7477 f   awt_PrintDialog.obj
 0001:000d6489       $L73795                    100d7489 f   awt_PrintDialog.obj
 0001:000d651d       $L73808                    100d751d f   awt_PrintDialog.obj
 0001:000d6528       $L73809                    100d7528 f   awt_PrintDialog.obj
 0001:000d65ad       $L73818                    100d75ad f   awt_PrintDialog.obj
 0001:000d65b8       $L73819                    100d75b8 f   awt_PrintDialog.obj
 0001:000d6665       $L77035                    100d7665 f   awt_PrintJob.obj
 0001:000d6670       $L77036                    100d7670 f   awt_PrintJob.obj
 0001:000d6e96       $L77057                    100d7e96 f   awt_PrintJob.obj
 0001:000d6ea8       $L77058                    100d7ea8 f   awt_PrintJob.obj
 0001:000d732b       $L77106                    100d832b f   awt_PrintJob.obj
 0001:000d7336       $L77107                    100d8336 f   awt_PrintJob.obj
 0001:000d7aa8       $L77119                    100d8aa8 f   awt_PrintJob.obj
 0001:000d7ab3       $L77120                    100d8ab3 f   awt_PrintJob.obj
 0001:000d7ae0       _initPrinter               100d8ae0 f   awt_PrintJob.obj
 0001:000d7d58       $L77142                    100d8d58 f   awt_PrintJob.obj
 0001:000d7d63       $L77143                    100d8d63 f   awt_PrintJob.obj
 0001:000d810c       $L77152                    100d910c f   awt_PrintJob.obj
 0001:000d8117       $L77153                    100d9117 f   awt_PrintJob.obj
 0001:000d8140       _setPrintReqAttribute      100d9140 f   awt_PrintJob.obj
 0001:000d8553       $L77173                    100d9553 f   awt_PrintJob.obj
 0001:000d855e       $L77174                    100d955e f   awt_PrintJob.obj
 0001:000d85de       $L77183                    100d95de f   awt_PrintJob.obj
 0001:000d85e9       $L77184                    100d95e9 f   awt_PrintJob.obj
 0001:000d8669       $L77193                    100d9669 f   awt_PrintJob.obj
 0001:000d8674       $L77194                    100d9674 f   awt_PrintJob.obj
 0001:000d86a0       _DeletePrintDC             100d96a0 f   awt_PrintJob.obj
 0001:000d8b44       $L77204                    100d9b44 f   awt_PrintJob.obj
 0001:000d8b4f       $L77205                    100d9b4f f   awt_PrintJob.obj
 0001:000d8c83       $L77214                    100d9c83 f   awt_PrintJob.obj
 0001:000d8c8e       $L77215                    100d9c8e f   awt_PrintJob.obj
 0001:000d8e1d       $L77227                    100d9e1d f   awt_PrintJob.obj
 0001:000d8e59       $L77228                    100d9e59 f   awt_PrintJob.obj
 0001:000d8e64       $L77229                    100d9e64 f   awt_PrintJob.obj
 0001:000d8f1c       $L77244                    100d9f1c f   awt_PrintJob.obj
 0001:000d8f27       $L77245                    100d9f27 f   awt_PrintJob.obj
 0001:000d8f8c       $L77254                    100d9f8c f   awt_PrintJob.obj
 0001:000d8f97       $L77255                    100d9f97 f   awt_PrintJob.obj
 0001:000d8ffc       $L77264                    100d9ffc f   awt_PrintJob.obj
 0001:000d9007       $L77265                    100da007 f   awt_PrintJob.obj
 0001:000d906c       $L77274                    100da06c f   awt_PrintJob.obj
 0001:000d9077       $L77275                    100da077 f   awt_PrintJob.obj
 0001:000d9118       $L77284                    100da118 f   awt_PrintJob.obj
 0001:000d9123       $L77285                    100da123 f   awt_PrintJob.obj
 0001:000d91ca       $L77297                    100da1ca f   awt_PrintJob.obj
 0001:000d91d5       $L77298                    100da1d5 f   awt_PrintJob.obj
 0001:000d9305       $L77307                    100da305 f   awt_PrintJob.obj
 0001:000d9310       $L77308                    100da310 f   awt_PrintJob.obj
 0001:000d9370       $L77317                    100da370 f   awt_PrintJob.obj
 0001:000d937b       $L77318                    100da37b f   awt_PrintJob.obj
 0001:000d9410       $L77327                    100da410 f   awt_PrintJob.obj
 0001:000d941b       $L77328                    100da41b f   awt_PrintJob.obj
 0001:000d9486       $L77339                    100da486 f   awt_PrintJob.obj
 0001:000d9498       $L77340                    100da498 f   awt_PrintJob.obj
 0001:000d9506       $L77355                    100da506 f   awt_PrintJob.obj
 0001:000d9518       $L77356                    100da518 f   awt_PrintJob.obj
 0001:000d957e       $L77369                    100da57e f   awt_PrintJob.obj
 0001:000d9589       $L77370                    100da589 f   awt_PrintJob.obj
 0001:000d9741       $L77379                    100da741 f   awt_PrintJob.obj
 0001:000d974c       $L77380                    100da74c f   awt_PrintJob.obj
 0001:000d986d       $L77389                    100da86d f   awt_PrintJob.obj
 0001:000d9878       $L77390                    100da878 f   awt_PrintJob.obj
 0001:000d993c       $L77399                    100da93c f   awt_PrintJob.obj
 0001:000d9947       $L77400                    100da947 f   awt_PrintJob.obj
 0001:000d9a74       $L77411                    100daa74 f   awt_PrintJob.obj
 0001:000d9a83       $L77412                    100daa83 f   awt_PrintJob.obj
 0001:000d9b70       _jFontToWFontA             100dab70 f   awt_PrintJob.obj
 0001:000d9e30       _jFontToWFontW             100dae30 f   awt_PrintJob.obj
 0001:000da0c0       _fontEnumProcW@16          100db0c0 f   awt_PrintJob.obj
 0001:000da100       _fontEnumProcA@16          100db100 f   awt_PrintJob.obj
 0001:000da140       _embolden                  100db140 f   awt_PrintJob.obj
 0001:000da687       $L77458                    100db687 f   awt_PrintJob.obj
 0001:000da6e0       _reverseDIB                100db6e0 f   awt_PrintJob.obj
 0001:000da880       _doPrintBand               100db880 f   awt_PrintJob.obj
 0001:000da9ef       $L77473                    100db9ef f   awt_PrintJob.obj
 0001:000daa2b       $L77474                    100dba2b f   awt_PrintJob.obj
 0001:000daa36       $L77475                    100dba36 f   awt_PrintJob.obj
 0001:000daa60       _findNonWhite              100dba60 f   awt_PrintJob.obj
 0001:000dabc0       _findWhite                 100dbbc0 f   awt_PrintJob.obj
 0001:000dad30       _bitsToDevice              100dbd30 f   awt_PrintJob.obj
 0001:000db080       _pageDlgHook@16            100dc080 f   awt_PrintJob.obj
 0001:000db213       $L77513                    100dc213 f   awt_PrintJob.obj
 0001:000db225       $L77514                    100dc225 f   awt_PrintJob.obj
 0001:000db250       _getDefaultPrinterDC       100dc250 f   awt_PrintJob.obj
 0001:000db550       _pageFormatToSetup         100dc550 f   awt_PrintJob.obj
 0001:000db850       _getOrientationFromDevMode2 100dc850 f   awt_PrintJob.obj
 0001:000db8a0       _setOrientationInDevMode   100dc8a0 f   awt_PrintJob.obj
 0001:000db8f0       _retrievePaperInfo         100dc8f0 f   awt_PrintJob.obj
 0001:000dbb10       _getCopies                 100dcb10 f   awt_PrintJob.obj
 0001:000dbb90       _getJobName                100dcb90 f   awt_PrintJob.obj
 0001:000dbc60       _getPaper                  100dcc60 f   awt_PrintJob.obj
 0001:000dbce0       _setPaper                  100dcce0 f   awt_PrintJob.obj
 0001:000dbd60       _isPortraitOrientation     100dcd60 f   awt_PrintJob.obj
 0001:000dbe10       _isLandscapeOrientation    100dce10 f   awt_PrintJob.obj
 0001:000dbec0       _setOrientation            100dcec0 f   awt_PrintJob.obj
 0001:000dbf90       _getPaperValues            100dcf90 f   awt_PrintJob.obj
 0001:000dc210       _setPaperValues            100dd210 f   awt_PrintJob.obj
 0001:000dc390       _convertFromPoints         100dd390 f   awt_PrintJob.obj
 0001:000dc410       _convertToPoints           100dd410 f   awt_PrintJob.obj
 0001:000dc740       _getOrientationFromDevMode 100dd740 f   awt_PrintJob.obj
 0001:000dc760       _getPrintPaperSize         100dd760 f   awt_PrintJob.obj
 0001:000dc780       _setPrintPaperSize         100dd780 f   awt_PrintJob.obj
 0001:000dc7b0       _getIntField               100dd7b0 f   awt_PrintJob.obj
 0001:000dc7e0       _setIntField               100dd7e0 f   awt_PrintJob.obj
 0001:000dc820       _getIdOfIntField           100dd820 f   awt_PrintJob.obj
 0001:000dc880       _setBooleanField           100dd880 f   awt_PrintJob.obj
 0001:000dc8f0       _throwPrinterException     100dd8f0 f   awt_PrintJob.obj
 0001:000dc980       _matchPaperSize            100dd980 f   awt_PrintJob.obj
 0001:000dd2fe       $L77573                    100de2fe f   awt_PrintJob.obj
 0001:000dd309       $L77574                    100de309 f   awt_PrintJob.obj
 0001:000dd330       _SetPrinterDevice          100de330 f   awt_PrintJob.obj
 0001:000dd869       $L77586                    100de869 f   awt_PrintJob.obj
 0001:000dd87b       $L77587                    100de87b f   awt_PrintJob.obj
 0001:000dd8b0       _getPrintableArea          100de8b0 f   awt_PrintJob.obj
 0001:000ddb2f       $L77603                    100deb2f f   awt_PrintJob.obj
 0001:000ddb3a       $L77604                    100deb3a f   awt_PrintJob.obj
 0001:000ddd20       $L26825                    100ded20 f   awt_Rectangle.obj
 0001:000ddd2b       $L26826                    100ded2b f   awt_Rectangle.obj
 0001:000de694       $L30556                    100df694 f   awt_Robot.obj
 0001:000de69f       $L30557                    100df69f f   awt_Robot.obj
 0001:000de71e       $L30567                    100df71e f   awt_Robot.obj
 0001:000de729       $L30568                    100df729 f   awt_Robot.obj
 0001:000de7a2       $L30581                    100df7a2 f   awt_Robot.obj
 0001:000de7ad       $L30582                    100df7ad f   awt_Robot.obj
 0001:000de81e       $L30591                    100df81e f   awt_Robot.obj
 0001:000de829       $L30592                    100df829 f   awt_Robot.obj
 0001:000de89e       $L30601                    100df89e f   awt_Robot.obj
 0001:000de8a9       $L30602                    100df8a9 f   awt_Robot.obj
 0001:000de91e       $L30611                    100df91e f   awt_Robot.obj
 0001:000de929       $L30612                    100df929 f   awt_Robot.obj
 0001:000de9aa       $L30623                    100df9aa f   awt_Robot.obj
 0001:000de9bc       $L30624                    100df9bc f   awt_Robot.obj
 0001:000dea4e       $L30637                    100dfa4e f   awt_Robot.obj
 0001:000dea59       $L30638                    100dfa59 f   awt_Robot.obj
 0001:000deace       $L30647                    100dface f   awt_Robot.obj
 0001:000dead9       $L30648                    100dfad9 f   awt_Robot.obj
 0001:000deb4e       $L30657                    100dfb4e f   awt_Robot.obj
 0001:000deb59       $L30658                    100dfb59 f   awt_Robot.obj
 0001:000df02a       $L31232                    100e002a f   awt_Scrollbar.obj
 0001:000dfafa       $L31288                    100e0afa f   awt_Scrollbar.obj
 0001:000dfb05       $L31289                    100e0b05 f   awt_Scrollbar.obj
 0001:000dfbdc       $L31301                    100e0bdc f   awt_Scrollbar.obj
 0001:000dfbe7       $L31302                    100e0be7 f   awt_Scrollbar.obj
 0001:000dfcca       $L31313                    100e0cca f   awt_Scrollbar.obj
 0001:000dfcd5       $L31314                    100e0cd5 f   awt_Scrollbar.obj
 0001:000dfdba       $L31325                    100e0dba f   awt_Scrollbar.obj
 0001:000dfdc5       $L31326                    100e0dc5 f   awt_Scrollbar.obj
 0001:000dfede       $L31337                    100e0ede f   awt_Scrollbar.obj
 0001:000dfee9       $L31338                    100e0ee9 f   awt_Scrollbar.obj
 0001:000e03bf       $L31620                    100e13bf f   awt_ScrollPane.obj
 0001:000e156a       $L31709                    100e256a f   awt_ScrollPane.obj
 0001:000e1575       $L31710                    100e2575 f   awt_ScrollPane.obj
 0001:000e1658       $L31721                    100e2658 f   awt_ScrollPane.obj
 0001:000e1663       $L31722                    100e2663 f   awt_ScrollPane.obj
 0001:000e1705       $L31731                    100e2705 f   awt_ScrollPane.obj
 0001:000e1710       $L31732                    100e2710 f   awt_ScrollPane.obj
 0001:000e1866       $L31743                    100e2866 f   awt_ScrollPane.obj
 0001:000e1871       $L31744                    100e2871 f   awt_ScrollPane.obj
 0001:000e1937       $L31756                    100e2937 f   awt_ScrollPane.obj
 0001:000e1949       $L31757                    100e2949 f   awt_ScrollPane.obj
 0001:000e19dd       $L31772                    100e29dd f   awt_ScrollPane.obj
 0001:000e19e8       $L31773                    100e29e8 f   awt_ScrollPane.obj
 0001:000e1aaa       $L31783                    100e2aaa f   awt_ScrollPane.obj
 0001:000e1ab5       $L31784                    100e2ab5 f   awt_ScrollPane.obj
 0001:000e1b57       $L31795                    100e2b57 f   awt_ScrollPane.obj
 0001:000e1b69       $L31796                    100e2b69 f   awt_ScrollPane.obj
 0001:000e1c17       $L31811                    100e2c17 f   awt_ScrollPane.obj
 0001:000e1c29       $L31812                    100e2c29 f   awt_ScrollPane.obj
 0001:000e1d0c       $L31826                    100e2d0c f   awt_ScrollPane.obj
 0001:000e1d17       $L31827                    100e2d17 f   awt_ScrollPane.obj
 0001:000e23b1       $L75213                    100e33b1 f   awt_TextArea.obj
 0001:000e3d75       $L75332                    100e4d75 f   awt_TextArea.obj
 0001:000e3d80       $L75333                    100e4d80 f   awt_TextArea.obj
 0001:000e3e8e       $L75344                    100e4e8e f   awt_TextArea.obj
 0001:000e3e99       $L75345                    100e4e99 f   awt_TextArea.obj
 0001:000e3f7e       $L75355                    100e4f7e f   awt_TextArea.obj
 0001:000e3f89       $L75356                    100e4f89 f   awt_TextArea.obj
 0001:000e40ad       $L75375                    100e50ad f   awt_TextArea.obj
 0001:000e40bf       $L75376                    100e50bf f   awt_TextArea.obj
 0001:000e534a       $L54461                    100e634a f   awt_TextComponent.obj
 0001:000e535c       $L54462                    100e635c f   awt_TextComponent.obj
 0001:000e5430       $L54484                    100e6430 f   awt_TextComponent.obj
 0001:000e543b       $L54485                    100e643b f   awt_TextComponent.obj
 0001:000e54c3       $L54496                    100e64c3 f   awt_TextComponent.obj
 0001:000e54d5       $L54497                    100e64d5 f   awt_TextComponent.obj
 0001:000e5563       $L54512                    100e6563 f   awt_TextComponent.obj
 0001:000e5575       $L54513                    100e6575 f   awt_TextComponent.obj
 0001:000e563a       $L54527                    100e663a f   awt_TextComponent.obj
 0001:000e5645       $L54528                    100e6645 f   awt_TextComponent.obj
 0001:000e5701       $L54538                    100e6701 f   awt_TextComponent.obj
 0001:000e570c       $L54539                    100e670c f   awt_TextComponent.obj
 0001:000e57c3       $L54548                    100e67c3 f   awt_TextComponent.obj
 0001:000e57ce       $L54549                    100e67ce f   awt_TextComponent.obj
 0001:000e5bb0       $L74557                    100e6bb0 f   awt_TextField.obj
 0001:000e638e       $L74618                    100e738e f   awt_TextField.obj
 0001:000e6399       $L74619                    100e7399 f   awt_TextField.obj
 0001:000e6453       $L74629                    100e7453 f   awt_TextField.obj
 0001:000e645e       $L74630                    100e745e f   awt_TextField.obj
 0001:000e6512       $L82531                    100e7512 f   awt_Toolkit.obj
 0001:000e6524       $L82532                    100e7524 f   awt_Toolkit.obj
 0001:000e6a5d       $L82587                    100e7a5d f   awt_Toolkit.obj
 0001:000e6a6f       $L82588                    100e7a6f f   awt_Toolkit.obj
 0001:000e878d       $L82738                    100e978d f   awt_Toolkit.obj
 0001:000e87a2       $L82739                    100e97a2 f   awt_Toolkit.obj
 0001:000e88df       $L82777                    100e98df f   awt_Toolkit.obj
 0001:000e88f1       $L82778                    100e98f1 f   awt_Toolkit.obj
 0001:000e8b08       $L82795                    100e9b08 f   awt_Toolkit.obj
 0001:000e8b1a       $L82796                    100e9b1a f   awt_Toolkit.obj
 0001:000e8d00       ?CancelAllThreadWindows@@YGHPAUHWND__@@J@Z 100e9d00 f   awt_Toolkit.obj
 0001:000e8d5f       $L82822                    100e9d5f f   awt_Toolkit.obj
 0001:000e8d71       $L82823                    100e9d71 f   awt_Toolkit.obj
 0001:000e8da0       ?DoQuitMessageLoop@@YAXPAX@Z 100e9da0 f   awt_Toolkit.obj
 0001:000e9ae9       $L82902                    100eaae9 f   awt_Toolkit.obj
 0001:000ea5ba       $L83000                    100eb5ba f   awt_Toolkit.obj
 0001:000ea5c5       $L83001                    100eb5c5 f   awt_Toolkit.obj
 0001:000ea868       $L83010                    100eb868 f   awt_Toolkit.obj
 0001:000ea873       $L83011                    100eb873 f   awt_Toolkit.obj
 0001:000ea909       $L83025                    100eb909 f   awt_Toolkit.obj
 0001:000ea918       $L83026                    100eb918 f   awt_Toolkit.obj
 0001:000ea9a7       $L83041                    100eb9a7 f   awt_Toolkit.obj
 0001:000ea9b6       $L83042                    100eb9b6 f   awt_Toolkit.obj
 0001:000eaa61       $L83062                    100eba61 f   awt_Toolkit.obj
 0001:000eaa70       $L83063                    100eba70 f   awt_Toolkit.obj
 0001:000eab43       $L83076                    100ebb43 f   awt_Toolkit.obj
 0001:000eab4e       $L83077                    100ebb4e f   awt_Toolkit.obj
 0001:000eabd8       $L83088                    100ebbd8 f   awt_Toolkit.obj
 0001:000eabe3       $L83089                    100ebbe3 f   awt_Toolkit.obj
 0001:000eac89       $L83100                    100ebc89 f   awt_Toolkit.obj
 0001:000eac94       $L83101                    100ebc94 f   awt_Toolkit.obj
 0001:000ead05       $L83110                    100ebd05 f   awt_Toolkit.obj
 0001:000ead10       $L83111                    100ebd10 f   awt_Toolkit.obj
 0001:000ead85       $L83122                    100ebd85 f   awt_Toolkit.obj
 0001:000ead97       $L83123                    100ebd97 f   awt_Toolkit.obj
 0001:000eae88       $L83140                    100ebe88 f   awt_Toolkit.obj
 0001:000eae9a       $L83141                    100ebe9a f   awt_Toolkit.obj
 0001:000eaf3d       $L83158                    100ebf3d f   awt_Toolkit.obj
 0001:000eaf4f       $L83159                    100ebf4f f   awt_Toolkit.obj
 0001:000eafbd       $L83174                    100ebfbd f   awt_Toolkit.obj
 0001:000eafcf       $L83175                    100ebfcf f   awt_Toolkit.obj
 0001:000eb0b0       $L83190                    100ec0b0 f   awt_Toolkit.obj
 0001:000eb0c2       $L83191                    100ec0c2 f   awt_Toolkit.obj
 0001:000eb143       $L83206                    100ec143 f   awt_Toolkit.obj
 0001:000eb14e       $L83207                    100ec14e f   awt_Toolkit.obj
 0001:000eb1c5       $L83216                    100ec1c5 f   awt_Toolkit.obj
 0001:000eb1d0       $L83217                    100ec1d0 f   awt_Toolkit.obj
 0001:000eb282       $L83228                    100ec282 f   awt_Toolkit.obj
 0001:000eb294       $L83229                    100ec294 f   awt_Toolkit.obj
 0001:000eb38e       $L83244                    100ec38e f   awt_Toolkit.obj
 0001:000eb399       $L83245                    100ec399 f   awt_Toolkit.obj
 0001:000eb470       $L83255                    100ec470 f   awt_Toolkit.obj
 0001:000eb4ac       $L83256                    100ec4ac f   awt_Toolkit.obj
 0001:000eb4b7       $L83257                    100ec4b7 f   awt_Toolkit.obj
 0001:000eb55e       $L83275                    100ec55e f   awt_Toolkit.obj
 0001:000eb570       $L83276                    100ec570 f   awt_Toolkit.obj
 0001:000eb5d2       $L83295                    100ec5d2 f   awt_Toolkit.obj
 0001:000eb5dd       $L83296                    100ec5dd f   awt_Toolkit.obj
 0001:000eb648       $L83305                    100ec648 f   awt_Toolkit.obj
 0001:000eb653       $L83306                    100ec653 f   awt_Toolkit.obj
 0001:000eb6cb       $L83317                    100ec6cb f   awt_Toolkit.obj
 0001:000eb6da       $L83318                    100ec6da f   awt_Toolkit.obj
 0001:000eb7d7       $L83335                    100ec7d7 f   awt_Toolkit.obj
 0001:000eb7e2       $L83336                    100ec7e2 f   awt_Toolkit.obj
 0001:000eb944       $L83348                    100ec944 f   awt_Toolkit.obj
 0001:000eb953       $L83349                    100ec953 f   awt_Toolkit.obj
 0001:000eba7a       $L83368                    100eca7a f   awt_Toolkit.obj
 0001:000eba89       $L83369                    100eca89 f   awt_Toolkit.obj
 0001:000ebb2a       $L83386                    100ecb2a f   awt_Toolkit.obj
 0001:000ebb39       $L83387                    100ecb39 f   awt_Toolkit.obj
 0001:000eda6b       $L75888                    100eea6b f   awt_Window.obj
 0001:000ef538       $L75975                    100f0538 f   awt_Window.obj
 0001:000ef54a       $L75976                    100f054a f   awt_Window.obj
 0001:000f0582       $L76030                    100f1582 f   awt_Window.obj
 0001:000f1610       ?CreateBitmapFromRaster@@YAPAUHBITMAP__@@PAUJNIEnv_@@PAV_jintArray@@JJ@Z 100f2610 f   awt_Window.obj
 0001:000f16ab       $L76087                    100f26ab f   awt_Window.obj
 0001:000f17ff       $L76096                    100f27ff f   awt_Window.obj
 0001:000f180a       $L76097                    100f280a f   awt_Window.obj
 0001:000f18ec       $L76106                    100f28ec f   awt_Window.obj
 0001:000f18f7       $L76107                    100f28f7 f   awt_Window.obj
 0001:000f197d       $L76116                    100f297d f   awt_Window.obj
 0001:000f1988       $L76117                    100f2988 f   awt_Window.obj
 0001:000f1a0d       $L76126                    100f2a0d f   awt_Window.obj
 0001:000f1a18       $L76127                    100f2a18 f   awt_Window.obj
 0001:000f1ad1       $L76137                    100f2ad1 f   awt_Window.obj
 0001:000f1adc       $L76138                    100f2adc f   awt_Window.obj
 0001:000f1ba0       $L76148                    100f2ba0 f   awt_Window.obj
 0001:000f1bab       $L76149                    100f2bab f   awt_Window.obj
 0001:000f1c61       $L76159                    100f2c61 f   awt_Window.obj
 0001:000f1c6c       $L76160                    100f2c6c f   awt_Window.obj
 0001:000f1d0b       $L76169                    100f2d0b f   awt_Window.obj
 0001:000f1d16       $L76170                    100f2d16 f   awt_Window.obj
 0001:000f1de0       $L76180                    100f2de0 f   awt_Window.obj
 0001:000f1deb       $L76181                    100f2deb f   awt_Window.obj
 0001:000f1ebc       $L76191                    100f2ebc f   awt_Window.obj
 0001:000f1ec7       $L76192                    100f2ec7 f   awt_Window.obj
 0001:000f1f2d       $L76203                    100f2f2d f   awt_Window.obj
 0001:000f1f3f       $L76204                    100f2f3f f   awt_Window.obj
 0001:000f1fad       $L76219                    100f2fad f   awt_Window.obj
 0001:000f1fbf       $L76220                    100f2fbf f   awt_Window.obj
 0001:000f202d       $L76235                    100f302d f   awt_Window.obj
 0001:000f203f       $L76236                    100f303f f   awt_Window.obj
 0001:000f20ad       $L76251                    100f30ad f   awt_Window.obj
 0001:000f20bf       $L76252                    100f30bf f   awt_Window.obj
 0001:000f212d       $L76267                    100f312d f   awt_Window.obj
 0001:000f213f       $L76268                    100f313f f   awt_Window.obj
 0001:000f21ad       $L76283                    100f31ad f   awt_Window.obj
 0001:000f21bf       $L76284                    100f31bf f   awt_Window.obj
 0001:000f22cc       $L76298                    100f32cc f   awt_Window.obj
 0001:000f22d7       $L76299                    100f32d7 f   awt_Window.obj
 0001:000f239a       $L76309                    100f339a f   awt_Window.obj
 0001:000f23a5       $L76310                    100f33a5 f   awt_Window.obj
 0001:000f2433       $L76321                    100f3433 f   awt_Window.obj
 0001:000f2445       $L76322                    100f3445 f   awt_Window.obj
 0001:000f2507       $L76336                    100f3507 f   awt_Window.obj
 0001:000f2512       $L76337                    100f3512 f   awt_Window.obj
 0001:000f259d       $L76346                    100f359d f   awt_Window.obj
 0001:000f25a8       $L76347                    100f35a8 f   awt_Window.obj
 0001:000f2661       $L76357                    100f3661 f   awt_Window.obj
 0001:000f266c       $L76358                    100f366c f   awt_Window.obj
 0001:000f26ed       $L76367                    100f36ed f   awt_Window.obj
 0001:000f26f8       $L76368                    100f36f8 f   awt_Window.obj
 0001:000f277d       $L76377                    100f377d f   awt_Window.obj
 0001:000f2788       $L76378                    100f3788 f   awt_Window.obj
 0001:000f2841       $L76388                    100f3841 f   awt_Window.obj
 0001:000f284c       $L76389                    100f384c f   awt_Window.obj
 0001:000f2901       $L76399                    100f3901 f   awt_Window.obj
 0001:000f290c       $L76400                    100f390c f   awt_Window.obj
 0001:000f29ec       $L76410                    100f39ec f   awt_Window.obj
 0001:000f29f7       $L76411                    100f39f7 f   awt_Window.obj
 0001:000f2acd       $L76427                    100f3acd f   awt_Window.obj
 0001:000f2ad8       $L76428                    100f3ad8 f   awt_Window.obj
 0001:000f2b88       $L76438                    100f3b88 f   awt_Window.obj
 0001:000f2b93       $L76439                    100f3b93 f   awt_Window.obj
 0001:000f2f20       ?SetProcessDPIAwareProperty@@YAXXZ 100f3f20 f   awt_Win32GraphicsEnv.obj
 0001:000f3020       ?getWinVer@@YAHXZ          100f4020 f   awt_Win32GraphicsEnv.obj
 0001:000f33cb       $L73550                    100f43cb f   awt_Win32GraphicsEnv.obj
 0001:000f33dd       $L73551                    100f43dd f   awt_Win32GraphicsEnv.obj
 0001:000f347b       $L73570                    100f447b f   awt_Win32GraphicsEnv.obj
 0001:000f348d       $L73571                    100f448d f   awt_Win32GraphicsEnv.obj
 0001:000f3780       $L74861                    100f4780 f   awt_Win32GraphicsDevice.obj
 0001:000f40d0       $L74879                    100f50d0 f   awt_Win32GraphicsDevice.obj
 0001:000f5025       $L75059                    100f6025 f   awt_Win32GraphicsDevice.obj
 0001:000f5030       $L75060                    100f6030 f   awt_Win32GraphicsDevice.obj
 0001:000f50f1       $L75075                    100f60f1 f   awt_Win32GraphicsDevice.obj
 0001:000f5103       $L75076                    100f6103 f   awt_Win32GraphicsDevice.obj
 0001:000f5236       $L75093                    100f6236 f   awt_Win32GraphicsDevice.obj
 0001:000f5245       $L75094                    100f6245 f   awt_Win32GraphicsDevice.obj
 0001:000f53ee       $L75109                    100f63ee f   awt_Win32GraphicsDevice.obj
 0001:000f5400       $L75110                    100f6400 f   awt_Win32GraphicsDevice.obj
 0001:000f5524       $L75123                    100f6524 f   awt_Win32GraphicsDevice.obj
 0001:000f552f       $L75124                    100f652f f   awt_Win32GraphicsDevice.obj
 0001:000f5644       $L75139                    100f6644 f   awt_Win32GraphicsDevice.obj
 0001:000f564f       $L75140                    100f664f f   awt_Win32GraphicsDevice.obj
 0001:000f573d       $L75151                    100f673d f   awt_Win32GraphicsDevice.obj
 0001:000f574f       $L75152                    100f674f f   awt_Win32GraphicsDevice.obj
 0001:000f583f       $L75167                    100f683f f   awt_Win32GraphicsDevice.obj
 0001:000f5854       $L75168                    100f6854 f   awt_Win32GraphicsDevice.obj
 0001:000f5890       ?GetAttachedDisplayDevice@@YAHHPAUtagDISPLAY_DEVICE@@@Z 100f6890 f   awt_Win32GraphicsDevice.obj
 0001:000f5a8f       $L75188                    100f6a8f f   awt_Win32GraphicsDevice.obj
 0001:000f5a9a       $L75189                    100f6a9a f   awt_Win32GraphicsDevice.obj
 0001:000f5ba8       $L75198                    100f6ba8 f   awt_Win32GraphicsDevice.obj
 0001:000f5bb3       $L75199                    100f6bb3 f   awt_Win32GraphicsDevice.obj
 0001:000f5cc7       $L75214                    100f6cc7 f   awt_Win32GraphicsDevice.obj
 0001:000f5cd2       $L75215                    100f6cd2 f   awt_Win32GraphicsDevice.obj
 0001:000f5eb2       $L30153                    100f6eb2 f   awt_Win32GraphicsConfig.obj
 0001:000f5ebd       $L30154                    100f6ebd f   awt_Win32GraphicsConfig.obj
 0001:000f62d0       $L75123                    100f72d0 f   awt_DnDDT.obj
 0001:000f62e2       $L75124                    100f72e2 f   awt_DnDDT.obj
 0001:000f65f0       $L75160                    100f75f0 f   awt_DnDDT.obj
 0001:000f6645       $L75161                    100f7645 f   awt_DnDDT.obj
 0001:000f6657       $L75162                    100f7657 f   awt_DnDDT.obj
 0001:000f683c       $L75194                    100f783c f   awt_DnDDT.obj
 0001:000f6885       $L75195                    100f7885 f   awt_DnDDT.obj
 0001:000f6897       $L75196                    100f7897 f   awt_DnDDT.obj
 0001:000f6a10       $L75218                    100f7a10 f   awt_DnDDT.obj
 0001:000f6a55       $L75219                    100f7a55 f   awt_DnDDT.obj
 0001:000f6a67       $L75220                    100f7a67 f   awt_DnDDT.obj
 0001:000f6c69       $L75242                    100f7c69 f   awt_DnDDT.obj
 0001:000f6d21       $L75243                    100f7d21 f   awt_DnDDT.obj
 0001:000f6d33       $L75244                    100f7d33 f   awt_DnDDT.obj
 0001:000f717f       $L75300                    100f817f f   awt_DnDDT.obj
 0001:000f7308       $L75302                    100f8308 f   awt_DnDDT.obj
 0001:000f73ad       $L75304                    100f83ad f   awt_DnDDT.obj
 0001:000f749d       $L75306                    100f849d f   awt_DnDDT.obj
 0001:000f75e0       $L75308                    100f85e0 f   awt_DnDDT.obj
 0001:000f7765       $L75310                    100f8765 f   awt_DnDDT.obj
 0001:000f7f30       ?get_dTCClazz@@YAPAV_jclass@@PAUJNIEnv_@@@Z 100f8f30 f   awt_DnDDT.obj
 0001:000f8bdb       $L75428                    100f9bdb f   awt_DnDDT.obj
 0001:000f8bed       $L75429                    100f9bed f   awt_DnDDT.obj
 0001:000f8c93       $L75442                    100f9c93 f   awt_DnDDT.obj
 0001:000f8c9e       $L75443                    100f9c9e f   awt_DnDDT.obj
 0001:000f8d09       $L75452                    100f9d09 f   awt_DnDDT.obj
 0001:000f8d14       $L75453                    100f9d14 f   awt_DnDDT.obj
 0001:000f8d87       $L75464                    100f9d87 f   awt_DnDDT.obj
 0001:000f8d99       $L75465                    100f9d99 f   awt_DnDDT.obj
 0001:000f8e17       $L75480                    100f9e17 f   awt_DnDDT.obj
 0001:000f8e29       $L75481                    100f9e29 f   awt_DnDDT.obj
 0001:000f8eb3       $L75496                    100f9eb3 f   awt_DnDDT.obj
 0001:000f8ec5       $L75497                    100f9ec5 f   awt_DnDDT.obj
 0001:000f8f29       $L75510                    100f9f29 f   awt_DnDDT.obj
 0001:000f8f34       $L75511                    100f9f34 f   awt_DnDDT.obj
 0001:000f98f0       $L73419                    100fa8f0 f   awt_DnDDS.obj
 0001:000f9cd9       $L73448                    100facd9 f   awt_DnDDS.obj
 0001:000f9ceb       $L73449                    100faceb f   awt_DnDDS.obj
 0001:000f9ea4       $L73470                    100faea4 f   awt_DnDDS.obj
 0001:000f9eb6       $L73471                    100faeb6 f   awt_DnDDS.obj
 0001:000fa101       $L73496                    100fb101 f   awt_DnDDS.obj
 0001:000fa113       $L73497                    100fb113 f   awt_DnDDS.obj
 0001:000fa469       $L73514                    100fb469 f   awt_DnDDS.obj
 0001:000fa47b       $L73515                    100fb47b f   awt_DnDDS.obj
 0001:000faa92       $L73544                    100fba92 f   awt_DnDDS.obj
 0001:000faaa4       $L73545                    100fbaa4 f   awt_DnDDS.obj
 0001:000fadb4       $L73575                    100fbdb4 f   awt_DnDDS.obj
 0001:000fadc6       $L73576                    100fbdc6 f   awt_DnDDS.obj
 0001:000fae3d       $L73595                    100fbe3d f   awt_DnDDS.obj
 0001:000fae4f       $L73596                    100fbe4f f   awt_DnDDS.obj
 0001:000faf0c       $L73611                    100fbf0c f   awt_DnDDS.obj
 0001:000faf1e       $L73612                    100fbf1e f   awt_DnDDS.obj
 0001:000fb09b       $L73635                    100fc09b f   awt_DnDDS.obj
 0001:000fb0ad       $L73636                    100fc0ad f   awt_DnDDS.obj
 0001:000fb2f0       ?get_dSCClazz@@YAPAV_jclass@@PAUJNIEnv_@@@Z 100fc2f0 f   awt_DnDDS.obj
 0001:000fbad8       $L73688                    100fcad8 f   awt_DnDDS.obj
 0001:000fbaea       $L73689                    100fcaea f   awt_DnDDS.obj
 0001:000fbc74       $L73710                    100fcc74 f   awt_DnDDS.obj
 0001:000fbc86       $L73711                    100fcc86 f   awt_DnDDS.obj
 0001:000fbd28       $L73730                    100fcd28 f   awt_DnDDS.obj
 0001:000fbd3a       $L73731                    100fcd3a f   awt_DnDDS.obj
 0001:000fbe62       $L73754                    100fce62 f   awt_DnDDS.obj
 0001:000fbe74       $L73755                    100fce74 f   awt_DnDDS.obj
 0001:000fc388       $L73784                    100fd388 f   awt_DnDDS.obj
 0001:000fc39a       $L73785                    100fd39a f   awt_DnDDS.obj
 0001:000fc50c       $L73808                    100fd50c f   awt_DnDDS.obj
 0001:000fc51e       $L73809                    100fd51e f   awt_DnDDS.obj
 0001:000fc5b2       $L73824                    100fd5b2 f   awt_DnDDS.obj
 0001:000fc5c4       $L73825                    100fd5c4 f   awt_DnDDS.obj
 0001:000fc717       $L73842                    100fd717 f   awt_DnDDS.obj
 0001:000fc729       $L73843                    100fd729 f   awt_DnDDS.obj
 0001:000fc864       $L73861                    100fd864 f   awt_DnDDS.obj
 0001:000fc876       $L73862                    100fd876 f   awt_DnDDS.obj
 0001:000fc940       $L73881                    100fd940 f   awt_DnDDS.obj
 0001:000fc952       $L73882                    100fd952 f   awt_DnDDS.obj
 0001:000fca3b       $L73904                    100fda3b f   awt_DnDDS.obj
 0001:000fca4d       $L73905                    100fda4d f   awt_DnDDS.obj
 0001:000fcace       $L73919                    100fdace f   awt_DnDDS.obj
 0001:000fcad9       $L73920                    100fdad9 f   awt_DnDDS.obj
 0001:000fcc59       $L73939                    100fdc59 f   awt_DnDDS.obj
 0001:000fcc72       $L73940                    100fdc72 f   awt_DnDDS.obj
 0001:000fcd08       $L73954                    100fdd08 f   awt_DnDDS.obj
 0001:000fcd13       $L73955                    100fdd13 f   awt_DnDDS.obj
 0001:000ff1f8       $L31724                    101001f8 f   awt_TrayIcon.obj
 0001:000ff203       $L31725                    10100203 f   awt_TrayIcon.obj
 0001:000ff2a9       $L31736                    101002a9 f   awt_TrayIcon.obj
 0001:000ff2b4       $L31737                    101002b4 f   awt_TrayIcon.obj
 0001:000ff343       $L31746                    10100343 f   awt_TrayIcon.obj
 0001:000ff34e       $L31747                    1010034e f   awt_TrayIcon.obj
 0001:000ff422       $L31757                    10100422 f   awt_TrayIcon.obj
 0001:000ff42d       $L31758                    1010042d f   awt_TrayIcon.obj
 0001:000ff54c       $L31772                    1010054c f   awt_TrayIcon.obj
 0001:000ff65a       $L31773                    1010065a f   awt_TrayIcon.obj
 0001:000ff665       $L31774                    10100665 f   awt_TrayIcon.obj
 0001:000ff721       $L31793                    10100721 f   awt_TrayIcon.obj
 0001:000ff72c       $L31794                    1010072c f   awt_TrayIcon.obj
 0001:000ff85e       $L31804                    1010085e f   awt_TrayIcon.obj
 0001:000ff869       $L31805                    10100869 f   awt_TrayIcon.obj
 0001:00100a60       ?D3DDrawTextureWithHint@@YAJPAVD3DContext@@W4_D3DTEXTUREFILTERTYPE@@JJMMJJJJMMMMMMMM@Z 10101a60 f   D3DBlitLoops.obj
 0001:00101120       ?D3DBlitTextureToSurface@@YAJPAVD3DContext@@PAU_D3DSDOps@@1EW4_D3DTEXTUREFILTERTYPE@@JJJJMMMM@Z 10102120 f   D3DBlitLoops.obj
 0001:001017d0       ?D3DBlitSwToTexture@@YAJPAVD3DContext@@PAUSurfaceDataRasInfo@@HPAU_D3DSDOps@@JJJJ@Z 101027d0 f   D3DBlitLoops.obj
 0001:001030f0       ?D3DContext_DisposeShader@@YAX_J@Z 101040f0 f   D3DContext.obj
 0001:00106b30       ?D3DGlyphCache_FlushGlyphVertexCache@@YAXXZ 10107b30 f   D3DGlyphCache.obj
 0001:0010b020       ?D3DPaints_SetMultiGradientPaint@@YAJPAVD3DContext@@EJPAX1@Z 1010c020 f   D3DPaints.obj
 0001:00111c00       ?D3DTR_DisableGlyphModeState@@YAJPAVD3DContext@@@Z 10112c00 f   D3DTextRenderer.obj
 0001:00111c60       ?D3DTR_DrawGrayscaleGlyphViaCache@@YAJPAVD3DContext@@PAUGlyphInfo@@JJ@Z 10112c60 f   D3DTextRenderer.obj
 0001:00111e00       ?D3DTR_DrawLCDGlyphViaCache@@YAJPAVD3DContext@@PAU_D3DSDOps@@PAUGlyphInfo@@JJJJEJ@Z 10112e00 f   D3DTextRenderer.obj
 0001:001120a0       ?D3DTR_EnableLCDGlyphModeState@@YAJPAVD3DContext@@PAU_D3DSDOps@@EJ@Z 101130a0 f   D3DTextRenderer.obj
 0001:001122a0       ?D3DTR_UpdateLCDTextContrast@@YAJPAVD3DContext@@J@Z 101132a0 f   D3DTextRenderer.obj
 0001:00112340       ?D3DTR_UpdateLCDTextColor@@YAJPAVD3DContext@@J@Z 10113340 f   D3DTextRenderer.obj
 0001:00112430       ?D3DTR_UpdateCachedDestination@@YAJPAVD3DContext@@PAU_D3DSDOps@@PAUGlyphInfo@@JJJJJJJJ@Z 10113430 f   D3DTextRenderer.obj
 0001:001129b0       ?D3DTR_DrawGrayscaleGlyphNoCache@@YAJPAVD3DContext@@PAUGlyphInfo@@JJ@Z 101139b0 f   D3DTextRenderer.obj
 0001:00112b20       ?D3DTR_DrawLCDGlyphNoCache@@YAJPAVD3DContext@@PAU_D3DSDOps@@PAUGlyphInfo@@JJJEJ@Z 10113b20 f   D3DTextRenderer.obj
 0001:00116990       _initShellProcs            10117990 f   ShellFolder2.obj
 0001:00116c70       _getIShellIcon             10117c70 f   ShellFolder2.obj
 0001:00116fb0       _pidlLength                10117fb0 f   ShellFolder2.obj
 0001:00117740       _jstringFromSTRRET         10118740 f   ShellFolder2.obj
 0001:001182e0       _CreateColumnInfo          101192e0 f   ShellFolder2.obj
 0001:001189c0       ?assert_result@@YAXJPAUJNIEnv_@@@Z 101199c0 f   ThemeReader.obj
 0001:00118c40       ?copyDIBToBufferedImage@@YAXPAH0HHHH@Z 10119c40 f   ThemeReader.obj
 0001:00119a95       $L32459                    1011aa95 f   ComCtl32Util.obj
 0001:00119aa7       $L32460                    1011aaa7 f   ComCtl32Util.obj
 0001:0011a5df       $L73627                    1011b5df f   awt_dlls.obj
 0001:0011a615       $L73628                    1011b615 f   awt_dlls.obj
 0001:0011d510       $L27842                    1011e510 f   CmdIDList.obj
 0001:0011d518       __ehhandler$??0AwtCmdIDList@@QAE@XZ 1011e518 f   CmdIDList.obj
 0001:0011d522       $L27867                    1011e522 f   CmdIDList.obj
 0001:0011d52a       __ehhandler$?Add@AwtCmdIDList@@QAEIPAVAwtObject@@@Z 1011e52a f   CmdIDList.obj
 0001:0011d534       $L27879                    1011e534 f   CmdIDList.obj
 0001:0011d53c       __ehhandler$?Lookup@AwtCmdIDList@@QAEPAVAwtObject@@I@Z 1011e53c f   CmdIDList.obj
 0001:0011d550       $L27924                    1011e550 f   Hashtable.obj
 0001:0011d55b       __ehhandler$??0Hashtable@@QAE@PBDP6AXPAX@ZHM@Z 1011e55b f   Hashtable.obj
 0001:0011d565       $L27950                    1011e565 f   Hashtable.obj
 0001:0011d570       __ehhandler$??1Hashtable@@UAE@XZ 1011e570 f   Hashtable.obj
 0001:0011d57a       $L27958                    1011e57a f   Hashtable.obj
 0001:0011d582       __ehhandler$?contains@Hashtable@@QAEHPAX@Z 1011e582 f   Hashtable.obj
 0001:0011d58c       $L27970                    1011e58c f   Hashtable.obj
 0001:0011d594       __ehhandler$?containsKey@Hashtable@@QAEHPAX@Z 1011e594 f   Hashtable.obj
 0001:0011d59e       $L27978                    1011e59e f   Hashtable.obj
 0001:0011d5a6       __ehhandler$?get@Hashtable@@QAEPAXPAX@Z 1011e5a6 f   Hashtable.obj
 0001:0011d5b0       $L27989                    1011e5b0 f   Hashtable.obj
 0001:0011d5b8       __ehhandler$?put@Hashtable@@UAEPAXPAX0@Z 1011e5b8 f   Hashtable.obj
 0001:0011d5c2       $L27998                    1011e5c2 f   Hashtable.obj
 0001:0011d5ca       __ehhandler$?remove@Hashtable@@QAEPAXPAX@Z 1011e5ca f   Hashtable.obj
 0001:0011d5d4       $L28005                    1011e5d4 f   Hashtable.obj
 0001:0011d5dc       __ehhandler$?clear@Hashtable@@QAEXXZ 1011e5dc f   Hashtable.obj
 0001:0011d5f0       $L73378                    1011e5f0 f   GDIHashtable.obj
 0001:0011d5f8       __ehhandler$?flush@GDIHashtable@@QAEXXZ 1011e5f8 f   GDIHashtable.obj
 0001:0011d602       $L73394                    1011e602 f   GDIHashtable.obj
 0001:0011d60a       __ehhandler$?flushAll@List@GDIHashtable@@QAEXXZ 1011e60a f   GDIHashtable.obj
 0001:0011d614       $L73401                    1011e614 f   GDIHashtable.obj
 0001:0011d61c       __ehhandler$?add@List@GDIHashtable@@QAEXPAV2@@Z 1011e61c f   GDIHashtable.obj
 0001:0011d626       $L73408                    1011e626 f   GDIHashtable.obj
 0001:0011d62e       __ehhandler$?remove@List@GDIHashtable@@QAEXPAV2@@Z 1011e62e f   GDIHashtable.obj
 0001:0011d638       $L73415                    1011e638 f   GDIHashtable.obj
 0001:0011d640       __ehhandler$?clear@List@GDIHashtable@@AAEXXZ 1011e640 f   GDIHashtable.obj
 0001:0011d64a       $L73421                    1011e64a f   GDIHashtable.obj
 0001:0011d655       $L73422                    1011e655 f   GDIHashtable.obj
 0001:0011d660       __ehhandler$??0BatchDestructionManager@GDIHashtable@@QAE@III@Z 1011e660 f   GDIHashtable.obj
 0001:0011d66a       $L73450                    1011e66a f   GDIHashtable.obj
 0001:0011d672       __ehhandler$?update@BatchDestructionManager@GDIHashtable@@QAEXXZ 1011e672 f   GDIHashtable.obj
 0001:0011d680       $L73441                    1011e680 f   GDIHashtable.obj
 0001:0011d68b       __ehhandler$??1List@GDIHashtable@@QAE@XZ 1011e68b f   GDIHashtable.obj
 0001:0011d6a0       $L73462                    1011e6a0 f   GDIHashtable.obj
 0001:0011d6ab       __ehhandler$??1BatchDestructionManager@GDIHashtable@@QAE@XZ 1011e6ab f   GDIHashtable.obj
 0001:0011d6c0       $L53140                    1011e6c0 f   Devices.obj
 0001:0011d6d4       $L53141                    1011e6d4 f   Devices.obj
 0001:0011d6e8       $L53142                    1011e6e8 f   Devices.obj
 0001:0011d6f0       __ehhandler$?UpdateInstance@Devices@@SAHPAUJNIEnv_@@@Z 1011e6f0 f   Devices.obj
 0001:0011d6fa       $L53161                    1011e6fa f   Devices.obj
 0001:0011d702       __ehhandler$?GetInstance@Devices@@CAPAV1@XZ 1011e702 f   Devices.obj
 0001:0011d70c       $L53177                    1011e70c f   Devices.obj
 0001:0011d714       __ehhandler$?Release@Devices@@QAEHXZ 1011e714 f   Devices.obj
 0001:0011d720       $L27876                    1011e720 f   ObjectList.obj
 0001:0011d728       $L27877                    1011e728 f   ObjectList.obj
 0001:0011d73c       __ehhandler$?Add@AwtObjectList@@QAEXPAVAwtObject@@@Z 1011e73c f   ObjectList.obj
 0001:0011d746       $L27894                    1011e746 f   ObjectList.obj
 0001:0011d74e       __ehhandler$?Remove@AwtObjectList@@QAEXPAVAwtObject@@@Z 1011e74e f   ObjectList.obj
 0001:0011d758       $L27902                    1011e758 f   ObjectList.obj
 0001:0011d760       __ehhandler$?LookUp@AwtObjectList@@QAEPAVAwtObject@@PAV2@@Z 1011e760 f   ObjectList.obj
 0001:0011d76a       $L27912                    1011e76a f   ObjectList.obj
 0001:0011d772       __ehhandler$?Cleanup@AwtObjectList@@SAXXZ 1011e772 f   ObjectList.obj
 0001:0011d780       __ehhandler$_GDIWindowSurfaceData_GetComp@8 1011e780 f   GDIWindowSurfaceData.obj
 0001:0011d790       __ehhandler$_Java_sun_print_Win32PrintServiceLookup_getDefaultPrinterName@8 1011e790 f   WPrinterJob.obj
 0001:0011d79a       __ehhandler$_Java_sun_print_Win32PrintServiceLookup_getAllPrinterNames@8 1011e79a f   WPrinterJob.obj
 0001:0011d7a4       __ehhandler$_Java_sun_print_Win32PrintService_getMediaPrintableArea@16 1011e7a4 f   WPrinterJob.obj
 0001:0011d7ae       __ehhandler$_Java_sun_print_Win32PrintService_getAllMediaIDs@16 1011e7ae f   WPrinterJob.obj
 0001:0011d7b8       __ehhandler$_Java_sun_print_Win32PrintService_getAllMediaTrays@16 1011e7b8 f   WPrinterJob.obj
 0001:0011d7c2       __ehhandler$_Java_sun_print_Win32PrintService_getAllMediaSizes@16 1011e7c2 f   WPrinterJob.obj
 0001:0011d7cc       __ehhandler$_getAllDCNames 1011e7cc f   WPrinterJob.obj
 0001:0011d7d6       __ehhandler$_Java_sun_print_Win32PrintService_getAllResolutions@16 1011e7d6 f   WPrinterJob.obj
 0001:0011d7e0       __ehhandler$_Java_sun_print_Win32PrintService_getPrinterPort@12 1011e7e0 f   WPrinterJob.obj
 0001:0011d7ea       __ehhandler$_Java_sun_print_Win32PrintService_getDefaultSettings@12 1011e7ea f   WPrinterJob.obj
 0001:0011d7f4       __ehhandler$_Java_sun_print_Win32PrintJob_printRawData@16 1011e7f4 f   WPrinterJob.obj
 0001:0011d800       $L24116                    1011e800 f   RegistryKey.obj
 0001:0011d808       __ehhandler$?GetIntValue@RegistryKey@@SAHPAG0@Z 1011e808 f   RegistryKey.obj
 0001:0011d812       $L24128                    1011e812 f   RegistryKey.obj
 0001:0011d81a       __ehhandler$?SetIntValue@RegistryKey@@SAHPAG0HH@Z 1011e81a f   RegistryKey.obj
 0001:0011d830       __ehhandler$_Java_java_awt_AWTEvent_initIDs@8 1011e830 f   awt_AWTEvent.obj
 0001:0011d83a       __ehhandler$_Java_java_awt_AWTEvent_nativeSetSource@12 1011e83a f   awt_AWTEvent.obj
 0001:0011d850       $L28024                    1011e850 f   awt_Brush.obj
 0001:0011d858       __ehhandler$??0AwtBrush@@AAE@K@Z 1011e858 f   awt_Brush.obj
 0001:0011d862       $L28058                    1011e862 f   awt_Brush.obj
 0001:0011d86a       $L28059                    1011e86a f   awt_Brush.obj
 0001:0011d87e       __ehhandler$?Get@AwtBrush@@SAPAV1@K@Z 1011e87e f   awt_Brush.obj
 0001:0011d888       $L28075                    1011e888 f   awt_Brush.obj
 0001:0011d890       __ehhandler$?ReleaseInCache@AwtBrush@@MAEXXZ 1011e890 f   awt_Brush.obj
 0001:0011d8a0       $L28106                    1011e8a0 f   awt_Brush.obj
 0001:0011d8a0       $L28093                    1011e8a0 f   awt_Brush.obj
 0001:0011d8a8       __ehhandler$??0GDIHashtable@@QAE@PBDP6AXPAX@ZHM@Z 1011e8a8 f   awt_Brush.obj
 0001:0011d8a8       __ehhandler$??1GDIHashtable@@UAE@XZ 1011e8a8 f   awt_Brush.obj
 0001:0011d8c0       $L31070                    1011e8c0 f   awt_Button.obj
 0001:0011d8d4       __ehhandler$?Create@AwtButton@@SAPAV1@PAV_jobject@@0@Z 1011e8d4 f   awt_Button.obj
 0001:0011d8de       __ehhandler$_Java_sun_awt_windows_WButtonPeer_initIDs@8 1011e8de f   awt_Button.obj
 0001:0011d8e8       __ehhandler$_Java_sun_awt_windows_WButtonPeer_setLabel@12 1011e8e8 f   awt_Button.obj
 0001:0011d8f2       __ehhandler$_Java_sun_awt_windows_WButtonPeer_create@12 1011e8f2 f   awt_Button.obj
 0001:0011d900       $L30906                    1011e900 f   awt_Canvas.obj
 0001:0011d914       __ehhandler$?Create@AwtCanvas@@SAPAV1@PAV_jobject@@0@Z 1011e914 f   awt_Canvas.obj
 0001:0011d91e       __ehhandler$_Java_sun_awt_windows_WCanvasPeer_create@12 1011e91e f   awt_Canvas.obj
 0001:0011d928       __ehhandler$_Java_sun_awt_windows_WCanvasPeer_setNativeBackgroundErase@16 1011e928 f   awt_Canvas.obj
 0001:0011d940       $L31259                    1011e940 f   awt_Checkbox.obj
 0001:0011d954       __ehhandler$?Create@AwtCheckbox@@SAPAV1@PAV_jobject@@0@Z 1011e954 f   awt_Checkbox.obj
 0001:0011d95e       $L31350                    1011e95e f   awt_Checkbox.obj
 0001:0011d966       __ehhandler$?VerifyState@AwtCheckbox@@UAEXXZ 1011e966 f   awt_Checkbox.obj
 0001:0011d970       __ehhandler$_Java_java_awt_Checkbox_initIDs@8 1011e970 f   awt_Checkbox.obj
 0001:0011d97a       __ehhandler$_Java_sun_awt_windows_WCheckboxPeer_setState@12 1011e97a f   awt_Checkbox.obj
 0001:0011d984       __ehhandler$_Java_sun_awt_windows_WCheckboxPeer_setCheckboxGroup@12 1011e984 f   awt_Checkbox.obj
 0001:0011d98e       __ehhandler$_Java_sun_awt_windows_WCheckboxPeer_setLabel@12 1011e98e f   awt_Checkbox.obj
 0001:0011d998       __ehhandler$_Java_sun_awt_windows_WCheckboxPeer_create@12 1011e998 f   awt_Checkbox.obj
 0001:0011d9b0       $L30935                    1011e9b0 f   awt_Choice.obj
 0001:0011d9c4       __ehhandler$?Create@AwtChoice@@SAPAV1@PAV_jobject@@0@Z 1011e9c4 f   awt_Choice.obj
 0001:0011d9ce       $L31028                    1011e9ce f   awt_Choice.obj
 0001:0011d9d6       __ehhandler$?_AddItems@AwtChoice@@SAXPAX@Z 1011e9d6 f   awt_Choice.obj
 0001:0011d9e0       __ehhandler$_Java_sun_awt_windows_WChoicePeer_select@12 1011e9e0 f   awt_Choice.obj
 0001:0011d9ea       __ehhandler$_Java_sun_awt_windows_WChoicePeer_remove@12 1011e9ea f   awt_Choice.obj
 0001:0011d9f4       __ehhandler$_Java_sun_awt_windows_WChoicePeer_removeAll@8 1011e9f4 f   awt_Choice.obj
 0001:0011d9fe       __ehhandler$_Java_sun_awt_windows_WChoicePeer_addItems@16 1011e9fe f   awt_Choice.obj
 0001:0011da08       __ehhandler$_Java_sun_awt_windows_WChoicePeer_reshape@24 1011ea08 f   awt_Choice.obj
 0001:0011da12       __ehhandler$_Java_sun_awt_windows_WChoicePeer_create@12 1011ea12 f   awt_Choice.obj
 0001:0011da20       $L30969                    1011ea20 f   awt_Choice.obj
 0001:0011da37       __ehhandler$?PushChild@AwtComponent@@QAEXIPAV1@@Z 1011ea37 f   awt_Choice.obj
 0001:0011da50       __ehhandler$?UnregisterClipboardViewer@AwtClipboard@@SAXPAUJNIEnv_@@@Z 1011ea50 f   awt_Clipboard.obj
 0001:0011da5a       __ehhandler$_Java_sun_awt_windows_WClipboard_init@8 1011ea5a f   awt_Clipboard.obj
 0001:0011da64       __ehhandler$_Java_sun_awt_windows_WClipboard_openClipboard@12 1011ea64 f   awt_Clipboard.obj
 0001:0011da6e       __ehhandler$_Java_sun_awt_windows_WClipboard_closeClipboard@8 1011ea6e f   awt_Clipboard.obj
 0001:0011da78       __ehhandler$_Java_sun_awt_windows_WClipboard_registerClipboardViewer@8 1011ea78 f   awt_Clipboard.obj
 0001:0011da82       __ehhandler$_Java_sun_awt_windows_WClipboard_publishClipboardData@20 1011ea82 f   awt_Clipboard.obj
 0001:0011da8c       __ehhandler$_Java_sun_awt_windows_WClipboard_getClipboardFormats@8 1011ea8c f   awt_Clipboard.obj
 0001:0011da96       __ehhandler$_Java_sun_awt_windows_WClipboard_getClipboardData@16 1011ea96 f   awt_Clipboard.obj
 0001:0011daa0       __ehhandler$_Java_java_awt_Color_initIDs@8 1011eaa0 f   awt_Color.obj
 0001:0011daaa       __ehhandler$_Java_sun_awt_windows_WColor_getDefaultColor@12 1011eaaa f   awt_Color.obj
 0001:0011dac0       $L62541                    1011eac0 f   awt_Component.obj
 0001:0011dac8       __ehhandler$??1AwtComponent@@UAE@XZ 1011eac8 f   awt_Component.obj
 0001:0011dad2       __ehhandler$?WndProc@AwtComponent@@SGJPAUHWND__@@IIJ@Z 1011ead2 f   awt_Component.obj
 0001:0011dadc       $L62693                    1011eadc f   awt_Component.obj
 0001:0011dae4       __ehhandler$?WindowProc@AwtComponent@@UAEJIIJ@Z 1011eae4 f   awt_Component.obj
 0001:0011daee       $L62833                    1011eaee f   awt_Component.obj
 0001:0011dafc       __ehhandler$?WindowsKeyToJavaChar@AwtComponent@@QAEIIIW4TransOps@1@@Z 1011eafc f   awt_Component.obj
 0001:0011db06       $L62873                    1011eb06 f   awt_Component.obj
 0001:0011db1d       __ehhandler$?WmImeComposition@AwtComponent@@UAE?AW4MsgRouting@@GJ@Z 1011eb1d f   awt_Component.obj
 0001:0011db27       $L63001                    1011eb27 f   awt_Component.obj
 0001:0011db2f       __ehhandler$?SendKeyEvent@AwtComponent@@QAEXJ_JJJJJ0PAUtagMSG@@@Z 1011eb2f f   awt_Component.obj
 0001:0011db39       $L63025                    1011eb39 f   awt_Component.obj
 0001:0011db41       __ehhandler$?SendMouseEvent@AwtComponent@@QAEXJ_JJJJJEJPAUtagMSG@@@Z 1011eb41 f   awt_Component.obj
 0001:0011db4b       $L63033                    1011eb4b f   awt_Component.obj
 0001:0011db53       __ehhandler$?SendMouseWheelEvent@AwtComponent@@QAEXJ_JJJJJEJJJPAUtagMSG@@@Z 1011eb53 f   awt_Component.obj
 0001:0011db5d       $L63039                    1011eb5d f   awt_Component.obj
 0001:0011db65       __ehhandler$?SendFocusEvent@AwtComponent@@QAEXJPAUHWND__@@@Z 1011eb65 f   awt_Component.obj
 0001:0011db6f       $L63069                    1011eb6f f   awt_Component.obj
 0001:0011db77       __ehhandler$?Enable@AwtComponent@@UAEXH@Z 1011eb77 f   awt_Component.obj
 0001:0011db81       $L63085                    1011eb81 f   awt_Component.obj
 0001:0011db98       __ehhandler$?CreateDropTarget@AwtComponent@@UAEPAVAwtDropTarget@@PAUJNIEnv_@@@Z 1011eb98 f   awt_Component.obj
 0001:0011dba2       __ehhandler$_AwtComponent_GetInsets 1011eba2 f   awt_Component.obj
 0001:0011dbac       __ehhandler$_Java_java_awt_Component_initIDs@8 1011ebac f   awt_Component.obj
 0001:0011dbb6       __ehhandler$_Java_sun_awt_windows_WComponentPeer_pShow@8 1011ebb6 f   awt_Component.obj
 0001:0011dbc0       __ehhandler$_Java_sun_awt_windows_WComponentPeer_hide@8 1011ebc0 f   awt_Component.obj
 0001:0011dbca       __ehhandler$_Java_sun_awt_windows_WComponentPeer_enable@8 1011ebca f   awt_Component.obj
 0001:0011dbd4       __ehhandler$_Java_sun_awt_windows_WComponentPeer_disable@8 1011ebd4 f   awt_Component.obj
 0001:0011dbde       __ehhandler$_Java_sun_awt_windows_WComponentPeer_getLocationOnScreen@8 1011ebde f   awt_Component.obj
 0001:0011dbe8       __ehhandler$_Java_sun_awt_windows_WComponentPeer_reshape@24 1011ebe8 f   awt_Component.obj
 0001:0011dbf2       __ehhandler$_Java_sun_awt_windows_WComponentPeer_reshapeNoCheck@24 1011ebf2 f   awt_Component.obj
 0001:0011dbfc       __ehhandler$_Java_sun_awt_windows_WComponentPeer_nativeHandleEvent@12 1011ebfc f   awt_Component.obj
 0001:0011dc06       __ehhandler$_Java_sun_awt_windows_WComponentPeer__1dispose@8 1011ec06 f   awt_Component.obj
 0001:0011dc10       __ehhandler$_Java_sun_awt_windows_WComponentPeer__1setForeground@12 1011ec10 f   awt_Component.obj
 0001:0011dc1a       __ehhandler$_Java_sun_awt_windows_WComponentPeer__1setBackground@12 1011ec1a f   awt_Component.obj
 0001:0011dc24       __ehhandler$_Java_sun_awt_windows_WComponentPeer__1setFont@12 1011ec24 f   awt_Component.obj
 0001:0011dc2e       __ehhandler$_Java_sun_awt_windows_WComponentPeer__1requestFocus@32 1011ec2e f   awt_Component.obj
 0001:0011dc38       __ehhandler$_Java_sun_awt_windows_WComponentPeer_start@8 1011ec38 f   awt_Component.obj
 0001:0011dc42       __ehhandler$_Java_sun_awt_windows_WComponentPeer_beginValidate@8 1011ec42 f   awt_Component.obj
 0001:0011dc4c       __ehhandler$_Java_sun_awt_windows_WComponentPeer_endValidate@8 1011ec4c f   awt_Component.obj
 0001:0011dc56       __ehhandler$_Java_sun_awt_windows_WComponentPeer_updateWindow@8 1011ec56 f   awt_Component.obj
 0001:0011dc60       __ehhandler$_Java_sun_awt_windows_WComponentPeer_addNativeDropTarget@8 1011ec60 f   awt_Component.obj
 0001:0011dc6a       __ehhandler$_Java_sun_awt_windows_WComponentPeer_removeNativeDropTarget@8 1011ec6a f   awt_Component.obj
 0001:0011dc74       __ehhandler$_Java_sun_awt_windows_WComponentPeer_getTargetGC@8 1011ec74 f   awt_Component.obj
 0001:0011dc7e       __ehhandler$_Java_sun_awt_windows_WComponentPeer_createPrintedPixels@28 1011ec7e f   awt_Component.obj
 0001:0011dc88       __ehhandler$_Java_sun_awt_windows_WComponentPeer_nativeHandlesWheelScrolling@8 1011ec88 f   awt_Component.obj
 0001:0011dc92       __ehhandler$_Java_sun_awt_windows_WComponentPeer_isObscured@8 1011ec92 f   awt_Component.obj
 0001:0011dc9c       __ehhandler$_Java_sun_awt_windows_WComponentPeer_processSynchronousLightweightTransfer@32 1011ec9c f   awt_Component.obj
 0001:0011dca6       __ehhandler$_Java_sun_awt_windows_WComponentPeer_pSetParent@12 1011eca6 f   awt_Component.obj
 0001:0011dcb0       __ehhandler$_Java_sun_awt_windows_WComponentPeer_setRectangularShape@28 1011ecb0 f   awt_Component.obj
 0001:0011dcc0       __ehhandler$_Java_java_awt_Container_initIDs@8 1011ecc0 f   awt_Container.obj
 0001:0011dcd0       $L31283                    1011ecd0 f   awt_Cursor.obj
 0001:0011dcd8       __ehhandler$??0AwtCursor@@QAE@PAUJNIEnv_@@PAUHICON__@@PAV_jobject@@@Z 1011ecd8 f   awt_Cursor.obj
 0001:0011dce2       $L31299                    1011ece2 f   awt_Cursor.obj
 0001:0011dcea       __ehhandler$??0AwtCursor@@QAE@PAUJNIEnv_@@PAUHICON__@@PAV_jobject@@HHHHHPAHPAE@Z 1011ecea f   awt_Cursor.obj
 0001:0011dcf4       $L31307                    1011ecf4 f   awt_Cursor.obj
 0001:0011dcfc       __ehhandler$??1AwtCursor@@UAE@XZ 1011ecfc f   awt_Cursor.obj
 0001:0011dd06       $L31327                    1011ed06 f   awt_Cursor.obj
 0001:0011dd1d       __ehhandler$?CreateSystemCursor@AwtCursor@@SAPAV1@PAV_jobject@@@Z 1011ed1d f   awt_Cursor.obj
 0001:0011dd27       __ehhandler$_Java_java_awt_Cursor_initIDs@8 1011ed27 f   awt_Cursor.obj
 0001:0011dd31       __ehhandler$_Java_java_awt_Cursor_finalizeImpl@16 1011ed31 f   awt_Cursor.obj
 0001:0011dd3b       $L31418                    1011ed3b f   awt_Cursor.obj
 0001:0011dd52       __ehhandler$_Java_sun_awt_windows_WCustomCursor_createCursorIndirect@36 1011ed52 f   awt_Cursor.obj
 0001:0011dd5c       __ehhandler$_Java_sun_awt_windows_WCustomCursor_getCursorWidth@8 1011ed5c f   awt_Cursor.obj
 0001:0011dd66       __ehhandler$_Java_sun_awt_windows_WCustomCursor_getCursorHeight@8 1011ed66 f   awt_Cursor.obj
 0001:0011dd70       __ehhandler$_Java_sun_awt_windows_WGlobalCursorManager_getCursorPos@12 1011ed70 f   awt_Cursor.obj
 0001:0011dd7a       __ehhandler$_Java_sun_awt_windows_WGlobalCursorManager_setCursor@20 1011ed7a f   awt_Cursor.obj
 0001:0011dd84       __ehhandler$_Java_sun_awt_windows_WGlobalCursorManager_findHeavyweightUnderCursor@12 1011ed84 f   awt_Cursor.obj
 0001:0011dd8e       __ehhandler$_Java_sun_awt_windows_WGlobalCursorManager_findComponentAt@20 1011ed8e f   awt_Cursor.obj
 0001:0011dd98       __ehhandler$_Java_sun_awt_windows_WGlobalCursorManager_getLocationOnScreen@12 1011ed98 f   awt_Cursor.obj
 0001:0011ddb0       __ehhandler$_Java_sun_awt_windows_WDataTransferer_dragQueryFile@12 1011edb0 f   awt_DataTransferer.obj
 0001:0011ddba       __ehhandler$_Java_sun_awt_windows_WDataTransferer_platformImageBytesToImageData@20 1011edba f   awt_DataTransferer.obj
 0001:0011ddc4       __ehhandler$_Java_sun_awt_windows_WDataTransferer_imageDataToPlatformImageBytes@28 1011edc4 f   awt_DataTransferer.obj
 0001:0011ddce       __ehhandler$_Java_sun_awt_windows_WDataTransferer_registerClipboardFormat@12 1011edce f   awt_DataTransferer.obj
 0001:0011ddd8       __ehhandler$_Java_sun_awt_windows_WDataTransferer_getClipboardFormatName@16 1011edd8 f   awt_DataTransferer.obj
 0001:0011dde2       __ehhandler$_Java_sun_awt_windows_WToolkitThreadBlockedHandler_startSecondaryEventLoop@8 1011ede2 f   awt_DataTransferer.obj
 0001:0011ddf0       __ehhandler$_Java_java_awt_Dimension_initIDs@8 1011edf0 f   awt_Dimension.obj
 0001:0011de00       __ehhandler$_Java_sun_awt_windows_WDesktopProperties_initIDs@8 1011ee00 f   awt_DesktopProperties.obj
 0001:0011de0a       $L76867                    1011ee0a f   awt_DesktopProperties.obj
 0001:0011de21       __ehhandler$_Java_sun_awt_windows_WDesktopProperties_init@8 1011ee21 f   awt_DesktopProperties.obj
 0001:0011de2b       __ehhandler$_Java_sun_awt_windows_WDesktopProperties_getWindowsParameters@8 1011ee2b f   awt_DesktopProperties.obj
 0001:0011de35       __ehhandler$_Java_sun_awt_windows_WDesktopProperties_playWindowsSound@12 1011ee35 f   awt_DesktopProperties.obj
 0001:0011de40       $L31903                    1011ee40 f   awt_Dialog.obj
 0001:0011de48       __ehhandler$??1AwtDialog@@UAE@XZ 1011ee48 f   awt_Dialog.obj
 0001:0011de52       $L31927                    1011ee52 f   awt_Dialog.obj
 0001:0011de66       __ehhandler$?Create@AwtDialog@@SAPAV1@PAV_jobject@@0@Z 1011ee66 f   awt_Dialog.obj
 0001:0011de70       __ehhandler$_Java_java_awt_Dialog_initIDs@8 1011ee70 f   awt_Dialog.obj
 0001:0011de7a       __ehhandler$_Java_sun_awt_windows_WDialogPeer_create@12 1011ee7a f   awt_Dialog.obj
 0001:0011de84       __ehhandler$_Java_sun_awt_windows_WDialogPeer_showModal@8 1011ee84 f   awt_Dialog.obj
 0001:0011de8e       __ehhandler$_Java_sun_awt_windows_WDialogPeer_endModal@8 1011ee8e f   awt_Dialog.obj
 0001:0011de98       __ehhandler$_Java_sun_awt_windows_WDialogPeer_pSetIMMOption@12 1011ee98 f   awt_Dialog.obj
 0001:0011deb0       __ehhandler$?Init@JAWTDrawingSurfaceInfo@@QAEJPAVJAWTDrawingSurface@@@Z 1011eeb0 f   awt_DrawingSurface.obj
 0001:0011deba       __ehhandler$?Init@JAWTOffscreenDrawingSurfaceInfo@@QAEJPAVJAWTOffscreenDrawingSurface@@@Z 1011eeba f   awt_DrawingSurface.obj
 0001:0011dec4       __ehhandler$??0JAWTDrawingSurface@@QAE@PAUJNIEnv_@@PAV_jobject@@@Z 1011eec4 f   awt_DrawingSurface.obj
 0001:0011dece       __ehhandler$??1JAWTDrawingSurface@@UAE@XZ 1011eece f   awt_DrawingSurface.obj
 0001:0011ded8       __ehhandler$?GetDSI@JAWTDrawingSurface@@SGPAUjawt_DrawingSurfaceInfo@@PAUjawt_DrawingSurface@@@Z 1011eed8 f   awt_DrawingSurface.obj
 0001:0011dee2       __ehhandler$?FreeDSI@JAWTDrawingSurface@@SGXPAUjawt_DrawingSurfaceInfo@@@Z 1011eee2 f   awt_DrawingSurface.obj
 0001:0011deec       __ehhandler$?LockSurface@JAWTDrawingSurface@@SGJPAUjawt_DrawingSurface@@@Z 1011eeec f   awt_DrawingSurface.obj
 0001:0011def6       __ehhandler$?UnlockSurface@JAWTDrawingSurface@@SGXPAUjawt_DrawingSurface@@@Z 1011eef6 f   awt_DrawingSurface.obj
 0001:0011df00       $L53808                    1011ef00 f   awt_DrawingSurface.obj
 0001:0011df08       __ehhandler$??0JAWTOffscreenDrawingSurface@@QAE@PAUJNIEnv_@@PAV_jobject@@@Z 1011ef08 f   awt_DrawingSurface.obj
 0001:0011df12       $L53820                    1011ef12 f   awt_DrawingSurface.obj
 0001:0011df1a       __ehhandler$??1JAWTOffscreenDrawingSurface@@UAE@XZ 1011ef1a f   awt_DrawingSurface.obj
 0001:0011df24       __ehhandler$?GetDSI@JAWTOffscreenDrawingSurface@@SGPAUjawt_DrawingSurfaceInfo@@PAUjawt_DrawingSurface@@@Z 1011ef24 f   awt_DrawingSurface.obj
 0001:0011df2e       $L53860                    1011ef2e f   awt_DrawingSurface.obj
 0001:0011df45       __ehhandler$_DSGetDrawingSurface@8 1011ef45 f   awt_DrawingSurface.obj
 0001:0011df4f       __ehhandler$_DSFreeDrawingSurface@4 1011ef4f f   awt_DrawingSurface.obj
 0001:0011df60       $L73744                    1011ef60 f   awt_FileDialog.obj
 0001:0011df6b       $L73745                    1011ef6b f   awt_FileDialog.obj
 0001:0011df76       __ehhandler$?Show@AwtFileDialog@@SAXPAX@Z 1011ef76 f   awt_FileDialog.obj
 0001:0011df80       __ehhandler$?FileDialogHookProc@@YGIPAUHWND__@@IIJ@Z 1011ef80 f   awt_FileDialog.obj
 0001:0011df8a       __ehhandler$_Java_sun_awt_windows_WFileDialogPeer_initIDs@8 1011ef8a f   awt_FileDialog.obj
 0001:0011df94       __ehhandler$_Java_sun_awt_windows_WFileDialogPeer_setFilterString@12 1011ef94 f   awt_FileDialog.obj
 0001:0011df9e       __ehhandler$_Java_sun_awt_windows_WFileDialogPeer__1show@8 1011ef9e f   awt_FileDialog.obj
 0001:0011dfa8       __ehhandler$_Java_sun_awt_windows_WFileDialogPeer__1dispose@8 1011efa8 f   awt_FileDialog.obj
 0001:0011dfb2       __ehhandler$_Java_sun_awt_windows_WFileDialogPeer__1hide@8 1011efb2 f   awt_FileDialog.obj
 0001:0011dfbc       __ehhandler$_Java_sun_awt_windows_WFileDialogPeer_toFront@8 1011efbc f   awt_FileDialog.obj
 0001:0011dfc6       __ehhandler$_Java_sun_awt_windows_WFileDialogPeer_toBack@8 1011efc6 f   awt_FileDialog.obj
 0001:0011dfd0       __ehhandler$_Java_java_awt_Event_initIDs@8 1011efd0 f   awt_Event.obj
 0001:0011dfe0       $L32634                    1011efe0 f   awt_Font.obj
 0001:0011dfe8       __ehhandler$??0AwtFont@@QAE@HPAUJNIEnv_@@PAV_jobject@@@Z 1011efe8 f   awt_Font.obj
 0001:0011dff2       $L32651                    1011eff2 f   awt_Font.obj
 0001:0011dffa       __ehhandler$??1AwtFont@@UAE@XZ 1011effa f   awt_Font.obj
 0001:0011e004       $L32680                    1011f004 f   awt_Font.obj
 0001:0011e01b       __ehhandler$?Create@AwtFont@@SAPAV1@PAUJNIEnv_@@PAV_jobject@@JM@Z 1011f01b f   awt_Font.obj
 0001:0011e025       __ehhandler$?DrawStringSize_sub@AwtFont@@SA?AUtagSIZE@@PAV_jstring@@PAUHDC__@@PAV_jobject@@JJHI@Z 1011f025 f   awt_Font.obj
 0001:0011e02f       __ehhandler$_Java_sun_awt_windows_WFontMetrics_stringWidth@12 1011f02f f   awt_Font.obj
 0001:0011e039       __ehhandler$_Java_sun_awt_windows_WFontMetrics_charsWidth@20 1011f039 f   awt_Font.obj
 0001:0011e043       __ehhandler$_Java_sun_awt_windows_WFontMetrics_bytesWidth@20 1011f043 f   awt_Font.obj
 0001:0011e04d       __ehhandler$_Java_sun_awt_windows_WFontMetrics_init@8 1011f04d f   awt_Font.obj
 0001:0011e057       __ehhandler$_Java_sun_awt_windows_WFontMetrics_initIDs@8 1011f057 f   awt_Font.obj
 0001:0011e061       __ehhandler$_Java_java_awt_Font_initIDs@8 1011f061 f   awt_Font.obj
 0001:0011e06b       __ehhandler$_Java_java_awt_Font_pDispose@8 1011f06b f   awt_Font.obj
 0001:0011e075       __ehhandler$_Java_java_awt_FontMetrics_initIDs@8 1011f075 f   awt_Font.obj
 0001:0011e07f       __ehhandler$_Java_sun_awt_FontDescriptor_initIDs@8 1011f07f f   awt_Font.obj
 0001:0011e089       __ehhandler$_Java_sun_awt_PlatformFont_initIDs@8 1011f089 f   awt_Font.obj
 0001:0011e093       __ehhandler$_Java_sun_awt_windows_WFontPeer_initIDs@8 1011f093 f   awt_Font.obj
 0001:0011e09d       $L32942                    1011f09d f   awt_Font.obj
 0001:0011e0b4       __ehhandler$?Add@AwtFontCache@@QAEXPAGPAUHFONT__@@@Z 1011f0b4 f   awt_Font.obj
 0001:0011e0be       $L32984                    1011f0be f   awt_Font.obj
 0001:0011e0c6       __ehhandler$??1CSegTable@@UAE@XZ 1011f0c6 f   awt_Font.obj
 0001:0011e0d0       __ehhandler$?MakeTable@CSegTable@@IAEXXZ 1011f0d0 f   awt_Font.obj
 0001:0011e0da       $L33054                    1011f0da f   awt_Font.obj
 0001:0011e0f1       $L33055                    1011f0f1 f   awt_Font.obj
 0001:0011e108       __ehhandler$?GetTable@CSegTableManager@@QAEPAVCSegTable@@PAGH@Z 1011f108 f   awt_Font.obj
 0001:0011e112       $L33078                    1011f112 f   awt_Font.obj
 0001:0011e129       __ehhandler$?GetTable@CCombinedSegTableManager@@QAEPAVCCombinedSegTable@@PAG@Z 1011f129 f   awt_Font.obj
 0001:0011e133       __ehhandler$_Java_sun_awt_windows_WDefaultFontCharset_initIDs@8 1011f133 f   awt_Font.obj
 0001:0011e13d       $L33101                    1011f13d f   awt_Font.obj
 0001:0011e14b       __ehhandler$_Java_sun_awt_windows_WDefaultFontCharset_canConvert@12 1011f14b f   awt_Font.obj
 0001:0011e160       $L34979                    1011f160 f   awt_Frame.obj
 0001:0011e168       __ehhandler$??1AwtFrame@@UAE@XZ 1011f168 f   awt_Frame.obj
 0001:0011e172       $L34997                    1011f172 f   awt_Frame.obj
 0001:0011e189       __ehhandler$?Create@AwtFrame@@SAPAV1@PAV_jobject@@0@Z 1011f189 f   awt_Frame.obj
 0001:0011e193       __ehhandler$?ProxyWindowProc@AwtFrame@@CGJPAUHWND__@@IIJ@Z 1011f193 f   awt_Frame.obj
 0001:0011e19d       __ehhandler$_Java_java_awt_Frame_initIDs@8 1011f19d f   awt_Frame.obj
 0001:0011e1a7       __ehhandler$_Java_sun_awt_windows_WFramePeer_setState@12 1011f1a7 f   awt_Frame.obj
 0001:0011e1b1       __ehhandler$_Java_sun_awt_windows_WFramePeer_getState@8 1011f1b1 f   awt_Frame.obj
 0001:0011e1bb       __ehhandler$_Java_sun_awt_windows_WFramePeer_setMaximizedBounds@24 1011f1bb f   awt_Frame.obj
 0001:0011e1c5       __ehhandler$_Java_sun_awt_windows_WFramePeer_clearMaximizedBounds@8 1011f1c5 f   awt_Frame.obj
 0001:0011e1cf       __ehhandler$_Java_sun_awt_windows_WFramePeer_setMenuBar0@12 1011f1cf f   awt_Frame.obj
 0001:0011e1d9       __ehhandler$_Java_sun_awt_windows_WFramePeer_createAwtFrame@12 1011f1d9 f   awt_Frame.obj
 0001:0011e1e3       __ehhandler$_Java_sun_awt_windows_WFramePeer_getSysMenuHeight@8 1011f1e3 f   awt_Frame.obj
 0001:0011e1ed       __ehhandler$_Java_sun_awt_windows_WFramePeer_pSetIMMOption@12 1011f1ed f   awt_Frame.obj
 0001:0011e1f7       __ehhandler$_Java_sun_awt_EmbeddedFrame_setPeer@12 1011f1f7 f   awt_Frame.obj
 0001:0011e201       __ehhandler$_Java_sun_awt_windows_WEmbeddedFrame_initIDs@8 1011f201 f   awt_Frame.obj
 0001:0011e20b       __ehhandler$_Java_sun_awt_windows_WEmbeddedFrame_notifyModalBlockedImpl@20 1011f20b f   awt_Frame.obj
 0001:0011e215       __ehhandler$_Java_sun_awt_windows_WEmbeddedFramePeer_create@12 1011f215 f   awt_Frame.obj
 0001:0011e21f       __ehhandler$_Java_sun_awt_windows_WEmbeddedFramePeer_getBoundsPrivate@8 1011f21f f   awt_Frame.obj
 0001:0011e229       __ehhandler$_Java_sun_awt_windows_WEmbeddedFramePeer_synthesizeWmActivate@12 1011f229 f   awt_Frame.obj
 0001:0011e240       $L28022                    1011f240 f   awt_GDIObject.obj
 0001:0011e257       __ehhandler$??$SafeCreate@VCriticalSection@@@@YAPAVCriticalSection@@AAPAV0@@Z 1011f257 f   awt_GDIObject.obj
 0001:0011e270       __ehhandler$_Java_sun_awt_windows_WInputMethod_createNativeContext@8 1011f270 f   awt_InputMethod.obj
 0001:0011e27a       __ehhandler$_Java_sun_awt_windows_WInputMethod_destroyNativeContext@12 1011f27a f   awt_InputMethod.obj
 0001:0011e284       __ehhandler$_Java_sun_awt_windows_WInputMethod_enableNativeIME@20 1011f284 f   awt_InputMethod.obj
 0001:0011e28e       __ehhandler$_Java_sun_awt_windows_WInputMethod_disableNativeIME@12 1011f28e f   awt_InputMethod.obj
 0001:0011e298       __ehhandler$_Java_sun_awt_windows_WInputMethod_handleNativeIMEEvent@16 1011f298 f   awt_InputMethod.obj
 0001:0011e2a2       __ehhandler$_Java_sun_awt_windows_WInputMethod_endCompositionNative@16 1011f2a2 f   awt_InputMethod.obj
 0001:0011e2ac       __ehhandler$_Java_sun_awt_windows_WInputMethod_setConversionStatus@16 1011f2ac f   awt_InputMethod.obj
 0001:0011e2b6       __ehhandler$_Java_sun_awt_windows_WInputMethod_getConversionStatus@12 1011f2b6 f   awt_InputMethod.obj
 0001:0011e2c0       __ehhandler$_Java_sun_awt_windows_WInputMethod_setOpenStatus@16 1011f2c0 f   awt_InputMethod.obj
 0001:0011e2ca       __ehhandler$_Java_sun_awt_windows_WInputMethod_getOpenStatus@12 1011f2ca f   awt_InputMethod.obj
 0001:0011e2d4       __ehhandler$_Java_sun_awt_windows_WInputMethod_getNativeLocale@8 1011f2d4 f   awt_InputMethod.obj
 0001:0011e2de       __ehhandler$_Java_sun_awt_windows_WInputMethod_setNativeLocale@16 1011f2de f   awt_InputMethod.obj
 0001:0011e2e8       __ehhandler$_Java_sun_awt_windows_WInputMethod_openCandidateWindow@20 1011f2e8 f   awt_InputMethod.obj
 0001:0011e2f2       __ehhandler$_Java_sun_awt_windows_WInputMethodDescriptor_getNativeAvailableLocales@8 1011f2f2 f   awt_InputMethod.obj
 0001:0011e2fc       __ehhandler$_Java_sun_awt_windows_WInputMethod_getNativeIMMDescription@8 1011f2fc f   awt_InputMethod.obj
 0001:0011e306       __ehhandler$_CreateLocaleObject 1011f306 f   awt_InputMethod.obj
 0001:0011e310       $L30355                    1011f310 f   awt_InputTextInfor.obj
 0001:0011e324       __ehhandler$?GetContextData@AwtInputTextInfor@@QAEHPAUHIMC__@@J@Z 1011f324 f   awt_InputTextInfor.obj
 0001:0011e32e       __ehhandler$?GetClauseInfor@AwtInputTextInfor@@QAEHAAPAHAAPAPAV_jstring@@@Z 1011f32e f   awt_InputTextInfor.obj
 0001:0011e338       __ehhandler$?GetAttributeInfor@AwtInputTextInfor@@QAEHAAPAHAAPAE@Z 1011f338 f   awt_InputTextInfor.obj
 0001:0011e350       __ehhandler$_Java_java_awt_Insets_initIDs@8 1011f350 f   awt_Insets.obj
 0001:0011e360       __ehhandler$_Java_java_awt_event_KeyEvent_initIDs@8 1011f360 f   awt_KeyEvent.obj
 0001:0011e370       __ehhandler$_Java_java_awt_KeyboardFocusManager_initIDs@8 1011f370 f   awt_KeyboardFocusManager.obj
 0001:0011e37a       __ehhandler$_Java_sun_awt_KeyboardFocusManagerPeerImpl_getNativeFocusOwner@8 1011f37a f   awt_KeyboardFocusManager.obj
 0001:0011e384       __ehhandler$_Java_sun_awt_KeyboardFocusManagerPeerImpl_getNativeFocusedWindow@8 1011f384 f   awt_KeyboardFocusManager.obj
 0001:0011e38e       __ehhandler$_Java_sun_awt_KeyboardFocusManagerPeerImpl_clearNativeGlobalFocusOwner@12 1011f38e f   awt_KeyboardFocusManager.obj
 0001:0011e3a0       $L30558                    1011f3a0 f   awt_Label.obj
 0001:0011e3b4       __ehhandler$?Create@AwtLabel@@SAPAV1@PAV_jobject@@0@Z 1011f3b4 f   awt_Label.obj
 0001:0011e3be       $L30600                    1011f3be f   awt_Label.obj
 0001:0011e3c6       __ehhandler$?Enable@AwtLabel@@UAEXH@Z 1011f3c6 f   awt_Label.obj
 0001:0011e3d0       $L30617                    1011f3d0 f   awt_Label.obj
 0001:0011e3d8       __ehhandler$?_SetText@AwtLabel@@SAXPAX@Z 1011f3d8 f   awt_Label.obj
 0001:0011e3e2       __ehhandler$_Java_java_awt_Label_initIDs@8 1011f3e2 f   awt_Label.obj
 0001:0011e3ec       __ehhandler$_Java_sun_awt_windows_WLabelPeer_setText@12 1011f3ec f   awt_Label.obj
 0001:0011e3f6       __ehhandler$_Java_sun_awt_windows_WLabelPeer_setAlignment@12 1011f3f6 f   awt_Label.obj
 0001:0011e400       __ehhandler$_Java_sun_awt_windows_WLabelPeer_create@12 1011f400 f   awt_Label.obj
 0001:0011e40a       __ehhandler$_Java_sun_awt_windows_WLabelPeer_lazyPaint@8 1011f40a f   awt_Label.obj
 0001:0011e420       $L34127                    1011f420 f   awt_List.obj
 0001:0011e434       __ehhandler$?Create@AwtList@@SAPAV1@PAV_jobject@@0@Z 1011f434 f   awt_List.obj
 0001:0011e43e       __ehhandler$?SetMultiSelect@AwtList@@QAEXH@Z 1011f43e f   awt_List.obj
 0001:0011e448       __ehhandler$_Java_sun_awt_windows_WListPeer_getMaxWidth@8 1011f448 f   awt_List.obj
 0001:0011e452       __ehhandler$_Java_sun_awt_windows_WListPeer_updateMaxItemWidth@8 1011f452 f   awt_List.obj
 0001:0011e45c       __ehhandler$_Java_sun_awt_windows_WListPeer_addItems@20 1011f45c f   awt_List.obj
 0001:0011e466       __ehhandler$_Java_sun_awt_windows_WListPeer_delItems@16 1011f466 f   awt_List.obj
 0001:0011e470       __ehhandler$_Java_sun_awt_windows_WListPeer_select@12 1011f470 f   awt_List.obj
 0001:0011e47a       __ehhandler$_Java_sun_awt_windows_WListPeer_deselect@12 1011f47a f   awt_List.obj
 0001:0011e484       __ehhandler$_Java_sun_awt_windows_WListPeer_makeVisible@12 1011f484 f   awt_List.obj
 0001:0011e48e       __ehhandler$_Java_sun_awt_windows_WListPeer_setMultipleSelections@12 1011f48e f   awt_List.obj
 0001:0011e498       __ehhandler$_Java_sun_awt_windows_WListPeer_create@12 1011f498 f   awt_List.obj
 0001:0011e4a2       __ehhandler$_Java_sun_awt_windows_WListPeer_isSelected@12 1011f4a2 f   awt_List.obj
 0001:0011e4b0       $L31553                    1011f4b0 f   awt_Menu.obj
 0001:0011e4c4       __ehhandler$?Create@AwtMenu@@SAPAV1@PAV_jobject@@PAV1@@Z 1011f4c4 f   awt_Menu.obj
 0001:0011e4ce       __ehhandler$_Java_java_awt_Menu_initIDs@8 1011f4ce f   awt_Menu.obj
 0001:0011e4d8       __ehhandler$_Java_sun_awt_windows_WMenuPeer_addSeparator@8 1011f4d8 f   awt_Menu.obj
 0001:0011e4e2       __ehhandler$_Java_sun_awt_windows_WMenuPeer_delItem@12 1011f4e2 f   awt_Menu.obj
 0001:0011e4ec       __ehhandler$_Java_sun_awt_windows_WMenuPeer_createMenu@12 1011f4ec f   awt_Menu.obj
 0001:0011e4f6       __ehhandler$_Java_sun_awt_windows_WMenuPeer_createSubMenu@12 1011f4f6 f   awt_Menu.obj
 0001:0011e500       $L31467                    1011f500 f   awt_MenuBar.obj
 0001:0011e514       __ehhandler$?Create@AwtMenuBar@@SAPAV1@PAV_jobject@@0@Z 1011f514 f   awt_MenuBar.obj
 0001:0011e51e       __ehhandler$_Java_java_awt_MenuBar_initIDs@8 1011f51e f   awt_MenuBar.obj
 0001:0011e528       __ehhandler$_Java_sun_awt_windows_WMenuBarPeer_addMenu@12 1011f528 f   awt_MenuBar.obj
 0001:0011e532       __ehhandler$_Java_sun_awt_windows_WMenuBarPeer_delMenu@12 1011f532 f   awt_MenuBar.obj
 0001:0011e53c       __ehhandler$_Java_sun_awt_windows_WMenuBarPeer_create@12 1011f53c f   awt_MenuBar.obj
 0001:0011e550       $L31341                    1011f550 f   awt_MenuItem.obj
 0001:0011e558       __ehhandler$??1AwtMenuItem@@UAE@XZ 1011f558 f   awt_MenuItem.obj
 0001:0011e562       $L31380                    1011f562 f   awt_MenuItem.obj
 0001:0011e579       __ehhandler$?Create@AwtMenuItem@@SAPAV1@PAV_jobject@@0@Z 1011f579 f   awt_MenuItem.obj
 0001:0011e583       __ehhandler$_Java_java_awt_MenuComponent_initIDs@8 1011f583 f   awt_MenuItem.obj
 0001:0011e58d       __ehhandler$_Java_java_awt_MenuItem_initIDs@8 1011f58d f   awt_MenuItem.obj
 0001:0011e597       __ehhandler$_Java_java_awt_CheckboxMenuItem_initIDs@8 1011f597 f   awt_MenuItem.obj
 0001:0011e5a1       __ehhandler$_Java_sun_awt_windows_WMenuItemPeer_initIDs@8 1011f5a1 f   awt_MenuItem.obj
 0001:0011e5ab       __ehhandler$_Java_sun_awt_windows_WMenuItemPeer__1setLabel@12 1011f5ab f   awt_MenuItem.obj
 0001:0011e5b5       __ehhandler$_Java_sun_awt_windows_WMenuItemPeer_create@12 1011f5b5 f   awt_MenuItem.obj
 0001:0011e5bf       __ehhandler$_Java_sun_awt_windows_WMenuItemPeer_enable@12 1011f5bf f   awt_MenuItem.obj
 0001:0011e5c9       __ehhandler$_Java_sun_awt_windows_WMenuItemPeer__1dispose@8 1011f5c9 f   awt_MenuItem.obj
 0001:0011e5d3       __ehhandler$_Java_sun_awt_windows_WCheckboxMenuItemPeer_setState@12 1011f5d3 f   awt_MenuItem.obj
 0001:0011e5e0       __ehhandler$_Java_java_awt_event_MouseEvent_initIDs@8 1011f5e0 f   awt_MouseEvent.obj
 0001:0011e5f0       $L27967                    1011f5f0 f   awt_Object.obj
 0001:0011e5fb       __ehhandler$??0AwtObject@@QAE@XZ 1011f5fb f   awt_Object.obj
 0001:0011e605       $L27991                    1011f605 f   awt_Object.obj
 0001:0011e610       __ehhandler$??1AwtObject@@UAE@XZ 1011f610 f   awt_Object.obj
 0001:0011e61a       __ehhandler$_Java_sun_awt_windows_WObjectPeer_initIDs@8 1011f61a f   awt_Object.obj
 0001:0011e630       __ehhandler$?Restack@AwtPanel@@SAPAXPAX@Z 1011f630 f   awt_Panel.obj
 0001:0011e63a       __ehhandler$_Java_sun_awt_windows_WPanelPeer_initIDs@8 1011f63a f   awt_Panel.obj
 0001:0011e644       __ehhandler$_Java_sun_awt_windows_WPanelPeer_pRestack@12 1011f644 f   awt_Panel.obj
 0001:0011e650       $L31186                    1011f650 f   awt_PopupMenu.obj
 0001:0011e664       __ehhandler$?Create@AwtPopupMenu@@SAPAV1@PAV_jobject@@PAVAwtComponent@@@Z 1011f664 f   awt_PopupMenu.obj
 0001:0011e66e       __ehhandler$_Java_sun_awt_windows_WPopupMenuPeer_createMenu@12 1011f66e f   awt_PopupMenu.obj
 0001:0011e678       __ehhandler$_Java_sun_awt_windows_WPopupMenuPeer__1show@12 1011f678 f   awt_PopupMenu.obj
 0001:0011e690       $L28024                    1011f690 f   awt_Pen.obj
 0001:0011e698       __ehhandler$??0AwtPen@@AAE@K@Z 1011f698 f   awt_Pen.obj
 0001:0011e6a2       $L28058                    1011f6a2 f   awt_Pen.obj
 0001:0011e6aa       $L28059                    1011f6aa f   awt_Pen.obj
 0001:0011e6be       __ehhandler$?Get@AwtPen@@SAPAV1@K@Z 1011f6be f   awt_Pen.obj
 0001:0011e6c8       $L28075                    1011f6c8 f   awt_Pen.obj
 0001:0011e6d0       __ehhandler$?ReleaseInCache@AwtPen@@MAEXXZ 1011f6d0 f   awt_Pen.obj
 0001:0011e6e0       $L32219                    1011f6e0 f   awt_PrintControl.obj
 0001:0011e6e8       __ehhandler$?FindPrinter@AwtPrintControl@@SAHPAV_jstring@@PAEPAKPAPAG3@Z 1011f6e8 f   awt_PrintControl.obj
 0001:0011e6f2       __ehhandler$?initIDs@AwtPrintControl@@SAXPAUJNIEnv_@@PAV_jclass@@@Z 1011f6f2 f   awt_PrintControl.obj
 0001:0011e6fc       __ehhandler$?PrintDlgHook@@YGHPAUHWND__@@IIJ@Z 1011f6fc f   awt_PrintControl.obj
 0001:0011e706       __ehhandler$?CreateDevModeAndDevNames@AwtPrintControl@@SAHPAUtagPDW@@PAG1@Z 1011f706 f   awt_PrintControl.obj
 0001:0011e710       __ehhandler$_Java_sun_awt_windows_WPrintDialog_initIDs@8 1011f710 f   awt_PrintDialog.obj
 0001:0011e71a       __ehhandler$_Java_sun_awt_windows_WPrintDialog_setPeer@12 1011f71a f   awt_PrintDialog.obj
 0001:0011e724       __ehhandler$_Java_sun_awt_windows_WPrintDialogPeer_initIDs@8 1011f724 f   awt_PrintDialog.obj
 0001:0011e72e       __ehhandler$_Java_sun_awt_windows_WPrintDialogPeer__1show@8 1011f72e f   awt_PrintDialog.obj
 0001:0011e738       __ehhandler$?PrintDialogHookProc@@YGIPAUHWND__@@IIJ@Z 1011f738 f   awt_PrintDialog.obj
 0001:0011e742       __ehhandler$_Java_sun_awt_windows_WPrintDialogPeer_toFront@8 1011f742 f   awt_PrintDialog.obj
 0001:0011e74c       __ehhandler$_Java_sun_awt_windows_WPrintDialogPeer_toBack@8 1011f74c f   awt_PrintDialog.obj
 0001:0011e760       __ehhandler$_Java_sun_awt_windows_WPageDialog_initIDs@8 1011f760 f   awt_PrintJob.obj
 0001:0011e76a       __ehhandler$_Java_sun_awt_windows_WPageDialogPeer__1show@8 1011f76a f   awt_PrintJob.obj
 0001:0011e774       __ehhandler$_Java_sun_awt_windows_WPrinterJob_getDefaultPage@12 1011f774 f   awt_PrintJob.obj
 0001:0011e77e       __ehhandler$_Java_sun_awt_windows_WPrinterJob_validatePaper@16 1011f77e f   awt_PrintJob.obj
 0001:0011e788       __ehhandler$_Java_sun_awt_windows_WPrinterJob_initPrinter@8 1011f788 f   awt_PrintJob.obj
 0001:0011e792       __ehhandler$_Java_sun_awt_windows_WPrinterJob__1startDoc@12 1011f792 f   awt_PrintJob.obj
 0001:0011e79c       __ehhandler$_Java_sun_awt_windows_WPrinterJob_endDoc@8 1011f79c f   awt_PrintJob.obj
 0001:0011e7a6       __ehhandler$_Java_sun_awt_windows_WPrinterJob_abortDoc@8 1011f7a6 f   awt_PrintJob.obj
 0001:0011e7b0       __ehhandler$_Java_sun_awt_windows_WPrinterJob_deleteDC@32 1011f7b0 f   awt_PrintJob.obj
 0001:0011e7ba       __ehhandler$_Java_sun_awt_windows_WPrinterJob_deviceStartPage@20 1011f7ba f   awt_PrintJob.obj
 0001:0011e7c4       __ehhandler$_Java_sun_awt_windows_WPrinterJob_deviceEndPage@20 1011f7c4 f   awt_PrintJob.obj
 0001:0011e7ce       __ehhandler$_Java_sun_awt_windows_WEmbeddedFrame_printBand@56 1011f7ce f   awt_PrintJob.obj
 0001:0011e7d8       __ehhandler$_Java_sun_awt_windows_WPrinterJob_beginPath@16 1011f7d8 f   awt_PrintJob.obj
 0001:0011e7e2       __ehhandler$_Java_sun_awt_windows_WPrinterJob_endPath@16 1011f7e2 f   awt_PrintJob.obj
 0001:0011e7ec       __ehhandler$_Java_sun_awt_windows_WPrinterJob_fillPath@16 1011f7ec f   awt_PrintJob.obj
 0001:0011e7f6       __ehhandler$_Java_sun_awt_windows_WPrinterJob_closeFigure@16 1011f7f6 f   awt_PrintJob.obj
 0001:0011e800       __ehhandler$_Java_sun_awt_windows_WPrinterJob_lineTo@24 1011f800 f   awt_PrintJob.obj
 0001:0011e80a       __ehhandler$_Java_sun_awt_windows_WPrinterJob_moveTo@24 1011f80a f   awt_PrintJob.obj
 0001:0011e814       __ehhandler$_Java_sun_awt_windows_WPrinterJob_polyBezierTo@40 1011f814 f   awt_PrintJob.obj
 0001:0011e81e       __ehhandler$_Java_sun_awt_windows_WPrinterJob_setPolyFillMode@20 1011f81e f   awt_PrintJob.obj
 0001:0011e828       __ehhandler$_Java_sun_awt_windows_WPrinterJob_selectSolidBrush@28 1011f828 f   awt_PrintJob.obj
 0001:0011e832       __ehhandler$_Java_sun_awt_windows_WPrinterJob_getPenX@16 1011f832 f   awt_PrintJob.obj
 0001:0011e83c       __ehhandler$_Java_sun_awt_windows_WPrinterJob_getPenY@16 1011f83c f   awt_PrintJob.obj
 0001:0011e846       __ehhandler$_Java_sun_awt_windows_WPrinterJob_selectClipPath@16 1011f846 f   awt_PrintJob.obj
 0001:0011e850       __ehhandler$_Java_sun_awt_windows_WPrinterJob_frameRect@32 1011f850 f   awt_PrintJob.obj
 0001:0011e85a       __ehhandler$_Java_sun_awt_windows_WPrinterJob_fillRect@44 1011f85a f   awt_PrintJob.obj
 0001:0011e864       __ehhandler$_Java_sun_awt_windows_WPrinterJob_selectPen@32 1011f864 f   awt_PrintJob.obj
 0001:0011e86e       __ehhandler$_Java_sun_awt_windows_WPrinterJob_selectStylePen@48 1011f86e f   awt_PrintJob.obj
 0001:0011e878       __ehhandler$_Java_sun_awt_windows_WPrinterJob_drawDIBImage@60 1011f878 f   awt_PrintJob.obj
 0001:0011e882       __ehhandler$_doPrintBand   1011f882 f   awt_PrintJob.obj
 0001:0011e88c       __ehhandler$_pageDlgHook@16 1011f88c f   awt_PrintJob.obj
 0001:0011e896       __ehhandler$_Java_sun_awt_windows_WPrinterJob_setNativePrintService@12 1011f896 f   awt_PrintJob.obj
 0001:0011e8a0       __ehhandler$_Java_sun_awt_windows_WPrinterJob_getNativePrintService@8 1011f8a0 f   awt_PrintJob.obj
 0001:0011e8aa       __ehhandler$_Java_sun_awt_windows_WPrinterJob_initIDs@8 1011f8aa f   awt_PrintJob.obj
 0001:0011e8c0       __ehhandler$_Java_java_awt_Rectangle_initIDs@8 1011f8c0 f   awt_Rectangle.obj
 0001:0011e8d0       $L30503                    1011f8d0 f   awt_Robot.obj
 0001:0011e8d8       __ehhandler$??0AwtRobot@@QAE@PAV_jobject@@@Z 1011f8d8 f   awt_Robot.obj
 0001:0011e8e2       $L30558                    1011f8e2 f   awt_Robot.obj
 0001:0011e8f9       __ehhandler$_Java_sun_awt_windows_WRobotPeer_create@8 1011f8f9 f   awt_Robot.obj
 0001:0011e903       __ehhandler$_Java_sun_awt_windows_WRobotPeer__1dispose@8 1011f903 f   awt_Robot.obj
 0001:0011e90d       __ehhandler$_Java_sun_awt_windows_WRobotPeer_mouseMoveImpl@16 1011f90d f   awt_Robot.obj
 0001:0011e917       __ehhandler$_Java_sun_awt_windows_WRobotPeer_mousePress@12 1011f917 f   awt_Robot.obj
 0001:0011e921       __ehhandler$_Java_sun_awt_windows_WRobotPeer_mouseRelease@12 1011f921 f   awt_Robot.obj
 0001:0011e92b       __ehhandler$_Java_sun_awt_windows_WRobotPeer_mouseWheel@12 1011f92b f   awt_Robot.obj
 0001:0011e935       __ehhandler$_Java_sun_awt_windows_WRobotPeer_getRGBPixelImpl@16 1011f935 f   awt_Robot.obj
 0001:0011e93f       __ehhandler$_Java_sun_awt_windows_WRobotPeer_getRGBPixels@28 1011f93f f   awt_Robot.obj
 0001:0011e949       __ehhandler$_Java_sun_awt_windows_WRobotPeer_keyPress@12 1011f949 f   awt_Robot.obj
 0001:0011e953       __ehhandler$_Java_sun_awt_windows_WRobotPeer_keyRelease@12 1011f953 f   awt_Robot.obj
 0001:0011e960       $L31165                    1011f960 f   awt_Scrollbar.obj
 0001:0011e968       __ehhandler$??0AwtScrollbar@@QAE@XZ 1011f968 f   awt_Scrollbar.obj
 0001:0011e972       $L31233                    1011f972 f   awt_Scrollbar.obj
 0001:0011e986       __ehhandler$?Create@AwtScrollbar@@SAPAV1@PAV_jobject@@0@Z 1011f986 f   awt_Scrollbar.obj
 0001:0011e990       __ehhandler$_Java_java_awt_Scrollbar_initIDs@8 1011f990 f   awt_Scrollbar.obj
 0001:0011e99a       __ehhandler$_Java_sun_awt_windows_WScrollbarPeer_setValues@24 1011f99a f   awt_Scrollbar.obj
 0001:0011e9a4       __ehhandler$_Java_sun_awt_windows_WScrollbarPeer_setLineIncrement@12 1011f9a4 f   awt_Scrollbar.obj
 0001:0011e9ae       __ehhandler$_Java_sun_awt_windows_WScrollbarPeer_setPageIncrement@12 1011f9ae f   awt_Scrollbar.obj
 0001:0011e9b8       __ehhandler$_Java_sun_awt_windows_WScrollbarPeer_create@12 1011f9b8 f   awt_Scrollbar.obj
 0001:0011e9d0       $L31621                    1011f9d0 f   awt_ScrollPane.obj
 0001:0011e9e4       __ehhandler$?Create@AwtScrollPane@@SAPAV1@PAV_jobject@@0@Z 1011f9e4 f   awt_ScrollPane.obj
 0001:0011e9ee       __ehhandler$_Java_java_awt_ScrollPane_initIDs@8 1011f9ee f   awt_ScrollPane.obj
 0001:0011e9f8       __ehhandler$_Java_java_awt_ScrollPaneAdjustable_initIDs@8 1011f9f8 f   awt_ScrollPane.obj
 0001:0011ea02       __ehhandler$_Java_sun_awt_windows_WScrollPanePeer_initIDs@8 1011fa02 f   awt_ScrollPane.obj
 0001:0011ea0c       __ehhandler$_Java_sun_awt_windows_WScrollPanePeer_create@12 1011fa0c f   awt_ScrollPane.obj
 0001:0011ea16       __ehhandler$_Java_sun_awt_windows_WScrollPanePeer_getOffset@12 1011fa16 f   awt_ScrollPane.obj
 0001:0011ea20       __ehhandler$_Java_sun_awt_windows_WScrollPanePeer_setInsets@8 1011fa20 f   awt_ScrollPane.obj
 0001:0011ea2a       __ehhandler$_Java_sun_awt_windows_WScrollPanePeer_setScrollPosition@16 1011fa2a f   awt_ScrollPane.obj
 0001:0011ea34       __ehhandler$_Java_sun_awt_windows_WScrollPanePeer__1getHScrollbarHeight@8 1011fa34 f   awt_ScrollPane.obj
 0001:0011ea3e       __ehhandler$_Java_sun_awt_windows_WScrollPanePeer__1getVScrollbarWidth@8 1011fa3e f   awt_ScrollPane.obj
 0001:0011ea48       __ehhandler$_Java_sun_awt_windows_WScrollPanePeer_setSpans@24 1011fa48 f   awt_ScrollPane.obj
 0001:0011ea60       $L75214                    1011fa60 f   awt_TextArea.obj
 0001:0011ea74       __ehhandler$?Create@AwtTextArea@@SAPAV1@PAV_jobject@@0@Z 1011fa74 f   awt_TextArea.obj
 0001:0011ea7e       __ehhandler$_Java_java_awt_TextArea_initIDs@8 1011fa7e f   awt_TextArea.obj
 0001:0011ea88       __ehhandler$_Java_sun_awt_windows_WTextAreaPeer_create@12 1011fa88 f   awt_TextArea.obj
 0001:0011ea92       __ehhandler$_Java_sun_awt_windows_WTextAreaPeer_replaceText@20 1011fa92 f   awt_TextArea.obj
 0001:0011ea9c       __ehhandler$?QueryInterface@OleCallback@AwtTextArea@@UAGJABU_GUID@@PAPAX@Z 1011fa9c f   awt_TextArea.obj
 0001:0011eab0       __ehhandler$_Java_sun_awt_windows_WTextComponentPeer_getText@8 1011fab0 f   awt_TextComponent.obj
 0001:0011eaba       __ehhandler$_Java_sun_awt_windows_WTextComponentPeer_setText@12 1011faba f   awt_TextComponent.obj
 0001:0011eac4       __ehhandler$_Java_sun_awt_windows_WTextComponentPeer_getSelectionStart@8 1011fac4 f   awt_TextComponent.obj
 0001:0011eace       __ehhandler$_Java_sun_awt_windows_WTextComponentPeer_getSelectionEnd@8 1011face f   awt_TextComponent.obj
 0001:0011ead8       __ehhandler$_Java_sun_awt_windows_WTextComponentPeer_select@16 1011fad8 f   awt_TextComponent.obj
 0001:0011eae2       __ehhandler$_Java_sun_awt_windows_WTextComponentPeer_enableEditing@12 1011fae2 f   awt_TextComponent.obj
 0001:0011eaec       __ehhandler$_Java_sun_awt_windows_WTextComponentPeer_initIDs@8 1011faec f   awt_TextComponent.obj
 0001:0011eb00       $L74558                    1011fb00 f   awt_TextField.obj
 0001:0011eb14       __ehhandler$?Create@AwtTextField@@SAPAV1@PAV_jobject@@0@Z 1011fb14 f   awt_TextField.obj
 0001:0011eb1e       __ehhandler$_Java_sun_awt_windows_WTextFieldPeer_create@12 1011fb1e f   awt_TextField.obj
 0001:0011eb28       __ehhandler$_Java_sun_awt_windows_WTextFieldPeer_setEchoCharacter@12 1011fb28 f   awt_TextField.obj
 0001:0011eb40       __ehhandler$_JNI_OnLoad@8  1011fb40 f   awt_Toolkit.obj
 0001:0011eb4a       $L82557                    1011fb4a f   awt_Toolkit.obj
 0001:0011eb52       __ehhandler$?GetKeyboardState@AwtToolkit@@SAXPAE@Z 1011fb52 f   awt_Toolkit.obj
 0001:0011eb5c       __ehhandler$_DllMain@12    1011fb5c f   awt_Toolkit.obj
 0001:0011eb66       $L82615                    1011fb66 f   awt_Toolkit.obj
 0001:0011eb74       $L82616                    1011fb74 f   awt_Toolkit.obj
 0001:0011eb82       $L82617                    1011fb82 f   awt_Toolkit.obj
 0001:0011eb90       $L82618                    1011fb90 f   awt_Toolkit.obj
 0001:0011eba7       __ehhandler$??0AwtToolkit@@QAE@XZ 1011fba7 f   awt_Toolkit.obj
 0001:0011ebb1       $L82636                    1011fbb1 f   awt_Toolkit.obj
 0001:0011ebbf       $L82637                    1011fbbf f   awt_Toolkit.obj
 0001:0011ebcd       __ehhandler$??1AwtToolkit@@QAE@XZ 1011fbcd f   awt_Toolkit.obj
 0001:0011ebd7       $L82740                    1011fbd7 f   awt_Toolkit.obj
 0001:0011ebdf       __ehhandler$?WndProc@AwtToolkit@@SGJPAUHWND__@@IIJ@Z 1011fbdf f   awt_Toolkit.obj
 0001:0011ebe9       __ehhandler$?GetMessageFilter@AwtToolkit@@SGJHIJ@Z 1011fbe9 f   awt_Toolkit.obj
 0001:0011ebf3       __ehhandler$?MouseLowLevelHook@AwtToolkit@@SGJHIJ@Z 1011fbf3 f   awt_Toolkit.obj
 0001:0011ebfd       __ehhandler$?CancelAllThreadWindows@@YGHPAUHWND__@@J@Z 1011fbfd f   awt_Toolkit.obj
 0001:0011ec07       $L82850                    1011fc07 f   awt_Toolkit.obj
 0001:0011ec0f       __ehhandler$?SyncCall@AwtToolkit@@QAEPAXP6APAXPAX@Z0@Z 1011fc0f f   awt_Toolkit.obj
 0001:0011ec19       $L82856                    1011fc19 f   awt_Toolkit.obj
 0001:0011ec21       __ehhandler$?SyncCall@AwtToolkit@@QAEXP6AXPAX@Z0@Z 1011fc21 f   awt_Toolkit.obj
 0001:0011ec2b       $L82863                    1011fc2b f   awt_Toolkit.obj
 0001:0011ec33       __ehhandler$?SyncCall@AwtToolkit@@QAEPAXP6APAXXZ@Z 1011fc33 f   awt_Toolkit.obj
 0001:0011ec3d       $L82869                    1011fc3d f   awt_Toolkit.obj
 0001:0011ec45       __ehhandler$?SyncCall@AwtToolkit@@QAEXP6AXXZ@Z 1011fc45 f   awt_Toolkit.obj
 0001:0011ec4f       __ehhandler$?hang_if_shutdown@@YAXXZ 1011fc4f f   awt_Toolkit.obj
 0001:0011ec59       $L82932                    1011fc59 f   awt_Toolkit.obj
 0001:0011ec61       __ehhandler$?Init@PreloadAction@AwtToolkit@@AAEXXZ 1011fc61 f   awt_Toolkit.obj
 0001:0011ec6b       $L82938                    1011fc6b f   awt_Toolkit.obj
 0001:0011ec73       __ehhandler$?Clean@PreloadAction@AwtToolkit@@AAEX_N@Z 1011fc73 f   awt_Toolkit.obj
 0001:0011ec7d       $L82952                    1011fc7d f   awt_Toolkit.obj
 0001:0011ec85       __ehhandler$?AddAction@PreloadThread@AwtToolkit@@QAE_NPAVPreloadAction@2@@Z 1011fc85 f   awt_Toolkit.obj
 0001:0011ec8f       $L82966                    1011fc8f f   awt_Toolkit.obj
 0001:0011ec97       __ehhandler$?Terminate@PreloadThread@AwtToolkit@@QAE_N_N@Z 1011fc97 f   awt_Toolkit.obj
 0001:0011eca1       $L82974                    1011fca1 f   awt_Toolkit.obj
 0001:0011eca9       __ehhandler$?InvokeAndTerminate@PreloadThread@AwtToolkit@@QAE_NP6AXPAX@Z0@Z 1011fca9 f   awt_Toolkit.obj
 0001:0011ecb3       $L82981                    1011fcb3 f   awt_Toolkit.obj
 0001:0011ecbb       __ehhandler$?ThreadProc@PreloadThread@AwtToolkit@@AAEIXZ 1011fcbb f   awt_Toolkit.obj
 0001:0011ecc5       $L82992                    1011fcc5 f   awt_Toolkit.obj
 0001:0011eccd       __ehhandler$?GetNextAction@PreloadThread@AwtToolkit@@AAEPAVPreloadAction@2@XZ 1011fccd f   awt_Toolkit.obj
 0001:0011ecd7       __ehhandler$_Java_java_awt_Toolkit_initIDs@8 1011fcd7 f   awt_Toolkit.obj
 0001:0011ece1       __ehhandler$_Java_sun_awt_windows_WToolkit_initIDs@8 1011fce1 f   awt_Toolkit.obj
 0001:0011eceb       __ehhandler$_Java_sun_awt_windows_WToolkit_embeddedInit@8 1011fceb f   awt_Toolkit.obj
 0001:0011ecf5       __ehhandler$_Java_sun_awt_windows_WToolkit_embeddedDispose@8 1011fcf5 f   awt_Toolkit.obj
 0001:0011ecff       __ehhandler$_Java_sun_awt_windows_WToolkit_init@8 1011fcff f   awt_Toolkit.obj
 0001:0011ed09       __ehhandler$_Java_sun_awt_windows_WToolkit_eventLoop@8 1011fd09 f   awt_Toolkit.obj
 0001:0011ed13       __ehhandler$_Java_sun_awt_windows_WToolkit_shutdown@8 1011fd13 f   awt_Toolkit.obj
 0001:0011ed1d       __ehhandler$_Java_sun_awt_windows_WToolkit_startSecondaryEventLoop@8 1011fd1d f   awt_Toolkit.obj
 0001:0011ed27       __ehhandler$_Java_sun_awt_windows_WToolkit_quitSecondaryEventLoop@8 1011fd27 f   awt_Toolkit.obj
 0001:0011ed31       __ehhandler$_Java_sun_awt_windows_WToolkit_makeColorModel@8 1011fd31 f   awt_Toolkit.obj
 0001:0011ed3b       __ehhandler$_Java_sun_awt_windows_WToolkit_getMaximumCursorColors@8 1011fd3b f   awt_Toolkit.obj
 0001:0011ed45       __ehhandler$_Java_sun_awt_windows_WToolkit_getScreenWidth@8 1011fd45 f   awt_Toolkit.obj
 0001:0011ed4f       __ehhandler$_Java_sun_awt_windows_WToolkit_getScreenHeight@8 1011fd4f f   awt_Toolkit.obj
 0001:0011ed59       __ehhandler$_Java_sun_awt_windows_WToolkit_getScreenInsets@12 1011fd59 f   awt_Toolkit.obj
 0001:0011ed63       __ehhandler$_Java_sun_awt_windows_WToolkit_nativeSync@8 1011fd63 f   awt_Toolkit.obj
 0001:0011ed6d       __ehhandler$_Java_sun_awt_windows_WToolkit_beep@8 1011fd6d f   awt_Toolkit.obj
 0001:0011ed77       __ehhandler$_Java_sun_awt_windows_WToolkit_getLockingKeyStateNative@12 1011fd77 f   awt_Toolkit.obj
 0001:0011ed81       __ehhandler$_Java_sun_awt_windows_WToolkit_setLockingKeyStateNative@16 1011fd81 f   awt_Toolkit.obj
 0001:0011ed8b       __ehhandler$_Java_sun_awt_windows_WToolkit_loadSystemColors@12 1011fd8b f   awt_Toolkit.obj
 0001:0011ed95       __ehhandler$_DSGetComponent@8 1011fd95 f   awt_Toolkit.obj
 0001:0011ed9f       __ehhandler$_Java_sun_awt_windows_WToolkit_postDispose@8 1011fd9f f   awt_Toolkit.obj
 0001:0011eda9       __ehhandler$_Java_sun_awt_windows_WToolkit_setDynamicLayoutNative@12 1011fda9 f   awt_Toolkit.obj
 0001:0011edb3       __ehhandler$_Java_sun_awt_windows_WToolkit_isDynamicLayoutSupportedNative@8 1011fdb3 f   awt_Toolkit.obj
 0001:0011edbd       __ehhandler$_Java_sun_awt_windows_WToolkit_printWindowsVersion@8 1011fdbd f   awt_Toolkit.obj
 0001:0011edc7       __ehhandler$_Java_sun_awt_windows_WToolkit_isProtectedMode@8 1011fdc7 f   awt_Toolkit.obj
 0001:0011edd1       __ehhandler$_Java_sun_awt_windows_WToolkit_isWindowOpacityControlSupported@8 1011fdd1 f   awt_Toolkit.obj
 0001:0011eddb       __ehhandler$_Java_sun_awt_windows_WToolkit_isWindowTranslucencySupported@8 1011fddb f   awt_Toolkit.obj
 0001:0011edf0       $L75720                    1011fdf0 f   awt_Window.obj
 0001:0011edf8       __ehhandler$??0AwtWindow@@QAE@XZ 1011fdf8 f   awt_Window.obj
 0001:0011ee02       $L75773                    1011fe02 f   awt_Window.obj
 0001:0011ee0a       __ehhandler$??1AwtWindow@@UAE@XZ 1011fe0a f   awt_Window.obj
 0001:0011ee14       $L75889                    1011fe14 f   awt_Window.obj
 0001:0011ee2b       __ehhandler$?Create@AwtWindow@@SAPAV1@PAV_jobject@@0@Z 1011fe2b f   awt_Window.obj
 0001:0011ee35       __ehhandler$?InvalidateChildRect@@YGHPAUHWND__@@J@Z 1011fe35 f   awt_Window.obj
 0001:0011ee3f       __ehhandler$?CreateIconFromRaster@@YAPAUHICON__@@PAUJNIEnv_@@PAV_jintArray@@JJ@Z 1011fe3f f   awt_Window.obj
 0001:0011ee49       __ehhandler$?CreateBitmapFromRaster@@YAPAUHBITMAP__@@PAUJNIEnv_@@PAV_jintArray@@JJ@Z 1011fe49 f   awt_Window.obj
 0001:0011ee53       __ehhandler$_Java_java_awt_Window_initIDs@8 1011fe53 f   awt_Window.obj
 0001:0011ee5d       __ehhandler$_Java_sun_awt_windows_WWindowPeer_initIDs@8 1011fe5d f   awt_Window.obj
 0001:0011ee67       __ehhandler$_Java_sun_awt_windows_WWindowPeer__1toFront@8 1011fe67 f   awt_Window.obj
 0001:0011ee71       __ehhandler$_Java_sun_awt_windows_WWindowPeer_toBack@8 1011fe71 f   awt_Window.obj
 0001:0011ee7b       __ehhandler$_Java_sun_awt_windows_WWindowPeer_setAlwaysOnTopNative@12 1011fe7b f   awt_Window.obj
 0001:0011ee85       __ehhandler$_Java_sun_awt_windows_WWindowPeer__1setTitle@12 1011fe85 f   awt_Window.obj
 0001:0011ee8f       __ehhandler$_Java_sun_awt_windows_WWindowPeer__1setResizable@12 1011fe8f f   awt_Window.obj
 0001:0011ee99       __ehhandler$_Java_sun_awt_windows_WWindowPeer_createAwtWindow@12 1011fe99 f   awt_Window.obj
 0001:0011eea3       __ehhandler$_Java_sun_awt_windows_WWindowPeer_updateInsets@12 1011fea3 f   awt_Window.obj
 0001:0011eead       __ehhandler$_Java_sun_awt_windows_WWindowPeer_reshapeFrame@24 1011fead f   awt_Window.obj
 0001:0011eeb7       __ehhandler$_Java_sun_awt_windows_WWindowPeer_getSysMinWidth@8 1011feb7 f   awt_Window.obj
 0001:0011eec1       __ehhandler$_Java_sun_awt_windows_WWindowPeer_getSysMinHeight@8 1011fec1 f   awt_Window.obj
 0001:0011eecb       __ehhandler$_Java_sun_awt_windows_WWindowPeer_getSysIconHeight@8 1011fecb f   awt_Window.obj
 0001:0011eed5       __ehhandler$_Java_sun_awt_windows_WWindowPeer_getSysIconWidth@8 1011fed5 f   awt_Window.obj
 0001:0011eedf       __ehhandler$_Java_sun_awt_windows_WWindowPeer_getSysSmIconHeight@8 1011fedf f   awt_Window.obj
 0001:0011eee9       __ehhandler$_Java_sun_awt_windows_WWindowPeer_getSysSmIconWidth@8 1011fee9 f   awt_Window.obj
 0001:0011eef3       __ehhandler$_Java_sun_awt_windows_WWindowPeer_setIconImagesData@32 1011fef3 f   awt_Window.obj
 0001:0011eefd       __ehhandler$_Java_sun_awt_windows_WWindowPeer_setMinSize@16 1011fefd f   awt_Window.obj
 0001:0011ef07       __ehhandler$_Java_sun_awt_windows_WWindowPeer_getScreenImOn@8 1011ff07 f   awt_Window.obj
 0001:0011ef11       __ehhandler$_Java_sun_awt_windows_WWindowPeer_modalDisable@20 1011ff11 f   awt_Window.obj
 0001:0011ef1b       __ehhandler$_Java_sun_awt_windows_WWindowPeer_modalEnable@12 1011ff1b f   awt_Window.obj
 0001:0011ef25       __ehhandler$_Java_sun_awt_windows_WWindowPeer_setFocusableWindow@12 1011ff25 f   awt_Window.obj
 0001:0011ef2f       __ehhandler$_Java_sun_awt_windows_WWindowPeer_nativeGrab@8 1011ff2f f   awt_Window.obj
 0001:0011ef39       __ehhandler$_Java_sun_awt_windows_WWindowPeer_nativeUngrab@8 1011ff39 f   awt_Window.obj
 0001:0011ef43       __ehhandler$_Java_sun_awt_windows_WWindowPeer_setOpacity@12 1011ff43 f   awt_Window.obj
 0001:0011ef4d       __ehhandler$_Java_sun_awt_windows_WWindowPeer_setOpaqueImpl@12 1011ff4d f   awt_Window.obj
 0001:0011ef57       __ehhandler$_Java_sun_awt_windows_WWindowPeer_updateWindowImpl@20 1011ff57 f   awt_Window.obj
 0001:0011ef61       __ehhandler$_AwtWindow_UpdateWindow 1011ff61 f   awt_Window.obj
 0001:0011ef6b       __ehhandler$_Java_sun_awt_windows_WWindowPeer_repositionSecurityWarning@8 1011ff6b f   awt_Window.obj
 0001:0011ef80       __ehhandler$_Java_sun_awt_Win32GraphicsEnvironment_getXResolution@8 1011ff80 f   awt_Win32GraphicsEnv.obj
 0001:0011ef8a       __ehhandler$_Java_sun_awt_Win32GraphicsEnvironment_getYResolution@8 1011ff8a f   awt_Win32GraphicsEnv.obj
 0001:0011efa0       $L74862                    1011ffa0 f   awt_Win32GraphicsDevice.obj
 0001:0011efb7       __ehhandler$?Initialize@AwtWin32GraphicsDevice@@QAEXXZ 1011ffb7 f   awt_Win32GraphicsDevice.obj
 0001:0011efc1       $L74880                    1011ffc1 f   awt_Win32GraphicsDevice.obj
 0001:0011efdb       __ehhandler$?GetColorModel@AwtWin32GraphicsDevice@@QAEPAV_jobject@@PAUJNIEnv_@@E@Z 1011ffdb f   awt_Win32GraphicsDevice.obj
 0001:0011efe5       $L74947                    1011ffe5 f   awt_Win32GraphicsDevice.obj
 0001:0011efed       __ehhandler$?GetColorModel@AwtWin32GraphicsDevice@@SAPAV_jobject@@PAUJNIEnv_@@EH@Z 1011ffed f   awt_Win32GraphicsDevice.obj
 0001:0011eff7       $L74960                    1011fff7 f   awt_Win32GraphicsDevice.obj
 0001:0011efff       __ehhandler$?_getMonitorInfo@AwtWin32GraphicsDevice@@SAPAUtagMONITOR_INFO@@H@Z 1011ffff f   awt_Win32GraphicsDevice.obj
 0001:0011f009       $L74968                    10120009 f   awt_Win32GraphicsDevice.obj
 0001:0011f011       __ehhandler$?ResetAllMonitorInfo@AwtWin32GraphicsDevice@@SAXXZ 10120011 f   awt_Win32GraphicsDevice.obj
 0001:0011f01b       $L74978                    1012001b f   awt_Win32GraphicsDevice.obj
 0001:0011f023       __ehhandler$?DisableOffscreenAccelerationForDevice@AwtWin32GraphicsDevice@@SAXPAX@Z 10120023 f   awt_Win32GraphicsDevice.obj
 0001:0011f02d       $L74985                    1012002d f   awt_Win32GraphicsDevice.obj
 0001:0011f035       __ehhandler$?GetMonitor@AwtWin32GraphicsDevice@@SAPAXH@Z 10120035 f   awt_Win32GraphicsDevice.obj
 0001:0011f03f       $L74992                    1012003f f   awt_Win32GraphicsDevice.obj
 0001:0011f047       __ehhandler$?GetPalette@AwtWin32GraphicsDevice@@SAPAUHPALETTE__@@H@Z 10120047 f   awt_Win32GraphicsDevice.obj
 0001:0011f051       $L74998                    10120051 f   awt_Win32GraphicsDevice.obj
 0001:0011f059       __ehhandler$?UpdateDynamicColorModel@AwtWin32GraphicsDevice@@SAXH@Z 10120059 f   awt_Win32GraphicsDevice.obj
 0001:0011f063       $L75005                    10120063 f   awt_Win32GraphicsDevice.obj
 0001:0011f06b       __ehhandler$?UpdateSystemPalette@AwtWin32GraphicsDevice@@SAHH@Z 1012006b f   awt_Win32GraphicsDevice.obj
 0001:0011f075       $L75012                    10120075 f   awt_Win32GraphicsDevice.obj
 0001:0011f07d       __ehhandler$?SelectPalette@AwtWin32GraphicsDevice@@SAPAUHPALETTE__@@PAUHDC__@@H@Z 1012007d f   awt_Win32GraphicsDevice.obj
 0001:0011f087       $L75018                    10120087 f   awt_Win32GraphicsDevice.obj
 0001:0011f08f       __ehhandler$?RealizePalette@AwtWin32GraphicsDevice@@SAXPAUHDC__@@H@Z 1012008f f   awt_Win32GraphicsDevice.obj
 0001:0011f099       $L75025                    10120099 f   awt_Win32GraphicsDevice.obj
 0001:0011f0a1       __ehhandler$?GetColorData@AwtWin32GraphicsDevice@@SAPAU_ColorData@@H@Z 101200a1 f   awt_Win32GraphicsDevice.obj
 0001:0011f0ab       $L75034                    101200ab f   awt_Win32GraphicsDevice.obj
 0001:0011f0b3       __ehhandler$?GetGrayness@AwtWin32GraphicsDevice@@SAHH@Z 101200b3 f   awt_Win32GraphicsDevice.obj
 0001:0011f0bd       $L75043                    101200bd f   awt_Win32GraphicsDevice.obj
 0001:0011f0c5       __ehhandler$?GetDCFromScreen@AwtWin32GraphicsDevice@@SAPAUHDC__@@H@Z 101200c5 f   awt_Win32GraphicsDevice.obj
 0001:0011f0cf       $L75052                    101200cf f   awt_Win32GraphicsDevice.obj
 0001:0011f0d7       __ehhandler$?GetScreenFromMHND@AwtWin32GraphicsDevice@@SAHPAX@Z 101200d7 f   awt_Win32GraphicsDevice.obj
 0001:0011f0e1       __ehhandler$_Java_sun_awt_Win32GraphicsDevice_initIDs@8 101200e1 f   awt_Win32GraphicsDevice.obj
 0001:0011f0eb       __ehhandler$_Java_sun_awt_Win32GraphicsDevice_getMaxConfigsImpl@12 101200eb f   awt_Win32GraphicsDevice.obj
 0001:0011f0f5       __ehhandler$_Java_sun_awt_Win32GraphicsDevice_isPixFmtSupported@16 101200f5 f   awt_Win32GraphicsDevice.obj
 0001:0011f0ff       __ehhandler$_Java_sun_awt_Win32GraphicsDevice_getDefaultPixIDImpl@12 101200ff f   awt_Win32GraphicsDevice.obj
 0001:0011f109       __ehhandler$_Java_sun_awt_Win32GraphicsDevice_enterFullScreenExclusive@16 10120109 f   awt_Win32GraphicsDevice.obj
 0001:0011f113       __ehhandler$_Java_sun_awt_Win32GraphicsDevice_exitFullScreenExclusive@16 10120113 f   awt_Win32GraphicsDevice.obj
 0001:0011f11d       __ehhandler$?CreateDisplayMode@@YAPAV_jobject@@PAUJNIEnv_@@JJJJ@Z 1012011d f   awt_Win32GraphicsDevice.obj
 0001:0011f127       __ehhandler$_Java_sun_awt_Win32GraphicsDevice_getCurrentDisplayMode@12 10120127 f   awt_Win32GraphicsDevice.obj
 0001:0011f131       $L75181                    10120131 f   awt_Win32GraphicsDevice.obj
 0001:0011f139       __ehhandler$?GetAttachedDisplayDevice@@YAHHPAUtagDISPLAY_DEVICE@@@Z 10120139 f   awt_Win32GraphicsDevice.obj
 0001:0011f143       __ehhandler$_Java_sun_awt_Win32GraphicsDevice_configDisplayMode@32 10120143 f   awt_Win32GraphicsDevice.obj
 0001:0011f14d       __ehhandler$?addDisplayMode@@YAXPAUJNIEnv_@@PAV_jobject@@JJJJ@Z 1012014d f   awt_Win32GraphicsDevice.obj
 0001:0011f157       __ehhandler$_Java_sun_awt_Win32GraphicsDevice_enumDisplayModes@16 10120157 f   awt_Win32GraphicsDevice.obj
 0001:0011f170       __ehhandler$_Java_sun_awt_Win32GraphicsConfig_initIDs@8 10120170 f   awt_Win32GraphicsConfig.obj
 0001:0011f180       __ehhandler$?QueryInterface@AwtDropTarget@@UAGJABU_GUID@@PAPAX@Z 10120180 f   awt_DnDDT.obj
 0001:0011f18a       $L75163                    1012018a f   awt_DnDDT.obj
 0001:0011f192       __ehhandler$?DragEnter@AwtDropTarget@@UAGJPAUIDataObject@@KU_POINTL@@PAK@Z 10120192 f   awt_DnDDT.obj
 0001:0011f19c       $L75197                    1012019c f   awt_DnDDT.obj
 0001:0011f1a4       __ehhandler$?DragOver@AwtDropTarget@@UAGJKU_POINTL@@PAK@Z 101201a4 f   awt_DnDDT.obj
 0001:0011f1ae       $L75221                    101201ae f   awt_DnDDT.obj
 0001:0011f1b6       __ehhandler$?DragLeave@AwtDropTarget@@UAGJXZ 101201b6 f   awt_DnDDT.obj
 0001:0011f1c0       $L75245                    101201c0 f   awt_DnDDT.obj
 0001:0011f1c8       __ehhandler$?Drop@AwtDropTarget@@UAGJPAUIDataObject@@KU_POINTL@@PAK@Z 101201c8 f   awt_DnDDT.obj
 0001:0011f1d2       $L75311                    101201d2 f   awt_DnDDT.obj
 0001:0011f1ec       __ehhandler$?GetData@AwtDropTarget@@MAEPAV_jobject@@_J@Z 101201ec f   awt_DnDDT.obj
 0001:0011f1f6       __ehhandler$_Java_sun_awt_windows_WDropTargetContextPeer_getData@24 101201f6 f   awt_DnDDT.obj
 0001:0011f200       __ehhandler$_Java_sun_awt_windows_WDropTargetContextPeer_dropDone@24 10120200 f   awt_DnDDT.obj
 0001:0011f20a       __ehhandler$_Java_sun_awt_windows_WDropTargetContextPeerFileStream_freeStgMedium@16 1012020a f   awt_DnDDT.obj
 0001:0011f214       __ehhandler$_Java_sun_awt_windows_WDropTargetContextPeerIStream_Available@16 10120214 f   awt_DnDDT.obj
 0001:0011f21e       __ehhandler$_Java_sun_awt_windows_WDropTargetContextPeerIStream_Read@16 1012021e f   awt_DnDDT.obj
 0001:0011f228       __ehhandler$_Java_sun_awt_windows_WDropTargetContextPeerIStream_ReadBytes@28 10120228 f   awt_DnDDT.obj
 0001:0011f232       __ehhandler$_Java_sun_awt_windows_WDropTargetContextPeerIStream_Close@16 10120232 f   awt_DnDDT.obj
 0001:0011f240       __ehhandler$?LoadCache@AwtDragSource@@AAEXPAV_jlongArray@@@Z 10120240 f   awt_DnDDS.obj
 0001:0011f24a       __ehhandler$?MatchFormatEtc@AwtDragSource@@IAGJPAUtagFORMATETC@@0@Z 1012024a f   awt_DnDDS.obj
 0001:0011f254       __ehhandler$?QueryInterface@AwtDragSource@@UAGJABU_GUID@@PAPAX@Z 10120254 f   awt_DnDDS.obj
 0001:0011f25e       __ehhandler$?QueryContinueDrag@AwtDragSource@@UAGJHK@Z 1012025e f   awt_DnDDS.obj
 0001:0011f268       __ehhandler$?GiveFeedback@AwtDragSource@@UAGJK@Z 10120268 f   awt_DnDDS.obj
 0001:0011f272       $L73546                    10120272 f   awt_DnDDS.obj
 0001:0011f289       __ehhandler$?GetData@AwtDragSource@@UAGJPAUtagFORMATETC@@PAUtagSTGMEDIUM@@@Z 10120289 f   awt_DnDDS.obj
 0001:0011f293       __ehhandler$?GetDataHere@AwtDragSource@@UAGJPAUtagFORMATETC@@PAUtagSTGMEDIUM@@@Z 10120293 f   awt_DnDDS.obj
 0001:0011f29d       __ehhandler$?QueryGetData@AwtDragSource@@UAGJPAUtagFORMATETC@@@Z 1012029d f   awt_DnDDS.obj
 0001:0011f2a7       __ehhandler$?GetCanonicalFormatEtc@AwtDragSource@@UAGJPAUtagFORMATETC@@0@Z 101202a7 f   awt_DnDDS.obj
 0001:0011f2b1       $L73637                    101202b1 f   awt_DnDDS.obj
 0001:0011f2c8       __ehhandler$?EnumFormatEtc@AwtDragSource@@UAGJKPAPAUIEnumFORMATETC@@@Z 101202c8 f   awt_DnDDS.obj
 0001:0011f2d2       __ehhandler$?QueryInterface@ADSIEnumFormatEtc@AwtDragSource@@UAGJABU_GUID@@PAPAX@Z 101202d2 f   awt_DnDDS.obj
 0001:0011f2dc       __ehhandler$?Next@ADSIEnumFormatEtc@AwtDragSource@@UAGJKPAUtagFORMATETC@@PAK@Z 101202dc f   awt_DnDDS.obj
 0001:0011f2e6       __ehhandler$?Skip@ADSIEnumFormatEtc@AwtDragSource@@UAGJK@Z 101202e6 f   awt_DnDDS.obj
 0001:0011f2f0       $L73756                    101202f0 f   awt_DnDDS.obj
 0001:0011f307       __ehhandler$?Clone@ADSIEnumFormatEtc@AwtDragSource@@UAGJPAPAUIEnumFORMATETC@@@Z 10120307 f   awt_DnDDS.obj
 0001:0011f311       __ehhandler$?QueryInterface@ADSIStreamProxy@AwtDragSource@@UAGJABU_GUID@@PAPAX@Z 10120311 f   awt_DnDDS.obj
 0001:0011f31b       __ehhandler$?Read@ADSIStreamProxy@AwtDragSource@@UAGJPAXKPAK@Z 1012031b f   awt_DnDDS.obj
 0001:0011f325       __ehhandler$?Write@ADSIStreamProxy@AwtDragSource@@UAGJPBXKPAK@Z 10120325 f   awt_DnDDS.obj
 0001:0011f32f       __ehhandler$?Seek@ADSIStreamProxy@AwtDragSource@@UAGJT_LARGE_INTEGER@@KPAT_ULARGE_INTEGER@@@Z 1012032f f   awt_DnDDS.obj
 0001:0011f339       __ehhandler$?CopyTo@ADSIStreamProxy@AwtDragSource@@UAGJPAUIStream@@T_ULARGE_INTEGER@@PAT4@2@Z 10120339 f   awt_DnDDS.obj
 0001:0011f343       __ehhandler$?Stat@ADSIStreamProxy@AwtDragSource@@UAGJPAUtagSTATSTG@@K@Z 10120343 f   awt_DnDDS.obj
 0001:0011f34d       $L73906                    1012034d f   awt_DnDDS.obj
 0001:0011f364       __ehhandler$?Clone@ADSIStreamProxy@AwtDragSource@@UAGJPAPAUIStream@@@Z 10120364 f   awt_DnDDS.obj
 0001:0011f36e       __ehhandler$_Java_sun_awt_windows_WDragSourceContextPeer_setNativeCursor@24 1012036e f   awt_DnDDS.obj
 0001:0011f378       $L73941                    10120378 f   awt_DnDDS.obj
 0001:0011f38f       __ehhandler$_Java_sun_awt_windows_WDragSourceContextPeer_createDragSource@32 1012038f f   awt_DnDDS.obj
 0001:0011f399       __ehhandler$_Java_sun_awt_windows_WDragSourceContextPeer_doDragDrop@20 10120399 f   awt_DnDDS.obj
 0001:0011f3b0       $L31591                    101203b0 f   awt_TrayIcon.obj
 0001:0011f3b8       __ehhandler$??0AwtTrayIcon@@QAE@XZ 101203b8 f   awt_TrayIcon.obj
 0001:0011f3c2       $L31605                    101203c2 f   awt_TrayIcon.obj
 0001:0011f3ca       __ehhandler$??1AwtTrayIcon@@UAE@XZ 101203ca f   awt_TrayIcon.obj
 0001:0011f3d4       $L31625                    101203d4 f   awt_TrayIcon.obj
 0001:0011f3eb       __ehhandler$?Create@AwtTrayIcon@@SAPAV1@PAV_jobject@@0@Z 101203eb f   awt_TrayIcon.obj
 0001:0011f3f5       __ehhandler$_Java_java_awt_TrayIcon_initIDs@8 101203f5 f   awt_TrayIcon.obj
 0001:0011f3ff       __ehhandler$_Java_sun_awt_windows_WTrayIconPeer_create@8 101203ff f   awt_TrayIcon.obj
 0001:0011f409       __ehhandler$_Java_sun_awt_windows_WTrayIconPeer__1dispose@8 10120409 f   awt_TrayIcon.obj
 0001:0011f413       __ehhandler$_Java_sun_awt_windows_WTrayIconPeer_setToolTip@12 10120413 f   awt_TrayIcon.obj
 0001:0011f41d       __ehhandler$_Java_sun_awt_windows_WTrayIconPeer_setNativeIcon@28 1012041d f   awt_TrayIcon.obj
 0001:0011f427       __ehhandler$_Java_sun_awt_windows_WTrayIconPeer_updateNativeIcon@12 10120427 f   awt_TrayIcon.obj
 0001:0011f431       __ehhandler$_Java_sun_awt_windows_WTrayIconPeer__1displayMessage@20 10120431 f   awt_TrayIcon.obj
 0001:0011f440       $L31643                    10120440 f   awt_TrayIcon.obj
 0001:0011f454       __ehhandler$?AddTrayIconItem@AwtTrayIcon@@QAEXI@Z 10120454 f   awt_TrayIcon.obj
 0001:0011f460       $L54601                    10120460 f   D3DContext.obj
 0001:0011f477       __ehhandler$?CreateInstance@D3DContext@@SAJPAUIDirect3D9@@IPAPAV1@@Z 10120477 f   D3DContext.obj
 0001:0011f490       $L51988                    10120490 f   D3DGlyphCache.obj
 0001:0011f4a4       __ehhandler$?CreateInstance@D3DGlyphCache@@SAJPAVD3DContext@@W4GlyphCacheType@@PAPAV1@@Z 101204a4 f   D3DGlyphCache.obj
 0001:0011f4b0       $L51818                    101204b0 f   D3DMaskCache.obj
 0001:0011f4c4       __ehhandler$?CreateInstance@D3DMaskCache@@SAJPAVD3DContext@@PAPAV1@@Z 101204c4 f   D3DMaskCache.obj
 0001:0011f4d0       $L54005                    101204d0 f   D3DPipelineManager.obj
 0001:0011f4e4       __ehhandler$?CreateInstance@D3DPipelineManager@@CAPAV1@XZ 101204e4 f   D3DPipelineManager.obj
 0001:0011f4ee       $L54086                    101204ee f   D3DPipelineManager.obj
 0001:0011f4f6       __ehhandler$??1D3DInitializer@@EAE@XZ 101204f6 f   D3DPipelineManager.obj
 0001:0011f500       $L54097                    10120500 f   D3DPipelineManager.obj
 0001:0011f517       __ehhandler$?InitImpl@D3DInitializer@@MAEXXZ 10120517 f   D3DPipelineManager.obj
 0001:0011f530       $L52543                    10120530 f   D3DResourceManager.obj
 0001:0011f538       __ehhandler$??1D3DResource@@MAE@XZ 10120538 f   D3DResourceManager.obj
 0001:0011f542       $L52570                    10120542 f   D3DResourceManager.obj
 0001:0011f556       __ehhandler$?CreateInstance@D3DResourceManager@@SAJPAVD3DContext@@PAPAV1@@Z 10120556 f   D3DResourceManager.obj
 0001:0011f560       $L52597                    10120560 f   D3DResourceManager.obj
 0001:0011f577       __ehhandler$?CreateTexture@D3DResourceManager@@QAEJIIHHPAW4_D3DFORMAT@@KPAPAVD3DResource@@@Z 10120577 f   D3DResourceManager.obj
 0001:0011f581       $L52620                    10120581 f   D3DResourceManager.obj
 0001:0011f598       __ehhandler$?CreateRTSurface@D3DResourceManager@@QAEJIIHHPAW4_D3DFORMAT@@PAPAVD3DResource@@@Z 10120598 f   D3DResourceManager.obj
 0001:0011f5a2       $L52630                    101205a2 f   D3DResourceManager.obj
 0001:0011f5b9       __ehhandler$?CreateOSPSurface@D3DResourceManager@@AAEJIIW4_D3DFORMAT@@PAPAVD3DResource@@@Z 101205b9 f   D3DResourceManager.obj
 0001:0011f5c3       $L52640                    101205c3 f   D3DResourceManager.obj
 0001:0011f5da       __ehhandler$?CreateSwapChain@D3DResourceManager@@QAEJPAUHWND__@@IIIW4_D3DSWAPEFFECT@@IPAPAVD3DResource@@@Z 101205da f   D3DResourceManager.obj
 0001:0011f5f0       $L52646                    101205f0 f   D3DResourceManager.obj
 0001:0011f5f0       $L52603                    101205f0 f   D3DResourceManager.obj
 0001:0011f5f8       __ehhandler$??0D3DResource@@QAE@PAUIDirect3DResource9@@@Z 101205f8 f   D3DResourceManager.obj
 0001:0011f5f8       __ehhandler$??0D3DResource@@QAE@PAUIDirect3DSwapChain9@@@Z 101205f8 f   D3DResourceManager.obj
 0001:0011f610       $L53363                    10120610 f   D3DVertexCacher.obj
 0001:0011f627       __ehhandler$?CreateInstance@D3DVertexCacher@@SAJPAVD3DContext@@PAPAV1@@Z 10120627 f   D3DVertexCacher.obj
 0001:0011f640       __ehhandler$?SharedWindowProc@ComCtl32Util@@CGJPAUHWND__@@IIJIK@Z 10120640 f   ComCtl32Util.obj
 0001:0011f650       __ehhandler$?load_rich_edit_library@@YAXXZ 10120650 f   awt_dlls.obj
 0001:0011f660       _$E1                       10120660 f   GDIHashtable.obj
 0001:0011f690       _$E3                       10120690 f   Devices.obj
 0001:0011f6b0       _$E1                       101206b0 f   ObjectList.obj
 0001:0011f6d0       _$E1                       101206d0 f   awt_Brush.obj
 0001:0011f700       _$E1                       10120700 f   awt_Component.obj
 0001:0011f720       _$E3                       10120720 f   awt_Component.obj
 0001:0011f740       _$E6                       10120740 f   awt_Component.obj
 0001:0011f760       _$E9                       10120760 f   awt_Component.obj
 0001:0011f780       _$E11                      10120780 f   awt_Component.obj
 0001:0011f7a0       _$E13                      101207a0 f   awt_Component.obj
 0001:0011f7c0       _$E15                      101207c0 f   awt_Component.obj
 0001:0011f820       _$E17                      10120820 f   awt_Component.obj
 0001:0011f880       _$E19                      10120880 f   awt_Component.obj
 0001:0011f8c0       _$E21                      101208c0 f   awt_Component.obj
 0001:0011f910       _$E23                      10120910 f   awt_Component.obj
 0001:0011f930       _$E25                      10120930 f   awt_Component.obj
 0001:0011f950       _$E28                      10120950 f   awt_Component.obj
 0001:0011f970       _$E30                      10120970 f   awt_Component.obj
 0001:0011f990       _$E32                      10120990 f   awt_Component.obj
 0001:0011f9b0       _$E1                       101209b0 f   awt_Cursor.obj
 0001:0011f9d0       _$E1                       101209d0 f   awt_Debug.obj
 0001:0011f9f0       _$E1                       101209f0 f   awt_Font.obj
 0001:0011fa00       _$E3                       10120a00 f   awt_Font.obj
 0001:0011fa20       _$E1                       10120a20 f   awt_Frame.obj
 0001:0011fa50       _$E1                       10120a50 f   awt_GDIObject.obj
 0001:0011fa60       _$E1                       10120a60 f   awt_MenuItem.obj
 0001:0011fa80       _$E3                       10120a80 f   awt_MenuItem.obj
 0001:0011faa0       _$E5                       10120aa0 f   awt_MenuItem.obj
 0001:0011fb00       _$E7                       10120b00 f   awt_MenuItem.obj
 0001:0011fb50       _$E9                       10120b50 f   awt_MenuItem.obj
 0001:0011fb70       _$E1                       10120b70 f   awt_Pen.obj
 0001:0011fba0       _$E1                       10120ba0 f   awt_TextArea.obj
 0001:0011fc30       _$E3                       10120c30 f   awt_TextArea.obj
 0001:0011fc40       _$E4                       10120c40 f   awt_Toolkit.obj
 0001:0011fc60       _$E2                       10120c60 f   awt_DnDDS.obj
 0001:0011fc80       _$E1                       10120c80 f   awt_TrayIcon.obj
 0001:0011fca0       _$E3                       10120ca0 f   awt_TrayIcon.obj
 0001:0011fcc0       _$E5                       10120cc0 f   awt_TrayIcon.obj
 0001:0011fce0       _$E3                       10120ce0 f   D3DPipelineManager.obj
 0001:0011fd00       _$E5                       10120d00 f   D3DPipelineManager.obj
 0001:0011fd20       _$E1                       10120d20 f   ComCtl32Util.obj
 0001:0011fd40       _$E2                       10120d40 f   GDIHashtable.obj
 0001:0011fd50       _$E4                       10120d50 f   Devices.obj
 0001:0011fd60       _$E2                       10120d60 f   ObjectList.obj
 0001:0011fd70       _$E2                       10120d70 f   awt_Brush.obj
 0001:0011fd80       _$E4                       10120d80 f   awt_Component.obj
 0001:0011fd90       _$E7                       10120d90 f   awt_Component.obj
 0001:0011fda0       _$E26                      10120da0 f   awt_Component.obj
 0001:0011fdb0       _$E35                      10120db0 f   awt_Component.obj
 0001:0011fdc0       _$E2                       10120dc0 f   awt_Cursor.obj
 0001:0011fdd0       _$E2                       10120dd0 f   awt_Debug.obj
 0001:0011fde0       _$E4                       10120de0 f   awt_Font.obj
 0001:0011fdf0       _$E7                       10120df0 f   awt_Font.obj
 0001:0011fe00       _$E2                       10120e00 f   awt_Frame.obj
 0001:0011fe10       _$E2                       10120e10 f   awt_Pen.obj
 0001:0011fe20       _$E5                       10120e20 f   awt_Toolkit.obj
 0001:0011fe30       _$E6                       10120e30 f   D3DPipelineManager.obj
 0001:0011fe40       _$E2                       10120e40 f   ComCtl32Util.obj
