 jawt

 Timestamp is 4cfadf8f (Sat Dec 04 16:40:47 2010)

 Preferred load address is 10000000

 Start         Length     Name                   Class
 0001:00000000 00000370H .text                   CODE
 0002:00000000 00000044H .idata$5                DATA
 0002:00000050 000000c8H .rdata                  DATA
 0002:00000118 00000068H .rdata$debug            DATA
 0002:00000180 00000004H .rdata$sxdata           DATA
 0002:00000184 00000004H .rtc$IAA                DATA
 0002:00000188 00000004H .rtc$IZZ                DATA
 0002:0000018c 00000004H .rtc$TAA                DATA
 0002:00000190 00000004H .rtc$TZZ                DATA
 0002:00000194 0000003cH .idata$2                DATA
 0002:000001d0 00000014H .idata$3                DATA
 0002:000001e4 00000044H .idata$4                DATA
 0002:00000228 00000114H .idata$6                DATA
 0002:00000340 0000004aH .edata                  DATA
 0003:00000000 00000004H .CRT$XCA                DATA
 0003:00000004 00000004H .CRT$XCZ                DATA
 0003:00000008 00000004H .CRT$XIA                DATA
 0003:0000000c 00000004H .CRT$XIZ                DATA
 0003:00000010 0000000cH .data                   DATA
 0003:0000001c 00000014H .bss                    DATA
 0004:00000000 00000058H .rsrc$01                DATA
 0004:00000060 00000358H .rsrc$02                DATA

  Address         Publics by Value              Rva+Base     Lib:Object

 0000:00000001       ___safe_se_handler_count   00000001     <absolute>
 0001:00000000       _JAWT_GetAWT@8             10001000 f   jawt.obj
 0001:0000006a       _DSGetComponent@8          1000106a f   awt:awt.dll
 0001:00000070       _DSUnlockAWT@4             10001070 f   awt:awt.dll
 0001:00000076       _DSLockAWT@4               10001076 f   awt:awt.dll
 0001:0000007c       _DSFreeDrawingSurface@4    1000107c f   awt:awt.dll
 0001:00000082       _DSGetDrawingSurface@8     10001082 f   awt:awt.dll
 0001:00000088       __CRT_INIT@12              10001088 f   MSVCRT:crtdll.obj
 0001:00000146       __DllMainCRTStartup@12     10001146 f   MSVCRT:crtdll.obj
 0001:0000022a       __initterm                 1000122a f   MSVCRT:MSVCR71.dll
 0001:00000230       __onexit                   10001230 f   MSVCRT:atonexit.obj
 0001:00000256       _atexit                    10001256 f   MSVCRT:atonexit.obj
 0001:00000268       __RTC_Initialize           10001268 f   MSVCRT:initsect.obj
 0001:000002ac       __RTC_Terminate            100012ac f   MSVCRT:initsect.obj
 0001:000002f0       ___CppXcptFilter           100012f0 f   MSVCRT:MSVCR71.dll
 0001:000002f6       _DllMain@12                100012f6 f   MSVCRT:dllmain.obj
 0001:00000318       __SEH_prolog               10001318 f   MSVCRT:sehprolg.obj
 0001:00000353       __SEH_epilog               10001353 f   MSVCRT:sehprolg.obj
 0001:00000364       __except_handler3          10001364 f   MSVCRT:MSVCR71.dll
 0001:0000036a       ___dllonexit               1000136a f   MSVCRT:MSVCR71.dll
 0002:00000000       __imp__DisableThreadLibraryCalls@4 10002000     kernel32:KERNEL32.dll
 0002:00000004       \177KERNEL32_NULL_THUNK_DATA 10002004     kernel32:KERNEL32.dll
 0002:00000008       __imp___onexit             10002008     MSVCRT:MSVCR71.dll
 0002:0000000c       __imp____dllonexit         1000200c     MSVCRT:MSVCR71.dll
 0002:00000010       __imp___except_handler3    10002010     MSVCRT:MSVCR71.dll
 0002:00000014       __imp__free                10002014     MSVCRT:MSVCR71.dll
 0002:00000018       __imp___initterm           10002018     MSVCRT:MSVCR71.dll
 0002:0000001c       __imp__malloc              1000201c     MSVCRT:MSVCR71.dll
 0002:00000020       __imp___adjust_fdiv        10002020     MSVCRT:MSVCR71.dll
 0002:00000024       __imp____CppXcptFilter     10002024     MSVCRT:MSVCR71.dll
 0002:00000028       \177MSVCR71_NULL_THUNK_DATA 10002028     MSVCRT:MSVCR71.dll
 0002:0000002c       __imp__DSGetDrawingSurface@8 1000202c     awt:awt.dll
 0002:00000030       __imp__DSFreeDrawingSurface@4 10002030     awt:awt.dll
 0002:00000034       __imp__DSLockAWT@4         10002034     awt:awt.dll
 0002:00000038       __imp__DSUnlockAWT@4       10002038     awt:awt.dll
 0002:0000003c       __imp__DSGetComponent@8    1000203c     awt:awt.dll
 0002:00000040       \177awt_NULL_THUNK_DATA    10002040     awt:awt.dll
 0002:000000d0       __load_config_used         100020d0     MSVCRT:loadcfg.obj
 0002:00000180       ___safe_se_handler_table   10002180     <linker-defined>
 0002:00000184       ___rtc_iaa                 10002184     MSVCRT:initsect.obj
 0002:00000188       ___rtc_izz                 10002188     MSVCRT:initsect.obj
 0002:0000018c       ___rtc_taa                 1000218c     MSVCRT:initsect.obj
 0002:00000190       ___rtc_tzz                 10002190     MSVCRT:initsect.obj
 0002:00000194       __IMPORT_DESCRIPTOR_awt    10002194     awt:awt.dll
 0002:000001a8       __IMPORT_DESCRIPTOR_MSVCR71 100021a8     MSVCRT:MSVCR71.dll
 0002:000001bc       __IMPORT_DESCRIPTOR_KERNEL32 100021bc     kernel32:KERNEL32.dll
 0002:000001d0       __NULL_IMPORT_DESCRIPTOR   100021d0     awt:awt.dll
 0003:00000000       ___xc_a                    10003000     MSVCRT:cinitexe.obj
 0003:00000004       ___xc_z                    10003004     MSVCRT:cinitexe.obj
 0003:00000008       ___xi_a                    10003008     MSVCRT:cinitexe.obj
 0003:0000000c       ___xi_z                    1000300c     MSVCRT:cinitexe.obj
 0003:00000018       ___security_cookie         10003018     MSVCRT:seccook.obj
 0003:00000020       __adjust_fdiv              10003020     <common>
 0003:00000024       ___onexitend               10003024     <common>
 0003:00000028       ___onexitbegin             10003028     <common>
 0003:0000002c       __pRawDllMain              1000302c     <common>

 entry point at        0001:00000146

 Static symbols

