 jsoundds

 Timestamp is 4cfadb3d (Sat Dec 04 16:22:21 2010)

 Preferred load address is 10000000

 Start         Length     Name                   Class
 0001:00000000 00004d4eH .text                   CODE
 0001:00004d50 0000001cH .text$yc                CODE
 0001:00004d70 0000000fH .text$yd                CODE
 0002:00000000 00000088H .idata$5                DATA
 0002:00000090 00000220H .rdata                  DATA
 0002:000002b0 00000074H .rdata$debug            DATA
 0002:00000330 00000004H .rdata$sxdata           DATA
 0002:00000334 00000004H .rtc$IAA                DATA
 0002:00000338 00000004H .rtc$IZZ                DATA
 0002:0000033c 00000004H .rtc$TAA                DATA
 0002:00000340 00000004H .rtc$TZZ                DATA
 0002:00000344 00000064H .idata$2                DATA
 0002:000003a8 00000014H .idata$3                DATA
 0002:000003bc 00000088H .idata$4                DATA
 0002:00000444 000001caH .idata$6                DATA
 0002:00000610 000004d9H .edata                  DATA
 0003:00000000 00000004H .CRT$XCA                DATA
 0003:00000004 00000004H .CRT$XCU                DATA
 0003:00000008 00000004H .CRT$XCZ                DATA
 0003:0000000c 00000004H .CRT$XIA                DATA
 0003:00000010 00000004H .CRT$XIZ                DATA
 0003:00000020 000002e4H .data                   DATA
 0003:00000308 000007ecH .bss                    DATA
 0004:00000000 00000058H .rsrc$01                DATA
 0004:00000060 00000368H .rsrc$02                DATA

  Address         Publics by Value              Rva+Base     Lib:Object

 0000:00000000       __except_list              00000000     <absolute>
 0000:00000001       ___safe_se_handler_count   00000001     <absolute>
 0000:00009876       __fltused                  00009876     <absolute>
 0000:00009876       __ldused                   00009876     <absolute>
 0001:00000000       _getMidiSongCount          10001000 f   Utilities.obj
 0001:00000020       _ThrowJavaMessageException 10001020 f   Utilities.obj
 0001:00000060       _ThrowJavaOpErrException   10001060 f   Utilities.obj
 0001:00000090       _SleepMillisInJava         10001090 f   Utilities.obj
 0001:00000100       _TranslateOPErr            10001100 f   Utilities.obj
 0001:00000220       _UTIL_IsBigEndianPlatform  10001220 f   Utilities.obj
 0001:00000230       _getDirectAudioDeviceDescription 10001230 f   DirectAudioDeviceProvider.obj
 0001:000002c0       _Java_com_sun_media_sound_DirectAudioDeviceProvider_nGetNumDevices@8 100012c0 f   DirectAudioDeviceProvider.obj
 0001:000002e0       _Java_com_sun_media_sound_DirectAudioDeviceProvider_nNewDirectAudioDeviceInfo@12 100012e0 f   DirectAudioDeviceProvider.obj
 0001:00000410       _handleSignEndianConversion 10001410 f   DirectAudioDevice.obj
 0001:000005f0       _handleGainAndConversion   100015f0 f   DirectAudioDevice.obj
 0001:00002360       _ABS_VALUE                 10003360 f   DirectAudioDevice.obj
 0001:00002390       _DAUDIO_AddAudioFormat     10003390 f   DirectAudioDevice.obj
 0001:00002420       _Java_com_sun_media_sound_DirectAudioDevice_nGetFormats@24 10003420 f   DirectAudioDevice.obj
 0001:00002480       _Java_com_sun_media_sound_DirectAudioDevice_nOpen@52 10003480 f   DirectAudioDevice.obj
 0001:00002580       _Java_com_sun_media_sound_DirectAudioDevice_nStart@20 10003580 f   DirectAudioDevice.obj
 0001:000025c0       _Java_com_sun_media_sound_DirectAudioDevice_nStop@20 100035c0 f   DirectAudioDevice.obj
 0001:00002600       _Java_com_sun_media_sound_DirectAudioDevice_nClose@20 10003600 f   DirectAudioDevice.obj
 0001:00002660       _Java_com_sun_media_sound_DirectAudioDevice_nWrite@40 10003660 f   DirectAudioDevice.obj
 0001:00002890       _Java_com_sun_media_sound_DirectAudioDevice_nRead@32 10003890 f   DirectAudioDevice.obj
 0001:00002950       _Java_com_sun_media_sound_DirectAudioDevice_nGetBufferSize@20 10003950 f   DirectAudioDevice.obj
 0001:00002990       _Java_com_sun_media_sound_DirectAudioDevice_nIsStillDraining@20 10003990 f   DirectAudioDevice.obj
 0001:000029e0       _Java_com_sun_media_sound_DirectAudioDevice_nFlush@20 100039e0 f   DirectAudioDevice.obj
 0001:00002a20       _Java_com_sun_media_sound_DirectAudioDevice_nAvailable@20 10003a20 f   DirectAudioDevice.obj
 0001:00002a60       _Java_com_sun_media_sound_DirectAudioDevice_nGetBytePosition@28 10003a60 f   DirectAudioDevice.obj
 0001:00002ac0       _Java_com_sun_media_sound_DirectAudioDevice_nSetBytePosition@28 10003ac0 f   DirectAudioDevice.obj
 0001:00002b00       _Java_com_sun_media_sound_DirectAudioDevice_nRequiresServicing@20 10003b00 f   DirectAudioDevice.obj
 0001:00002b40       _Java_com_sun_media_sound_DirectAudioDevice_nService@20 10003b40 f   DirectAudioDevice.obj
 0001:00002b80       _MAP_SWAP16BIT             10003b80 f i DirectAudioDevice.obj
 0001:00002ba0       _MAP_ClipAndConvertToShort 10003ba0 f i DirectAudioDevice.obj
 0001:00002bd0       _MAP_ClipAndConvertToShort_Swapped 10003bd0 f i DirectAudioDevice.obj
 0001:00002c10       _MAP_ClipAndConvertToByte  10003c10 f i DirectAudioDevice.obj
 0001:00002c40       _MAP_ClipAndConvertToUByte 10003c40 f i DirectAudioDevice.obj
 0001:00002c70       ?DS_lockCache@@YAHXZ       10003c70 f   PLATFORM_API_WinOS_DirectSound.obj
 0001:00002c80       ?DS_unlockCache@@YAXXZ     10003c80 f   PLATFORM_API_WinOS_DirectSound.obj
 0001:00002c90       ?isEqualGUID@@YAHPAU_GUID@@0@Z 10003c90 f   PLATFORM_API_WinOS_DirectSound.obj
 0001:00002ce0       ?findCacheItemByGUID@@YAHPAU_GUID@@H@Z 10003ce0 f   PLATFORM_API_WinOS_DirectSound.obj
 0001:00002d40       ?findCacheItemByMixerIndex@@YAHH@Z 10003d40 f   PLATFORM_API_WinOS_DirectSound.obj
 0001:00002d80       ?DS_RefreshCacheEnum@@YGHPAU_GUID@@PBD1PAUDS_RefreshCacheStruct@@@Z 10003d80 f   PLATFORM_API_WinOS_DirectSound.obj
 0001:00002e90       _DAUDIO_GetDirectAudioDeviceCount 10003e90 f   PLATFORM_API_WinOS_DirectSound.obj
 0001:00002ff0       ?DS_GetDescEnum@@YGHPAU_GUID@@PBD1PAUtag_DirectAudioDeviceDescription@@@Z 10003ff0 f   PLATFORM_API_WinOS_DirectSound.obj
 0001:00003050       _DAUDIO_GetDirectAudioDeviceDescription 10004050 f   PLATFORM_API_WinOS_DirectSound.obj
 0001:00003110       _DAUDIO_GetFormats         10004110 f   PLATFORM_API_WinOS_DirectSound.obj
 0001:00003240       ?TranslateDSError@@YAPADJ@Z 10004240 f   PLATFORM_API_WinOS_DirectSound.obj
 0001:000033e0       ??0Data@DS_StartBufferHelper@@QAE@XZ 100043e0 f   PLATFORM_API_WinOS_DirectSound.obj
 0001:00003460       ??1Data@DS_StartBufferHelper@@QAE@XZ 10004460 f   PLATFORM_API_WinOS_DirectSound.obj
 0001:000034c0       ?ThreadProc@DS_StartBufferHelper@@KGKPAX@Z 100044c0 f   PLATFORM_API_WinOS_DirectSound.obj
 0001:00003560       ?StartBuffer@DS_StartBufferHelper@@SAJPAUDS_Info@@@Z 10004560 f   PLATFORM_API_WinOS_DirectSound.obj
 0001:000035d0       ?DS_addDeviceRef@@YAHH@Z   100045d0 f   PLATFORM_API_WinOS_DirectSound.obj
 0001:00003710       ?DS_removeDeviceRef@@YAXH@Z 10004710 f   PLATFORM_API_WinOS_DirectSound.obj
 0001:000037c0       ?createWaveFormat@@YAXPAUWAVEFORMATEXTENSIBLE@@HHHH@Z 100047c0 f   PLATFORM_API_WinOS_DirectSound.obj
 0001:000038c0       ?DS_clearBuffer@@YAXPAUDS_Info@@H@Z 100048c0 f   PLATFORM_API_WinOS_DirectSound.obj
 0001:00003b60       ?DS_createSoundBuffer@@YAPAXPAUDS_Info@@MHHH@Z 10004b60 f   PLATFORM_API_WinOS_DirectSound.obj
 0001:00003cc0       ?DS_destroySoundBuffer@@YAXPAUDS_Info@@@Z 10004cc0 f   PLATFORM_API_WinOS_DirectSound.obj
 0001:00003d10       _DAUDIO_Open               10004d10 f   PLATFORM_API_WinOS_DirectSound.obj
 0001:00003ee0       _DAUDIO_Start              10004ee0 f   PLATFORM_API_WinOS_DirectSound.obj
 0001:00003ff0       _DAUDIO_Stop               10004ff0 f   PLATFORM_API_WinOS_DirectSound.obj
 0001:00004040       _DAUDIO_Close              10005040 f   PLATFORM_API_WinOS_DirectSound.obj
 0001:00004080       ?DS_CheckUnderrun@@YAXPAUDS_Info@@KK@Z 10005080 f   PLATFORM_API_WinOS_DirectSound.obj
 0001:000040e0       ?DS_GetAvailable@@YAHPAUDS_Info@@PAK1PAHH@Z 100050e0 f   PLATFORM_API_WinOS_DirectSound.obj
 0001:00004340       _DAUDIO_Write              10005340 f   PLATFORM_API_WinOS_DirectSound.obj
 0001:00004570       _DAUDIO_Read               10005570 f   PLATFORM_API_WinOS_DirectSound.obj
 0001:000046d0       _DAUDIO_GetBufferSize      100056d0 f   PLATFORM_API_WinOS_DirectSound.obj
 0001:000046f0       _DAUDIO_StillDraining      100056f0 f   PLATFORM_API_WinOS_DirectSound.obj
 0001:00004750       _DAUDIO_Flush              10005750 f   PLATFORM_API_WinOS_DirectSound.obj
 0001:000047d0       _DAUDIO_GetAvailable       100057d0 f   PLATFORM_API_WinOS_DirectSound.obj
 0001:00004800       ?estimatePositionFromAvail@@YA_JPAUDS_Info@@_JHH@Z 10005800 f   PLATFORM_API_WinOS_DirectSound.obj
 0001:00004840       _DAUDIO_GetBytePosition    10005840 f   PLATFORM_API_WinOS_DirectSound.obj
 0001:000048b0       _DAUDIO_SetBytePosition    100058b0 f   PLATFORM_API_WinOS_DirectSound.obj
 0001:000048c0       _DAUDIO_RequiresServicing  100058c0 f   PLATFORM_API_WinOS_DirectSound.obj
 0001:000048d0       _DAUDIO_Service            100058d0 f   PLATFORM_API_WinOS_DirectSound.obj
 0001:00004940       ?isInitialized@DS_StartBufferHelper@@SAHXZ 10005940 f i PLATFORM_API_WinOS_DirectSound.obj
 0001:00004960       ?DS_getDistance@@YAHPAUDS_Info@@HH@Z 10005960 f i PLATFORM_API_WinOS_DirectSound.obj
 0001:00004990       ?DS_addPos@@YAHPAUDS_Info@@HH@Z 10005990 f i PLATFORM_API_WinOS_DirectSound.obj
 0001:000049be       _DirectSoundCaptureEnumerateA@8 100059be f   dsound:DSOUND.dll
 0001:000049c4       _DirectSoundEnumerateA@8   100059c4 f   dsound:DSOUND.dll
 0001:000049ca       _DirectSoundCaptureCreate@12 100059ca f   dsound:DSOUND.dll
 0001:000049d0       _DirectSoundCreate@12      100059d0 f   dsound:DSOUND.dll
 0001:000049d6       _strcpy                    100059d6 f   MSVCRT:MSVCR71.dll
 0001:000049e0       __ftol2                    100059e0 f   MSVCRT:ftol2.obj
 0001:00004a56       _memcmp                    10005a56 f   MSVCRT:MSVCR71.dll
 0001:00004a5c       _memcpy                    10005a5c f   MSVCRT:MSVCR71.dll
 0001:00004a62       _memset                    10005a62 f   MSVCRT:MSVCR71.dll
 0001:00004a68       __onexit                   10005a68 f   MSVCRT:atonexit.obj
 0001:00004a8e       _atexit                    10005a8e f   MSVCRT:atonexit.obj
 0001:00004aa0       __CRT_INIT@12              10005aa0 f   MSVCRT:crtdll.obj
 0001:00004b5e       __DllMainCRTStartup@12     10005b5e f   MSVCRT:crtdll.obj
 0001:00004c42       ___dllonexit               10005c42 f   MSVCRT:MSVCR71.dll
 0001:00004c48       __initterm                 10005c48 f   MSVCRT:MSVCR71.dll
 0001:00004c4e       __RTC_Initialize           10005c4e f   MSVCRT:initsect.obj
 0001:00004c92       __RTC_Terminate            10005c92 f   MSVCRT:initsect.obj
 0001:00004cd6       ___CppXcptFilter           10005cd6 f   MSVCRT:MSVCR71.dll
 0001:00004cdc       _DllMain@12                10005cdc f   MSVCRT:dllmain.obj
 0001:00004cfc       __SEH_prolog               10005cfc f   MSVCRT:sehprolg.obj
 0001:00004d37       __SEH_epilog               10005d37 f   MSVCRT:sehprolg.obj
 0001:00004d48       __except_handler3          10005d48 f   MSVCRT:MSVCR71.dll
 0002:00000000       __imp__DirectSoundCaptureEnumerateA@8 10006000     dsound:DSOUND.dll
 0002:00000004       __imp__DirectSoundCreate@12 10006004     dsound:DSOUND.dll
 0002:00000008       __imp__DirectSoundCaptureCreate@12 10006008     dsound:DSOUND.dll
 0002:0000000c       __imp__DirectSoundEnumerateA@8 1000600c     dsound:DSOUND.dll
 0002:00000010       \177DSOUND_NULL_THUNK_DATA 10006010     dsound:DSOUND.dll
 0002:00000014       __imp__EnterCriticalSection@4 10006014     kernel32:KERNEL32.dll
 0002:00000018       __imp__WaitForSingleObject@8 10006018     kernel32:KERNEL32.dll
 0002:0000001c       __imp__DisableThreadLibraryCalls@4 1000601c     kernel32:KERNEL32.dll
 0002:00000020       __imp__SetEvent@4          10006020     kernel32:KERNEL32.dll
 0002:00000024       __imp__LeaveCriticalSection@4 10006024     kernel32:KERNEL32.dll
 0002:00000028       __imp__InitializeCriticalSection@4 10006028     kernel32:KERNEL32.dll
 0002:0000002c       __imp__CreateEventA@16     1000602c     kernel32:KERNEL32.dll
 0002:00000030       __imp__CreateThread@24     10006030     kernel32:KERNEL32.dll
 0002:00000034       __imp__CloseHandle@4       10006034     kernel32:KERNEL32.dll
 0002:00000038       \177KERNEL32_NULL_THUNK_DATA 10006038     kernel32:KERNEL32.dll
 0002:0000003c       __imp__memset              1000603c     MSVCRT:MSVCR71.dll
 0002:00000040       __imp__strncpy             10006040     MSVCRT:MSVCR71.dll
 0002:00000044       __imp____dllonexit         10006044     MSVCRT:MSVCR71.dll
 0002:00000048       __imp___onexit             10006048     MSVCRT:MSVCR71.dll
 0002:0000004c       __imp___initterm           1000604c     MSVCRT:MSVCR71.dll
 0002:00000050       __imp___adjust_fdiv        10006050     MSVCRT:MSVCR71.dll
 0002:00000054       __imp____CppXcptFilter     10006054     MSVCRT:MSVCR71.dll
 0002:00000058       __imp___except_handler3    10006058     MSVCRT:MSVCR71.dll
 0002:0000005c       __imp__memcmp              1000605c     MSVCRT:MSVCR71.dll
 0002:00000060       __imp__malloc              10006060     MSVCRT:MSVCR71.dll
 0002:00000064       __imp__free                10006064     MSVCRT:MSVCR71.dll
 0002:00000068       __imp__strcpy              10006068     MSVCRT:MSVCR71.dll
 0002:0000006c       __imp__memcpy              1000606c     MSVCRT:MSVCR71.dll
 0002:00000070       \177MSVCR71_NULL_THUNK_DATA 10006070     MSVCRT:MSVCR71.dll
 0002:00000074       __imp__GetForegroundWindow@0 10006074     user32:USER32.dll
 0002:00000078       __imp__GetDesktopWindow@0  10006078     user32:USER32.dll
 0002:0000007c       \177USER32_NULL_THUNK_DATA 1000607c     user32:USER32.dll
 0002:00000080       __imp__timeGetTime@0       10006080     winmm:WINMM.dll
 0002:00000084       \177WINMM_NULL_THUNK_DATA  10006084     winmm:WINMM.dll
 0002:000000b0       __real@3ff0000000000000    100060b0     DirectAudioDevice.obj
 0002:000000b8       __real@00000000            100060b8     DirectAudioDevice.obj
 0002:000000c0       __real@3f847ae147ae147b    100060c0     DirectAudioDevice.obj
 0002:000000c8       __real@3f800000            100060c8     DirectAudioDevice.obj
 0002:00000268       __load_config_used         10006268     MSVCRT:loadcfg.obj
 0002:00000330       ___safe_se_handler_table   10006330     <linker-defined>
 0002:00000334       ___rtc_iaa                 10006334     MSVCRT:initsect.obj
 0002:00000338       ___rtc_izz                 10006338     MSVCRT:initsect.obj
 0002:0000033c       ___rtc_taa                 1000633c     MSVCRT:initsect.obj
 0002:00000340       ___rtc_tzz                 10006340     MSVCRT:initsect.obj
 0002:00000344       __IMPORT_DESCRIPTOR_WINMM  10006344     winmm:WINMM.dll
 0002:00000358       __IMPORT_DESCRIPTOR_USER32 10006358     user32:USER32.dll
 0002:0000036c       __IMPORT_DESCRIPTOR_DSOUND 1000636c     dsound:DSOUND.dll
 0002:00000380       __IMPORT_DESCRIPTOR_MSVCR71 10006380     MSVCRT:MSVCR71.dll
 0002:00000394       __IMPORT_DESCRIPTOR_KERNEL32 10006394     kernel32:KERNEL32.dll
 0002:000003a8       __NULL_IMPORT_DESCRIPTOR   100063a8     winmm:WINMM.dll
 0003:00000000       ___xc_a                    10007000     MSVCRT:cinitexe.obj
 0003:00000008       ___xc_z                    10007008     MSVCRT:cinitexe.obj
 0003:0000000c       ___xi_a                    1000700c     MSVCRT:cinitexe.obj
 0003:00000010       ___xi_z                    10007010     MSVCRT:cinitexe.obj
 0003:00000300       ___security_cookie         10007300     MSVCRT:seccook.obj
 0003:00000ab4       ?data@DS_StartBufferHelper@@1VData@1@A 10007ab4     PLATFORM_API_WinOS_DirectSound.obj
 0003:00000ae4       __adjust_fdiv              10007ae4     <common>
 0003:00000ae8       __pRawDllMain              10007ae8     <common>
 0003:00000aec       ___onexitend               10007aec     <common>
 0003:00000af0       ___onexitbegin             10007af0     <common>

 entry point at        0001:00004b5e

 Static symbols

 0001:00004d50       _$E1                       10005d50 f   PLATFORM_API_WinOS_DirectSound.obj
 0001:00004d70       _$E2                       10005d70 f   PLATFORM_API_WinOS_DirectSound.obj
