 npt

 Timestamp is 4cfad8b5 (Sat Dec 04 16:11:33 2010)

 Preferred load address is 10000000

 Start         Length     Name                   Class
 0001:00000000 00001804H .text                   CODE
 0002:00000000 00000070H .idata$5                DATA
 0002:00000070 00000098H .rdata                  DATA
 0002:00000108 0000005eH .rdata$debug            DATA
 0002:00000170 00000004H .rdata$sxdata           DATA
 0002:00000174 00000004H .rtc$IAA                DATA
 0002:00000178 00000004H .rtc$IZZ                DATA
 0002:0000017c 00000004H .rtc$TAA                DATA
 0002:00000180 00000004H .rtc$TZZ                DATA
 0002:00000184 00000028H .idata$2                DATA
 0002:000001ac 00000014H .idata$3                DATA
 0002:000001c0 00000070H .idata$4                DATA
 0002:00000230 00000170H .idata$6                DATA
 0002:000003a0 0000005fH .edata                  DATA
 0003:00000000 00000004H .CRT$XCA                DATA
 0003:00000004 00000004H .CRT$XCZ                DATA
 0003:00000008 00000004H .CRT$XIA                DATA
 0003:0000000c 00000004H .CRT$XIZ                DATA
 0003:00000010 00000744H .data                   DATA
 0003:00000754 00000014H .bss                    DATA
 0004:00000000 00000058H .rsrc$01                DATA
 0004:00000060 00000350H .rsrc$02                DATA

  Address         Publics by Value              Rva+Base     Lib:Object

 0000:00000001       ___safe_se_handler_count   00000001     <absolute>
 0001:00000000       _nptInitialize@12          10001000 f   npt.obj
 0001:00000150       _nptTerminate@8            10001150 f   npt.obj
 0001:00000180       _utfError                  10001180 f   utf.obj
 0001:000001b0       _utf8ToUtf16@20            100011b0 f   utf.obj
 0001:00000330       _utf16ToUtf8m@20           10001330 f   utf.obj
 0001:000004f0       _utf16ToUtf8s@20           100014f0 f   utf.obj
 0001:00000500       _utf8sToUtf8mLength@12     10001500 f   utf.obj
 0001:000006b0       _utf8sToUtf8m@20           100016b0 f   utf.obj
 0001:00000970       _utf8mToUtf8sLength@12     10001970 f   utf.obj
 0001:00000b70       _utf8mToUtf8s@20           10001b70 f   utf.obj
 0001:00000e60       _main                      10001e60 f   utf.obj
 0001:00001210       _utfInitialize@4           10002210 f   utf_md.obj
 0001:00001280       _utfTerminate@8            10002280 f   utf_md.obj
 0001:000012a0       _utf8ToPlatform@20         100022a0 f   utf_md.obj
 0001:00001420       _utf8FromPlatform@20       10002420 f   utf_md.obj
 0001:000014d4       _strcmp                    100024d4 f   MSVCRT:MSVCR71.dll
 0001:000014da       _strlen                    100024da f   MSVCRT:MSVCR71.dll
 0001:000014e0       __alloca_probe             100024e0     MSVCRT:chkstk.obj
 0001:000014e0       __chkstk                   100024e0 f   MSVCRT:chkstk.obj
 0001:0000151d       __CRT_INIT@12              1000251d f   MSVCRT:crtdll.obj
 0001:000015db       __DllMainCRTStartup@12     100025db f   MSVCRT:crtdll.obj
 0001:000016c0       __initterm                 100026c0 f   MSVCRT:MSVCR71.dll
 0001:000016c6       __onexit                   100026c6 f   MSVCRT:atonexit.obj
 0001:000016ec       _atexit                    100026ec f   MSVCRT:atonexit.obj
 0001:000016fe       __RTC_Initialize           100026fe f   MSVCRT:initsect.obj
 0001:00001742       __RTC_Terminate            10002742 f   MSVCRT:initsect.obj
 0001:00001786       ___CppXcptFilter           10002786 f   MSVCRT:MSVCR71.dll
 0001:0000178c       _DllMain@12                1000278c f   MSVCRT:dllmain.obj
 0001:000017ac       __SEH_prolog               100027ac f   MSVCRT:sehprolg.obj
 0001:000017e7       __SEH_epilog               100027e7 f   MSVCRT:sehprolg.obj
 0001:000017f8       __except_handler3          100027f8 f   MSVCRT:MSVCR71.dll
 0001:000017fe       ___dllonexit               100027fe f   MSVCRT:MSVCR71.dll
 0002:00000000       __imp__MultiByteToWideChar@24 10003000     kernel32:KERNEL32.dll
 0002:00000004       __imp__WideCharToMultiByte@32 10003004     kernel32:KERNEL32.dll
 0002:00000008       __imp__GetUserDefaultLCID@0 10003008     kernel32:KERNEL32.dll
 0002:0000000c       __imp__GetLocaleInfoA@16   1000300c     kernel32:KERNEL32.dll
 0002:00000010       __imp__GetACP@0            10003010     kernel32:KERNEL32.dll
 0002:00000014       __imp__DisableThreadLibraryCalls@4 10003014     kernel32:KERNEL32.dll
 0002:00000018       \177KERNEL32_NULL_THUNK_DATA 10003018     kernel32:KERNEL32.dll
 0002:0000001c       __imp__strlen              1000301c     MSVCRT:MSVCR71.dll
 0002:00000020       __imp__sprintf             10003020     MSVCRT:MSVCR71.dll
 0002:00000024       __imp__iscntrl             10003024     MSVCRT:MSVCR71.dll
 0002:00000028       __imp__isprint             10003028     MSVCRT:MSVCR71.dll
 0002:0000002c       __imp__atoi                1000302c     MSVCRT:MSVCR71.dll
 0002:00000030       __imp__malloc              10003030     MSVCRT:MSVCR71.dll
 0002:00000034       __imp__abort               10003034     MSVCRT:MSVCR71.dll
 0002:00000038       __imp___adjust_fdiv        10003038     MSVCRT:MSVCR71.dll
 0002:0000003c       __imp____CppXcptFilter     1000303c     MSVCRT:MSVCR71.dll
 0002:00000040       __imp___except_handler3    10003040     MSVCRT:MSVCR71.dll
 0002:00000044       __imp____dllonexit         10003044     MSVCRT:MSVCR71.dll
 0002:00000048       __imp___onexit             10003048     MSVCRT:MSVCR71.dll
 0002:0000004c       __imp__free                1000304c     MSVCRT:MSVCR71.dll
 0002:00000050       __imp__strcmp              10003050     MSVCRT:MSVCR71.dll
 0002:00000054       __imp___iob                10003054     MSVCRT:MSVCR71.dll
 0002:00000058       __imp__fprintf             10003058     MSVCRT:MSVCR71.dll
 0002:0000005c       __imp__exit                1000305c     MSVCRT:MSVCR71.dll
 0002:00000060       __imp___initterm           10003060     MSVCRT:MSVCR71.dll
 0002:00000064       __imp__calloc              10003064     MSVCRT:MSVCR71.dll
 0002:00000068       __imp__strdup              10003068     MSVCRT:MSVCR71.dll
 0002:00000068       __imp___strdup             10003068     MSVCRT:MSVCR71.dll
 0002:0000006c       \177MSVCR71_NULL_THUNK_DATA 1000306c     MSVCRT:MSVCR71.dll
 0002:000000c0       __load_config_used         100030c0     MSVCRT:loadcfg.obj
 0002:00000170       ___safe_se_handler_table   10003170     <linker-defined>
 0002:00000174       ___rtc_iaa                 10003174     MSVCRT:initsect.obj
 0002:00000178       ___rtc_izz                 10003178     MSVCRT:initsect.obj
 0002:0000017c       ___rtc_taa                 1000317c     MSVCRT:initsect.obj
 0002:00000180       ___rtc_tzz                 10003180     MSVCRT:initsect.obj
 0002:00000184       __IMPORT_DESCRIPTOR_MSVCR71 10003184     MSVCRT:MSVCR71.dll
 0002:00000198       __IMPORT_DESCRIPTOR_KERNEL32 10003198     kernel32:KERNEL32.dll
 0002:000001ac       __NULL_IMPORT_DESCRIPTOR   100031ac     MSVCRT:MSVCR71.dll
 0003:00000000       ___xc_a                    10004000     MSVCRT:cinitexe.obj
 0003:00000004       ___xc_z                    10004004     MSVCRT:cinitexe.obj
 0003:00000008       ___xi_a                    10004008     MSVCRT:cinitexe.obj
 0003:0000000c       ___xi_z                    1000400c     MSVCRT:cinitexe.obj
 0003:00000750       ___security_cookie         10004750     MSVCRT:seccook.obj
 0003:00000758       __adjust_fdiv              10004758     <common>
 0003:0000075c       ___onexitend               1000475c     <common>
 0003:00000760       ___onexitbegin             10004760     <common>
 0003:00000764       __pRawDllMain              10004764     <common>

 entry point at        0001:000015db

 Static symbols

 0001:00000120       _version_check             10001120 f   npt.obj
 0001:00000e70       _test                      10001e70 f   utf.obj
 0001:000010d0       _bytesToPrintable          100020d0 f   utf.obj
 0001:00001360       _getWideString             10002360 f   utf_md.obj
