 zip

 Timestamp is 4cfad775 (Sat Dec 04 16:06:13 2010)

 Preferred load address is 10000000

 Start         Length     Name                   Class
 0001:00000000 0000d368H .text                   CODE
 0002:00000000 000000d0H .idata$5                DATA
 0002:000000d0 00001200H .rdata                  DATA
 0002:000012d0 0000006cH .rdata$debug            DATA
 0002:00001340 00000004H .rdata$sxdata           DATA
 0002:00001344 00000004H .rtc$IAA                DATA
 0002:00001348 00000004H .rtc$IZZ                DATA
 0002:0000134c 00000004H .rtc$TAA                DATA
 0002:00001350 00000004H .rtc$TZZ                DATA
 0002:00001354 00000050H .idata$2                DATA
 0002:000013a4 00000014H .idata$3                DATA
 0002:000013b8 000000d0H .idata$4                DATA
 0002:00001488 00000372H .idata$6                DATA
 0002:00001800 00000816H .edata                  DATA
 0003:00000000 00000004H .CRT$XCA                DATA
 0003:00000004 00000004H .CRT$XCZ                DATA
 0003:00000008 00000004H .CRT$XIA                DATA
 0003:0000000c 00000004H .CRT$XIZ                DATA
 0003:00000010 00002164H .data                   DATA
 0003:00002178 00000288H .bss                    DATA
 0004:00000000 00000058H .rsrc$01                DATA
 0004:00000060 00000350H .rsrc$02                DATA

  Address         Publics by Value              Rva+Base     Lib:Object

 0000:00000001       ___safe_se_handler_count   00000001     <absolute>
 0001:00000000       _Java_java_util_zip_CRC32_update@16 10001000 f   CRC32.obj
 0001:00000030       _Java_java_util_zip_CRC32_updateBytes@24 10001030 f   CRC32.obj
 0001:00000090       _ZIP_CRC32                 10001090 f   CRC32.obj
 0001:000000b0       _Java_java_util_zip_Adler32_update@16 100010b0 f   Adler32.obj
 0001:000000e0       _Java_java_util_zip_Adler32_updateBytes@24 100010e0 f   Adler32.obj
 0001:00000140       _Java_java_util_zip_Deflater_initIDs@8 10001140 f   Deflater.obj
 0001:00000260       _Java_java_util_zip_Deflater_init@20 10001260 f   Deflater.obj
 0001:00000350       _Java_java_util_zip_Deflater_setDictionary@28 10001350 f   Deflater.obj
 0001:000003f0       _Java_java_util_zip_Deflater_deflateBytes@28 100013f0 f   Deflater.obj
 0001:00000850       _Java_java_util_zip_Deflater_getAdler@16 10001850 f   Deflater.obj
 0001:00000860       _Java_java_util_zip_Deflater_getBytesRead@16 10001860 f   Deflater.obj
 0001:00000870       _Java_java_util_zip_Deflater_getBytesWritten@16 10001870 f   Deflater.obj
 0001:00000880       _Java_java_util_zip_Deflater_reset@16 10001880 f   Deflater.obj
 0001:000008b0       _Java_java_util_zip_Deflater_end@16 100018b0 f   Deflater.obj
 0001:000008f0       _Java_java_util_zip_Inflater_initIDs@8 100018f0 f   Inflater.obj
 0001:000009b0       _Java_java_util_zip_Inflater_init@12 100019b0 f   Inflater.obj
 0001:00000a70       _Java_java_util_zip_Inflater_setDictionary@28 10001a70 f   Inflater.obj
 0001:00000b10       _Java_java_util_zip_Inflater_inflateBytes@28 10001b10 f   Inflater.obj
 0001:00000de0       _Java_java_util_zip_Inflater_getAdler@16 10001de0 f   Inflater.obj
 0001:00000df0       _Java_java_util_zip_Inflater_getBytesRead@16 10001df0 f   Inflater.obj
 0001:00000e00       _Java_java_util_zip_Inflater_getBytesWritten@16 10001e00 f   Inflater.obj
 0001:00000e10       _Java_java_util_zip_Inflater_reset@16 10001e10 f   Inflater.obj
 0001:00000e40       _Java_java_util_zip_Inflater_end@16 10001e40 f   Inflater.obj
 0001:00000e80       _Java_java_util_zip_ZipFile_initIDs@8 10001e80 f   ZipFile.obj
 0001:00000ed0       _Java_java_util_zip_ZipFile_open@24 10001ed0 f   ZipFile.obj
 0001:000010a0       _Java_java_util_zip_ZipFile_getTotal@16 100020a0 f   ZipFile.obj
 0001:000010c0       _Java_java_util_zip_ZipFile_close@16 100020c0 f   ZipFile.obj
 0001:000010d0       _Java_java_util_zip_ZipFile_getEntry@24 100020d0 f   ZipFile.obj
 0001:000011f0       _Java_java_util_zip_ZipFile_freeEntry@24 100021f0 f   ZipFile.obj
 0001:00001220       _Java_java_util_zip_ZipFile_getNextEntry@20 10002220 f   ZipFile.obj
 0001:00001240       _Java_java_util_zip_ZipFile_getMethod@16 10002240 f   ZipFile.obj
 0001:00001280       _Java_java_util_zip_ZipFile_getCSize@16 10002280 f   ZipFile.obj
 0001:000012d0       _Java_java_util_zip_ZipFile_getSize@16 100022d0 f   ZipFile.obj
 0001:000012f0       _Java_java_util_zip_ZipFile_read@44 100022f0 f   ZipFile.obj
 0001:000013f0       _Java_java_util_jar_JarFile_getMetaInfEntryNames@8 100023f0 f   ZipFile.obj
 0001:00001550       _Java_java_util_zip_ZipFile_getZipMessage@16 10002550 f   ZipFile.obj
 0001:00001590       _Java_java_util_zip_ZipEntry_initIDs@8 10002590 f   ZipEntry.obj
 0001:000016b0       _Java_java_util_zip_ZipEntry_initFields@16 100026b0 f   ZipEntry.obj
 0001:00001910       _adler32                   10002910 f   zadler32.obj
 0001:00001b50       _get_crc_table             10002b50 f   zcrc32.obj
 0001:00001b60       _crc32                     10002b60 f   zcrc32.obj
 0001:00001d10       _deflateInit_              10002d10 f   deflate.obj
 0001:00001d40       _deflateInit2_             10002d40 f   deflate.obj
 0001:00002030       _deflateSetDictionary      10003030 f   deflate.obj
 0001:000021d0       _deflateReset              100031d0 f   deflate.obj
 0001:000022b0       _deflateParams             100032b0 f   deflate.obj
 0001:000023d0       _deflate                   100033d0 f   deflate.obj
 0001:00002890       _deflateEnd                10003890 f   deflate.obj
 0001:000029b0       _deflateCopy               100039b0 f   deflate.obj
 0001:00004200       __tr_init                  10005200 f   trees.obj
 0001:00004390       __tr_stored_block          10005390 f   trees.obj
 0001:00004560       __tr_align                 10005560 f   trees.obj
 0001:00004680       __tr_flush_block           10005680 f   trees.obj
 0001:00005b20       __tr_tally                 10006b20 f   trees.obj
 0001:00006370       _zlibVersion               10007370 f   zutil.obj
 0001:00006380       _z_error                   10007380 f   zutil.obj
 0001:000063b0       _zError                    100073b0 f   zutil.obj
 0001:000063d0       _zcalloc                   100073d0 f   zutil.obj
 0001:00006400       _zcfree                    10007400 f   zutil.obj
 0001:00006420       _inflateReset              10007420 f   inflate.obj
 0001:000064b0       _inflateEnd                100074b0 f   inflate.obj
 0001:00006540       _inflateInit2_             10007540 f   inflate.obj
 0001:000066d0       _inflateInit_              100076d0 f   inflate.obj
 0001:000066f0       _inflate                   100076f0 f   inflate.obj
 0001:00006e00       _inflateSetDictionary      10007e00 f   inflate.obj
 0001:00006ec0       _inflateSync               10007ec0 f   inflate.obj
 0001:00007010       _inflateSyncPoint          10008010 f   inflate.obj
 0001:00007050       _inflate_blocks_reset      10008050 f   infblock.obj
 0001:00007130       _inflate_blocks_new        10008130 f   infblock.obj
 0001:00007250       _inflate_blocks            10008250 f   infblock.obj
 0001:000087c0       _inflate_blocks_free       100097c0 f   infblock.obj
 0001:00008840       _inflate_set_dictionary    10009840 f   infblock.obj
 0001:00008880       _inflate_blocks_sync_point 10009880 f   infblock.obj
 0001:000088a0       _inflate_trees_bits        100098a0 f   inftrees.obj
 0001:00009170       _inflate_trees_dynamic     1000a170 f   inftrees.obj
 0001:00009300       _inflate_trees_fixed       1000a300 f   inftrees.obj
 0001:00009330       _inflate_codes_new         1000a330 f   infcodes.obj
 0001:000093b0       _inflate_codes             1000a3b0 f   infcodes.obj
 0001:0000a1a0       _inflate_codes_free        1000b1a0 f   infcodes.obj
 0001:0000a1e0       _inflate_flush             1000b1e0 f   infutil.obj
 0001:0000a3c0       _inflate_fast              1000b3c0 f   inffast.obj
 0001:0000ab70       _ZIP_Open_Generic          1000bb70 f   zip_util.obj
 0001:0000acd0       _ZIP_Get_From_Cache        1000bcd0 f   zip_util.obj
 0001:0000ae70       _ZIP_Put_In_Cache          1000be70 f   zip_util.obj
 0001:0000bdd0       _ZIP_Open@8                1000cdd0 f   zip_util.obj
 0001:0000bdf0       _ZIP_Close@4               1000cdf0 f   zip_util.obj
 0001:0000bea0       _ZIP_FreeEntry             1000cea0 f   zip_util.obj
 0001:0000bf30       _ZIP_GetEntry              1000cf30 f   zip_util.obj
 0001:0000c770       _ZIP_GetNextEntry@8        1000d770 f   zip_util.obj
 0001:0000c7d0       _ZIP_Lock                  1000d7d0 f   zip_util.obj
 0001:0000c7f0       _ZIP_Unlock                1000d7f0 f   zip_util.obj
 0001:0000c810       _ZIP_GetEntryDataOffset    1000d810 f   zip_util.obj
 0001:0000c910       _ZIP_Read                  1000d910 f   zip_util.obj
 0001:0000cab0       _InflateFully              1000dab0 f   zip_util.obj
 0001:0000cd30       _ZIP_FindEntry@16          1000dd30 f   zip_util.obj
 0001:0000cd80       _ZIP_ReadEntry@16          1000dd80 f   zip_util.obj
 0001:0000cf90       _ZIP_AdjustFD              1000df90 f   zip_util.obj
 0001:0000cfa4       _JNU_ThrowInternalError@8  1000dfa4 f   java:java.dll
 0001:0000cfaa       _JNU_ThrowIllegalArgumentException@8 1000dfaa f   java:java.dll
 0001:0000cfb0       _JNU_ThrowOutOfMemoryError@8 1000dfb0 f   java:java.dll
 0001:0000cfb6       _JNU_ThrowByName@12        1000dfb6 f   java:java.dll
 0001:0000cfbc       _JNU_ReleaseStringPlatformChars@12 1000dfbc f   java:java.dll
 0001:0000cfc2       _winFileHandleOpen         1000dfc2 f   java:java.dll
 0001:0000cfc8       _JNU_GetStringPlatformChars@12 1000dfc8 f   java:java.dll
 0001:0000cfce       _JNU_NewObjectByName       1000dfce f   java:java.dll
 0001:0000cfd4       _JNU_NewStringPlatform@8   1000dfd4 f   java:java.dll
 0001:0000cfda       _JNU_ThrowIOExceptionWithLastError@8 1000dfda f   java:java.dll
 0001:0000cfe0       _handleLseek               1000dfe0 f   java:java.dll
 0001:0000cfe6       _handleRead                1000dfe6 f   java:java.dll
 0001:0000cfec       _jio_fprintf               1000dfec f   java:java.dll
 0001:0000cff2       _JVM_RawMonitorExit@4      1000dff2 f   jvm:jvm.dll
 0001:0000cff8       _JVM_RawMonitorEnter@4     1000dff8 f   jvm:jvm.dll
 0001:0000cffe       _JVM_NativePath@4          1000dffe f   jvm:jvm.dll
 0001:0000d004       _JVM_RawMonitorCreate@0    1000e004 f   jvm:jvm.dll
 0001:0000d00a       _JVM_GetLastErrorString@8  1000e00a f   jvm:jvm.dll
 0001:0000d010       _JVM_RawMonitorDestroy@4   1000e010 f   jvm:jvm.dll
 0001:0000d020       __alloca_probe             1000e020     MSVCRT:chkstk.obj
 0001:0000d020       __chkstk                   1000e020 f   MSVCRT:chkstk.obj
 0001:0000d05e       _memcpy                    1000e05e f   MSVCRT:MSVCR71.dll
 0001:0000d064       _memset                    1000e064 f   MSVCRT:MSVCR71.dll
 0001:0000d06a       _memcmp                    1000e06a f   MSVCRT:MSVCR71.dll
 0001:0000d070       _strcmp                    1000e070 f   MSVCRT:MSVCR71.dll
 0001:0000d076       _strcpy                    1000e076 f   MSVCRT:MSVCR71.dll
 0001:0000d07c       _strlen                    1000e07c f   MSVCRT:MSVCR71.dll
 0001:0000d082       __CRT_INIT@12              1000e082 f   MSVCRT:crtdll.obj
 0001:0000d140       __DllMainCRTStartup@12     1000e140 f   MSVCRT:crtdll.obj
 0001:0000d224       __initterm                 1000e224 f   MSVCRT:MSVCR71.dll
 0001:0000d22a       __onexit                   1000e22a f   MSVCRT:atonexit.obj
 0001:0000d250       _atexit                    1000e250 f   MSVCRT:atonexit.obj
 0001:0000d262       __RTC_Initialize           1000e262 f   MSVCRT:initsect.obj
 0001:0000d2a6       __RTC_Terminate            1000e2a6 f   MSVCRT:initsect.obj
 0001:0000d2ea       ___CppXcptFilter           1000e2ea f   MSVCRT:MSVCR71.dll
 0001:0000d2f0       _DllMain@12                1000e2f0 f   MSVCRT:dllmain.obj
 0001:0000d310       __SEH_prolog               1000e310 f   MSVCRT:sehprolg.obj
 0001:0000d34b       __SEH_epilog               1000e34b f   MSVCRT:sehprolg.obj
 0001:0000d35c       __except_handler3          1000e35c f   MSVCRT:MSVCR71.dll
 0001:0000d362       ___dllonexit               1000e362 f   MSVCRT:MSVCR71.dll
 0002:00000000       __imp__DisableThreadLibraryCalls@4 1000f000     kernel32:KERNEL32.dll
 0002:00000004       __imp__CloseHandle@4       1000f004     kernel32:KERNEL32.dll
 0002:00000008       __imp__CreateFileA@28      1000f008     kernel32:KERNEL32.dll
 0002:0000000c       \177KERNEL32_NULL_THUNK_DATA 1000f00c     kernel32:KERNEL32.dll
 0002:00000010       __imp__sprintf             1000f010     MSVCRT:MSVCR71.dll
 0002:00000014       __imp___onexit             1000f014     MSVCRT:MSVCR71.dll
 0002:00000018       __imp____dllonexit         1000f018     MSVCRT:MSVCR71.dll
 0002:0000001c       __imp___except_handler3    1000f01c     MSVCRT:MSVCR71.dll
 0002:00000020       __imp____CppXcptFilter     1000f020     MSVCRT:MSVCR71.dll
 0002:00000024       __imp___adjust_fdiv        1000f024     MSVCRT:MSVCR71.dll
 0002:00000028       __imp___initterm           1000f028     MSVCRT:MSVCR71.dll
 0002:0000002c       __imp__strerror            1000f02c     MSVCRT:MSVCR71.dll
 0002:00000030       __imp__realloc             1000f030     MSVCRT:MSVCR71.dll
 0002:00000034       __imp__strlen              1000f034     MSVCRT:MSVCR71.dll
 0002:00000038       __imp__strcpy              1000f038     MSVCRT:MSVCR71.dll
 0002:0000003c       __imp__strcmp              1000f03c     MSVCRT:MSVCR71.dll
 0002:00000040       __imp__exit                1000f040     MSVCRT:MSVCR71.dll
 0002:00000044       __imp__isgraph             1000f044     MSVCRT:MSVCR71.dll
 0002:00000048       __imp__memcmp              1000f048     MSVCRT:MSVCR71.dll
 0002:0000004c       __imp__putc                1000f04c     MSVCRT:MSVCR71.dll
 0002:00000050       __imp__free                1000f050     MSVCRT:MSVCR71.dll
 0002:00000054       __imp__calloc              1000f054     MSVCRT:MSVCR71.dll
 0002:00000058       __imp__malloc              1000f058     MSVCRT:MSVCR71.dll
 0002:0000005c       __imp___assert             1000f05c     MSVCRT:MSVCR71.dll
 0002:00000060       __imp___errno              1000f060     MSVCRT:MSVCR71.dll
 0002:00000064       __imp__strdup              1000f064     MSVCRT:MSVCR71.dll
 0002:00000064       __imp___strdup             1000f064     MSVCRT:MSVCR71.dll
 0002:00000068       __imp__memcpy              1000f068     MSVCRT:MSVCR71.dll
 0002:0000006c       __imp__memset              1000f06c     MSVCRT:MSVCR71.dll
 0002:00000070       __imp__fprintf             1000f070     MSVCRT:MSVCR71.dll
 0002:00000074       __imp___iob                1000f074     MSVCRT:MSVCR71.dll
 0002:00000078       \177MSVCR71_NULL_THUNK_DATA 1000f078     MSVCRT:MSVCR71.dll
 0002:0000007c       __imp__handleLseek         1000f07c     java:java.dll
 0002:00000080       __imp__JNU_ThrowIllegalArgumentException@8 1000f080     java:java.dll
 0002:00000084       __imp__JNU_ThrowOutOfMemoryError@8 1000f084     java:java.dll
 0002:00000088       __imp__JNU_ThrowByName@12  1000f088     java:java.dll
 0002:0000008c       __imp__JNU_ReleaseStringPlatformChars@12 1000f08c     java:java.dll
 0002:00000090       __imp__winFileHandleOpen   1000f090     java:java.dll
 0002:00000094       __imp__JNU_GetStringPlatformChars@12 1000f094     java:java.dll
 0002:00000098       __imp__jio_fprintf         1000f098     java:java.dll
 0002:0000009c       __imp__handleRead          1000f09c     java:java.dll
 0002:000000a0       __imp__JNU_ThrowInternalError@8 1000f0a0     java:java.dll
 0002:000000a4       __imp__JNU_ThrowIOExceptionWithLastError@8 1000f0a4     java:java.dll
 0002:000000a8       __imp__JNU_NewStringPlatform@8 1000f0a8     java:java.dll
 0002:000000ac       __imp__JNU_NewObjectByName 1000f0ac     java:java.dll
 0002:000000b0       \177java_NULL_THUNK_DATA   1000f0b0     java:java.dll
 0002:000000b4       __imp__JVM_RawMonitorEnter@4 1000f0b4     jvm:jvm.dll
 0002:000000b8       __imp__JVM_NativePath@4    1000f0b8     jvm:jvm.dll
 0002:000000bc       __imp__JVM_RawMonitorCreate@0 1000f0bc     jvm:jvm.dll
 0002:000000c0       __imp__JVM_GetLastErrorString@8 1000f0c0     jvm:jvm.dll
 0002:000000c4       __imp__JVM_RawMonitorDestroy@4 1000f0c4     jvm:jvm.dll
 0002:000000c8       __imp__JVM_RawMonitorExit@4 1000f0c8     jvm:jvm.dll
 0002:000000cc       \177jvm_NULL_THUNK_DATA    1000f0cc     jvm:jvm.dll
 0002:000004f0       _deflate_copyright         1000f4f0     deflate.obj
 0002:00000be8       __dist_code                1000fbe8     trees.obj
 0002:00000de8       __length_code              1000fde8     trees.obj
 0002:00001030       _inflate_copyright         10010030     inftrees.obj
 0002:00001288       __load_config_used         10010288     MSVCRT:loadcfg.obj
 0002:00001340       ___safe_se_handler_table   10010340     <linker-defined>
 0002:00001344       ___rtc_iaa                 10010344     MSVCRT:initsect.obj
 0002:00001348       ___rtc_izz                 10010348     MSVCRT:initsect.obj
 0002:0000134c       ___rtc_taa                 1001034c     MSVCRT:initsect.obj
 0002:00001350       ___rtc_tzz                 10010350     MSVCRT:initsect.obj
 0002:00001354       __IMPORT_DESCRIPTOR_java   10010354     java:java.dll
 0002:00001368       __IMPORT_DESCRIPTOR_jvm    10010368     jvm:jvm.dll
 0002:0000137c       __IMPORT_DESCRIPTOR_MSVCR71 1001037c     MSVCRT:MSVCR71.dll
 0002:00001390       __IMPORT_DESCRIPTOR_KERNEL32 10010390     kernel32:KERNEL32.dll
 0002:000013a4       __NULL_IMPORT_DESCRIPTOR   100103a4     java:java.dll
 0003:00000000       ___xc_a                    10012000     MSVCRT:cinitexe.obj
 0003:00000004       ___xc_z                    10012004     MSVCRT:cinitexe.obj
 0003:00000008       ___xi_a                    10012008     MSVCRT:cinitexe.obj
 0003:0000000c       ___xi_z                    1001200c     MSVCRT:cinitexe.obj
 0003:00000700       _z_errmsg                  10012700     zutil.obj
 0003:00001d68       _inflate_mask              10013d68     infutil.obj
 0003:00002170       ___security_cookie         10014170     MSVCRT:seccook.obj
 0003:000021d4       _z_verbose                 100141d4     zutil.obj
 0003:000023f0       __adjust_fdiv              100143f0     <common>
 0003:000023f4       ___onexitend               100143f4     <common>
 0003:000023f8       ___onexitbegin             100143f8     <common>
 0003:000023fc       __pRawDllMain              100143fc     <common>

 entry point at        0001:0000d140

 Static symbols

 0001:00001040       _ThrowZipException         10002040 f   ZipFile.obj
 0001:00002770       _putShortMSB               10003770 f   deflate.obj
 0001:000027c0       _flush_pending             100037c0 f   deflate.obj
 0001:00002c00       _lm_init                   10003c00 f   deflate.obj
 0001:00002cf0       _deflate_stored            10003cf0 f   deflate.obj
 0001:00002fe0       _fill_window               10003fe0 f   deflate.obj
 0001:00003220       _read_buf                  10004220 f   deflate.obj
 0001:000032c0       _deflate_fast              100042c0 f   deflate.obj
 0001:00003730       _longest_match             10004730 f   deflate.obj
 0001:00003ae0       _check_match               10004ae0 f   deflate.obj
 0001:00003c10       _deflate_slow              10004c10 f   deflate.obj
 0001:000042b0       _tr_static_init            100052b0 f   trees.obj
 0001:000042c0       _init_block                100052c0 f   trees.obj
 0001:000043f0       _send_bits                 100053f0 f   trees.obj
 0001:000049a0       _build_tree                100059a0 f   trees.obj
 0001:00004d40       _pqdownheap                10005d40 f   trees.obj
 0001:00004ed0       _gen_bitlen                10005ed0 f   trees.obj
 0001:00005240       _gen_codes                 10006240 f   trees.obj
 0001:000053c0       _build_bl_tree             100063c0 f   trees.obj
 0001:000054b0       _scan_tree                 100064b0 f   trees.obj
 0001:00005650       _send_all_trees            10006650 f   trees.obj
 0001:00005830       _send_tree                 10006830 f   trees.obj
 0001:00005cb0       _compress_block            10006cb0 f   trees.obj
 0001:00005f80       _set_data_type             10006f80 f   trees.obj
 0001:00006030       _bi_reverse                10007030 f   trees.obj
 0001:00006070       _bi_flush                  10007070 f   trees.obj
 0001:00006160       _bi_windup                 10007160 f   trees.obj
 0001:00006230       _copy_block                10007230 f   trees.obj
 0001:00008950       _huft_build                10009950 f   inftrees.obj
 0001:0000ac00       _ZFILE_Open                1000bc00 f   zip_util.obj
 0001:0000ae20       _InitializeZip             1000be20 f   zip_util.obj
 0001:0000aff0       _ZFILE_Close               1000bff0 f   zip_util.obj
 0001:0000b000       _allocZip                  1000c000 f   zip_util.obj
 0001:0000b090       _freeZip                   1000c090 f   zip_util.obj
 0001:0000b120       _freeCEN                   1000c120 f   zip_util.obj
 0001:0000b170       _freeMetaNames             1000c170 f   zip_util.obj
 0001:0000b1d0       _readCEN                   1000c1d0 f   zip_util.obj
 0001:0000b6a0       _readFullyAt               1000c6a0 f   zip_util.obj
 0001:0000b700       _readFully                 1000c700 f   zip_util.obj
 0001:0000b7c0       _ZFILE_read                1000c7c0 f   zip_util.obj
 0001:0000b7e0       _findEND                   1000c7e0 f   zip_util.obj
 0001:0000baf0       _hashN                     1000caf0 f   zip_util.obj
 0001:0000bb30       _isMetaName                1000cb30 f   zip_util.obj
 0001:0000bbb0       _addMetaName               1000cbb0 f   zip_util.obj
 0001:0000bcc0       _growMetaNames             1000ccc0 f   zip_util.obj
 0001:0000bd40       _countCENHeaders           1000cd40 f   zip_util.obj
 0001:0000c0e0       _hash                      1000d0e0 f   zip_util.obj
 0001:0000c120       _hash_append               1000d120 f   zip_util.obj
 0001:0000c140       _newEntry                  1000d140 f   zip_util.obj
 0001:0000c4b0       _readCENHeader             1000d4b0 f   zip_util.obj
 0001:0000c600       _sequentialAccessReadCENHeader 1000d600 f   zip_util.obj
